ffffff8040000000 T _start
ffffff8040000040 t _ZN44_$LT$$RF$T$u20$as$u20$core..fmt..Display$GT$3fmt17h86a84429b52fd7b2E
ffffff8040000054 t _ZN44_$LT$$RF$T$u20$as$u20$core..fmt..Display$GT$3fmt17hfbedf97bb35d04a9E
ffffff8040000068 t _ZN4core3fmt5Write10write_char17hfed0013072b2f5a8E
ffffff8040000148 t _ZN4core3fmt5Write9write_fmt17h2254975aa7645e0dE
ffffff8040000158 t _ZN5alloc7raw_vec11finish_grow17h421f99552cee01c6E
ffffff8040000200 t _ZN5alloc7raw_vec20RawVecInner$LT$A$GT$7reserve21do_reserve_and_handle17h408fb09d7bfcb48dE
ffffff80400002ec t _ZN75_$LT$$RF$mut$u20$W$u20$as$u20$core..fmt..Write..write_fmt..SpecWriteFmt$GT$14spec_write_fmt17h39a59d474ef252bdE
ffffff80400002fc t _ZN81_$LT$core..str..pattern..CharSearcher$u20$as$u20$core..str..pattern..Searcher$GT$10next_match17h0e9cdfb66dd8f392E
ffffff804000056c t _ZN91_$LT$core..str..iter..SplitWhitespace$u20$as$u20$core..iter..traits..iterator..Iterator$GT$4next17h00ac22506810695eE
ffffff8040000714 t _ZN91_$LT$cohesix_root..allocator..BumpAllocator$u20$as$u20$core..alloc..global..GlobalAlloc$GT$5alloc17h9c2858249d9636e8E
ffffff80400012b4 t _RNvCs9km79j5joxb_7___rustc17rust_begin_unwind
ffffff8040001324 t rust_eh_personality
ffffff8040001328 T seL4_DebugPutChar
ffffff8040001334 T seL4_Send
ffffff8040001348 T seL4_Recv
ffffff804000135c T seL4_Yield
ffffff8040001368 T coh_open
ffffff804000166c T coh_read
ffffff80400016f8 T coh_close
ffffff8040001724 T coh_write
ffffff804000172c T coh_exec
ffffff804000183c T coh_getenv
ffffff8040001844 T coh_setenv
ffffff804000184c T coh_bind
ffffff8040001854 t memcpy
ffffff8040001858 t memmove
ffffff804000185c t memset
ffffff8040001860 t memcmp
ffffff8040001888 t strlen
ffffff80400018b4 t _ZN60_$LT$cohesix_root..CohLogger$u20$as$u20$core..fmt..Write$GT$9write_str17h08855ac3cc1ad9adE
ffffff80400018e0 t _ZN12cohesix_root7put_hex17h6ad4ffbd07025149E
ffffff80400019c8 T boot_log_hex
ffffff8040001ab0 t _ZN12cohesix_root14check_heap_ptr17hc610415cd53a1e6cE
ffffff8040001f74 t _ZN12cohesix_root7env_var17hc0cb9c1f4f9867beE
ffffff80400020a4 t _ZN12cohesix_root9exec_init17h435ee75e949550b0E
ffffff80400021d4 T main
ffffff80400052c4 t _RNvCs9km79j5joxb_7___rustc12___rust_alloc
ffffff80400052d4 t _RNvCs9km79j5joxb_7___rustc14___rust_dealloc
ffffff80400052d8 t _RNvCs9km79j5joxb_7___rustc14___rust_realloc
ffffff8040005320 t _RNvCs9km79j5joxb_7___rustc19___rust_alloc_zeroed
ffffff8040005350 t _ZN12cohesix_root10lang_items11alloc_error17h6e426aa893882013E
ffffff80400053d8 t _RNvCs9km79j5joxb_7___rustc8___rg_oom
ffffff80400053dc T _RNvCs9km79j5joxb_7___rustc26___rust_alloc_error_handler
ffffff80400053e0 T _RNvCs9km79j5joxb_7___rustc42___rust_alloc_error_handler_should_panic_v2
ffffff80400053e8 T _RNvCs9km79j5joxb_7___rustc35___rust_no_alloc_shim_is_unstable_v2
ffffff80400053ec t _ZN42_$LT$$RF$T$u20$as$u20$core..fmt..Debug$GT$3fmt17h0ed5feaf7f101f3bE
ffffff8040005400 t _ZN42_$LT$$RF$T$u20$as$u20$core..fmt..Debug$GT$3fmt17h6d31358f6c1cd1d0E
ffffff804000541c t _ZN42_$LT$$RF$T$u20$as$u20$core..fmt..Debug$GT$3fmt17hc20a5deab140d722E
ffffff804000546c t _ZN4core3fmt5Write9write_fmt17hc324c3021a4a2681E
ffffff804000547c t _ZN4core3ptr238drop_in_place$LT$alloc..boxed..convert..$LT$impl$u20$core..convert..From$LT$alloc..string..String$GT$$u20$for$u20$alloc..boxed..Box$LT$dyn$u20$core..error..Error$u2b$core..marker..Sync$u2b$core..marker..Send$GT$$GT$..from..StringError$GT$17h3aa93596122c9862E
ffffff8040005494 t _ZN4core3ptr42drop_in_place$LT$alloc..string..String$GT$17h04b52bb1e179aca3E
ffffff80400054ac t _ZN4core5error5Error5cause17he8c487c045d79de9E
ffffff80400054b4 t _ZN4core5error5Error7provide17h4535080ee2b78722E
ffffff80400054b8 t _ZN4core5error5Error7type_id17hdf4d1b002cfd0902E
ffffff80400054dc T _ZN4core9panicking13assert_failed17h455330f0823e858cE
ffffff8040005500 t _ZN53_$LT$core..fmt..Error$u20$as$u20$core..fmt..Debug$GT$3fmt17h722995455edb6b30E
ffffff8040005514 t _ZN69_$LT$core..alloc..layout..LayoutError$u20$as$u20$core..fmt..Debug$GT$3fmt17h0c39302c553c7689E
ffffff8040005528 t _ZN5alloc7raw_vec17capacity_overflow17h996e6dafd3d1cd97E
ffffff8040005550 T _ZN5alloc7raw_vec19RawVec$LT$T$C$A$GT$8grow_one17h9cb80bf89324ff65E
ffffff80400055e4 t _ZN5alloc7raw_vec20RawVecInner$LT$A$GT$7reserve21do_reserve_and_handle17hc4d9bbf1218b3096E
ffffff8040005690 t _ZN5alloc7raw_vec11finish_grow17ha1c8236935afcd79E
ffffff8040005704 T _ZN5alloc7raw_vec12handle_error17hf752f66fa3a4fb96E
ffffff8040005714 T _ZN5alloc5alloc18handle_alloc_error17h01633fea9ea514eeE
ffffff8040005724 T _ZN5alloc5alloc18handle_alloc_error8ct_error17h92c56cde5bea0e2eE
ffffff8040005750 T _RNvCs9km79j5joxb_7___rustc9___rdl_oom
ffffff80400057dc T _ZN92_$LT$alloc..borrow..Cow$LT$str$GT$$u20$as$u20$core..ops..arith..AddAssign$LT$$RF$str$GT$$GT$10add_assign17hfde95f4e4588221eE
ffffff80400059c4 T _ZN77_$LT$alloc..borrow..Cow$LT$str$GT$$u20$as$u20$core..ops..arith..AddAssign$GT$10add_assign17hbf35094c4b262cfeE
ffffff8040005bf0 T _ZN256_$LT$alloc..boxed..convert..$LT$impl$u20$core..convert..From$LT$alloc..string..String$GT$$u20$for$u20$alloc..boxed..Box$LT$dyn$u20$core..error..Error$u2b$core..marker..Sync$u2b$core..marker..Send$GT$$GT$..from..StringError$u20$as$u20$core..error..Error$GT$11description17ha1ecdf4a867f85e5E
ffffff8040005bfc T _ZN256_$LT$alloc..boxed..convert..$LT$impl$u20$core..convert..From$LT$alloc..string..String$GT$$u20$for$u20$alloc..boxed..Box$LT$dyn$u20$core..error..Error$u2b$core..marker..Sync$u2b$core..marker..Send$GT$$GT$..from..StringError$u20$as$u20$core..fmt..Display$GT$3fmt17h58b995ea32f55942E
ffffff8040005c10 T _ZN254_$LT$alloc..boxed..convert..$LT$impl$u20$core..convert..From$LT$alloc..string..String$GT$$u20$for$u20$alloc..boxed..Box$LT$dyn$u20$core..error..Error$u2b$core..marker..Sync$u2b$core..marker..Send$GT$$GT$..from..StringError$u20$as$u20$core..fmt..Debug$GT$3fmt17he829149ca1e2fbc2E
ffffff8040005c24 T _ZN5alloc5boxed7convert130_$LT$impl$u20$core..convert..From$LT$alloc..string..String$GT$$u20$for$u20$alloc..boxed..Box$LT$dyn$u20$core..error..Error$GT$$GT$4from17h23294815152f85d5E
ffffff8040005c6c T _ZN5alloc5boxed7convert116_$LT$impl$u20$core..convert..From$LT$$RF$str$GT$$u20$for$u20$alloc..boxed..Box$LT$dyn$u20$core..error..Error$GT$$GT$4from17h867c3c3e2d5ed7f8E
ffffff8040005d14 T _ZN5alloc5boxed7convert138_$LT$impl$u20$core..convert..From$LT$alloc..borrow..Cow$LT$str$GT$$GT$$u20$for$u20$alloc..boxed..Box$LT$dyn$u20$core..error..Error$GT$$GT$4from17h3e9b8a730b44a06aE
ffffff8040005d14 T _ZN5alloc5boxed7convert184_$LT$impl$u20$core..convert..From$LT$alloc..borrow..Cow$LT$str$GT$$GT$$u20$for$u20$alloc..boxed..Box$LT$dyn$u20$core..error..Error$u2b$core..marker..Sync$u2b$core..marker..Send$GT$$GT$4from17h7427cb11aebbea76E
ffffff8040005dd0 T _ZN67_$LT$alloc..boxed..Box$LT$str$GT$$u20$as$u20$core..clone..Clone$GT$5clone17h23eb7b61bc3a53d1E
ffffff8040005e44 T _ZN88_$LT$alloc..collections..btree..map..UnorderedKeyError$u20$as$u20$core..fmt..Display$GT$3fmt17h4ee225c510a028feE
ffffff8040005e60 T _ZN93_$LT$alloc..collections..btree..mem..replace..PanicGuard$u20$as$u20$core..ops..drop..Drop$GT$4drop17ha864d32474c31ee3E
ffffff8040005e64 T _ZN74_$LT$alloc..collections..TryReserveError$u20$as$u20$core..fmt..Display$GT$3fmt17hba125e56434fb85aE
ffffff8040005ed4 T _ZN5alloc3ffi5c_str19FromVecWithNulError8as_bytes17hde3ef53cfb7c7319E
ffffff8040005ee0 T _ZN72_$LT$$RF$str$u20$as$u20$alloc..ffi..c_str..CString..new..SpecNewImpl$GT$13spec_new_impl17hbd4245e68b3db18cE
ffffff8040005ee0 T _ZN81_$LT$$RF$$u5b$u8$u5d$$u20$as$u20$alloc..ffi..c_str..CString..new..SpecNewImpl$GT$13spec_new_impl17h988d0de90da5b3e5E
ffffff8040005fe8 T _ZN89_$LT$$RF$mut$u20$$u5b$u8$u5d$$u20$as$u20$alloc..ffi..c_str..CString..new..SpecNewImpl$GT$13spec_new_impl17hd0178072cf683190E
ffffff80400060f0 T _ZN5alloc3ffi5c_str7CString18from_vec_unchecked17h0e2328b54b3964d4E
ffffff80400060f4 T _ZN5alloc3ffi5c_str7CString19_from_vec_unchecked17h1c17850afd5e0c3cE
ffffff8040006214 T _ZN5alloc3ffi5c_str7CString8from_raw17h1f76bf10c572eaa1E
ffffff8040006234 T _ZN5alloc3ffi5c_str7CString11into_string17hd3514a5f2affdfdaE
ffffff80400062dc T _ZN5alloc3ffi5c_str7CString10into_bytes17h170b53cc263ed30aE
ffffff80400062f0 T _ZN5alloc3ffi5c_str7CString19into_bytes_with_nul17hb853bcb356941e5aE
ffffff80400062f0 T _ZN97_$LT$alloc..string..String$u20$as$u20$core..convert..From$LT$alloc..boxed..Box$LT$str$GT$$GT$$GT$4from17h6553719c91cf7026E
ffffff80400062fc T _ZN5alloc3ffi5c_str7CString27from_vec_with_nul_unchecked17h2129d295645aca00E
ffffff804000636c T _ZN5alloc3ffi5c_str7CString17from_vec_with_nul17he8c4d5e48484d883E
ffffff8040006470 T _ZN63_$LT$alloc..ffi..c_str..CString$u20$as$u20$core..fmt..Debug$GT$3fmt17h07635fa14b6ba15fE
ffffff8040006484 T _ZN69_$LT$alloc..ffi..c_str..CString$u20$as$u20$core..default..Default$GT$7default17h8eec8046df8e5ae3E
ffffff80400064b8 T _ZN5alloc3ffi5c_str100_$LT$impl$u20$core..default..Default$u20$for$u20$alloc..boxed..Box$LT$core..ffi..c_str..CStr$GT$$GT$7default17h308205bea6289ffcE
ffffff80400064ec T _ZN66_$LT$alloc..ffi..c_str..NulError$u20$as$u20$core..fmt..Display$GT$3fmt17h7eff1a1f3a05eea5E
ffffff8040006538 T _ZN77_$LT$alloc..ffi..c_str..FromVecWithNulError$u20$as$u20$core..fmt..Display$GT$3fmt17hf7a9c35f7ec904b7E
ffffff80400065b0 T _ZN73_$LT$alloc..ffi..c_str..IntoStringError$u20$as$u20$core..fmt..Display$GT$3fmt17h502be6a56ec1d5a5E
ffffff80400065c4 T _ZN5alloc3ffi5c_str75_$LT$impl$u20$alloc..borrow..ToOwned$u20$for$u20$core..ffi..c_str..CStr$GT$10clone_into17hb1e9e42aadf81a20E
ffffff8040006680 T _ZN100_$LT$alloc..ffi..c_str..CString$u20$as$u20$core..convert..From$LT$$RF$core..ffi..c_str..CStr$GT$$GT$4from17h01c180766ed4c0e7E
ffffff8040006680 T _ZN5alloc3ffi5c_str131_$LT$impl$u20$core..convert..From$LT$$RF$core..ffi..c_str..CStr$GT$$u20$for$u20$alloc..boxed..Box$LT$core..ffi..c_str..CStr$GT$$GT$4from17ha59dd5ecd56e60d8E
ffffff8040006680 T _ZN5alloc3ffi5c_str139_$LT$impl$u20$core..convert..From$LT$$RF$mut$u20$core..ffi..c_str..CStr$GT$$u20$for$u20$alloc..boxed..Box$LT$core..ffi..c_str..CStr$GT$$GT$4from17h201b537160c8b4e8E
ffffff8040006680 T _ZN5alloc3ffi5c_str75_$LT$impl$u20$alloc..borrow..ToOwned$u20$for$u20$core..ffi..c_str..CStr$GT$8to_owned17ha8cff267fdd53c4eE
ffffff80400066f4 T _ZN5alloc3ffi5c_str40_$LT$impl$u20$core..ffi..c_str..CStr$GT$15to_string_lossy17hc472acce6b206cadE
ffffff80400066fc T _ZN5alloc3ffi5c_str40_$LT$impl$u20$core..ffi..c_str..CStr$GT$13into_c_string17hb6ae9b3b6049a2b4E
ffffff80400066fc T _ZN5alloc3ffi5c_str7CString16into_boxed_c_str17he2ab1a235a49c750E
ffffff8040006700 T _ZN5alloc3fmt6format12format_inner17h30004be9e0e8381bE
ffffff8040006868 T _ZN5alloc2rc32rc_inner_layout_for_value_layout17he1170ca3feda2908E
ffffff80400068d0 T _ZN5alloc3str21_$LT$impl$u20$str$GT$12to_lowercase17h38326fa28784b0d2E
ffffff8040007430 T _ZN5alloc3str21_$LT$impl$u20$str$GT$12to_uppercase17h67d6a1e806bfd5f4E
ffffff8040007c3c T _ZN5alloc6string6String15from_utf8_lossy17hf16fe6ef1d245cedE
ffffff8040007e74 T _ZN5alloc6string6String21from_utf8_lossy_owned17hb10dbb683a45c098E
ffffff8040007efc T _ZN5alloc6string6String10from_utf1617hef0517cc71664bd4E
ffffff8040008188 T _ZN5alloc6string6String12from_utf16le17h18addfc24b731f44E
ffffff8040008594 T _ZN5alloc6string6String18from_utf16le_lossy17h8d9eb86883fcf4c8E
ffffff8040008920 T _ZN5alloc6string6String12from_utf16be17h50065ea3dbba3438E
ffffff8040008d00 T _ZN5alloc6string6String18from_utf16be_lossy17h4ca7c054fb2cf3f6E
ffffff8040008fdc T _ZN5alloc6string6String14into_raw_parts17h7ec512dd441ddbccE
ffffff8040008ff0 T _ZN5alloc6string6String11try_reserve17h9c866e3c5450a670E
ffffff80400090c8 T _ZN5alloc6string6String17try_reserve_exact17hf2c1ea74f540ddaaE
ffffff8040009188 T _ZN5alloc6string13FromUtf8Error8as_bytes17hbc3f8359bea86f01E
ffffff8040009194 T _ZN5alloc6string13FromUtf8Error15into_utf8_lossy17h27f67dfd9163ecb0E
ffffff8040009358 T _ZN67_$LT$alloc..string..FromUtf8Error$u20$as$u20$core..fmt..Display$GT$3fmt17h674df4f91f590340E
ffffff8040009360 T _ZN68_$LT$alloc..string..FromUtf16Error$u20$as$u20$core..fmt..Display$GT$3fmt17he3e0595a6a12f5b1E
ffffff8040009374 T _ZN60_$LT$alloc..string..String$u20$as$u20$core..clone..Clone$GT$5clone17hb1ea3ffe47ed8212E
ffffff80400093f8 T _ZN60_$LT$alloc..string..String$u20$as$u20$core..clone..Clone$GT$10clone_from17h813c64d71aa0a132E
ffffff8040009460 t _ZN89_$LT$alloc..string..String$u20$as$u20$core..iter..traits..collect..Extend$LT$char$GT$$GT$6extend17h0218b3d405c3aeb6E
ffffff80400096a4 T _ZN73_$LT$$RF$alloc..string..String$u20$as$u20$core..str..pattern..Pattern$GT$13into_searcher17h73b70be0781c69fbE
ffffff80400096b8 T _ZN5alloc6string107_$LT$impl$u20$core..convert..From$LT$alloc..string..String$GT$$u20$for$u20$alloc..boxed..Box$LT$str$GT$$GT$4from17h1bb1c3f237642489E
ffffff804000970c T _ZN98_$LT$alloc..string..String$u20$as$u20$core..convert..From$LT$alloc..borrow..Cow$LT$str$GT$$GT$$GT$4from17h76b6e35aa74c23f1E
ffffff80400097c0 T _ZN97_$LT$alloc..string..String$u20$as$u20$core..convert..TryFrom$LT$alloc..vec..Vec$LT$u8$GT$$GT$$GT$8try_from17h64e03194e7e4adfeE
ffffff804000984c t _ZN58_$LT$alloc..string..String$u20$as$u20$core..fmt..Write$GT$9write_str17h5873b86689f6d80aE
ffffff80400098c0 t _ZN58_$LT$alloc..string..String$u20$as$u20$core..fmt..Write$GT$10write_char17hb29378875883bb9fE
ffffff80400099f0 T _ZN61_$LT$alloc..string..IntoChars$u20$as$u20$core..fmt..Debug$GT$3fmt17h443d5e21e12a0792E
ffffff8040009a4c T _ZN57_$LT$alloc..string..Drain$u20$as$u20$core..fmt..Debug$GT$3fmt17h9d877a2a20172e80E
ffffff8040009aa4 T _ZN62_$LT$alloc..string..Drain$u20$as$u20$core..ops..drop..Drop$GT$4drop17h3110671033666385E
ffffff8040009b18 T _ZN5alloc6string5Drain6as_str17hbf1f5b7b2b660622E
ffffff8040009b28 T _ZN72_$LT$alloc..string..Drain$u20$as$u20$core..convert..AsRef$LT$str$GT$$GT$6as_ref17h45fc1091096d5cc2E
ffffff8040009b28 T _ZN81_$LT$alloc..string..Drain$u20$as$u20$core..convert..AsRef$LT$$u5b$u8$u5d$$GT$$GT$6as_ref17h6d03977191f40051E
ffffff8040009b38 T _ZN79_$LT$alloc..string..Drain$u20$as$u20$core..iter..traits..iterator..Iterator$GT$9size_hint17h63696acb908728d2E
ffffff8040009b58 T _ZN5alloc4sync32arcinner_layout_for_value_layout17h73f599d5d8c95437E
ffffff8040009bc0 T _ZN5alloc3vec16Vec$LT$T$C$A$GT$11swap_remove13assert_failed17hfbd0046898c5f85bE
ffffff8040009bdc T _ZN5alloc3vec16Vec$LT$T$C$A$GT$6insert13assert_failed17he29833d11e386b06E
ffffff8040009bf8 T _ZN5alloc3vec16Vec$LT$T$C$A$GT$6remove13assert_failed17hfd53b8aa2b7a0c06E
ffffff8040009c14 T _ZN5alloc3vec16Vec$LT$T$C$A$GT$9split_off13assert_failed17h8aca0cd65be663cfE
ffffff8040009c30 T _ZN80_$LT$alloc..vec..Vec$LT$u8$GT$$u20$as$u20$core..convert..From$LT$$RF$str$GT$$GT$4from17hd471839ed1e113c1E
ffffff8040009cb4 t OUTLINED_FUNCTION_0
ffffff8040009cd4 t OUTLINED_FUNCTION_1
ffffff8040009cf4 T _ZN4core3num7dec2flt11decimal_seq10DecimalSeq4trim17h17f733e0ad0fccedE
ffffff8040009d3c T _ZN4core3num7dec2flt11decimal_seq10DecimalSeq5round17h615f20058869e7a8E
ffffff8040009df0 T _ZN4core3num7dec2flt11decimal_seq10DecimalSeq10left_shift17hca76185857d68b0cE
ffffff8040009fe4 T _ZN4core3num7dec2flt11decimal_seq10DecimalSeq11right_shift17h6a060dc374b69737E
ffffff804000a194 T _ZN4core3num7dec2flt11decimal_seq17parse_decimal_seq17h6373d0cbf0dc75e9E
ffffff804000a560 T _ZN59_$LT$f32$u20$as$u20$core..num..dec2flt..float..RawFloat$GT$15pow10_fast_path17h4fa78d5e4d93ab13E
ffffff804000a574 T _ZN59_$LT$f64$u20$as$u20$core..num..dec2flt..float..RawFloat$GT$15pow10_fast_path17hdcbdf669c12f9310E
ffffff804000a588 t _ZN4core3num7dec2flt6lemire13compute_float17he12ca377d8bb710cE
ffffff804000a6d8 t _ZN4core3num7dec2flt6lemire13compute_float17heb331f397f64efe8E
ffffff804000a828 t _ZN4core3num7dec2flt6lemire13compute_float17hf10d9f8d23d0971cE
ffffff804000a954 T _ZN4core3num7dec2flt6lemire22compute_product_approx17h8183fe64050484deE
ffffff804000a9b8 T _ZN4core3num7dec2flt5parse12parse_number17h2610a739bfcfdb29E
ffffff804000adec T _ZN74_$LT$core..num..dec2flt..ParseFloatError$u20$as$u20$core..fmt..Display$GT$3fmt17hb5d89a92b5b4de1bE
ffffff804000ae1c T _ZN4core3num9diy_float2Fp3mul17heed557d022783d15E
ffffff804000ae34 T _ZN4core3num9diy_float2Fp9normalize17ha29f114c4257ab26E
ffffff804000ae44 T _ZN4core3num9diy_float2Fp12normalize_to17h683ee143e11ee3c7E
ffffff804000aeb8 T _ZN4core3num7flt2dec9estimator23estimate_scaling_factor17hca1634186784928bE
ffffff804000aee8 T _ZN4core3num7flt2dec8strategy6dragon9mul_pow1017hcb9a85d8f4a112f7E
ffffff804000bb0c T _ZN4core3num7flt2dec8strategy6dragon15format_shortest17h60aace0919e2cb36E
ffffff804000c708 T _ZN4core3num7flt2dec8strategy6dragon12format_exact17h29b7c3f40d248341E
ffffff804000d198 T _ZN4core3num7flt2dec8strategy5grisu12cached_power17h1b85923f56fb1eaaE
ffffff804000d204 T _ZN4core3num7flt2dec8strategy5grisu19format_shortest_opt17h3c14169c42b5c416E
ffffff804000d7ec T _ZN4core3num7flt2dec8strategy5grisu15format_shortest17hce8b033e59bfda4bE
ffffff804000d860 T _ZN4core3num7flt2dec8strategy5grisu16format_exact_opt17h8fd77d601ba94b24E
ffffff804000dbe0 t _ZN4core3num7flt2dec8strategy5grisu16format_exact_opt14possibly_round17h92d5f667251aeea4E
ffffff804000ddcc T _ZN4core3num7flt2dec8strategy5grisu12format_exact17hb2402e81b01f978aE
ffffff804000de4c T _ZN4core3num7flt2dec8round_up17hc0e004ed184cf21bE
ffffff804000df24 T _ZN4core3num7flt2dec17digits_to_dec_str17h25f286c39e31b3a0E
ffffff804000e08c T _ZN4core3num7flt2dec17digits_to_exp_str17h4fc68ec3a09fcd86E
ffffff804000e1e8 T _ZN4core3num3fmt4Part5write17h7b19e1a26be756d6E
ffffff804000e370 T _ZN4core3num3fmt9Formatted3len17hb95a67ad5a054cfdE
ffffff804000e404 T _ZN4core3num3fmt9Formatted5write17h84e4cc7021d668acE
ffffff804000e4bc T _ZN72_$LT$core..num..error..TryFromIntError$u20$as$u20$core..fmt..Display$GT$3fmt17h69604431014d0bf6E
ffffff804000e4d0 T _ZN70_$LT$core..num..error..ParseIntError$u20$as$u20$core..fmt..Display$GT$3fmt17h5e5178bfd7989fa0E
ffffff804000e4f8 T _ZN4core3num9int_log1030panic_for_nonpositive_argument17h21afc220ec2bce03E
ffffff804000e520 T _ZN4core3num8int_sqrt27panic_for_negative_argument17hacfc8faef48f9c2aE
ffffff804000e548 T _ZN4core3num14overflow_panic3add17h07cecef487a3507dE
ffffff804000e570 T _ZN4core3num14overflow_panic3sub17h79149d19d6d9c609E
ffffff804000e598 T _ZN4core3num14overflow_panic3mul17h10ea0e4c950496f5E
ffffff804000e5c0 T _ZN4core3num14overflow_panic3div17h58cff388bc256c25E
ffffff804000e5e8 T _ZN4core3num14overflow_panic3rem17h826042c8e8d1f218E
ffffff804000e610 T _ZN4core3num14overflow_panic3neg17h076c3885078e0c0cE
ffffff804000e638 T _ZN4core3num14overflow_panic3shr17hed6dc193ab4cda0fE
ffffff804000e660 T _ZN4core3num14overflow_panic3shl17h4142fadb3483eb9bE
ffffff804000e688 T _ZN4core3num22from_ascii_radix_panic17hadfd6a2e019c991aE
ffffff804000e68c T _ZN76_$LT$core..mem..transmutability..Assume$u20$as$u20$core..ops..arith..Sub$GT$3sub17hcd9a4cb93310037cE
ffffff804000e698 T _ZN68_$LT$core..ptr..alignment..Alignment$u20$as$u20$core..fmt..Debug$GT$3fmt17hd938adcdde696d3cE
ffffff804000e70c T _ZN69_$LT$core..ffi..c_str..CStr$u20$as$u20$core..clone..CloneToUninit$GT$15clone_to_uninit17hc4a4b47c01ee042dE
ffffff804000e720 T _ZN57_$LT$core..error..Request$u20$as$u20$core..fmt..Debug$GT$3fmt17h37275da50aeff0abE
ffffff804000e77c T _ZN78_$LT$core..error..Source$u20$as$u20$core..iter..traits..iterator..Iterator$GT$4next17ha18ec010f4458215E
ffffff804000e7cc T _ZN64_$LT$core..ops..range..RangeFull$u20$as$u20$core..fmt..Debug$GT$3fmt17h5d06953b043c00a2E
ffffff804000e7e8 t _ZN71_$LT$core..ops..range..Range$LT$Idx$GT$$u20$as$u20$core..fmt..Debug$GT$3fmt17hc89ba78003b22907E
ffffff804000e9fc T _ZN105_$LT$dyn$u20$core..any..Any$u2b$core..marker..Sync$u2b$core..marker..Send$u20$as$u20$core..fmt..Debug$GT$3fmt17h85ac29885e1034feE
ffffff804000e9fc T _ZN59_$LT$dyn$u20$core..any..Any$u20$as$u20$core..fmt..Debug$GT$3fmt17h483c9ee5a8156a41E
ffffff804000e9fc T _ZN82_$LT$dyn$u20$core..any..Any$u2b$core..marker..Send$u20$as$u20$core..fmt..Debug$GT$3fmt17h439ca49250655debE
ffffff804000ea58 T _ZN54_$LT$core..any..TypeId$u20$as$u20$core..fmt..Debug$GT$3fmt17h7890a7771e767ef1E
ffffff804000eab8 T _ZN73_$LT$core..ascii..ascii_char..AsciiChar$u20$as$u20$core..fmt..Display$GT$3fmt17h28a7a08e05006a79E
ffffff804000eacc T _ZN71_$LT$core..ascii..ascii_char..AsciiChar$u20$as$u20$core..fmt..Debug$GT$3fmt17hf5d1826cc3267ad7E
ffffff804000ec18 T _ZN4core5ascii14escape_default17h5a434c4c27654468E
ffffff804000ec8c T _ZN65_$LT$core..ascii..EscapeDefault$u20$as$u20$core..fmt..Display$GT$3fmt17h9cd9b4fea45bf5ccE
ffffff804000ecac T _ZN63_$LT$core..ascii..EscapeDefault$u20$as$u20$core..fmt..Debug$GT$3fmt17hee79f5cd355460fbE
ffffff804000ed08 T _ZN56_$LT$core..bstr..ByteStr$u20$as$u20$core..fmt..Debug$GT$3fmt17h279f2b8bc79042adE
ffffff804000efac T _ZN58_$LT$core..bstr..ByteStr$u20$as$u20$core..fmt..Display$GT$3fmt17hd5acd146171967bdE
ffffff804000f3d4 T _ZN4core4cell4lazy14panic_poisoned17heac516dec28ac3b8E
ffffff804000f400 T _ZN62_$LT$core..cell..BorrowError$u20$as$u20$core..fmt..Display$GT$3fmt17hd590a891b48fca37E
ffffff804000f414 T _ZN65_$LT$core..cell..BorrowMutError$u20$as$u20$core..fmt..Display$GT$3fmt17h8661beb5f084657fE
ffffff804000f428 T _ZN4core4cell22panic_already_borrowed17h153e878f7b0e738cE
ffffff804000f42c T _ZN4core4cell30panic_already_mutably_borrowed17h7cee86de44a46baeE
ffffff804000f430 T _ZN74_$LT$core..char..convert..ParseCharError$u20$as$u20$core..fmt..Display$GT$3fmt17h88bde3a49d53ad51E
ffffff804000f460 T _ZN76_$LT$core..char..convert..CharTryFromError$u20$as$u20$core..fmt..Display$GT$3fmt17h969986c80c0f7854E
ffffff804000f474 T _ZN75_$LT$core..char..decode..DecodeUtf16Error$u20$as$u20$core..fmt..Display$GT$3fmt17h5a69605e0dd5018aE
ffffff804000f4bc t _ZN4core4char7methods22_$LT$impl$u20$char$GT$16escape_debug_ext17hdbb70dd756eceeadE
ffffff804000f77c T _ZN64_$LT$core..char..EscapeUnicode$u20$as$u20$core..fmt..Display$GT$3fmt17h74da61afd1ffa30cE
ffffff804000f79c t _ZN62_$LT$core..char..EscapeDebug$u20$as$u20$core..fmt..Display$GT$3fmt17h5eea612a475151f2E
ffffff804000f7d4 T _ZN86_$LT$core..char..CaseMappingIter$u20$as$u20$core..iter..traits..iterator..Iterator$GT$4next17hab60c18eb8d038a1E
ffffff804000f800 T _ZN86_$LT$core..char..CaseMappingIter$u20$as$u20$core..iter..traits..iterator..Iterator$GT$5count17head030c831183fdcE
ffffff804000f80c T _ZN86_$LT$core..char..CaseMappingIter$u20$as$u20$core..iter..traits..iterator..Iterator$GT$4last17hcd5539f06fcb4bb0E
ffffff804000f84c T _ZN86_$LT$core..char..CaseMappingIter$u20$as$u20$core..iter..traits..iterator..Iterator$GT$10advance_by17h13630f6597123b83E
ffffff804000f870 T _ZN86_$LT$core..char..CaseMappingIter$u20$as$u20$core..iter..traits..iterator..Iterator$GT$24__iterator_get_unchecked17h2e132cfdd6c7a035E
ffffff804000f884 T _ZN101_$LT$core..char..CaseMappingIter$u20$as$u20$core..iter..traits..double_ended..DoubleEndedIterator$GT$9next_back17h84db3a3d9e240e89E
ffffff804000f8ac T _ZN101_$LT$core..char..CaseMappingIter$u20$as$u20$core..iter..traits..double_ended..DoubleEndedIterator$GT$15advance_back_by17hd810956abc6a7b94E
ffffff804000f8d4 T _ZN67_$LT$core..char..TryFromCharError$u20$as$u20$core..fmt..Display$GT$3fmt17h09ce2f4a61673e9eE
ffffff804000f8e8 T _ZN79_$LT$core..ffi..c_str..FromBytesUntilNulError$u20$as$u20$core..fmt..Display$GT$3fmt17h23006937c8e84836E
ffffff804000f904 T _ZN59_$LT$core..ffi..c_str..CStr$u20$as$u20$core..fmt..Debug$GT$3fmt17h90829747270195b9E
ffffff804000f90c T _ZN78_$LT$core..ffi..c_str..FromBytesWithNulError$u20$as$u20$core..fmt..Display$GT$3fmt17hd844bb192b659034E
ffffff804000f9cc T _ZN4core3ffi5c_str4CStr20from_bytes_until_nul17hc07a13974f057e60E
ffffff804000faa4 T _ZN4core3ffi5c_str4CStr19from_bytes_with_nul17h0683361d993fff5dE
ffffff804000fb94 T _ZN4core3ffi5c_str4CStr6to_str17h41f7a0f7c27dbd9eE
ffffff804000fb9c T _ZN54_$LT$core..ffi..c_void$u20$as$u20$core..fmt..Debug$GT$3fmt17h572c097f696e3adfE
ffffff804000fbb8 T _ZN72_$LT$core..io..borrowed_buf..BorrowedBuf$u20$as$u20$core..fmt..Debug$GT$3fmt17hc8b26de05eea6c46E
ffffff804000fcbc t _ZN86_$LT$core..net..display_buffer..DisplayBuffer$LT$_$GT$$u20$as$u20$core..fmt..Write$GT$9write_str17h984e7281f4a9949fE
ffffff804000fd00 t _ZN86_$LT$core..net..display_buffer..DisplayBuffer$LT$_$GT$$u20$as$u20$core..fmt..Write$GT$9write_str17hb294b752609193dbE
ffffff804000fd44 t _ZN86_$LT$core..net..display_buffer..DisplayBuffer$LT$_$GT$$u20$as$u20$core..fmt..Write$GT$9write_str17hd698a30467e0e5d2E
ffffff804000fd88 t _ZN86_$LT$core..net..display_buffer..DisplayBuffer$LT$_$GT$$u20$as$u20$core..fmt..Write$GT$9write_str17hf8813f19ddbe7a9bE
ffffff804000fdcc T _ZN65_$LT$core..net..ip_addr..IpAddr$u20$as$u20$core..fmt..Display$GT$3fmt17he731e8472a82a071E
ffffff804000fde0 T _ZN63_$LT$core..net..ip_addr..IpAddr$u20$as$u20$core..fmt..Debug$GT$3fmt17h2fcb5e4537b401e2E
ffffff804000fdf4 T _ZN67_$LT$core..net..ip_addr..Ipv4Addr$u20$as$u20$core..fmt..Display$GT$3fmt17hd16b3a32b531ec94E
ffffff804000ff44 T _ZN65_$LT$core..net..ip_addr..Ipv4Addr$u20$as$u20$core..fmt..Debug$GT$3fmt17h3a97fea80a5b44a6E
ffffff804000ff48 T _ZN67_$LT$core..net..ip_addr..Ipv6Addr$u20$as$u20$core..fmt..Display$GT$3fmt17he5718a1e58b408b3E
ffffff80400105f4 t _ZN67_$LT$core..net..ip_addr..Ipv6Addr$u20$as$u20$core..fmt..Display$GT$3fmt12fmt_subslice17h6556aec354539312E
ffffff80400106f0 T _ZN65_$LT$core..net..ip_addr..Ipv6Addr$u20$as$u20$core..fmt..Debug$GT$3fmt17hc67489d671373c2eE
ffffff80400106f4 t _ZN4core3net6parser6Parser11read_number28_$u7b$$u7b$closure$u7d$$u7d$17h7e4fec90157d1b1dE
ffffff8040010988 t _ZN4core3net6parser6Parser14read_ipv4_addr17h9428ec1959976d59E
ffffff8040010c50 t _ZN4core3net6parser6Parser14read_ipv6_addr17h8340264ed2299864E
ffffff8040010d9c t _ZN4core3net6parser6Parser14read_ipv6_addr11read_groups17hf184338f26d2814fE
ffffff8040010fc0 t _ZN4core3net6parser6Parser19read_socket_addr_v617h90096cef616f2046E
ffffff8040011190 T _ZN4core3net6parser44_$LT$impl$u20$core..net..ip_addr..IpAddr$GT$11parse_ascii17h9676d5e33aa87aacE
ffffff8040011244 T _ZN4core3net6parser83_$LT$impl$u20$core..str..traits..FromStr$u20$for$u20$core..net..ip_addr..IpAddr$GT$8from_str17h7a3f3c9e1c021a76E
ffffff80400112f8 T _ZN4core3net6parser46_$LT$impl$u20$core..net..ip_addr..Ipv4Addr$GT$11parse_ascii17h95cea035f4425d1aE
ffffff804001136c T _ZN4core3net6parser85_$LT$impl$u20$core..str..traits..FromStr$u20$for$u20$core..net..ip_addr..Ipv4Addr$GT$8from_str17h8ffcc4a5cec8d3c8E
ffffff80400113e0 T _ZN4core3net6parser46_$LT$impl$u20$core..net..ip_addr..Ipv6Addr$GT$11parse_ascii17h2f35b112c0217ba9E
ffffff804001145c T _ZN4core3net6parser85_$LT$impl$u20$core..str..traits..FromStr$u20$for$u20$core..net..ip_addr..Ipv6Addr$GT$8from_str17h97ed7fd29301c4c8E
ffffff80400114d8 T _ZN4core3net6parser54_$LT$impl$u20$core..net..socket_addr..SocketAddrV4$GT$11parse_ascii17h2ef9adf0f9b8b076E
ffffff80400115e4 T _ZN4core3net6parser93_$LT$impl$u20$core..str..traits..FromStr$u20$for$u20$core..net..socket_addr..SocketAddrV4$GT$8from_str17ha07591221a26220dE
ffffff80400116ec T _ZN4core3net6parser54_$LT$impl$u20$core..net..socket_addr..SocketAddrV6$GT$11parse_ascii17hbfb2adb0f1b178a7E
ffffff8040011754 T _ZN4core3net6parser93_$LT$impl$u20$core..str..traits..FromStr$u20$for$u20$core..net..socket_addr..SocketAddrV6$GT$8from_str17h035faf27d56a5382E
ffffff80400117bc T _ZN4core3net6parser52_$LT$impl$u20$core..net..socket_addr..SocketAddr$GT$11parse_ascii17heaf775c4da82a0fdE
ffffff8040011954 T _ZN4core3net6parser91_$LT$impl$u20$core..str..traits..FromStr$u20$for$u20$core..net..socket_addr..SocketAddr$GT$8from_str17h6c8c0b0282ee6282E
ffffff8040011958 T _ZN72_$LT$core..net..parser..AddrParseError$u20$as$u20$core..fmt..Display$GT$3fmt17hfed932540a552c17E
ffffff8040011980 T _ZN73_$LT$core..net..socket_addr..SocketAddr$u20$as$u20$core..fmt..Display$GT$3fmt17hcb47ea195d3780bdE
ffffff804001199c T _ZN71_$LT$core..net..socket_addr..SocketAddr$u20$as$u20$core..fmt..Debug$GT$3fmt17h7cdc123dcaac75b8E
ffffff80400119b8 T _ZN75_$LT$core..net..socket_addr..SocketAddrV4$u20$as$u20$core..fmt..Display$GT$3fmt17h08d12925b07b9c97E
ffffff8040011b04 T _ZN73_$LT$core..net..socket_addr..SocketAddrV4$u20$as$u20$core..fmt..Debug$GT$3fmt17h7aa1082af7f101c4E
ffffff8040011b08 T _ZN75_$LT$core..net..socket_addr..SocketAddrV6$u20$as$u20$core..fmt..Display$GT$3fmt17h5ce070a3b48e374eE
ffffff8040011d3c T _ZN73_$LT$core..net..socket_addr..SocketAddrV6$u20$as$u20$core..fmt..Debug$GT$3fmt17ha940cef597213a7fE
ffffff8040011d40 T _ZN4core6option13unwrap_failed17hf8c93e9edbb88388E
ffffff8040011d54 T _ZN4core6option13expect_failed17h23081a33d4ebcf58E
ffffff8040011d90 T _ZN68_$LT$core..panic..location..Location$u20$as$u20$core..fmt..Debug$GT$3fmt17ha24270bc35f4d22eE
ffffff8040011e98 T _ZN73_$LT$core..panic..panic_info..PanicInfo$u20$as$u20$core..fmt..Display$GT$3fmt17h07cbf80100e2485fE
ffffff8040011fd0 T _ZN4core9panicking9panic_fmt17h2bb9e30837e96391E
ffffff8040011fe8 T _ZN4core9panicking18panic_nounwind_fmt17h9c3e67ea4291bef6E
ffffff8040012000 T _ZN4core9panicking5panic17hbe8f9d1185311824E
ffffff804001202c T _ZN4core9panicking14panic_nounwind17hd74958880c370c0aE
ffffff8040012060 T _ZN4core9panicking26panic_nounwind_nobacktrace17ha48ced2ccc50aab9E
ffffff8040012094 T _ZN4core9panicking14panic_explicit17h6708e7dfb2f1c42aE
ffffff80400120d4 T _ZN4core9panicking18panic_bounds_check17hfa27742eec7302e0E
ffffff8040012118 T _ZN4core9panicking36panic_misaligned_pointer_dereference17h56b2420ea5e5b5aaE
ffffff8040012158 T _ZN4core9panicking30panic_null_pointer_dereference17h1601d3ff05f19abaE
ffffff8040012184 T _ZN4core9panicking31panic_invalid_enum_construction17h6867255aa2201d73E
ffffff80400121bc T _ZN4core9panicking19panic_cannot_unwind17h422a744e59dd8d18E
ffffff80400121cc T _ZN4core9panicking16panic_in_cleanup17h470090ca71ed54e3E
ffffff80400121dc T _ZN4core9panicking15const_panic_fmt17h74b8b33e4d9e4771E
ffffff8040012234 T _ZN4core9panicking13assert_failed17h313424103b933655E
ffffff8040012244 T _ZN4core9panicking13assert_failed17hfcb7e2b29a1e6375E
ffffff8040012254 T _ZN84_$LT$core..panicking..assert_matches_failed..Pattern$u20$as$u20$core..fmt..Debug$GT$3fmt17h5111cc1d06515c27E
ffffff8040012268 T _ZN4core9panicking19assert_failed_inner17he3fb6a016b477cd9E
ffffff8040012340 T _ZN48_$LT$char$u20$as$u20$core..pat..RangePattern$GT$7sub_one17hd5ed72bf45c2220eE
ffffff8040012388 T _ZN4core6result13unwrap_failed17hd602bf2fc39208f6E
ffffff80400123dc T _ZN67_$LT$core..sync..atomic..AtomicBool$u20$as$u20$core..fmt..Debug$GT$3fmt17h11b95ec61acbf9e1E
ffffff8040012408 T _ZN4core3fmt8builders10PadAdapter4wrap17h6cd5cb3fbcdcbfbaE
ffffff804001242c T _ZN68_$LT$core..fmt..builders..PadAdapter$u20$as$u20$core..fmt..Write$GT$9write_str17hcc12ca024a2f1acbE
ffffff8040012674 T _ZN68_$LT$core..fmt..builders..PadAdapter$u20$as$u20$core..fmt..Write$GT$10write_char17h58cd4434486bc3b0E
ffffff80400126f0 T _ZN4core3fmt8builders11DebugStruct5field17h38b32e48038962d2E
ffffff8040012890 T _ZN4core3fmt8builders11DebugStruct21finish_non_exhaustive17hd08ccb0b65f2bde1E
ffffff8040012958 T _ZN4core3fmt8builders11DebugStruct6finish17hbc218ef2bd74c3fbE
ffffff80400129c8 T _ZN4core3fmt8builders10DebugTuple5field17ha7c95f5b0d0a68ceE
ffffff8040012afc T _ZN4core3fmt8builders10DebugTuple21finish_non_exhaustive17h8bf808276e378cc2E
ffffff8040012bc0 T _ZN4core3fmt8builders10DebugTuple6finish17hb126e77dc623cca6E
ffffff8040012c6c T _ZN4core3fmt8builders8DebugSet5entry17h8def07c863e5df2dE
ffffff8040012c6c T _ZN4core3fmt8builders9DebugList5entry17h75cefd786100e983E
ffffff8040012d9c T _ZN4core3fmt8builders8DebugSet21finish_non_exhaustive17h015e67c9127da51aE
ffffff8040012e64 T _ZN4core3fmt8builders8DebugSet6finish17h70b619198cce0154E
ffffff8040012eac T _ZN4core3fmt8builders9DebugList21finish_non_exhaustive17h245c21205dc925a2E
ffffff8040012f84 T _ZN4core3fmt8builders9DebugList6finish17h5e94c728c287daebE
ffffff8040012fcc T _ZN4core3fmt8builders8DebugMap5entry17hc8a9449088f07267E
ffffff80400130d8 T _ZN4core3fmt8builders8DebugMap3key17h09e97f6e79a49338E
ffffff8040013260 T _ZN4core3fmt8builders8DebugMap5value17he33f99d35ffa447dE
ffffff804001335c T _ZN4core3fmt8builders8DebugMap21finish_non_exhaustive17h398f9b256729e28bE
ffffff8040013458 T _ZN4core3fmt8builders8DebugMap6finish17h11ae0f491080be96E
ffffff80400134e0 t _ZN4core3fmt5float29float_to_decimal_common_exact17h0a8e8125063df033E
ffffff8040013804 t _ZN4core3fmt5float29float_to_decimal_common_exact17h37cb55c72a1f38efE
ffffff8040013b2c t _ZN4core3fmt5float29float_to_decimal_common_exact17hf414fe23b795bff6E
ffffff8040013e54 t _ZN4core3fmt5float32float_to_decimal_common_shortest17h6f340af611fcc990E
ffffff8040014094 t _ZN4core3fmt5float32float_to_decimal_common_shortest17h7e2e09d54baec2e2E
ffffff80400142d0 t _ZN4core3fmt5float32float_to_decimal_common_shortest17hf86942886474fccaE
ffffff8040014510 t _ZN4core3fmt5float33float_to_exponential_common_exact17h7beb5b4304c66ba4E
ffffff8040014858 t _ZN4core3fmt5float33float_to_exponential_common_exact17hc512873d250e3bcdE
ffffff8040014b9c t _ZN4core3fmt5float33float_to_exponential_common_exact17he412364183928c08E
ffffff8040014ee4 t _ZN4core3fmt5float36float_to_exponential_common_shortest17hb8212c716402020cE
ffffff80400151e0 t _ZN4core3fmt5float36float_to_exponential_common_shortest17hb8fe5a5af5730ba9E
ffffff80400154e0 t _ZN4core3fmt5float36float_to_exponential_common_shortest17hbbdbf9a78f663df2E
ffffff80400157e0 T _ZN4core3fmt3num53_$LT$impl$u20$core..fmt..Display$u20$for$u20$u128$GT$3fmt17h0badf89c9907ed47E
ffffff8040015828 T _ZN4core3fmt3num53_$LT$impl$u20$core..fmt..Display$u20$for$u20$i128$GT$3fmt17h875588e4bacb59a5E
ffffff804001588c T _ZN4core3fmt3num22_$LT$impl$u20$u128$GT$4_fmt17h4fcb8ff44cf74c13E
ffffff8040015d38 t _ZN4core3fmt5Write10write_char17h06cf520cce4d3d09E
ffffff8040015e78 t _ZN4core3fmt5Write10write_char17h178e14d9136ffab9E
ffffff8040015fb8 t _ZN4core3fmt5Write10write_char17h7bab3c4e4cf86223E
ffffff80400160f8 t _ZN4core3fmt5Write10write_char17habd7504d83823a50E
ffffff8040016238 t _ZN4core3fmt5Write9write_fmt17h18fd95c79a9fa747E
ffffff8040016248 t _ZN4core3fmt5Write9write_fmt17h2b81c7de372747c3E
ffffff8040016258 t _ZN4core3fmt5Write9write_fmt17h7d3da4d7ffc5f513E
ffffff8040016268 t _ZN4core3fmt5Write9write_fmt17ha2c2b545ef1f53ddE
ffffff8040016278 t _ZN4core3fmt5Write9write_fmt17hbbfa9e01e1f5293eE
ffffff8040016288 T _ZN4core3fmt17FormattingOptions8get_fill17h7f07cdc1e4db3b50E
ffffff8040016294 T _ZN57_$LT$core..fmt..Arguments$u20$as$u20$core..fmt..Debug$GT$3fmt17hac6c3c87ed1dd73dE
ffffff80400162a4 T _ZN59_$LT$core..fmt..Arguments$u20$as$u20$core..fmt..Display$GT$3fmt17h81ebbddec8e52d3dE
ffffff80400162b4 T _ZN4core3fmt5write17h142e4b9e73ace56dE
ffffff80400164d8 T _ZN4core3fmt9Formatter12pad_integral17h91e8b4afeccf4a15E
ffffff8040016888 t _ZN4core3fmt9Formatter12pad_integral12write_prefix17hc9c5dafc633ad71cE
ffffff804001690c T _ZN4core3fmt9Formatter3pad17h3dd7855a8f2618adE
ffffff8040016c1c t _ZN4core3fmt9Formatter19pad_formatted_parts17h1c6a6fedcfd0f8c4E
ffffff8040016e48 t _ZN4core3fmt9Formatter21write_formatted_parts17h11665febd711d73fE
ffffff8040017088 T _ZN4core3fmt9Formatter9write_str17h4f550af283c1279aE
ffffff8040017088 T _ZN57_$LT$core..fmt..Formatter$u20$as$u20$core..fmt..Write$GT$9write_str17h3aefac5d58765a00E
ffffff8040017094 T _ZN4core3fmt9Formatter4fill17hdf26ef43e0cafaa5E
ffffff80400170a0 T _ZN4core3fmt9Formatter12debug_struct17ha809413edae3558cE
ffffff80400170d4 T _ZN4core3fmt9Formatter26debug_struct_field1_finish17hb0c99d5af76e5507E
ffffff8040017190 T _ZN4core3fmt9Formatter26debug_struct_field2_finish17h7d3f22d4abab8792E
ffffff8040017280 T _ZN4core3fmt9Formatter26debug_struct_field3_finish17hc18e0e6245452b84E
ffffff804001739c T _ZN4core3fmt9Formatter26debug_struct_field4_finish17hb986dd77ecdacd99E
ffffff80400174d8 T _ZN4core3fmt9Formatter26debug_struct_field5_finish17h029c480d890b6e05E
ffffff8040017630 T _ZN4core3fmt9Formatter26debug_struct_fields_finish17h9fa547aeef7cbd69E
ffffff804001772c T _ZN4core3fmt9Formatter11debug_tuple17h32d63efea8e56877E
ffffff804001776c T _ZN4core3fmt9Formatter25debug_tuple_field1_finish17h556f404c667e7254E
ffffff80400178c8 T _ZN4core3fmt9Formatter25debug_tuple_field2_finish17h06e4d6c5f37a67beE
ffffff8040017a94 T _ZN4core3fmt9Formatter25debug_tuple_field3_finish17h5078c000bbfb008aE
ffffff8040017d0c T _ZN4core3fmt9Formatter25debug_tuple_field4_finish17h5b369145be7707eeE
ffffff8040018024 T _ZN4core3fmt9Formatter25debug_tuple_field5_finish17h1a9abfc224d18d92E
ffffff80400183dc T _ZN4core3fmt9Formatter25debug_tuple_fields_finish17hbb7d62419d9739f8E
ffffff8040018640 T _ZN4core3fmt9Formatter10debug_list17heb3e9e45f7505caaE
ffffff8040018680 T _ZN4core3fmt9Formatter9debug_set17ha8c6c6cfd3522c75E
ffffff80400186c0 T _ZN4core3fmt9Formatter9debug_map17h80bc7a8c1671c7f7E
ffffff8040018708 T _ZN57_$LT$core..fmt..Formatter$u20$as$u20$core..fmt..Write$GT$10write_char17h84dee0d34b9a2830E
ffffff8040018714 T _ZN55_$LT$core..fmt..Error$u20$as$u20$core..fmt..Display$GT$3fmt17h03bae1e2ac792c8bE
ffffff8040018728 T _ZN43_$LT$bool$u20$as$u20$core..fmt..Display$GT$3fmt17h61995890375d3c3eE
ffffff8040018754 T _ZN40_$LT$str$u20$as$u20$core..fmt..Debug$GT$3fmt17h5c3a545ace00f602E
ffffff8040018ae4 T _ZN42_$LT$str$u20$as$u20$core..fmt..Display$GT$3fmt17h7ef73a4de0084151E
ffffff8040018af8 T _ZN41_$LT$char$u20$as$u20$core..fmt..Debug$GT$3fmt17h17ef157ccfa984abE
ffffff8040018bd8 T _ZN43_$LT$char$u20$as$u20$core..fmt..Display$GT$3fmt17h23e13b210798c116E
ffffff8040018ce8 T _ZN4core3fmt17pointer_fmt_inner17h82888160cefb4cc3E
ffffff8040018da4 t _ZN52_$LT$$BP$const$u20$T$u20$as$u20$core..fmt..Debug$GT$3fmt17h15dc371a02533f6eE
ffffff8040018e64 T _ZN4core5slice6memchr14memchr_aligned17h1a9b150fc7a7f241E
ffffff8040018f40 T _ZN4core5slice6memchr7memrchr17h1b7e6dd9d0f94ec2E
ffffff8040019060 T _ZN4core5slice4sort6stable5drift11sqrt_approx17hfdf483a80fc053b5E
ffffff804001908c T _ZN4core5slice4sort6shared9smallsort22panic_on_ord_violation17h1f4abe8699c54011E
ffffff80400190b8 T _ZN105_$LT$core..slice..ascii..EscapeAscii$u20$as$u20$core..iter..traits..double_ended..DoubleEndedIterator$GT$9next_back17h6ae1ecfca323c6bbE
ffffff80400191d8 T _ZN70_$LT$core..slice..ascii..EscapeAscii$u20$as$u20$core..fmt..Display$GT$3fmt17h915b5e3bb0c1c01cE
ffffff8040019410 T _ZN68_$LT$core..slice..ascii..EscapeAscii$u20$as$u20$core..fmt..Debug$GT$3fmt17hf3116e8e35cc1cf1E
ffffff804001946c T _ZN4core5slice5index26slice_start_index_len_fail17h1e541e4ea55e5f80E
ffffff8040019470 T _ZN4core5slice5index24slice_end_index_len_fail17h10fce6533f2a6834E
ffffff8040019474 T _ZN4core5slice5index22slice_index_order_fail17h258c17d8ae5b3d3cE
ffffff8040019478 T _ZN4core5slice5index31slice_start_index_overflow_fail17hef472635311361beE
ffffff80400194a0 T _ZN4core5slice5index29slice_end_index_overflow_fail17he705cf6768b8d155E
ffffff80400194c8 T _ZN4core5slice5index10into_range17h301b058589a237caE
ffffff8040019534 T _ZN4core5slice5index16into_slice_range17hb8cbbad30abfbb5aE
ffffff80400195a0 T _ZN4core5slice29_$LT$impl$u20$$u5b$T$u5d$$GT$15copy_from_slice17len_mismatch_fail17hb8f33c25d165743dE
ffffff80400195b0 T _ZN4core5slice29_$LT$impl$u20$$u5b$T$u5d$$GT$16align_to_offsets3gcd17hacd02ca7095473d7E
ffffff80400195d4 T _ZN71_$LT$core..slice..GetDisjointMutError$u20$as$u20$core..fmt..Display$GT$3fmt17he09707b693679e18E
ffffff8040019604 T _ZN4core3str8converts9from_utf817h84e73bab8f51e14bE
ffffff8040019874 T _ZN4core3str8converts13from_utf8_mut17h94b0498629f30c07E
ffffff8040019ae4 T _ZN4core3str5count14do_count_chars17hb77a639a554d9b89E
ffffff8040019fd0 T _ZN4core3str5count23char_count_general_case17hbc98156259d0babeE
ffffff804001a284 T _ZN66_$LT$core..str..error..Utf8Error$u20$as$u20$core..fmt..Display$GT$3fmt17h17c1c22c8a1ba949E
ffffff804001a30c T _ZN71_$LT$core..str..error..ParseBoolError$u20$as$u20$core..fmt..Display$GT$3fmt17h8c350f7877408820E
ffffff804001a320 T _ZN59_$LT$core..str..iter..Chars$u20$as$u20$core..fmt..Debug$GT$3fmt17h0813b067f8ee10deE
ffffff804001a91c T _ZN65_$LT$core..str..iter..EncodeUtf16$u20$as$u20$core..fmt..Debug$GT$3fmt17h8e87d4881bf3bed7E
ffffff804001a978 T _ZN4core3str6traits23str_index_overflow_fail17h522cebadb1b58d75E
ffffff804001a9a0 T _ZN4core3str7pattern11StrSearcher3new17h70899109ff710d1bE
ffffff804001b274 T _ZN60_$LT$core..str..lossy..Debug$u20$as$u20$core..fmt..Debug$GT$3fmt17hc42c660a17152c5fE
ffffff804001b5dc T _ZN87_$LT$core..str..lossy..Utf8Chunks$u20$as$u20$core..iter..traits..iterator..Iterator$GT$4next17h27ebbfb4e644b4c4E
ffffff804001b79c T _ZN65_$LT$core..str..lossy..Utf8Chunks$u20$as$u20$core..fmt..Debug$GT$3fmt17hb307c6877d779e78E
ffffff804001b864 T _ZN4core3str16slice_error_fail17h5990b15ac8bad3a6E
ffffff804001b868 T _ZN4core3str19slice_error_fail_ct17hd122d4dac90b781eE
ffffff804001b890 T _ZN4core3str19slice_error_fail_rt17h0646df1f245c208dE
ffffff804001bbc4 T _ZN4core3str21_$LT$impl$u20$str$GT$9from_utf817hecbc66fb01e95b29E
ffffff804001bbc8 T _ZN4core3str21_$LT$impl$u20$str$GT$13from_utf8_mut17h416782640477b917E
ffffff804001bbcc T _ZN4core3str21_$LT$impl$u20$str$GT$18split_at_unchecked17h14e8017fd47435f5E
ffffff804001bbe0 T _ZN4core3str21_$LT$impl$u20$str$GT$22split_at_mut_unchecked17h7dc0492f63168841E
ffffff804001bbf4 T _ZN4core3str21_$LT$impl$u20$str$GT$12escape_debug17h46353466b7850c94E
ffffff804001bcd4 T _ZN4core3str21_$LT$impl$u20$str$GT$12substr_range17hfffe804a4e5ca623E
ffffff804001bd00 T _ZN57_$LT$core..time..Duration$u20$as$u20$core..fmt..Debug$GT$3fmt17h66a0910f85ca4752E
ffffff804001bde4 t _ZN57_$LT$core..time..Duration$u20$as$u20$core..fmt..Debug$GT$3fmt11fmt_decimal17hee4a66273380a2f8E
ffffff804001c340 t _ZN57_$LT$core..time..Duration$u20$as$u20$core..fmt..Debug$GT$3fmt11fmt_decimal28_$u7b$$u7b$closure$u7d$$u7d$17he7ee19ca527add6eE
ffffff804001c558 T _ZN72_$LT$core..time..TryFromFloatSecsError$u20$as$u20$core..fmt..Display$GT$3fmt17h128f5b3b8a0996b2E
ffffff804001c588 T _ZN4core7unicode9printable12is_printable17h33ec513c7cca49ecE
ffffff804001c850 T _ZN62_$LT$core..task..wake..Context$u20$as$u20$core..fmt..Debug$GT$3fmt17h3cfe3acc7e88eb53E
ffffff804001c910 T _ZN60_$LT$core..task..wake..Waker$u20$as$u20$core..fmt..Debug$GT$3fmt17h606bee887971f668E
ffffff804001c9f0 T _ZN65_$LT$core..task..wake..LocalWaker$u20$as$u20$core..fmt..Debug$GT$3fmt17h938b50cea38df6a4E
ffffff804001cad0 T _ZN4core5alloc6layout6Layout19is_size_align_valid17h56d6ed9e0802f800E
ffffff804001caf0 T _ZN71_$LT$core..alloc..layout..LayoutError$u20$as$u20$core..fmt..Display$GT$3fmt17h649cfed9bcd885bbE
ffffff804001cb0c T _ZN62_$LT$core..alloc..AllocError$u20$as$u20$core..fmt..Display$GT$3fmt17hf22db9a8f3ac1549E
ffffff804001cb28 T _ZN4core3f3221_$LT$impl$u20$f32$GT$5clamp8do_panic7runtime17had57986c66667fcbE
ffffff804001cb70 T _ZN4core3f6421_$LT$impl$u20$f64$GT$5clamp8do_panic7runtime17h5a3bd78f6319bfc2E
ffffff804001cbb4 T _ZN49_$LT$u8$u20$as$u20$core..num..bignum..FullOps$GT$12full_div_rem17h1a96553a97bb0577E
ffffff804001cbe4 T _ZN50_$LT$u16$u20$as$u20$core..num..bignum..FullOps$GT$12full_div_rem17hf3305c34fa6f0ae0E
ffffff804001cc10 T _ZN50_$LT$u32$u20$as$u20$core..num..bignum..FullOps$GT$12full_div_rem17h236a84900bcac46cE
ffffff804001cc3c T _ZN4core3num6bignum8Big32x408from_u6417hbb9cfa5a0ecc4e3eE
ffffff804001cc94 T _ZN4core3num6bignum8Big32x406digits17hb8b491a7485a9e7dE
ffffff804001ccb8 T _ZN4core3num6bignum8Big32x407get_bit17h1c38e75842e32573E
ffffff804001cce8 T _ZN4core3num6bignum8Big32x407is_zero17ha3876af308f12912E
ffffff804001cd2c T _ZN4core3num6bignum8Big32x4010bit_length17heece66b2ad7265e9E
ffffff804001cda0 T _ZN4core3num6bignum8Big32x403add17hdf86ae86e6821fb8E
ffffff804001ce34 T _ZN4core3num6bignum8Big32x409add_small17h47b3418946222f65E
ffffff804001d218 T _ZN4core3num6bignum8Big32x403sub17h8b2ec4f6cbf483efE
ffffff804001d2a0 T _ZN4core3num6bignum8Big32x409mul_small17h137a2109f3630932E
ffffff804001d31c T _ZN4core3num6bignum8Big32x408mul_pow217he1df8629673dbb3eE
ffffff804001d6c8 T _ZN4core3num6bignum8Big32x408mul_pow517h6f51f43cfdc159bdE
ffffff804001d848 T _ZN4core3num6bignum8Big32x4010mul_digits17h064ed8783b084971E
ffffff804001d908 t _ZN4core3num6bignum8Big32x4010mul_digits9mul_inner17h800c498bd4498df2E
ffffff804001da8c T _ZN4core3num6bignum8Big32x4013div_rem_small17hdb995815c7cd0c8fE
ffffff804001db08 T _ZN4core3num6bignum8Big32x407div_rem17hfe3e212b775593aaE
ffffff804001dd6c T _ZN68_$LT$core..num..bignum..Big32x40$u20$as$u20$core..cmp..PartialEq$GT$2eq17h8f5fc04b74ba00a7E
ffffff804001dd88 T _ZN69_$LT$core..num..bignum..Big32x40$u20$as$u20$core..cmp..PartialOrd$GT$11partial_cmp17h9708fe68ebb34eeaE
ffffff804001ddf0 T _ZN62_$LT$core..num..bignum..Big32x40$u20$as$u20$core..cmp..Ord$GT$3cmp17h8248057e45a0e23aE
ffffff804001de58 T _ZN64_$LT$core..num..bignum..Big32x40$u20$as$u20$core..fmt..Debug$GT$3fmt17h28f8a93df04fa66dE
ffffff804001dfa0 T _ZN4core3num6bignum5tests6Big8x38from_u6417hd078df9a4ab454c4E
ffffff804001e048 T _ZN4core3num6bignum5tests6Big8x36digits17h18ad9a008bb02bbbE
ffffff804001e070 T _ZN4core3num6bignum5tests6Big8x37get_bit17h2d0e43490ba9914cE
ffffff804001e0a8 T _ZN4core3num6bignum5tests6Big8x37is_zero17h65ea67c94f060582E
ffffff804001e118 T _ZN4core3num6bignum5tests6Big8x310bit_length17h2b13279d11a7208cE
ffffff804001e1cc T _ZN4core3num6bignum5tests6Big8x33add17h28d4c295b665c3aaE
ffffff804001e274 T _ZN4core3num6bignum5tests6Big8x39add_small17hbc20026936652cb8E
ffffff804001e2f8 T _ZN4core3num6bignum5tests6Big8x33sub17h0f1bc0c95494e295E
ffffff804001e390 T _ZN4core3num6bignum5tests6Big8x39mul_small17hfbdc2916af9ad720E
ffffff804001e42c T _ZN4core3num6bignum5tests6Big8x38mul_pow217hdb749000be0d40d0E
ffffff804001e680 T _ZN4core3num6bignum5tests6Big8x38mul_pow517h5b943a4235e01f9cE
ffffff804001e7ec T _ZN4core3num6bignum5tests6Big8x310mul_digits17hc8d3b9029751f225E
ffffff804001eb58 T _ZN4core3num6bignum5tests6Big8x313div_rem_small17h72d6905c14c2a3c8E
ffffff804001ec08 T _ZN4core3num6bignum5tests6Big8x37div_rem17h90c62b3e1d009d1bE
ffffff804001eee0 T _ZN73_$LT$core..num..bignum..tests..Big8x3$u20$as$u20$core..cmp..PartialEq$GT$2eq17hc66eb5033e24664cE
ffffff804001ef00 T _ZN74_$LT$core..num..bignum..tests..Big8x3$u20$as$u20$core..cmp..PartialOrd$GT$11partial_cmp17h071cd4be08721ee9E
ffffff804001efa8 T _ZN67_$LT$core..num..bignum..tests..Big8x3$u20$as$u20$core..cmp..Ord$GT$3cmp17h5df9d51bbe6f4212E
ffffff804001f050 T _ZN69_$LT$core..num..bignum..tests..Big8x3$u20$as$u20$core..fmt..Debug$GT$3fmt17h4a7889215de6e594E
ffffff804001f188 T _ZN4core3num7dec2flt60_$LT$impl$u20$core..str..traits..FromStr$u20$for$u20$f16$GT$8from_str17h105e15f2da86a48dE
ffffff804001f624 T _ZN4core3num7dec2flt60_$LT$impl$u20$core..str..traits..FromStr$u20$for$u20$f32$GT$8from_str17hf1e80c7f2939db34E
ffffff804001fa90 T _ZN4core3num7dec2flt60_$LT$impl$u20$core..str..traits..FromStr$u20$for$u20$f64$GT$8from_str17h10a17d5e6249244aE
ffffff804001fed4 t _ZN73_$LT$core..num..nonzero..NonZero$LT$T$GT$$u20$as$u20$core..fmt..Debug$GT$3fmt17h78b6ef3503a2c30eE
ffffff804001ffb0 T _ZN84_$LT$core..num..nonzero..NonZero$LT$u8$GT$$u20$as$u20$core..str..traits..FromStr$GT$8from_str17hc158c8135fcf79e7E
ffffff80400200bc T _ZN85_$LT$core..num..nonzero..NonZero$LT$u16$GT$$u20$as$u20$core..str..traits..FromStr$GT$8from_str17hb12dbc7c7e2e57b4E
ffffff80400201d0 T _ZN85_$LT$core..num..nonzero..NonZero$LT$u32$GT$$u20$as$u20$core..str..traits..FromStr$GT$8from_str17h43a4c91ac5cf4061E
ffffff8040020318 T _ZN85_$LT$core..num..nonzero..NonZero$LT$u64$GT$$u20$as$u20$core..str..traits..FromStr$GT$8from_str17heb5f54b27e35b1dcE
ffffff8040020318 T _ZN87_$LT$core..num..nonzero..NonZero$LT$usize$GT$$u20$as$u20$core..str..traits..FromStr$GT$8from_str17hed7fe1da295f23a6E
ffffff8040020428 T _ZN86_$LT$core..num..nonzero..NonZero$LT$u128$GT$$u20$as$u20$core..str..traits..FromStr$GT$8from_str17hc242f568ff67a028E
ffffff804002056c T _ZN84_$LT$core..num..nonzero..NonZero$LT$i8$GT$$u20$as$u20$core..str..traits..FromStr$GT$8from_str17h5dc2dc2bbf873f86E
ffffff804002077c T _ZN85_$LT$core..num..nonzero..NonZero$LT$i16$GT$$u20$as$u20$core..str..traits..FromStr$GT$8from_str17h40aa7a1d2e4fe2e9E
ffffff8040020984 T _ZN85_$LT$core..num..nonzero..NonZero$LT$i32$GT$$u20$as$u20$core..str..traits..FromStr$GT$8from_str17ha0b77549fab59c69E
ffffff8040020b74 T _ZN85_$LT$core..num..nonzero..NonZero$LT$i64$GT$$u20$as$u20$core..str..traits..FromStr$GT$8from_str17h9429fc1e5c233191E
ffffff8040020b74 T _ZN87_$LT$core..num..nonzero..NonZero$LT$isize$GT$$u20$as$u20$core..str..traits..FromStr$GT$8from_str17h6852ba7b86c42dfeE
ffffff8040020d44 T _ZN86_$LT$core..num..nonzero..NonZero$LT$i128$GT$$u20$as$u20$core..str..traits..FromStr$GT$8from_str17h85b74dfed014d3d4E
ffffff8040020f94 T _ZN72_$LT$core..num..niche_types..Nanoseconds$u20$as$u20$core..fmt..Debug$GT$3fmt17hf099e33763be1b3fE
ffffff8040021074 T _ZN75_$LT$core..num..niche_types..NonZeroU8Inner$u20$as$u20$core..fmt..Debug$GT$3fmt17h2382e2543dfcc753E
ffffff804002107c T _ZN76_$LT$core..num..niche_types..NonZeroU16Inner$u20$as$u20$core..fmt..Debug$GT$3fmt17h0ec0a9a8aefd841eE
ffffff804002115c T _ZN76_$LT$core..num..niche_types..NonZeroU32Inner$u20$as$u20$core..fmt..Debug$GT$3fmt17hb7da95d615b0769dE
ffffff804002123c T _ZN76_$LT$core..num..niche_types..NonZeroU64Inner$u20$as$u20$core..fmt..Debug$GT$3fmt17ha385d3c2acbd8523E
ffffff804002123c T _ZN78_$LT$core..num..niche_types..NonZeroUsizeInner$u20$as$u20$core..fmt..Debug$GT$3fmt17he325d67c5fc5c9d7E
ffffff8040021318 T _ZN77_$LT$core..num..niche_types..NonZeroU128Inner$u20$as$u20$core..fmt..Debug$GT$3fmt17h21425546e88fae0bE
ffffff8040021458 T _ZN75_$LT$core..num..niche_types..NonZeroI8Inner$u20$as$u20$core..fmt..Debug$GT$3fmt17h4ba90eda1bb79b11E
ffffff8040021460 T _ZN76_$LT$core..num..niche_types..NonZeroI16Inner$u20$as$u20$core..fmt..Debug$GT$3fmt17h32318e79ad01c50cE
ffffff8040021540 T _ZN76_$LT$core..num..niche_types..NonZeroI32Inner$u20$as$u20$core..fmt..Debug$GT$3fmt17h0f737e0973d3470fE
ffffff8040021620 T _ZN76_$LT$core..num..niche_types..NonZeroI64Inner$u20$as$u20$core..fmt..Debug$GT$3fmt17h0091582f2342cf92E
ffffff8040021620 T _ZN78_$LT$core..num..niche_types..NonZeroIsizeInner$u20$as$u20$core..fmt..Debug$GT$3fmt17h7331ea6f8352a934E
ffffff80400216fc T _ZN77_$LT$core..num..niche_types..NonZeroI128Inner$u20$as$u20$core..fmt..Debug$GT$3fmt17h6f7173f4093140a4E
ffffff804002185c T _ZN77_$LT$core..num..niche_types..NonZeroCharInner$u20$as$u20$core..fmt..Debug$GT$3fmt17h81517ad3b0dd9117E
ffffff804002193c T _ZN75_$LT$core..num..niche_types..UsizeNoHighBit$u20$as$u20$core..fmt..Debug$GT$3fmt17habf9381967d1eccfE
ffffff8040021a18 T _ZN74_$LT$core..num..niche_types..U32NotAllOnes$u20$as$u20$core..fmt..Debug$GT$3fmt17h39f7c522bdb3afd4E
ffffff8040021af8 T _ZN74_$LT$core..num..niche_types..I32NotAllOnes$u20$as$u20$core..fmt..Debug$GT$3fmt17h1de2d92fd97918a4E
ffffff8040021bd8 T _ZN74_$LT$core..num..niche_types..U64NotAllOnes$u20$as$u20$core..fmt..Debug$GT$3fmt17h7564211a39039950E
ffffff8040021cb4 T _ZN74_$LT$core..num..niche_types..I64NotAllOnes$u20$as$u20$core..fmt..Debug$GT$3fmt17hb45cd066ab198cf1E
ffffff8040021d90 T _ZN4core3num22from_ascii_radix_panic8do_panic7runtime17h89a301d5bff19bddE
ffffff8040021dcc T _ZN4core10intrinsics3mir11PtrMetadata19panic_cold_explicit17h8268caa5e03af419E
ffffff8040021dcc T _ZN4core10intrinsics3mir11StorageDead19panic_cold_explicit17h66e7a7344e593c78E
ffffff8040021dcc T _ZN4core10intrinsics3mir11StorageLive19panic_cold_explicit17hcc3a6b78de40ab01E
ffffff8040021dcc T _ZN4core10intrinsics3mir11Unreachable19panic_cold_explicit17h14a1b8d5d1302a18E
ffffff8040021dcc T _ZN4core10intrinsics3mir11__debuginfo19panic_cold_explicit17hc8f4c494db265eeaE
ffffff8040021dcc T _ZN4core10intrinsics3mir12CastPtrToPtr19panic_cold_explicit17h642b81f4a2160fa4E
ffffff8040021dcc T _ZN4core10intrinsics3mir12CopyForDeref19panic_cold_explicit17h644d5077f61d638cE
ffffff8040021dcc T _ZN4core10intrinsics3mir12Discriminant19panic_cold_explicit17h4611e942930af3b0E
ffffff8040021dcc T _ZN4core10intrinsics3mir12UnwindResume19panic_cold_explicit17hc9a0358a932f96a8E
ffffff8040021dcc T _ZN4core10intrinsics3mir13CastTransmute19panic_cold_explicit17he64f326b9197d59fE
ffffff8040021dcc T _ZN4core10intrinsics3mir13UnwindCleanup19panic_cold_explicit17he7365a3202c86d84E
ffffff8040021dcc T _ZN4core10intrinsics3mir14UnwindContinue19panic_cold_explicit17h81e30278cfa87659E
ffffff8040021dcc T _ZN4core10intrinsics3mir15SetDiscriminant19panic_cold_explicit17h6406b8a97bc70a7eE
ffffff8040021dcc T _ZN4core10intrinsics3mir15UnwindTerminate19panic_cold_explicit17h7f2f91fe46026bd3E
ffffff8040021dcc T _ZN4core10intrinsics3mir17UnwindUnreachable19panic_cold_explicit17hea134533ac4edb8bE
ffffff8040021dcc T _ZN4core10intrinsics3mir21__internal_make_place19panic_cold_explicit17hb6b54b1ef83d6cb7E
ffffff8040021dcc T _ZN4core10intrinsics3mir3Len19panic_cold_explicit17hd05029a398d0136bE
ffffff8040021dcc T _ZN4core10intrinsics3mir4Call19panic_cold_explicit17hbc572d428a3df9f7E
ffffff8040021dcc T _ZN4core10intrinsics3mir4Drop19panic_cold_explicit17h6d4249ec2926e35bE
ffffff8040021dcc T _ZN4core10intrinsics3mir4Goto19panic_cold_explicit17hc788b8dc57d64655E
ffffff8040021dcc T _ZN4core10intrinsics3mir4Move19panic_cold_explicit17h020ba6d66db92c60E
ffffff8040021dcc T _ZN4core10intrinsics3mir5Field19panic_cold_explicit17h90aaf1d98eca22ceE
ffffff8040021dcc T _ZN4core10intrinsics3mir5Retag19panic_cold_explicit17h4084e89e197e4151E
ffffff8040021dcc T _ZN4core10intrinsics3mir6Assume19panic_cold_explicit17hd6a5efe65cd012d5E
ffffff8040021dcc T _ZN4core10intrinsics3mir6Deinit19panic_cold_explicit17h7bb3d84cbf019d31E
ffffff8040021dcc T _ZN4core10intrinsics3mir6Offset19panic_cold_explicit17h179b6b658a60882dE
ffffff8040021dcc T _ZN4core10intrinsics3mir6Return19panic_cold_explicit17hc753e8fae9afa72dE
ffffff8040021dcc T _ZN4core10intrinsics3mir6Static19panic_cold_explicit17h99facb54d2dd74caE
ffffff8040021dcc T _ZN4core10intrinsics3mir7Checked19panic_cold_explicit17h2debed911693fc78E
ffffff8040021dcc T _ZN4core10intrinsics3mir7Variant19panic_cold_explicit17h9791becfe683c085E
ffffff8040021dcc T _ZN4core10intrinsics3mir8ReturnTo19panic_cold_explicit17hc16343c1a4805e74E
ffffff8040021dcc T _ZN4core10intrinsics3mir8TailCall19panic_cold_explicit17h2a5b48e71b36ed5cE
ffffff8040021dcc T _ZN4core10intrinsics3mir9StaticMut19panic_cold_explicit17hb84fe1f057804637E
ffffff8040021dd0 T _ZN85_$LT$core..marker..variance..PhantomCovariantLifetime$u20$as$u20$core..fmt..Debug$GT$3fmt17h9e7ff28b9e550039E
ffffff8040021dec T _ZN89_$LT$core..marker..variance..PhantomContravariantLifetime$u20$as$u20$core..fmt..Debug$GT$3fmt17h9f0517f39e475b51E
ffffff8040021e08 T _ZN85_$LT$core..marker..variance..PhantomInvariantLifetime$u20$as$u20$core..fmt..Debug$GT$3fmt17h71dc68c5bfa4a6eeE
ffffff8040021e24 T _ZN4core4cell22panic_already_borrowed8do_panic7runtime17h670cd965b0b3d8aeE
ffffff8040021e60 T _ZN4core4cell30panic_already_mutably_borrowed8do_panic7runtime17he4003f337df4b7f4E
ffffff8040021e9c T _ZN4core4char7methods15encode_utf8_raw8do_panic7runtime17h312cb9fc7dc83fa0E
ffffff8040021f00 T _ZN4core4char7methods16encode_utf16_raw8do_panic7runtime17hc4098a18af9b1e44E
ffffff8040021f64 T _ZN82_$LT$core..char..ToLowercase$u20$as$u20$core..iter..traits..iterator..Iterator$GT$4next17h2288cc9ba8240886E
ffffff8040021f64 T _ZN82_$LT$core..char..ToUppercase$u20$as$u20$core..iter..traits..iterator..Iterator$GT$4next17h8d3b0f6282ff32e5E
ffffff8040021f90 T _ZN82_$LT$core..char..ToLowercase$u20$as$u20$core..iter..traits..iterator..Iterator$GT$5count17hd4ca14c4f3029dc5E
ffffff8040021f90 T _ZN82_$LT$core..char..ToUppercase$u20$as$u20$core..iter..traits..iterator..Iterator$GT$5count17h158bd2910d42321cE
ffffff8040021f9c T _ZN82_$LT$core..char..ToLowercase$u20$as$u20$core..iter..traits..iterator..Iterator$GT$4last17h8eec65dcccdd3706E
ffffff8040021f9c T _ZN82_$LT$core..char..ToUppercase$u20$as$u20$core..iter..traits..iterator..Iterator$GT$4last17hb803527bfeb6f706E
ffffff8040021fdc T _ZN82_$LT$core..char..ToLowercase$u20$as$u20$core..iter..traits..iterator..Iterator$GT$10advance_by17h6c1f8dfd4910fd87E
ffffff8040021fdc T _ZN82_$LT$core..char..ToUppercase$u20$as$u20$core..iter..traits..iterator..Iterator$GT$10advance_by17hf611847e6b87a924E
ffffff8040022000 T _ZN82_$LT$core..char..ToLowercase$u20$as$u20$core..iter..traits..iterator..Iterator$GT$24__iterator_get_unchecked17hb869e8e06f8656e1E
ffffff8040022000 T _ZN82_$LT$core..char..ToUppercase$u20$as$u20$core..iter..traits..iterator..Iterator$GT$24__iterator_get_unchecked17h421080feba730a7bE
ffffff8040022014 T _ZN97_$LT$core..char..ToLowercase$u20$as$u20$core..iter..traits..double_ended..DoubleEndedIterator$GT$9next_back17h875222ecbeb96a48E
ffffff8040022014 T _ZN97_$LT$core..char..ToUppercase$u20$as$u20$core..iter..traits..double_ended..DoubleEndedIterator$GT$9next_back17h9dd825ff15c3cda8E
ffffff804002203c T _ZN97_$LT$core..char..ToLowercase$u20$as$u20$core..iter..traits..double_ended..DoubleEndedIterator$GT$15advance_back_by17hf126ff084ca5d94eE
ffffff804002203c T _ZN97_$LT$core..char..ToUppercase$u20$as$u20$core..iter..traits..double_ended..DoubleEndedIterator$GT$15advance_back_by17h9404b01fed2fe2e8E
ffffff8040022064 T _ZN77_$LT$core..net..ip_addr..Ipv4Addr$u20$as$u20$core..ops..bit..BitAndAssign$GT$13bitand_assign17h4632198979acf41dE
ffffff8040022098 T _ZN117_$LT$core..net..ip_addr..Ipv4Addr$u20$as$u20$core..ops..bit..BitAndAssign$LT$$RF$core..net..ip_addr..Ipv4Addr$GT$$GT$13bitand_assign17h2e6c7229c5613d22E
ffffff80400220d4 T _ZN76_$LT$core..net..ip_addr..Ipv4Addr$u20$as$u20$core..ops..bit..BitOrAssign$GT$12bitor_assign17hc44e56516cf2b03aE
ffffff8040022108 T _ZN116_$LT$core..net..ip_addr..Ipv4Addr$u20$as$u20$core..ops..bit..BitOrAssign$LT$$RF$core..net..ip_addr..Ipv4Addr$GT$$GT$12bitor_assign17he0fa014ca6c3a48fE
ffffff8040022144 T _ZN77_$LT$core..net..ip_addr..Ipv6Addr$u20$as$u20$core..ops..bit..BitAndAssign$GT$13bitand_assign17h6a7b5e34b8917950E
ffffff80400221d8 T _ZN117_$LT$core..net..ip_addr..Ipv6Addr$u20$as$u20$core..ops..bit..BitAndAssign$LT$$RF$core..net..ip_addr..Ipv6Addr$GT$$GT$13bitand_assign17h2d1c79e0853e06c7E
ffffff80400221ec T _ZN76_$LT$core..net..ip_addr..Ipv6Addr$u20$as$u20$core..ops..bit..BitOrAssign$GT$12bitor_assign17h9da421c06c8530f0E
ffffff8040022280 T _ZN116_$LT$core..net..ip_addr..Ipv6Addr$u20$as$u20$core..ops..bit..BitOrAssign$LT$$RF$core..net..ip_addr..Ipv6Addr$GT$$GT$12bitor_assign17h603bcf3fda08df81E
ffffff8040022294 T _ZN4core9panicking11panic_const24panic_const_add_overflow17h43474e915747bde8E
ffffff80400222bc T _ZN4core9panicking11panic_const24panic_const_sub_overflow17he1fc737d3c4f6284E
ffffff80400222e4 T _ZN4core9panicking11panic_const24panic_const_mul_overflow17ha5b5384aa1f76ab0E
ffffff804002230c T _ZN4core9panicking11panic_const24panic_const_div_overflow17h031284634b490d6aE
ffffff8040022334 T _ZN4core9panicking11panic_const24panic_const_rem_overflow17h8fd801b1e2288f30E
ffffff804002235c T _ZN4core9panicking11panic_const24panic_const_neg_overflow17ha077767da2acd565E
ffffff8040022384 T _ZN4core9panicking11panic_const24panic_const_shr_overflow17he67d449d6d081ce7E
ffffff80400223ac T _ZN4core9panicking11panic_const24panic_const_shl_overflow17h808187bbd4d01997E
ffffff80400223d4 T _ZN4core9panicking11panic_const23panic_const_div_by_zero17h90f3a8f2ab8cd2e9E
ffffff80400223fc T _ZN4core9panicking11panic_const23panic_const_rem_by_zero17h7a822cb98af308c7E
ffffff8040022424 T _ZN4core9panicking11panic_const29panic_const_coroutine_resumed17hf16d1e1ed1c9f462E
ffffff804002244c T _ZN4core9panicking11panic_const28panic_const_async_fn_resumed17hb54610eed4e9f946E
ffffff8040022474 T _ZN4core9panicking11panic_const32panic_const_async_gen_fn_resumed17h6d3f26f8176f1146E
ffffff804002249c T _ZN4core9panicking11panic_const23panic_const_gen_fn_none17h5e6e8133fc98835bE
ffffff80400224c4 T _ZN4core9panicking11panic_const35panic_const_coroutine_resumed_panic17h4e5cc06b2fabc7c2E
ffffff80400224ec T _ZN4core9panicking11panic_const34panic_const_async_fn_resumed_panic17h551df1110d9c6050E
ffffff8040022514 T _ZN4core9panicking11panic_const38panic_const_async_gen_fn_resumed_panic17h0bcfe583df6d0e8fE
ffffff804002253c T _ZN4core9panicking11panic_const29panic_const_gen_fn_none_panic17h667f0da03c1103ecE
ffffff8040022564 T _ZN4core9panicking11panic_const34panic_const_coroutine_resumed_drop17h059a9e9faca00e33E
ffffff804002258c T _ZN4core9panicking11panic_const33panic_const_async_fn_resumed_drop17h26c621480d5ca661E
ffffff80400225b4 T _ZN4core9panicking11panic_const37panic_const_async_gen_fn_resumed_drop17hdb9c18d7fb1ebeffE
ffffff80400225dc T _ZN4core9panicking11panic_const28panic_const_gen_fn_none_drop17h5f8c8cf627fc7bc9E
ffffff8040022604 T _ZN46_$LT$i8$u20$as$u20$core..pat..RangePattern$GT$7sub_one17h96bf771a1201f316E
ffffff8040022640 T _ZN47_$LT$i16$u20$as$u20$core..pat..RangePattern$GT$7sub_one17ha15aab3d025cf3f0E
ffffff804002267c T _ZN47_$LT$i32$u20$as$u20$core..pat..RangePattern$GT$7sub_one17h07727d4473505365E
ffffff80400226ac T _ZN47_$LT$i64$u20$as$u20$core..pat..RangePattern$GT$7sub_one17h5d1d29072b1b0306E
ffffff80400226ac T _ZN49_$LT$isize$u20$as$u20$core..pat..RangePattern$GT$7sub_one17h6a04b33d5dbfca70E
ffffff80400226dc T _ZN48_$LT$i128$u20$as$u20$core..pat..RangePattern$GT$7sub_one17h7984b6cb5ac68d07E
ffffff804002271c T _ZN46_$LT$u8$u20$as$u20$core..pat..RangePattern$GT$7sub_one17h31b7d9785fa4c9e7E
ffffff8040022750 T _ZN47_$LT$u16$u20$as$u20$core..pat..RangePattern$GT$7sub_one17h992d8bcdfccda331E
ffffff8040022784 T _ZN47_$LT$u32$u20$as$u20$core..pat..RangePattern$GT$7sub_one17h6965e861fcf69601E
ffffff80400227b4 T _ZN47_$LT$u64$u20$as$u20$core..pat..RangePattern$GT$7sub_one17hde936fe2b83d235dE
ffffff80400227b4 T _ZN49_$LT$usize$u20$as$u20$core..pat..RangePattern$GT$7sub_one17hfa2d850a382226b3E
ffffff80400227e4 T _ZN48_$LT$u128$u20$as$u20$core..pat..RangePattern$GT$7sub_one17h16b1cc87e0a5eeccE
ffffff8040022824 T _ZN65_$LT$core..sync..atomic..AtomicI8$u20$as$u20$core..fmt..Debug$GT$3fmt17h14aa020fb9f6c7f7E
ffffff804002282c T _ZN65_$LT$core..sync..atomic..AtomicU8$u20$as$u20$core..fmt..Debug$GT$3fmt17h7b4911f363d556efE
ffffff8040022834 T _ZN66_$LT$core..sync..atomic..AtomicI16$u20$as$u20$core..fmt..Debug$GT$3fmt17h31cfcef662656af5E
ffffff8040022914 T _ZN66_$LT$core..sync..atomic..AtomicU16$u20$as$u20$core..fmt..Debug$GT$3fmt17h39e16476631dd79fE
ffffff80400229f4 T _ZN66_$LT$core..sync..atomic..AtomicI32$u20$as$u20$core..fmt..Debug$GT$3fmt17h1b4aef22a505ca8eE
ffffff8040022ad4 T _ZN66_$LT$core..sync..atomic..AtomicU32$u20$as$u20$core..fmt..Debug$GT$3fmt17h93c2e46c1055d80dE
ffffff8040022bb4 T _ZN66_$LT$core..sync..atomic..AtomicI64$u20$as$u20$core..fmt..Debug$GT$3fmt17h582e67afc7742a83E
ffffff8040022bb4 T _ZN68_$LT$core..sync..atomic..AtomicIsize$u20$as$u20$core..fmt..Debug$GT$3fmt17h7d28d3b50b589a45E
ffffff8040022c90 T _ZN66_$LT$core..sync..atomic..AtomicU64$u20$as$u20$core..fmt..Debug$GT$3fmt17he877dcb42a46a80aE
ffffff8040022c90 T _ZN68_$LT$core..sync..atomic..AtomicUsize$u20$as$u20$core..fmt..Debug$GT$3fmt17h6c102728b975c3d3E
ffffff8040022d6c T _ZN55_$LT$f32$u20$as$u20$core..fmt..float..GeneralFormat$GT$44already_rounded_value_should_use_exponential17h7126b6d9f5a29c61E
ffffff8040022dac T _ZN55_$LT$f64$u20$as$u20$core..fmt..float..GeneralFormat$GT$44already_rounded_value_should_use_exponential17he3048cd2cf9a9c8dE
ffffff8040022de0 T _ZN4core3fmt5float50_$LT$impl$u20$core..fmt..Debug$u20$for$u20$f32$GT$3fmt17hcb0f0e5eda659d19E
ffffff8040022e58 T _ZN4core3fmt5float52_$LT$impl$u20$core..fmt..Display$u20$for$u20$f32$GT$3fmt17h6f3ec6937774dd3bE
ffffff8040022e84 T _ZN4core3fmt5float53_$LT$impl$u20$core..fmt..LowerExp$u20$for$u20$f32$GT$3fmt17hb03cffc61b804e53E
ffffff8040022ebc T _ZN4core3fmt5float53_$LT$impl$u20$core..fmt..UpperExp$u20$for$u20$f32$GT$3fmt17hb2e3c1eb00f26a05E
ffffff8040022ef4 T _ZN4core3fmt5float50_$LT$impl$u20$core..fmt..Debug$u20$for$u20$f64$GT$3fmt17h08b8a01acdec3774E
ffffff8040022f64 T _ZN4core3fmt5float52_$LT$impl$u20$core..fmt..Display$u20$for$u20$f64$GT$3fmt17h5b5a1c313f833338E
ffffff8040022f90 T _ZN4core3fmt5float53_$LT$impl$u20$core..fmt..LowerExp$u20$for$u20$f64$GT$3fmt17h635813de11fa4874E
ffffff8040022fc8 T _ZN4core3fmt5float53_$LT$impl$u20$core..fmt..UpperExp$u20$for$u20$f64$GT$3fmt17h4a8cf53a375ece87E
ffffff8040023000 T _ZN4core3fmt5float50_$LT$impl$u20$core..fmt..Debug$u20$for$u20$f16$GT$3fmt17h23d971ef0f5f843cE
ffffff8040023084 T _ZN4core3fmt5float52_$LT$impl$u20$core..fmt..Display$u20$for$u20$f16$GT$3fmt17h197974ccf4f4613cE
ffffff80400230b0 T _ZN4core3fmt5float53_$LT$impl$u20$core..fmt..LowerExp$u20$for$u20$f16$GT$3fmt17h1b279b45f269266aE
ffffff80400230e8 T _ZN4core3fmt5float53_$LT$impl$u20$core..fmt..UpperExp$u20$for$u20$f16$GT$3fmt17h12af82beeb4c8866E
ffffff8040023120 T _ZN71_$LT$core..fmt..num..Binary$u20$as$u20$core..fmt..num..GenericRadix$GT$5digit17h733af9db8344a43dE
ffffff8040023188 T _ZN70_$LT$core..fmt..num..Octal$u20$as$u20$core..fmt..num..GenericRadix$GT$5digit17h18a91afa472897fcE
ffffff80400231f0 T _ZN73_$LT$core..fmt..num..LowerHex$u20$as$u20$core..fmt..num..GenericRadix$GT$5digit17h3b942ca7c4d047e7E
ffffff804002326c T _ZN73_$LT$core..fmt..num..UpperHex$u20$as$u20$core..fmt..num..GenericRadix$GT$5digit17ha7b3c3a8f402bd66E
ffffff80400232e8 T _ZN4core3fmt3num50_$LT$impl$u20$core..fmt..Binary$u20$for$u20$i8$GT$3fmt17h0fdd345b85ceede1E
ffffff80400232e8 T _ZN4core3fmt3num50_$LT$impl$u20$core..fmt..Binary$u20$for$u20$u8$GT$3fmt17h179bfaf7a9d017eeE
ffffff8040023354 T _ZN4core3fmt3num49_$LT$impl$u20$core..fmt..Octal$u20$for$u20$i8$GT$3fmt17hda264e140914de45E
ffffff8040023354 T _ZN4core3fmt3num49_$LT$impl$u20$core..fmt..Octal$u20$for$u20$u8$GT$3fmt17hdd4aac0606fa2c4dE
ffffff80400233c0 T _ZN4core3fmt3num52_$LT$impl$u20$core..fmt..LowerHex$u20$for$u20$i8$GT$3fmt17h490c8406fcb2ad3eE
ffffff80400233c0 T _ZN4core3fmt3num52_$LT$impl$u20$core..fmt..LowerHex$u20$for$u20$u8$GT$3fmt17he25ec399d6043787E
ffffff804002343c T _ZN4core3fmt3num52_$LT$impl$u20$core..fmt..UpperHex$u20$for$u20$i8$GT$3fmt17h1caa6f573dc24febE
ffffff804002343c T _ZN4core3fmt3num52_$LT$impl$u20$core..fmt..UpperHex$u20$for$u20$u8$GT$3fmt17hbf258f5fff26f049E
ffffff80400234b8 T _ZN4core3fmt3num51_$LT$impl$u20$core..fmt..Binary$u20$for$u20$i16$GT$3fmt17h0b459be86479a6cfE
ffffff80400234b8 T _ZN4core3fmt3num51_$LT$impl$u20$core..fmt..Binary$u20$for$u20$u16$GT$3fmt17hb53141814de403a8E
ffffff8040023524 T _ZN4core3fmt3num50_$LT$impl$u20$core..fmt..Octal$u20$for$u20$i16$GT$3fmt17h940dcfb3d5bb6642E
ffffff8040023524 T _ZN4core3fmt3num50_$LT$impl$u20$core..fmt..Octal$u20$for$u20$u16$GT$3fmt17ha8c5cdb822f2cf59E
ffffff8040023590 T _ZN4core3fmt3num53_$LT$impl$u20$core..fmt..LowerHex$u20$for$u20$i16$GT$3fmt17h749642a40a174310E
ffffff8040023590 T _ZN4core3fmt3num53_$LT$impl$u20$core..fmt..LowerHex$u20$for$u20$u16$GT$3fmt17h9e1646fe0873e737E
ffffff804002360c T _ZN4core3fmt3num53_$LT$impl$u20$core..fmt..UpperHex$u20$for$u20$i16$GT$3fmt17hab9a9a3c97b77958E
ffffff804002360c T _ZN4core3fmt3num53_$LT$impl$u20$core..fmt..UpperHex$u20$for$u20$u16$GT$3fmt17h03277fd898f5bd2aE
ffffff8040023688 T _ZN4core3fmt3num51_$LT$impl$u20$core..fmt..Binary$u20$for$u20$i32$GT$3fmt17hb0003f9d78442140E
ffffff8040023688 T _ZN4core3fmt3num51_$LT$impl$u20$core..fmt..Binary$u20$for$u20$u32$GT$3fmt17h13e756afb3c50931E
ffffff80400236f4 T _ZN4core3fmt3num50_$LT$impl$u20$core..fmt..Octal$u20$for$u20$i32$GT$3fmt17h423898ce81fa2050E
ffffff80400236f4 T _ZN4core3fmt3num50_$LT$impl$u20$core..fmt..Octal$u20$for$u20$u32$GT$3fmt17hfcc29f08baea0476E
ffffff8040023760 T _ZN4core3fmt3num53_$LT$impl$u20$core..fmt..LowerHex$u20$for$u20$i32$GT$3fmt17h18b5dc0d8c127ea6E
ffffff8040023760 T _ZN4core3fmt3num53_$LT$impl$u20$core..fmt..LowerHex$u20$for$u20$u32$GT$3fmt17h0bcfb4dd76e15a58E
ffffff80400237dc T _ZN4core3fmt3num53_$LT$impl$u20$core..fmt..UpperHex$u20$for$u20$i32$GT$3fmt17he4b5456af9167942E
ffffff80400237dc T _ZN4core3fmt3num53_$LT$impl$u20$core..fmt..UpperHex$u20$for$u20$u32$GT$3fmt17h5d13a91945057798E
ffffff8040023858 T _ZN4core3fmt3num51_$LT$impl$u20$core..fmt..Binary$u20$for$u20$i64$GT$3fmt17h7c22cb3d1723311fE
ffffff8040023858 T _ZN4core3fmt3num51_$LT$impl$u20$core..fmt..Binary$u20$for$u20$u64$GT$3fmt17h1d9b25ed86de2ba3E
ffffff8040023858 T _ZN4core3fmt3num53_$LT$impl$u20$core..fmt..Binary$u20$for$u20$isize$GT$3fmt17hdf2c2bc1d6a9905dE
ffffff8040023858 T _ZN4core3fmt3num53_$LT$impl$u20$core..fmt..Binary$u20$for$u20$usize$GT$3fmt17hfe51f501e7ab020dE
ffffff80400238c4 T _ZN4core3fmt3num50_$LT$impl$u20$core..fmt..Octal$u20$for$u20$i64$GT$3fmt17h95949628df087ff1E
ffffff80400238c4 T _ZN4core3fmt3num50_$LT$impl$u20$core..fmt..Octal$u20$for$u20$u64$GT$3fmt17hc0dd66f5529955c0E
ffffff80400238c4 T _ZN4core3fmt3num52_$LT$impl$u20$core..fmt..Octal$u20$for$u20$isize$GT$3fmt17h3a5481294dcb9ea3E
ffffff80400238c4 T _ZN4core3fmt3num52_$LT$impl$u20$core..fmt..Octal$u20$for$u20$usize$GT$3fmt17h9a9d24417a4749d1E
ffffff8040023930 T _ZN4core3fmt3num53_$LT$impl$u20$core..fmt..LowerHex$u20$for$u20$i64$GT$3fmt17hb3aa1c05419bd3cdE
ffffff8040023930 T _ZN4core3fmt3num53_$LT$impl$u20$core..fmt..LowerHex$u20$for$u20$u64$GT$3fmt17he2646b77bc91c6f2E
ffffff8040023930 T _ZN4core3fmt3num55_$LT$impl$u20$core..fmt..LowerHex$u20$for$u20$isize$GT$3fmt17h10dc7726fd7b81d1E
ffffff8040023930 T _ZN4core3fmt3num55_$LT$impl$u20$core..fmt..LowerHex$u20$for$u20$usize$GT$3fmt17h66d0a6fe7f2d98ddE
ffffff80400239ac T _ZN4core3fmt3num53_$LT$impl$u20$core..fmt..UpperHex$u20$for$u20$i64$GT$3fmt17h6ce4323d0507ea3eE
ffffff80400239ac T _ZN4core3fmt3num53_$LT$impl$u20$core..fmt..UpperHex$u20$for$u20$u64$GT$3fmt17hf15d7100c92649d7E
ffffff80400239ac T _ZN4core3fmt3num55_$LT$impl$u20$core..fmt..UpperHex$u20$for$u20$isize$GT$3fmt17h9e0cb294885e2a8bE
ffffff80400239ac T _ZN4core3fmt3num55_$LT$impl$u20$core..fmt..UpperHex$u20$for$u20$usize$GT$3fmt17ha0dafbe143c4f87cE
ffffff8040023a28 T _ZN4core3fmt3num52_$LT$impl$u20$core..fmt..Binary$u20$for$u20$i128$GT$3fmt17h4e25390e3f5b0a95E
ffffff8040023a28 T _ZN4core3fmt3num52_$LT$impl$u20$core..fmt..Binary$u20$for$u20$u128$GT$3fmt17h6d22a239d97d05ffE
ffffff8040023ab8 T _ZN4core3fmt3num51_$LT$impl$u20$core..fmt..Octal$u20$for$u20$i128$GT$3fmt17hc60141920b4d38abE
ffffff8040023ab8 T _ZN4core3fmt3num51_$LT$impl$u20$core..fmt..Octal$u20$for$u20$u128$GT$3fmt17he1577823e62a21b5E
ffffff8040023b48 T _ZN4core3fmt3num54_$LT$impl$u20$core..fmt..LowerHex$u20$for$u20$i128$GT$3fmt17h94b185d6f9ba3fe0E
ffffff8040023b48 T _ZN4core3fmt3num54_$LT$impl$u20$core..fmt..LowerHex$u20$for$u20$u128$GT$3fmt17h9301b436658984abE
ffffff8040023be8 T _ZN4core3fmt3num54_$LT$impl$u20$core..fmt..UpperHex$u20$for$u20$i128$GT$3fmt17hcb1ef6a9ec8e83acE
ffffff8040023be8 T _ZN4core3fmt3num54_$LT$impl$u20$core..fmt..UpperHex$u20$for$u20$u128$GT$3fmt17hc4322cb4ba16e759E
ffffff8040023c88 t _ZN4core3fmt3num49_$LT$impl$u20$core..fmt..Debug$u20$for$u20$i8$GT$3fmt17h767d3ae24fcad986E
ffffff8040023e08 t _ZN4core3fmt3num49_$LT$impl$u20$core..fmt..Debug$u20$for$u20$u8$GT$3fmt17hdc33a4058bb84b22E
ffffff8040023f70 t _ZN4core3fmt3num50_$LT$impl$u20$core..fmt..Debug$u20$for$u20$u32$GT$3fmt17h19cefd026e9f2ae5E
ffffff8040024048 t _ZN4core3fmt3num52_$LT$impl$u20$core..fmt..Debug$u20$for$u20$usize$GT$3fmt17h762af534bca049cfE
ffffff8040024120 T _ZN4core3fmt3num3imp51_$LT$impl$u20$core..fmt..Display$u20$for$u20$u8$GT$3fmt17h9b025b9c0d0495bdE
ffffff80400241b8 T _ZN4core3fmt3num3imp51_$LT$impl$u20$core..fmt..Display$u20$for$u20$i8$GT$3fmt17h3f4d2b74122db30cE
ffffff804002426c T _ZN4core3fmt3num3imp20_$LT$impl$u20$u8$GT$4_fmt17h380f02bca30333deE
ffffff80400242f0 T _ZN4core3fmt3num3imp52_$LT$impl$u20$core..fmt..Display$u20$for$u20$u16$GT$3fmt17hfa7563c9b78e1ff8E
ffffff80400243e4 T _ZN4core3fmt3num3imp52_$LT$impl$u20$core..fmt..Display$u20$for$u20$i16$GT$3fmt17hba534f0ac1d1272dE
ffffff80400244f0 T _ZN4core3fmt3num3imp21_$LT$impl$u20$u16$GT$4_fmt17h8167c4542c5171d6E
ffffff80400245ec T _ZN4core3fmt3num3imp52_$LT$impl$u20$core..fmt..Display$u20$for$u20$u32$GT$3fmt17h886b913e348ab3a8E
ffffff8040024714 T _ZN4core3fmt3num3imp52_$LT$impl$u20$core..fmt..Display$u20$for$u20$i32$GT$3fmt17hf4f44688930f68d3E
ffffff8040024848 T _ZN4core3fmt3num3imp21_$LT$impl$u20$u32$GT$4_fmt17h9cd7736820a65179E
ffffff8040024950 T _ZN4core3fmt3num3imp52_$LT$impl$u20$core..fmt..Display$u20$for$u20$u64$GT$3fmt17h53482a71a8d966e8E
ffffff8040024950 T _ZN4core3fmt3num3imp54_$LT$impl$u20$core..fmt..Display$u20$for$u20$usize$GT$3fmt17h30b249ab19cc74e8E
ffffff8040024a84 T _ZN4core3fmt3num3imp52_$LT$impl$u20$core..fmt..Display$u20$for$u20$i64$GT$3fmt17h34c6ab813fb131daE
ffffff8040024a84 T _ZN4core3fmt3num3imp54_$LT$impl$u20$core..fmt..Display$u20$for$u20$isize$GT$3fmt17hb5b62dbc1f60794eE
ffffff8040024bc0 T _ZN4core3fmt3num3imp21_$LT$impl$u20$u64$GT$4_fmt17h48622d971dd5a089E
ffffff8040024bc0 T _ZN4core3fmt3num3imp23_$LT$impl$u20$usize$GT$4_fmt17h97933dff57ef7f80E
ffffff8040024cd0 t _ZN4core3fmt3num3imp7exp_u6417h964b1f8860ba9379E
ffffff804002513c T _ZN4core3fmt3num3imp52_$LT$impl$u20$core..fmt..LowerExp$u20$for$u20$i8$GT$3fmt17h1fae9053b69bfbcaE
ffffff804002515c T _ZN4core3fmt3num3imp52_$LT$impl$u20$core..fmt..LowerExp$u20$for$u20$u8$GT$3fmt17h4f7fd848c432d3c9E
ffffff8040025170 T _ZN4core3fmt3num3imp53_$LT$impl$u20$core..fmt..LowerExp$u20$for$u20$i16$GT$3fmt17hafe27d665ea25f44E
ffffff8040025190 T _ZN4core3fmt3num3imp53_$LT$impl$u20$core..fmt..LowerExp$u20$for$u20$u16$GT$3fmt17h9799c43c4a975e56E
ffffff80400251a4 T _ZN4core3fmt3num3imp53_$LT$impl$u20$core..fmt..LowerExp$u20$for$u20$i32$GT$3fmt17h20ecd0edce97d2faE
ffffff80400251c8 T _ZN4core3fmt3num3imp53_$LT$impl$u20$core..fmt..LowerExp$u20$for$u20$u32$GT$3fmt17hf5375b105f933048E
ffffff80400251dc T _ZN4core3fmt3num3imp53_$LT$impl$u20$core..fmt..LowerExp$u20$for$u20$i64$GT$3fmt17hc9679b21d4daad5fE
ffffff80400251dc T _ZN4core3fmt3num3imp55_$LT$impl$u20$core..fmt..LowerExp$u20$for$u20$isize$GT$3fmt17h48289925031cd276E
ffffff80400251fc T _ZN4core3fmt3num3imp53_$LT$impl$u20$core..fmt..LowerExp$u20$for$u20$u64$GT$3fmt17hbfce3843fa24ac59E
ffffff80400251fc T _ZN4core3fmt3num3imp55_$LT$impl$u20$core..fmt..LowerExp$u20$for$u20$usize$GT$3fmt17h327e631dc035bd8fE
ffffff8040025210 T _ZN4core3fmt3num3imp52_$LT$impl$u20$core..fmt..UpperExp$u20$for$u20$i8$GT$3fmt17h9cab48ab9b24ddf6E
ffffff8040025230 T _ZN4core3fmt3num3imp52_$LT$impl$u20$core..fmt..UpperExp$u20$for$u20$u8$GT$3fmt17h050a5d508ec36c4aE
ffffff8040025244 T _ZN4core3fmt3num3imp53_$LT$impl$u20$core..fmt..UpperExp$u20$for$u20$i16$GT$3fmt17h8f6857407e1cebb3E
ffffff8040025264 T _ZN4core3fmt3num3imp53_$LT$impl$u20$core..fmt..UpperExp$u20$for$u20$u16$GT$3fmt17h64061e31ca222be7E
ffffff8040025278 T _ZN4core3fmt3num3imp53_$LT$impl$u20$core..fmt..UpperExp$u20$for$u20$i32$GT$3fmt17hfc22aa6d296a2425E
ffffff804002529c T _ZN4core3fmt3num3imp53_$LT$impl$u20$core..fmt..UpperExp$u20$for$u20$u32$GT$3fmt17he35f7238364c6816E
ffffff80400252b0 T _ZN4core3fmt3num3imp53_$LT$impl$u20$core..fmt..UpperExp$u20$for$u20$i64$GT$3fmt17h506a63d4ad832f6cE
ffffff80400252b0 T _ZN4core3fmt3num3imp55_$LT$impl$u20$core..fmt..UpperExp$u20$for$u20$isize$GT$3fmt17hef319385e582aaceE
ffffff80400252d0 T _ZN4core3fmt3num3imp53_$LT$impl$u20$core..fmt..UpperExp$u20$for$u20$u64$GT$3fmt17h14ada6755f86e74fE
ffffff80400252d0 T _ZN4core3fmt3num3imp55_$LT$impl$u20$core..fmt..UpperExp$u20$for$u20$usize$GT$3fmt17h5584d837696c548fE
ffffff80400252e4 t _ZN4core3fmt3num8exp_u12817h1cab18a22c161cfdE
ffffff8040025b0c T _ZN4core3fmt3num54_$LT$impl$u20$core..fmt..LowerExp$u20$for$u20$i128$GT$3fmt17he5462eafe2e8fb24E
ffffff8040025b38 T _ZN4core3fmt3num54_$LT$impl$u20$core..fmt..LowerExp$u20$for$u20$u128$GT$3fmt17hbd436b1a158cf874E
ffffff8040025b50 T _ZN4core3fmt3num54_$LT$impl$u20$core..fmt..UpperExp$u20$for$u20$i128$GT$3fmt17h92af13fce90742e4E
ffffff8040025b7c T _ZN4core3fmt3num54_$LT$impl$u20$core..fmt..UpperExp$u20$for$u20$u128$GT$3fmt17hd5772c55c60ce6f1E
ffffff8040025b94 t _ZN53_$LT$core..fmt..Error$u20$as$u20$core..fmt..Debug$GT$3fmt17h722995455edb6b30E
ffffff8040025bb0 t _ZN42_$LT$$RF$T$u20$as$u20$core..fmt..Debug$GT$3fmt17h26f9e8235062c445E
ffffff8040025bb8 t _ZN42_$LT$$RF$T$u20$as$u20$core..fmt..Debug$GT$3fmt17h5e5c2f306bf3cba1E
ffffff8040025c94 t _ZN42_$LT$$RF$T$u20$as$u20$core..fmt..Debug$GT$3fmt17h7ceb733a41a9e600E
ffffff8040025ca8 t _ZN42_$LT$$RF$T$u20$as$u20$core..fmt..Debug$GT$3fmt17hf335a19e863b3392E
ffffff8040025cb4 t _ZN44_$LT$$RF$T$u20$as$u20$core..fmt..Display$GT$3fmt17h10f64320f98caaacE
ffffff8040025cc4 t _ZN44_$LT$$RF$T$u20$as$u20$core..fmt..Display$GT$3fmt17ha374c2c29c11f26aE
ffffff8040025ccc t _ZN44_$LT$$RF$T$u20$as$u20$core..fmt..Display$GT$3fmt17hcf2a5962c22e2520E
ffffff8040025cd4 t _ZN44_$LT$$RF$T$u20$as$u20$core..fmt..Display$GT$3fmt17he6063ba223bbf9e9E
ffffff8040025cdc t _ZN45_$LT$$RF$T$u20$as$u20$core..fmt..LowerHex$GT$3fmt17h8345b4a209927ed0E
ffffff8040025d5c T _ZN4core5slice5index26slice_start_index_len_fail8do_panic7runtime17h8e3350940abe81d3E
ffffff8040025da0 T _ZN4core5slice5index24slice_end_index_len_fail8do_panic7runtime17h9d81f11e2c35b55eE
ffffff8040025de4 T _ZN4core5slice5index22slice_index_order_fail8do_panic7runtime17hbeef214ffb8194a5E
ffffff8040025e28 T _ZN4core5slice29_$LT$impl$u20$$u5b$T$u5d$$GT$15copy_from_slice17len_mismatch_fail8do_panic7runtime17h6f139fbd7997dad7E
ffffff8040025e70 T _ZN67_$LT$core..str..iter..EscapeDebug$u20$as$u20$core..fmt..Display$GT$3fmt17hfd2abac8f049dc0bE
ffffff8040026618 T _ZN69_$LT$core..str..iter..EscapeDefault$u20$as$u20$core..fmt..Display$GT$3fmt17h7631a2affb49f6daE
ffffff8040026a98 T _ZN69_$LT$core..str..iter..EscapeUnicode$u20$as$u20$core..fmt..Display$GT$3fmt17h887a31b73966d509E
ffffff8040026ddc T _ZN4core7unicode12unicode_data10alphabetic6lookup17hb72ebee1d9977183E
ffffff8040026ee0 T _ZN4core7unicode12unicode_data14case_ignorable6lookup17h3673c8e850ff0823E
ffffff8040026fec T _ZN4core7unicode12unicode_data5cased6lookup17h82c0adcf8851b598E
ffffff80400270e0 T _ZN4core7unicode12unicode_data2cc6lookup17haa54adf5582c7a21E
ffffff80400270f8 T _ZN4core7unicode12unicode_data15grapheme_extend11lookup_slow17h6c46c616bf9e81e3E
ffffff8040027200 T _ZN4core7unicode12unicode_data9lowercase6lookup17h36f56659512818c9E
ffffff804002730c T _ZN4core7unicode12unicode_data1n6lookup17hd7e6f6d93a62d31fE
ffffff8040027418 T _ZN4core7unicode12unicode_data9uppercase6lookup17hda8096dfcf486da0E
ffffff8040027524 T _ZN4core7unicode12unicode_data11conversions8to_lower17h03e5af92d05cda87E
ffffff80400276a0 T _ZN4core7unicode12unicode_data11conversions8to_upper17he454eb17e870a456E
ffffff8040027838 t OUTLINED_FUNCTION_0
ffffff8040027850 t OUTLINED_FUNCTION_1
ffffff8040027860 t _ZN17compiler_builtins5float3add3add17h004f395ad1efc66bE
ffffff8040027c50 t _ZN17compiler_builtins5float4conv12int_to_float16u32_to_f128_bits17h62c7b6fa35e7cd48E
ffffff8040027c90 t _ZN17compiler_builtins5float4conv12int_to_float16u64_to_f128_bits17h14c9a4685f47c525E
ffffff8040027cd8 t _ZN17compiler_builtins5float4conv12int_to_float17u128_to_f128_bits17h493caa396e20eb9cE
ffffff8040027d5c t _ZN84_$LT$compiler_builtins..int..big..u256$u20$as$u20$core..ops..bit..Shr$LT$u32$GT$$GT$3shr17h44c00a712dd42228E
ffffff8040027e70 t _ZN17compiler_builtins3int3big71_$LT$impl$u20$compiler_builtins..int..traits..HInt$u20$for$u20$i128$GT$14zero_widen_mul17hadd043c5f65af241E
ffffff8040027e70 t _ZN17compiler_builtins3int3big71_$LT$impl$u20$compiler_builtins..int..traits..HInt$u20$for$u20$u128$GT$14zero_widen_mul17ha2916155e22d3ebcE
ffffff8040027e70 t _ZN17compiler_builtins3int3big71_$LT$impl$u20$compiler_builtins..int..traits..HInt$u20$for$u20$u128$GT$9widen_mul17he7b90cdcb5852d68E
ffffff8040027f68 t _ZN17compiler_builtins3int3big71_$LT$impl$u20$compiler_builtins..int..traits..HInt$u20$for$u20$i128$GT$9widen_mul17ha649296c5ec04dafE
ffffff8040027f6c t _ZN17compiler_builtins3int3big71_$LT$impl$u20$compiler_builtins..int..traits..HInt$u20$for$u20$i128$GT$8widen_hi17h7ac03a514224990cE
ffffff8040027f6c t _ZN17compiler_builtins3int3big71_$LT$impl$u20$compiler_builtins..int..traits..HInt$u20$for$u20$u128$GT$8widen_hi17h7532385500d7b05aE
ffffff8040027f70 t _ZN90_$LT$compiler_builtins..int..big..i256$u20$as$u20$compiler_builtins..int..traits..DInt$GT$2lo17hdee19d2500d1dfb2E
ffffff8040027f70 t _ZN90_$LT$compiler_builtins..int..big..u256$u20$as$u20$compiler_builtins..int..traits..DInt$GT$2lo17h335dead5f4ba2c38E
ffffff8040027f7c t _ZN90_$LT$compiler_builtins..int..big..i256$u20$as$u20$compiler_builtins..int..traits..DInt$GT$2hi17h42b3ac3beaa2f769E
ffffff8040027f7c t _ZN90_$LT$compiler_builtins..int..big..u256$u20$as$u20$compiler_builtins..int..traits..DInt$GT$2hi17hc339d1ec038e4edcE
ffffff8040027f88 t _ZN17compiler_builtins5float3add8__addsf317h54d9bf8d45d3696bE
ffffff80400281bc t __addsf3
ffffff80400281c0 t _ZN17compiler_builtins5float3add8__adddf317h9f85cd86a3bb9ca1E
ffffff80400283fc t __adddf3
ffffff8040028400 t __addtf3
ffffff8040028404 t _ZN17compiler_builtins5float3cmp7__gesf217h8dbab35513b56590E
ffffff8040028404 t _ZN17compiler_builtins5float3cmp7__gtsf217hb323332da887610eE
ffffff8040028460 t __gesf2
ffffff8040028460 t __gtsf2
ffffff80400284bc t _ZN17compiler_builtins5float3cmp10__unordsf217h702e7301a55611beE
ffffff80400284e0 t __unordsf2
ffffff8040028504 t _ZN17compiler_builtins5float3cmp7__eqsf217hb7f67e8bb6973fb0E
ffffff8040028504 t _ZN17compiler_builtins5float3cmp7__lesf217hc444e6e63d50f5adE
ffffff8040028504 t _ZN17compiler_builtins5float3cmp7__ltsf217h7ba1d02a3c3e3061E
ffffff8040028504 t _ZN17compiler_builtins5float3cmp7__nesf217h4f7dd5f28d23c8e0E
ffffff804002856c t __eqsf2
ffffff804002856c t __lesf2
ffffff804002856c t __ltsf2
ffffff804002856c t __nesf2
ffffff80400285d4 t _ZN17compiler_builtins5float3cmp7__gedf217h26a14dc6481021f5E
ffffff80400285d4 t _ZN17compiler_builtins5float3cmp7__gtdf217h1d8c0d449eb6f539E
ffffff8040028630 t __gedf2
ffffff8040028630 t __gtdf2
ffffff804002868c t _ZN17compiler_builtins5float3cmp10__unorddf217h100dff217da244dbE
ffffff80400286b0 t __unorddf2
ffffff80400286d4 t _ZN17compiler_builtins5float3cmp7__eqdf217h38a9b36d1df75505E
ffffff80400286d4 t _ZN17compiler_builtins5float3cmp7__ledf217h585567776f34a487E
ffffff80400286d4 t _ZN17compiler_builtins5float3cmp7__ltdf217h90e62c1d03394dd0E
ffffff80400286d4 t _ZN17compiler_builtins5float3cmp7__nedf217h84ae182f17f4c60bE
ffffff804002873c t __eqdf2
ffffff804002873c t __ledf2
ffffff804002873c t __ltdf2
ffffff804002873c t __nedf2
ffffff80400287a4 t __getf2
ffffff80400287a4 t __gttf2
ffffff804002882c t __unordtf2
ffffff8040028874 t __eqtf2
ffffff8040028874 t __letf2
ffffff8040028874 t __lttf2
ffffff8040028874 t __netf2
ffffff8040028910 t _ZN17compiler_builtins5float4conv13__floatunsisf17h25a2255dfc365b38E
ffffff8040028950 t __floatunsisf
ffffff8040028990 t _ZN17compiler_builtins5float4conv13__floatunsidf17hc9611b7f6e73c5adE
ffffff80400289c8 t __floatunsidf
ffffff8040028a00 t _ZN17compiler_builtins5float4conv13__floatundisf17h0e86eabb7ee523b9E
ffffff8040028a44 t __floatundisf
ffffff8040028a88 t _ZN17compiler_builtins5float4conv13__floatundidf17hb3580675868b19e2E
ffffff8040028ac8 t __floatundidf
ffffff8040028b08 t _ZN17compiler_builtins5float4conv13__floatuntisf17he2749f787f7f7b00E
ffffff8040028b90 t __floatuntisf
ffffff8040028c18 t _ZN17compiler_builtins5float4conv13__floatuntidf17h86e4c92395c0d3e1E
ffffff8040028c94 t __floatuntidf
ffffff8040028d10 t __floatunsitf
ffffff8040028d50 t __floatunditf
ffffff8040028da4 t __floatuntitf
ffffff8040028e30 t _ZN17compiler_builtins5float4conv11__floatsisf17h116d6722ad364c90E
ffffff8040028e88 t __floatsisf
ffffff8040028ee0 t _ZN17compiler_builtins5float4conv11__floatsidf17hac6fb06f02e613d0E
ffffff8040028f2c t __floatsidf
ffffff8040028f78 t _ZN17compiler_builtins5float4conv11__floatdisf17h14892823c5e2fbc2E
ffffff8040028fd0 t __floatdisf
ffffff8040029028 t _ZN17compiler_builtins5float4conv11__floatdidf17hbebdf0792b1091f4E
ffffff8040029080 t __floatdidf
ffffff80400290d8 t _ZN17compiler_builtins5float4conv11__floattisf17hf8348f5baf2e5bc8E
ffffff804002917c t __floattisf
ffffff8040029220 t _ZN17compiler_builtins5float4conv11__floattidf17h61d3b11bed82840bE
ffffff80400292b4 t __floattidf
ffffff8040029348 t __floatsitf
ffffff80400293a0 t __floatditf
ffffff804002940c t __floattitf
ffffff80400294b8 t _ZN17compiler_builtins5float4conv12__fixunssfsi17h635ff4ccf5e2e140E
ffffff8040029504 t __fixunssfsi
ffffff8040029550 t _ZN17compiler_builtins5float4conv12__fixunssfdi17h1f86063c15e8f2ecE
ffffff804002959c t __fixunssfdi
ffffff80400295e8 t _ZN17compiler_builtins5float4conv12__fixunssfti17h0390761a9a7a1283E
ffffff8040029650 t __fixunssfti
ffffff80400296b8 t _ZN17compiler_builtins5float4conv12__fixunsdfsi17hc65df6ced6370d59E
ffffff8040029704 t __fixunsdfsi
ffffff8040029750 t _ZN17compiler_builtins5float4conv12__fixunsdfdi17h61e08a2818231228E
ffffff804002979c t __fixunsdfdi
ffffff80400297e8 t _ZN17compiler_builtins5float4conv12__fixunsdfti17ha69328fd345608daE
ffffff8040029854 t __fixunsdfti
ffffff80400298c0 t __fixunstfsi
ffffff8040029924 t __fixunstfdi
ffffff8040029988 t __fixunstfti
ffffff8040029a1c t _ZN17compiler_builtins5float4conv9__fixsfsi17h4190973c105af2b4E
ffffff8040029a80 t __fixsfsi
ffffff8040029ae4 t _ZN17compiler_builtins5float4conv9__fixsfdi17h825162f8b729bbeeE
ffffff8040029b48 t __fixsfdi
ffffff8040029bac t _ZN17compiler_builtins5float4conv9__fixsfti17h770febd80b9fede7E
ffffff8040029c3c t __fixsfti
ffffff8040029ccc t _ZN17compiler_builtins5float4conv9__fixdfsi17h5ace77ec3bfdd757E
ffffff8040029d34 t __fixdfsi
ffffff8040029d9c t _ZN17compiler_builtins5float4conv9__fixdfdi17h1c7aa6829f8da559E
ffffff8040029e00 t __fixdfdi
ffffff8040029e64 t _ZN17compiler_builtins5float4conv9__fixdfti17hc4c4df1ad2c56080E
ffffff8040029ef8 t __fixdfti
ffffff8040029f8c t __fixtfsi
ffffff804002a008 t __fixtfdi
ffffff804002a080 t __fixtfti
ffffff804002a134 t _ZN17compiler_builtins5float3div8__divsf317h831e248756f7edb1E
ffffff804002a33c t __divsf3
ffffff804002a340 t _ZN17compiler_builtins5float3div8__divdf317h71616b00194d59ccE
ffffff804002a578 t __divdf3
ffffff804002a57c t __divtf3
ffffff804002aba0 t _ZN17compiler_builtins5float6extend13__extendsfdf217h47bd22e99cdf79e4E
ffffff804002ac34 t __extendsfdf2
ffffff804002acc8 t __extendhfsf2
ffffff804002acc8 t __gnu_h2f_ieee
ffffff804002ad5c t __extendhfdf2
ffffff804002ae18 t __extendhftf2
ffffff804002aee8 t __extendsftf2
ffffff804002afb4 t __extenddftf2
ffffff804002b08c t _ZN17compiler_builtins5float3mul8__mulsf317hf7f570eecc958f2aE
ffffff804002b23c t __mulsf3
ffffff804002b240 t _ZN17compiler_builtins5float3mul8__muldf317hbc3ea64496e2535fE
ffffff804002b3ec t __muldf3
ffffff804002b3f0 t __multf3
ffffff804002b8bc t _ZN17compiler_builtins5float3pow9__powisf217hce0ef2bb09a18051E
ffffff804002b908 t __powisf2
ffffff804002b954 t _ZN17compiler_builtins5float3pow9__powidf217h9ef0580c561aedadE
ffffff804002b9a0 t __powidf2
ffffff804002b9ec t __powitf2
ffffff804002baa0 t _ZN17compiler_builtins5float3sub8__subsf317h807232f170efd873E
ffffff804002baa8 t __subsf3
ffffff804002bab0 t _ZN17compiler_builtins5float3sub8__subdf317h7809d832a6d401a9E
ffffff804002bab8 t __subdf3
ffffff804002bac0 t __subtf3
ffffff804002bad8 t _ZN63_$LT$f16$u20$as$u20$compiler_builtins..float..traits..Float$GT$9normalize17h9e807e6a39ed0a6dE
ffffff804002bad8 t _ZN88_$LT$f16$u20$as$u20$compiler_builtins..math..libm_math..support..float_traits..Float$GT$9normalize17h1321c16d02d0d9e6E
ffffff804002bb00 t _ZN63_$LT$f32$u20$as$u20$compiler_builtins..float..traits..Float$GT$9normalize17h2e2ec120fa84ba20E
ffffff804002bb00 t _ZN88_$LT$f32$u20$as$u20$compiler_builtins..math..libm_math..support..float_traits..Float$GT$9normalize17h6d96f87841df6465E
ffffff804002bb18 t _ZN63_$LT$f64$u20$as$u20$compiler_builtins..float..traits..Float$GT$9normalize17h3cd03422bccfec99E
ffffff804002bb18 t _ZN88_$LT$f64$u20$as$u20$compiler_builtins..math..libm_math..support..float_traits..Float$GT$9normalize17h6aa75193d1551b50E
ffffff804002bb30 t _ZN64_$LT$f128$u20$as$u20$compiler_builtins..float..traits..Float$GT$9normalize17h1b51dc8024a35581E
ffffff804002bb30 t _ZN89_$LT$f128$u20$as$u20$compiler_builtins..math..libm_math..support..float_traits..Float$GT$9normalize17hecacf605149655abE
ffffff804002bb84 t _ZN17compiler_builtins5float5trunc12__truncdfsf217h069e5a0c23ffcf50E
ffffff804002bcd8 t __truncdfsf2
ffffff804002be2c t __gnu_f2h_ieee
ffffff804002be2c t __truncsfhf2
ffffff804002bf34 t __truncdfhf2
ffffff804002c074 t __trunctfhf2
ffffff804002c244 t __trunctfsf2
ffffff804002c41c t __trunctfdf2
ffffff804002c5cc t _ZN17compiler_builtins3int19specialized_div_rem12u128_div_rem17h3bf5f2db413a3b99E
ffffff804002c8f0 t _ZN17compiler_builtins3int6addsub15__rust_i128_add17hb5e14a3550ff84bcE
ffffff804002c8f0 t _ZN17compiler_builtins3int6addsub15__rust_u128_add17h6893b9f262356067E
ffffff804002c8fc t __rust_i128_add
ffffff804002c8fc t __rust_u128_add
ffffff804002c908 t _ZN17compiler_builtins3int6addsub16__rust_i128_addo17hb81c276ab80a0616E
ffffff804002c938 t __rust_i128_addo
ffffff804002c968 t _ZN17compiler_builtins3int6addsub16__rust_u128_addo17h19dce28420890b65E
ffffff804002c98c t __rust_u128_addo
ffffff804002c9b0 t _ZN17compiler_builtins3int6addsub15__rust_i128_sub17h644b4c6188747dd7E
ffffff804002c9b0 t _ZN17compiler_builtins3int6addsub15__rust_u128_sub17h24bd4ab8ed242cfaE
ffffff804002c9bc t __rust_i128_sub
ffffff804002c9bc t __rust_u128_sub
ffffff804002c9c8 t _ZN17compiler_builtins3int6addsub16__rust_i128_subo17h2c655c4e37196df1E
ffffff804002c9f8 t __rust_i128_subo
ffffff804002ca28 t _ZN17compiler_builtins3int6addsub16__rust_u128_subo17h77fc42143ba9a37dE
ffffff804002ca4c t __rust_u128_subo
ffffff804002ca70 t _ZN84_$LT$compiler_builtins..int..big..i256$u20$as$u20$core..ops..bit..Shl$LT$u32$GT$$GT$3shl17h87f460bdf00f409dE
ffffff804002ca70 t _ZN84_$LT$compiler_builtins..int..big..u256$u20$as$u20$core..ops..bit..Shl$LT$u32$GT$$GT$3shl17h7c54a57e2b821f67E
ffffff804002ca74 t _ZN17compiler_builtins3int5bswap10__bswapsi217h4d4cbbf706a17ac2E
ffffff804002ca7c t __bswapsi2
ffffff804002ca84 t _ZN17compiler_builtins3int5bswap10__bswapdi217h05ca2e4a545b15a8E
ffffff804002ca8c t __bswapdi2
ffffff804002ca94 t _ZN17compiler_builtins3int5bswap10__bswapti217h344e3769df1a65e1E
ffffff804002caa4 t __bswapti2
ffffff804002cab4 t _ZN17compiler_builtins3int13leading_zeros8__clzsi217h5fe9d07f81e659f7E
ffffff804002cb1c t __clzsi2
ffffff804002cb84 t _ZN17compiler_builtins3int13leading_zeros8__clzdi217he2d0892bcae0f71bE
ffffff804002cc00 t __clzdi2
ffffff804002cc7c t _ZN17compiler_builtins3int13leading_zeros8__clzti217hc6ec6bf21013deadE
ffffff804002cd7c t __clzti2
ffffff804002cd80 t _ZN17compiler_builtins3int3mul8__muldi317h65ece045edd56f87E
ffffff804002cdc4 t __muldi3
ffffff804002ce08 t _ZN17compiler_builtins3int3mul8__multi317he4373dd89f0bd7ceE
ffffff804002ce4c t __multi3
ffffff804002ce90 t _ZN17compiler_builtins3int3mul9__mulosi417h537de789a04a9f67E
ffffff804002cf48 t __mulosi4
ffffff804002d000 t _ZN17compiler_builtins3int3mul9__mulodi417h3ac0f6126b873b15E
ffffff804002d0c0 t __mulodi4
ffffff804002d180 t __muloti4
ffffff804002d180 t __rust_i128_mulo
ffffff804002d28c t _ZN17compiler_builtins3int3mul16__rust_i128_mulo17h92df46dcf41cd731E
ffffff804002d28c t _ZN17compiler_builtins3int3mul9__muloti417h30af37a7c725037eE
ffffff804002d398 t _ZN17compiler_builtins3int3mul16__rust_u128_mulo17h57138f6422d6eb2dE
ffffff804002d410 t __rust_u128_mulo
ffffff804002d488 t _ZN17compiler_builtins3int4sdiv11__divmodsi417h823613db520f545cE
ffffff804002d65c t __divmodsi4
ffffff804002d660 t _ZN17compiler_builtins3int4sdiv8__divsi317h19038fcaf3c661a7E
ffffff804002d74c t __divsi3
ffffff804002d838 t _ZN17compiler_builtins3int4sdiv8__modsi317ha3687b0260011a20E
ffffff804002d96c t __modsi3
ffffff804002d970 t _ZN17compiler_builtins3int4sdiv11__divmoddi417h3e7da4586ae6c6cbE
ffffff804002db4c t __divmoddi4
ffffff804002db50 t _ZN17compiler_builtins3int4sdiv8__divdi317h394216b918c64bacE
ffffff804002dc40 t __divdi3
ffffff804002dd30 t _ZN17compiler_builtins3int4sdiv8__moddi317h779333de4b3a9b15E
ffffff804002de6c t __moddi3
ffffff804002de70 t _ZN17compiler_builtins3int4sdiv11__divmodti417h2be9be2e92c9d437E
ffffff804002df34 t __divmodti4
ffffff804002dff8 t _ZN17compiler_builtins3int4sdiv8__divti317h8bc4e1854c3f7d57E
ffffff804002e06c t __divti3
ffffff804002e0e0 t _ZN17compiler_builtins3int4sdiv8__modti317hd330129544176590E
ffffff804002e15c t __modti3
ffffff804002e1d8 t _ZN17compiler_builtins3int5shift9__ashlsi317h14cdaf69664b4aafE
ffffff804002e224 t __ashlsi3
ffffff804002e270 t _ZN17compiler_builtins3int5shift9__ashldi317heaabb61f2ffc87c8E
ffffff804002e2a8 t __ashldi3
ffffff804002e2e0 t _ZN17compiler_builtins3int5shift9__ashlti317hcbef84b8bbf5b5b3E
ffffff804002e314 t __ashlti3
ffffff804002e348 t _ZN17compiler_builtins3int5shift9__ashrsi317hcc7ad58d3f3a7d88E
ffffff804002e39c t __ashrsi3
ffffff804002e3f0 t _ZN17compiler_builtins3int5shift9__ashrdi317h7bf8cc78663199c1E
ffffff804002e42c t __ashrdi3
ffffff804002e468 t _ZN17compiler_builtins3int5shift9__ashrti317h92ece0dae7e89f84E
ffffff804002e4a0 t __ashrti3
ffffff804002e4d8 t _ZN17compiler_builtins3int5shift9__lshrsi317h4032f9c9900d3436E
ffffff804002e520 t __lshrsi3
ffffff804002e568 t _ZN17compiler_builtins3int5shift9__lshrdi317h0f213661a6e3260bE
ffffff804002e59c t __lshrdi3
ffffff804002e5d0 t _ZN17compiler_builtins3int5shift9__lshrti317h7dbdb4ca00c905cdE
ffffff804002e604 t __lshrti3
ffffff804002e638 t _ZN17compiler_builtins3int14trailing_zeros8__ctzsi217h907b65654cef05d6E
ffffff804002e6b0 t __ctzsi2
ffffff804002e728 t _ZN17compiler_builtins3int14trailing_zeros8__ctzdi217h915c782c45da6b29E
ffffff804002e7b4 t __ctzdi2
ffffff804002e840 t _ZN17compiler_builtins3int14trailing_zeros8__ctzti217ha7391f0114f69f32E
ffffff804002e960 t __ctzti2
ffffff804002e964 t _ZN17compiler_builtins3int4udiv9__udivsi317h351d7709061e161cE
ffffff804002ea1c t __udivsi3
ffffff804002ead4 t _ZN17compiler_builtins3int4udiv9__umodsi317h887ec34a6da86f1dE
ffffff804002eb5c t __umodsi3
ffffff804002ebe4 t _ZN17compiler_builtins3int4udiv12__udivmodsi417h3017beaccd6b00b6E
ffffff804002ecbc t __udivmodsi4
ffffff804002ed94 t _ZN17compiler_builtins3int4udiv9__udivdi317h1a1f6847b8e0f565E
ffffff804002ee54 t __udivdi3
ffffff804002ef14 t _ZN17compiler_builtins3int4udiv9__umoddi317hc937963ed9c13ac0E
ffffff804002efa0 t __umoddi3
ffffff804002f02c t _ZN17compiler_builtins3int4udiv12__udivmoddi417h4b9ad7247c708cd6E
ffffff804002f108 t __udivmoddi4
ffffff804002f1e4 t _ZN17compiler_builtins3int4udiv9__udivti317h2d9e8cc8470a3489E
ffffff804002f214 t __udivti3
ffffff804002f244 t _ZN17compiler_builtins3int4udiv9__umodti317h94832da1bb85bac4E
ffffff804002f274 t __umodti3
ffffff804002f2a4 t _ZN17compiler_builtins3int4udiv12__udivmodti417h173c062af86d0d5eE
ffffff804002f2e4 t __udivmodti4
ffffff804002f324 t _ZN17compiler_builtins4math9libm_math7support3big96_$LT$impl$u20$compiler_builtins..math..libm_math..support..int_traits..HInt$u20$for$u20$i128$GT$14zero_widen_mul17h4bcf35273768db5eE
ffffff804002f324 t _ZN17compiler_builtins4math9libm_math7support3big96_$LT$impl$u20$compiler_builtins..math..libm_math..support..int_traits..HInt$u20$for$u20$u128$GT$9widen_mul17h0112172af7c7dbd0E
ffffff804002f370 t _ZN17compiler_builtins4math9libm_math7support3big96_$LT$impl$u20$compiler_builtins..math..libm_math..support..int_traits..HInt$u20$for$u20$i128$GT$9widen_mul17hfca79e8aea4d0680E
ffffff804002f374 t _ZN17compiler_builtins4math9libm_math7support3big96_$LT$impl$u20$compiler_builtins..math..libm_math..support..int_traits..HInt$u20$for$u20$i128$GT$8widen_hi17h39577d93b714e3e2E
ffffff804002f374 t _ZN17compiler_builtins4math9libm_math7support3big96_$LT$impl$u20$compiler_builtins..math..libm_math..support..int_traits..HInt$u20$for$u20$u128$GT$8widen_hi17h25f8336a042e8027E
ffffff804002f378 t _ZN17compiler_builtins4math9libm_math7support9cold_path17hef75358173cbece7E
ffffff804002f37c t _ZN17compiler_builtins4math9libm_math8rem_pio28rem_pio217h53af59725f9c6c90E
ffffff804002f79c t _ZN17compiler_builtins4math9libm_math14rem_pio2_large14rem_pio2_large17hc40bbda611f2a8fbE
ffffff804002ff84 t _ZN17compiler_builtins4math9libm_math4atan4atan17h626c3c562fc84b6aE
ffffff8040030188 t _ZN17compiler_builtins4math9libm_math5atanf5atanf17h2120d0d2fc4f3dccE
ffffff8040030340 t _ZN17compiler_builtins4math9libm_math3erf5erfc217h57ce53a07e7debc7E
ffffff8040030650 t _ZN17compiler_builtins4math9libm_math4erff5erfc217h3b897d559a5c0e99E
ffffff80400309ac t _ZN17compiler_builtins4math9libm_math3exp3exp17he29ff1acfacafa66E
ffffff8040030c10 t _ZN17compiler_builtins4math9libm_math4expf4expf17haa59264d643cccf3E
ffffff8040030e40 t _ZN17compiler_builtins4math9libm_math5expm15expm117h751e50e3ab41bb85E
ffffff8040031110 t _ZN17compiler_builtins4math9libm_math6expm1f6expm1f17hed6a05e6719547b9E
ffffff80400313d0 t _ZN17compiler_builtins4math9libm_math5floor5floor17h9b6049aaf87b124dE
ffffff8040031448 t _ZN17compiler_builtins4math9libm_math3log3log17hd5e6dcb177a9b22eE
ffffff80400315ac t _ZN17compiler_builtins4math9libm_math4logf4logf17h29177ed7bb496905E
ffffff80400316c8 t _ZN17compiler_builtins4math9libm_math3pow3pow17h21e843a368dd5237E
ffffff8040031f04 t _ZN17compiler_builtins4math9libm_math6scalbn7scalbnf17h439ad0e9fc6df0b2E
ffffff8040031fcc t _ZN17compiler_builtins4math9libm_math6scalbn6scalbn17h376e31e6362b1ec3E
ffffff804003208c t _ZN17compiler_builtins4math9libm_math6tgamma6tgamma17ha027421889a93f75E
ffffff8040032728 t _ZN105_$LT$compiler_builtins..math..libm_math..support..big..i256$u20$as$u20$core..ops..bit..Shl$LT$u32$GT$$GT$3shl17h76c5a09a9db3a4f7E
ffffff8040032728 t _ZN105_$LT$compiler_builtins..math..libm_math..support..big..u256$u20$as$u20$core..ops..bit..Shl$LT$u32$GT$$GT$3shl17h6946aa860de1500aE
ffffff804003272c t _ZN88_$LT$f32$u20$as$u20$compiler_builtins..math..libm_math..support..float_traits..Float$GT$3abs17h2a02d16b0a0b6a89E
ffffff8040032734 t _ZN88_$LT$f32$u20$as$u20$compiler_builtins..math..libm_math..support..float_traits..Float$GT$8copysign17h921210f9fe7cc40dE
ffffff8040032740 t _ZN88_$LT$f32$u20$as$u20$compiler_builtins..math..libm_math..support..float_traits..Float$GT$3fma17h4d28da43270c8317E
ffffff8040032748 t _ZN88_$LT$f64$u20$as$u20$compiler_builtins..math..libm_math..support..float_traits..Float$GT$3abs17h49a9865329acd986E
ffffff8040032750 t _ZN88_$LT$f64$u20$as$u20$compiler_builtins..math..libm_math..support..float_traits..Float$GT$8copysign17h8bde112cb8fdb898E
ffffff8040032760 t _ZN88_$LT$f64$u20$as$u20$compiler_builtins..math..libm_math..support..float_traits..Float$GT$3fma17h84c2ada5a9c19b76E
ffffff8040032768 t _ZN83_$LT$u8$u20$as$u20$compiler_builtins..math..libm_math..support..int_traits..Int$GT$12unsigned_abs17hbdf5be8bd7c67a7bE
ffffff8040032768 t _ZN83_$LT$u8$u20$as$u20$compiler_builtins..math..libm_math..support..int_traits..Int$GT$3abs17h1e14e33b757ac1baE
ffffff804003276c t _ZN83_$LT$i8$u20$as$u20$compiler_builtins..math..libm_math..support..int_traits..Int$GT$3abs17h070205b107d86b16E
ffffff804003277c t _ZN83_$LT$u8$u20$as$u20$compiler_builtins..math..libm_math..support..int_traits..Int$GT$11checked_add17h60101ce6c7a1a043E
ffffff8040032798 t _ZN83_$LT$u8$u20$as$u20$compiler_builtins..math..libm_math..support..int_traits..Int$GT$5ilog217h92d0041318260705E
ffffff80400327b4 t _ZN83_$LT$i8$u20$as$u20$compiler_builtins..math..libm_math..support..int_traits..Int$GT$11checked_add17h2fb4cfffce113778E
ffffff80400327c8 t _ZN83_$LT$i8$u20$as$u20$compiler_builtins..math..libm_math..support..int_traits..Int$GT$11checked_sub17h3cde142f68b57d57E
ffffff80400327dc t _ZN83_$LT$i8$u20$as$u20$compiler_builtins..math..libm_math..support..int_traits..Int$GT$11rotate_left17hb83772eb3d6a909fE
ffffff80400327dc t _ZN83_$LT$u8$u20$as$u20$compiler_builtins..math..libm_math..support..int_traits..Int$GT$11rotate_left17hdbdc3003311ed4abE
ffffff80400327fc t _ZN83_$LT$i8$u20$as$u20$compiler_builtins..math..libm_math..support..int_traits..Int$GT$13leading_zeros17h146041f167b2fd2cE
ffffff80400327fc t _ZN83_$LT$u8$u20$as$u20$compiler_builtins..math..libm_math..support..int_traits..Int$GT$13leading_zeros17h8fa341f9025dc26aE
ffffff8040032810 t _ZN83_$LT$i8$u20$as$u20$compiler_builtins..math..libm_math..support..int_traits..Int$GT$5ilog217h79fff212d76df754E
ffffff8040032830 t _ZN84_$LT$u16$u20$as$u20$compiler_builtins..math..libm_math..support..int_traits..Int$GT$12unsigned_abs17h1d364845b7767234E
ffffff8040032830 t _ZN84_$LT$u16$u20$as$u20$compiler_builtins..math..libm_math..support..int_traits..Int$GT$3abs17h89a613d88b3ec8fdE
ffffff8040032834 t _ZN84_$LT$i16$u20$as$u20$compiler_builtins..math..libm_math..support..int_traits..Int$GT$3abs17hc503c16a79662571E
ffffff8040032844 t _ZN84_$LT$u16$u20$as$u20$compiler_builtins..math..libm_math..support..int_traits..Int$GT$11checked_add17h452606828c50d3aaE
ffffff8040032860 t _ZN84_$LT$u16$u20$as$u20$compiler_builtins..math..libm_math..support..int_traits..Int$GT$5ilog217h47e0a1fcff77e68dE
ffffff804003287c t _ZN84_$LT$i16$u20$as$u20$compiler_builtins..math..libm_math..support..int_traits..Int$GT$11checked_add17h43b4f6af59430ccdE
ffffff8040032890 t _ZN84_$LT$i16$u20$as$u20$compiler_builtins..math..libm_math..support..int_traits..Int$GT$11checked_sub17h7edd8a1a273c733dE
ffffff80400328a4 t _ZN84_$LT$i16$u20$as$u20$compiler_builtins..math..libm_math..support..int_traits..Int$GT$11rotate_left17h1d2d3a73ef04fa21E
ffffff80400328a4 t _ZN84_$LT$u16$u20$as$u20$compiler_builtins..math..libm_math..support..int_traits..Int$GT$11rotate_left17h2f1853b81ac37280E
ffffff80400328c4 t _ZN84_$LT$i16$u20$as$u20$compiler_builtins..math..libm_math..support..int_traits..Int$GT$13leading_zeros17hef36003ab7181004E
ffffff80400328c4 t _ZN84_$LT$u16$u20$as$u20$compiler_builtins..math..libm_math..support..int_traits..Int$GT$13leading_zeros17h85d5d4be7c41cc5dE
ffffff80400328d8 t _ZN84_$LT$i16$u20$as$u20$compiler_builtins..math..libm_math..support..int_traits..Int$GT$5ilog217he0117dd9e2c2060dE
ffffff80400328f8 t _ZN84_$LT$u32$u20$as$u20$compiler_builtins..math..libm_math..support..int_traits..Int$GT$12unsigned_abs17he2f1b2f1716ef2d6E
ffffff80400328f8 t _ZN84_$LT$u32$u20$as$u20$compiler_builtins..math..libm_math..support..int_traits..Int$GT$3abs17h32bea162844133d2E
ffffff80400328fc t _ZN84_$LT$i32$u20$as$u20$compiler_builtins..math..libm_math..support..int_traits..Int$GT$3abs17h5fd09289ba4811faE
ffffff8040032908 t _ZN84_$LT$u32$u20$as$u20$compiler_builtins..math..libm_math..support..int_traits..Int$GT$11checked_add17hec09bc4830a7b26eE
ffffff804003291c t _ZN84_$LT$u32$u20$as$u20$compiler_builtins..math..libm_math..support..int_traits..Int$GT$5ilog217h2e32416045c40e0fE
ffffff8040032930 t _ZN84_$LT$i32$u20$as$u20$compiler_builtins..math..libm_math..support..int_traits..Int$GT$11checked_add17h8e05af028e986961E
ffffff804003293c t _ZN84_$LT$i32$u20$as$u20$compiler_builtins..math..libm_math..support..int_traits..Int$GT$11checked_sub17hfef7b2a801e88ddbE
ffffff8040032948 t _ZN84_$LT$i32$u20$as$u20$compiler_builtins..math..libm_math..support..int_traits..Int$GT$11rotate_left17h1083837540d89aefE
ffffff8040032948 t _ZN84_$LT$u32$u20$as$u20$compiler_builtins..math..libm_math..support..int_traits..Int$GT$11rotate_left17h1cc833816916c03aE
ffffff8040032954 t _ZN84_$LT$i32$u20$as$u20$compiler_builtins..math..libm_math..support..int_traits..Int$GT$13leading_zeros17h2341a7f660bd0d42E
ffffff8040032954 t _ZN84_$LT$u32$u20$as$u20$compiler_builtins..math..libm_math..support..int_traits..Int$GT$13leading_zeros17h444c54d9617f36e9E
ffffff804003295c t _ZN84_$LT$i32$u20$as$u20$compiler_builtins..math..libm_math..support..int_traits..Int$GT$5ilog217hc08be4fbdcedf61eE
ffffff8040032974 t _ZN84_$LT$u64$u20$as$u20$compiler_builtins..math..libm_math..support..int_traits..Int$GT$12unsigned_abs17hafb6b442adc61ac3E
ffffff8040032974 t _ZN84_$LT$u64$u20$as$u20$compiler_builtins..math..libm_math..support..int_traits..Int$GT$3abs17h4f3c6299703afacdE
ffffff8040032974 t _ZN86_$LT$usize$u20$as$u20$compiler_builtins..math..libm_math..support..int_traits..Int$GT$12unsigned_abs17h50ef0776b06102d9E
ffffff8040032974 t _ZN86_$LT$usize$u20$as$u20$compiler_builtins..math..libm_math..support..int_traits..Int$GT$3abs17h97bb636b267f113bE
ffffff8040032978 t _ZN84_$LT$i64$u20$as$u20$compiler_builtins..math..libm_math..support..int_traits..Int$GT$3abs17ha162dff27104b76fE
ffffff8040032978 t _ZN86_$LT$isize$u20$as$u20$compiler_builtins..math..libm_math..support..int_traits..Int$GT$3abs17hd3b6c37673092796E
ffffff8040032984 t _ZN84_$LT$u64$u20$as$u20$compiler_builtins..math..libm_math..support..int_traits..Int$GT$11checked_add17ha552b6d9c95ee126E
ffffff8040032984 t _ZN86_$LT$usize$u20$as$u20$compiler_builtins..math..libm_math..support..int_traits..Int$GT$11checked_add17h89f9373afc312c8fE
ffffff8040032998 t _ZN84_$LT$u64$u20$as$u20$compiler_builtins..math..libm_math..support..int_traits..Int$GT$5ilog217hb7c3b5e136a78dffE
ffffff8040032998 t _ZN86_$LT$usize$u20$as$u20$compiler_builtins..math..libm_math..support..int_traits..Int$GT$5ilog217h1b460fd21a697489E
ffffff80400329ac t _ZN84_$LT$i64$u20$as$u20$compiler_builtins..math..libm_math..support..int_traits..Int$GT$11checked_add17he7f6fdd4e0397d49E
ffffff80400329ac t _ZN86_$LT$isize$u20$as$u20$compiler_builtins..math..libm_math..support..int_traits..Int$GT$11checked_add17h3a5c6d74918934e1E
ffffff80400329b8 t _ZN84_$LT$i64$u20$as$u20$compiler_builtins..math..libm_math..support..int_traits..Int$GT$11checked_sub17he8eafd9743e686b9E
ffffff80400329b8 t _ZN86_$LT$isize$u20$as$u20$compiler_builtins..math..libm_math..support..int_traits..Int$GT$11checked_sub17h5fdcecf16c00cfa1E
ffffff80400329c4 t _ZN84_$LT$i64$u20$as$u20$compiler_builtins..math..libm_math..support..int_traits..Int$GT$11rotate_left17he66169099bfd337cE
ffffff80400329c4 t _ZN84_$LT$u64$u20$as$u20$compiler_builtins..math..libm_math..support..int_traits..Int$GT$11rotate_left17h7af5bdcaf3710a3aE
ffffff80400329c4 t _ZN86_$LT$isize$u20$as$u20$compiler_builtins..math..libm_math..support..int_traits..Int$GT$11rotate_left17h3bc2b2646bfcddacE
ffffff80400329c4 t _ZN86_$LT$usize$u20$as$u20$compiler_builtins..math..libm_math..support..int_traits..Int$GT$11rotate_left17h4b8ac36a01d5d732E
ffffff80400329d0 t _ZN84_$LT$i64$u20$as$u20$compiler_builtins..math..libm_math..support..int_traits..Int$GT$13leading_zeros17h8e4546a203fe6effE
ffffff80400329d0 t _ZN84_$LT$u64$u20$as$u20$compiler_builtins..math..libm_math..support..int_traits..Int$GT$13leading_zeros17h8b823f36af611a6fE
ffffff80400329d0 t _ZN86_$LT$isize$u20$as$u20$compiler_builtins..math..libm_math..support..int_traits..Int$GT$13leading_zeros17hd2fa2104adf93d1aE
ffffff80400329d0 t _ZN86_$LT$usize$u20$as$u20$compiler_builtins..math..libm_math..support..int_traits..Int$GT$13leading_zeros17hef418b02223a75fbE
ffffff80400329d8 t _ZN84_$LT$i64$u20$as$u20$compiler_builtins..math..libm_math..support..int_traits..Int$GT$5ilog217h2f76eddd8d339846E
ffffff80400329d8 t _ZN86_$LT$isize$u20$as$u20$compiler_builtins..math..libm_math..support..int_traits..Int$GT$5ilog217ha8c4e1f3e302ef8cE
ffffff80400329f0 t _ZN85_$LT$u128$u20$as$u20$compiler_builtins..math..libm_math..support..int_traits..Int$GT$12unsigned_abs17h3524db5a2d9e07f7E
ffffff80400329f0 t _ZN85_$LT$u128$u20$as$u20$compiler_builtins..math..libm_math..support..int_traits..Int$GT$3abs17h809031f4ab113fa4E
ffffff80400329f4 t _ZN85_$LT$i128$u20$as$u20$compiler_builtins..math..libm_math..support..int_traits..Int$GT$3abs17h5bf1ad6eb3b0dad2E
ffffff8040032a0c t _ZN85_$LT$u128$u20$as$u20$compiler_builtins..math..libm_math..support..int_traits..Int$GT$11checked_add17h434c18451a071d88E
ffffff8040032a3c t _ZN85_$LT$u128$u20$as$u20$compiler_builtins..math..libm_math..support..int_traits..Int$GT$5ilog217hffdf26c770f96b32E
ffffff8040032a64 t _ZN85_$LT$i128$u20$as$u20$compiler_builtins..math..libm_math..support..int_traits..Int$GT$11checked_add17ha9536d608c38c0cbE
ffffff8040032a8c t _ZN85_$LT$i128$u20$as$u20$compiler_builtins..math..libm_math..support..int_traits..Int$GT$11checked_sub17he3a9fc04cd97fba4E
ffffff8040032ab4 t _ZN85_$LT$i128$u20$as$u20$compiler_builtins..math..libm_math..support..int_traits..Int$GT$11rotate_left17h2c7c3b171a6287a9E
ffffff8040032ab4 t _ZN85_$LT$u128$u20$as$u20$compiler_builtins..math..libm_math..support..int_traits..Int$GT$11rotate_left17hb08e54ca5d9efe0fE
ffffff8040032ae8 t _ZN85_$LT$i128$u20$as$u20$compiler_builtins..math..libm_math..support..int_traits..Int$GT$13leading_zeros17ha4f186ea4b218109E
ffffff8040032ae8 t _ZN85_$LT$u128$u20$as$u20$compiler_builtins..math..libm_math..support..int_traits..Int$GT$13leading_zeros17ha027ad2f8163e181E
ffffff8040032b00 t _ZN85_$LT$i128$u20$as$u20$compiler_builtins..math..libm_math..support..int_traits..Int$GT$5ilog217hfada4b26a5e581beE
ffffff8040032b2c t ceilf16
ffffff8040032ba0 t copysignf16
ffffff8040032bb8 t fabsf16
ffffff8040032bc8 t fdimf16
ffffff8040032be8 t floorf16
ffffff8040032c6c t fmaxf16
ffffff8040032c84 t fmaximumf16
ffffff8040032cf0 t fminf16
ffffff8040032d08 t fminimumf16
ffffff8040032d74 t fmodf16
ffffff8040032e74 t rintf16
ffffff8040032e74 t roundevenf16
ffffff8040032ef0 t roundf16
ffffff8040032f48 t sqrtf16
ffffff8040033014 t truncf16
ffffff804003304c t _ZN17compiler_builtins4math17full_availability5cbrtf17h174295be4fcbc420E
ffffff804003310c t cbrtf
ffffff80400331cc t _ZN17compiler_builtins4math17full_availability5ceilf17hca892cddc04a789fE
ffffff8040033234 t ceilf
ffffff804003329c t _ZN17compiler_builtins4math17full_availability9copysignf17h7a27f611d9cd5140E
ffffff80400332a8 t copysignf
ffffff80400332b4 t fabsf
ffffff80400332bc t fdimf
ffffff80400332d0 t _ZN17compiler_builtins4math17full_availability6floorf17h92c170d1e1054c38E
ffffff8040033344 t floorf
ffffff80400333b8 t fmaf
ffffff80400333c0 t _ZN17compiler_builtins4math17full_availability5fmaxf17hc77fd92205ad719cE
ffffff80400333d0 t fmaxf
ffffff80400333e0 t _ZN17compiler_builtins4math17full_availability5fminf17hdb317918d6a085fcE
ffffff80400333f0 t fminf
ffffff8040033400 t _ZN17compiler_builtins4math17full_availability5fmodf17h7aecb66a843edc77E
ffffff80400334d0 t fmodf
ffffff80400335a0 t rintf
ffffff80400335a8 t _ZN17compiler_builtins4math17full_availability6roundf17h86ee4b272dea1915E
ffffff80400335f4 t roundf
ffffff8040033640 t sqrtf
ffffff8040033648 t _ZN17compiler_builtins4math17full_availability6truncf17hc967b6f30d83f8a5E
ffffff8040033680 t truncf
ffffff80400336b8 t _ZN17compiler_builtins4math17full_availability4cbrt17h9593244e464691a6E
ffffff80400339c0 t cbrt
ffffff80400339c4 t _ZN17compiler_builtins4math17full_availability4ceil17h08d212cbcbedf746E
ffffff8040033a30 t ceil
ffffff8040033a9c t _ZN17compiler_builtins4math17full_availability8copysign17h490e4f855441a809E
ffffff8040033aac t copysign
ffffff8040033abc t fabs
ffffff8040033ac4 t fdim
ffffff8040033ad8 t _ZN17compiler_builtins4math17full_availability5floor17h2e43e499e0ea9159E
ffffff8040033b50 t floor
ffffff8040033bc8 t fma
ffffff8040033bd0 t _ZN17compiler_builtins4math17full_availability4fmax17h14a5d2a48786ae5aE
ffffff8040033be0 t fmax
ffffff8040033bf0 t _ZN17compiler_builtins4math17full_availability4fmin17hdce382de70190129E
ffffff8040033c00 t fmin
ffffff8040033c10 t _ZN17compiler_builtins4math17full_availability4fmod17h4ad049da38f9bad5E
ffffff8040033ce4 t fmod
ffffff8040033db8 t rint
ffffff8040033dc0 t _ZN17compiler_builtins4math17full_availability5round17h6e2a9c0afd5bd450E
ffffff8040033e10 t round
ffffff8040033e60 t sqrt
ffffff8040033e68 t _ZN17compiler_builtins4math17full_availability5trunc17hdc643a5eae8440f9E
ffffff8040033ea0 t trunc
ffffff8040033ed8 t _ZN17compiler_builtins4math17full_availability8fmaximum17h7b9f40d078dfc643E
ffffff8040033f18 t fmaximum
ffffff8040033f58 t _ZN17compiler_builtins4math17full_availability9fmaximumf17h4ca2f44917dd6edcE
ffffff8040033f98 t fmaximumf
ffffff8040033fd8 t _ZN17compiler_builtins4math17full_availability8fminimum17h89aeab8912d5fb07E
ffffff8040034018 t fminimum
ffffff8040034058 t _ZN17compiler_builtins4math17full_availability9fminimumf17had22ed1842466b4aE
ffffff8040034098 t fminimumf
ffffff80400340d8 t _ZN17compiler_builtins4math17full_availability9roundeven17h223b1d4b43ae9650E
ffffff8040034134 t roundeven
ffffff8040034190 t _ZN17compiler_builtins4math17full_availability10roundevenf17h888883f239d02e48E
ffffff80400341e0 t roundevenf
ffffff8040034230 t ceilf128
ffffff804003431c t copysignf128
ffffff8040034338 t fabsf128
ffffff8040034350 t fdimf128
ffffff8040034398 t floorf128
ffffff80400344a8 t fmaf128
ffffff8040034c48 t fmaxf128
ffffff8040034c90 t fmaximumf128
ffffff8040034d18 t fminf128
ffffff8040034d60 t fminimumf128
ffffff8040034de4 t fmodf128
ffffff8040034f70 t rintf128
ffffff8040034f70 t roundevenf128
ffffff8040035018 t roundf128
ffffff80400350c8 t sqrtf128
ffffff80400352f4 t truncf128
ffffff8040035378 t _ZN17compiler_builtins4math20partial_availability4acos17h1b2528b9bb1a9dceE
ffffff80400355f4 t acos
ffffff80400355f8 t _ZN17compiler_builtins4math20partial_availability5acosf17h47b8b445cf1d2df4E
ffffff8040035820 t acosf
ffffff8040035824 t _ZN17compiler_builtins4math20partial_availability4asin17h71e9eabff6c9c26dE
ffffff8040035a80 t asin
ffffff8040035a84 t _ZN17compiler_builtins4math20partial_availability5asinf17hcf5d340fb365ed86E
ffffff8040035bf4 t asinf
ffffff8040035d64 t _ZN17compiler_builtins4math20partial_availability4atan17h017c18672d1cb1f7E
ffffff8040035d68 t atan
ffffff8040035d6c t _ZN17compiler_builtins4math20partial_availability5atan217h9f9db21768c290c6E
ffffff8040035eec t atan2
ffffff8040035ef0 t _ZN17compiler_builtins4math20partial_availability6atan2f17h9f84c5ca717e2e5dE
ffffff8040036078 t atan2f
ffffff804003607c t _ZN17compiler_builtins4math20partial_availability5atanf17hcced1cca17f643b8E
ffffff8040036080 t atanf
ffffff8040036084 t _ZN17compiler_builtins4math20partial_availability3cos17hee749a16deba5922E
ffffff8040036418 t cos
ffffff804003641c t _ZN17compiler_builtins4math20partial_availability4cosf17h222169f5ea9bf04eE
ffffff80400367d0 t cosf
ffffff80400367d4 t _ZN17compiler_builtins4math20partial_availability4cosh17h4e4dbc1d6e7be0b0E
ffffff8040036898 t cosh
ffffff804003695c t _ZN17compiler_builtins4math20partial_availability5coshf17h853e8b8d00580e7eE
ffffff8040036a20 t coshf
ffffff8040036ae4 t _ZN17compiler_builtins4math20partial_availability3erf17h3dd19de9ad4ff782E
ffffff8040036c34 t erf
ffffff8040036d84 t _ZN17compiler_builtins4math20partial_availability4erfc17h140902e555a5d9dcE
ffffff8040036f0c t erfc
ffffff8040036f10 t _ZN17compiler_builtins4math20partial_availability5erfcf17hbe3f4f2b34211bfbE
ffffff80400370bc t erfcf
ffffff80400370c0 t _ZN17compiler_builtins4math20partial_availability4erff17h5148689c5d90cab2E
ffffff8040037218 t erff
ffffff8040037370 t _ZN17compiler_builtins4math20partial_availability3exp17h6cf6bd3ba07d9880E
ffffff8040037374 t exp
ffffff8040037378 t _ZN17compiler_builtins4math20partial_availability4exp217hd5df0e55d3515055E
ffffff80400375d0 t exp2
ffffff80400375d4 t _ZN17compiler_builtins4math20partial_availability5exp2f17h9e1e5be7c03051c3E
ffffff8040037730 t exp2f
ffffff804003788c t _ZN17compiler_builtins4math20partial_availability4expf17h9f698fc1e2731c27E
ffffff8040037890 t expf
ffffff8040037894 t _ZN17compiler_builtins4math20partial_availability5expm117hc8fac42e6b740f7eE
ffffff8040037898 t expm1
ffffff804003789c t _ZN17compiler_builtins4math20partial_availability6expm1f17h1cc9d5a83798b12aE
ffffff80400378a0 t expm1f
ffffff80400378a4 t _ZN17compiler_builtins4math20partial_availability5hypot17ha37d4ab81707415aE
ffffff80400379c0 t hypot
ffffff8040037adc t _ZN17compiler_builtins4math20partial_availability6hypotf17hee6c6cfd8df8aa88E
ffffff8040037ba8 t hypotf
ffffff8040037c74 t _ZN17compiler_builtins4math20partial_availability5ldexp17hc0fa42bdbf25fdf5E
ffffff8040037d34 t ldexp
ffffff8040037df4 t _ZN17compiler_builtins4math20partial_availability6ldexpf17hcdf6a7f04cde5a50E
ffffff8040037ebc t ldexpf
ffffff8040037f84 t _ZN17compiler_builtins4math20partial_availability3log17hb3bff4aed0592bc9E
ffffff8040037f88 t log
ffffff8040037f8c t _ZN17compiler_builtins4math20partial_availability5log1017h30031a4ab1977f32E
ffffff8040038140 t log10
ffffff8040038144 t _ZN17compiler_builtins4math20partial_availability6log10f17hc4291d430e4e4fcfE
ffffff80400382a4 t log10f
ffffff8040038404 t _ZN17compiler_builtins4math20partial_availability5log1p17h00563b415324dea7E
ffffff80400385c4 t log1p
ffffff80400385c8 t _ZN17compiler_builtins4math20partial_availability6log1pf17h8b4ac192b2e1ed0dE
ffffff8040038758 t log1pf
ffffff804003875c t _ZN17compiler_builtins4math20partial_availability4log217h9f7a5e097f1b06eaE
ffffff80400388f4 t log2
ffffff80400388f8 t _ZN17compiler_builtins4math20partial_availability5log2f17h0c9b19506ab76e2fE
ffffff8040038a34 t log2f
ffffff8040038b70 t _ZN17compiler_builtins4math20partial_availability4logf17hc0534c7108b9c0cdE
ffffff8040038c8c t logf
ffffff8040038da8 t _ZN17compiler_builtins4math20partial_availability3pow17h3250d24342c0e769E
ffffff8040038dac t pow
ffffff8040038db0 t _ZN17compiler_builtins4math20partial_availability4powf17hd049f721404d7061E
ffffff80400394e8 t powf
ffffff80400394ec t _ZN17compiler_builtins4math20partial_availability3sin17h121cb7d07e3201fbE
ffffff8040039854 t sin
ffffff8040039858 t _ZN17compiler_builtins4math20partial_availability4sinf17h3cbb259f13ef76d2E
ffffff8040039c28 t sinf
ffffff8040039c2c t _ZN17compiler_builtins4math20partial_availability4sinh17h2b7619c88c79bab1E
ffffff8040039d08 t sinh
ffffff8040039de4 t _ZN17compiler_builtins4math20partial_availability5sinhf17h8a00c9af56c5753eE
ffffff8040039ebc t sinhf
ffffff8040039f94 t _ZN17compiler_builtins4math20partial_availability3tan17h0488dc3c8059da6eE
ffffff804003a318 t tan
ffffff804003a31c t _ZN17compiler_builtins4math20partial_availability4tanf17h17e6b9e3fca3abc9E
ffffff804003a6e4 t tanf
ffffff804003a6e8 t _ZN17compiler_builtins4math20partial_availability4tanh17h0e05f65924403e61E
ffffff804003a7d4 t tanh
ffffff804003a8c0 t _ZN17compiler_builtins4math20partial_availability5tanhf17hcc67c64b6c768ba5E
ffffff804003a9a4 t tanhf
ffffff804003aa88 t _ZN17compiler_builtins4math20partial_availability6tgamma17hdbccc5f1798a976fE
ffffff804003aa8c t tgamma
ffffff804003aa90 t _ZN17compiler_builtins4math20partial_availability7tgammaf17ha52cfadddbc4aeefE
ffffff804003aaa8 t tgammaf
ffffff804003aac0 t _ZN17compiler_builtins4math20partial_availability8lgamma_r17hb78f387c9e68963aE
ffffff804003b35c t lgamma_r
ffffff804003b360 t _ZN17compiler_builtins4math20partial_availability9lgammaf_r17hcc53d772863096e5E
ffffff804003bda4 t lgammaf_r
ffffff804003bda8 t _ZN17compiler_builtins3mem6memcpy17h833a3252860db940E
ffffff804003c074 t _ZN17compiler_builtins3mem7memmove17h5543311d524cf941E
ffffff804003c35c t _ZN17compiler_builtins3mem6memset17h7cf60e78c8161ddaE
ffffff804003c574 t _ZN17compiler_builtins3mem4bcmp17ha3109e32e915d57eE
ffffff804003c574 t _ZN17compiler_builtins3mem6memcmp17h63a6959b2efff311E
ffffff804003c59c t bcmp
ffffff804003c5c4 t _ZN17compiler_builtins3mem6strlen17hbf58d2dcefcab78cE
ffffff804003c61c T __text_end
ffffff804003e000 r rodata_check_str
ffffff80400400e8 r _ZN12cohesix_root17ROOTSERVER_ONLINE17hf81e6a44eb20f606E
ffffff8040041884 r _ZN4core7unicode12unicode_data10alphabetic7OFFSETS17he2596e58647b5f72E
ffffff8040041e6f r _ZN4core7unicode12unicode_data14case_ignorable7OFFSETS17h5eb8b94f154cb041E
ffffff80400421f8 r _ZN4core7unicode12unicode_data5cased7OFFSETS17ha9722b267f646849E
ffffff8040042337 r _ZN4core7unicode12unicode_data15grapheme_extend7OFFSETS17h8c99dda4a9f0ffd8E
ffffff8040042626 R _ZN4core7unicode12unicode_data9lowercase17BITSET_CHUNKS_MAP17hab1b94cf0ca164d6E
ffffff80400426a1 r _ZN4core7unicode12unicode_data1n7OFFSETS17hb32c532bbc4f6ac1E
ffffff80400427c2 R _ZN4core7unicode12unicode_data9uppercase17BITSET_CHUNKS_MAP17h92f385141b629752E
ffffff804004283f R _ZN4core7unicode12unicode_data11white_space14WHITESPACE_MAP17hdbb1561466fcd8b2E
ffffff8040043230 r _ZN4core3num7flt2dec8strategy6dragon8POW5TO1617ha907a595f64fea71E
ffffff8040043238 r _ZN4core3num7flt2dec8strategy6dragon8POW5TO3217h8c4a30120ae65daeE
ffffff8040043244 r _ZN4core3num7flt2dec8strategy6dragon8POW5TO6417h4957a479ce5a222aE
ffffff8040043258 r _ZN4core3num7flt2dec8strategy6dragon9POW5TO12817hde6e73b1fe08a4acE
ffffff8040043280 r _ZN4core3num7flt2dec8strategy6dragon9POW5TO25617h491de6d448af5866E
ffffff8040043598 R _ZN4core3num7flt2dec8strategy5grisu12CACHED_POW1017h346d55ea96e1f834E
ffffff80400463e8 r _ZN4core3num7dec2flt5table17POWER_OF_FIVE_12817hfdfa44f2cbee3fc8E
ffffff8040049438 r _ZN4core7unicode12unicode_data10alphabetic17SHORT_OFFSET_RUNS17h80c7935ba7875a60E
ffffff804004950c r _ZN4core7unicode12unicode_data14case_ignorable17SHORT_OFFSET_RUNS17hd20f5dba119ae769E
ffffff80400495a0 r _ZN4core7unicode12unicode_data5cased17SHORT_OFFSET_RUNS17h1d80135e58f5d27eE
ffffff80400495f8 r _ZN4core7unicode12unicode_data15grapheme_extend17SHORT_OFFSET_RUNS17h4eb9e04b76d8e1ddE
ffffff8040049680 R _ZN4core7unicode12unicode_data9lowercase19BITSET_INDEX_CHUNKS17he8b4a0d75936a317E
ffffff80400497c0 R _ZN4core7unicode12unicode_data9lowercase16BITSET_CANONICAL17h72a0d5854a095035E
ffffff8040049980 R _ZN4core7unicode12unicode_data9lowercase14BITSET_MAPPING17h9d2e654818f1fafeE
ffffff80400499ac r _ZN4core7unicode12unicode_data1n17SHORT_OFFSET_RUNS17h98b798ce2537a809E
ffffff8040049a54 R _ZN4core7unicode12unicode_data9uppercase19BITSET_INDEX_CHUNKS17hddb74af364bae4abE
ffffff8040049b68 R _ZN4core7unicode12unicode_data9uppercase16BITSET_CANONICAL17hb36ddf0f8ba92eb0E
ffffff8040049cc8 R _ZN4core7unicode12unicode_data9uppercase14BITSET_MAPPING17ha83630d3b42f5832E
ffffff8040050a88 r _ZN17compiler_builtins4math9libm_math5exp2f6EXP2FT17h0a69d9cd29aa7fdbE
ffffff8040050c90 R _ZN17compiler_builtins4math9libm_math7generic4sqrt9RSQRT_TAB17hee678fbded9a1763E
ffffff8040050d90 r _ZN17compiler_builtins4math9libm_math4exp23TBL17h85f670e2aa8d0be3E
ffffff8040051d90 R __rodata_end
ffffff8040052000 R __image_end
ffffff8040053000 d _ZN12cohesix_root3sys5FILES17h350ec2cd68a329b7E
ffffff8040053060 D _ZN5alloc4sync18STATIC_INNER_SLICE17h85933c22591f3473E
ffffff8040053080 D __data_end
ffffff8040055000 b _ZN12cohesix_root9allocator6OFFSET17h160327f1bf8cec1fE
ffffff8040055000 B __bss_start
ffffff8040055008 B VALIDATOR_HANDLE
ffffff8040055010 B SRV_HANDLE
ffffff8040055018 B CUDA_HANDLE
ffffff8040055020 B __bss_end
ffffff8040057000 B __heap_start
ffffff80400d7000 B __heap_end
ffffff80400d8000 B __stack_start
ffffff80400e8000 B __stack_end
