
workspace/target/sel4-aarch64/release/cohesix_root:	file format elf64-littleaarch64

Disassembly of section .vectors:

0000000000400000 <vectors_start>:
  400000: 14000ab0     	b	0x402ac0 <handle_el1_sync>
		...
  400080: 14000aa0     	b	0x402b00 <handle_el1_irq>
		...
  400100: 14000a90     	b	0x402b40 <handle_el1_fiq>
		...
  400180: 14000a80     	b	0x402b80 <handle_el1_serror>
		...
  400200: 14000a70     	b	0x402bc0 <handle_el1_sync_sp0>
		...
  400280: 14000a60     	b	0x402c00 <handle_el1_irq_sp0>
		...
  400300: 14000a50     	b	0x402c40 <handle_el1_fiq_sp0>
		...
  400380: 14000a40     	b	0x402c80 <handle_el1_serror_sp0>
		...
  400400: 14000a30     	b	0x402cc0 <handle_el0_sync>
		...
  400480: 14000a2a     	b	0x402d28 <handle_el0_irq>
		...
  400500: 14000a1a     	b	0x402d68 <handle_el0_fiq>
		...
  400580: 14000a0a     	b	0x402da8 <handle_el0_serror>
		...
  400600: 140009fa     	b	0x402de8 <handle_el0_32_sync>
		...
  400680: 140009ea     	b	0x402e28 <handle_el0_32_irq>
		...
  400700: 140009da     	b	0x402e68 <handle_el0_32_fiq>
		...
  400780: 140009ca     	b	0x402ea8 <handle_el0_32_serror>

Disassembly of section .text:

0000000000401000 <rust_entry>:
  401000: 9400069b     	bl	0x402a6c <rust_start>
  401004: 14000000     	b	0x401004 <rust_entry+0x4>

0000000000401008 <_start>:
  401008: d503201f     	nop
  40100c: 1051ffa0     	adr	x0, 0x4a5000 <__stack_end>
  401010: 9100001f     	mov	sp, x0
  401014: 910003fd     	mov	x29, sp
  401018: d503201f     	nop
  40101c: 1006ff20     	adr	x0, 0x40f000 <__bss_start>
  401020: d503201f     	nop
  401024: 10087f21     	adr	x1, 0x412008 <__bss_end>
  401028: eb01001f     	cmp	x0, x1
  40102c: 5400006a     	b.ge	0x401038 <_start+0x30>
  401030: f800841f     	str	xzr, [x0], #0x8
  401034: 17fffffd     	b	0x401028 <_start+0x20>
  401038: d5033f9f     	dsb	sy
  40103c: d5033fdf     	isb
  401040: 97fffff0     	bl	0x401000 <rust_entry>
  401044: 14000000     	b	0x401044 <_start+0x3c>

0000000000401048 <_ZN44_$LT$$RF$T$u20$as$u20$core..fmt..Display$GT$3fmt17h060ae1758682f92cE>:
  401048: f9400009     	ldr	x9, [x0]
  40104c: aa0103e0     	mov	x0, x1
  401050: a9400928     	ldp	x8, x2, [x9]
  401054: aa0803e1     	mov	x1, x8
  401058: 14001956     	b	0x4075b0 <_ZN4core3fmt9Formatter3pad17h17fff84df6397ea3E>

000000000040105c <_ZN44_$LT$$RF$T$u20$as$u20$core..fmt..Display$GT$3fmt17h49eddc5c262f8d49E>:
  40105c: a9400808     	ldp	x8, x2, [x0]
  401060: aa0103e0     	mov	x0, x1
  401064: aa0803e1     	mov	x1, x8
  401068: 14001952     	b	0x4075b0 <_ZN4core3fmt9Formatter3pad17h17fff84df6397ea3E>

000000000040106c <_ZN4core3fmt5Write10write_char17he7d353504fd85aa7E>:
  40106c: d10043ff     	sub	sp, sp, #0x10
  401070: 7102003f     	cmp	w1, #0x80
  401074: 910033e8     	add	x8, sp, #0xc
  401078: b9000fff     	str	wzr, [sp, #0xc]
  40107c: 54000082     	b.hs	0x40108c <_ZN4core3fmt5Write10write_char17he7d353504fd85aa7E+0x20>
  401080: b2400108     	orr	x8, x8, #0x1
  401084: 390033e1     	strb	w1, [sp, #0xc]
  401088: 14000025     	b	0x40111c <_ZN4core3fmt5Write10write_char17he7d353504fd85aa7E+0xb0>
  40108c: 7120003f     	cmp	w1, #0x800
  401090: 54000122     	b.hs	0x4010b4 <_ZN4core3fmt5Write10write_char17he7d353504fd85aa7E+0x48>
  401094: 53067c29     	lsr	w9, w1, #6
  401098: 5280100a     	mov	w10, #0x80              // =128
  40109c: b27f0108     	orr	x8, x8, #0x2
  4010a0: 3300142a     	bfxil	w10, w1, #0, #6
  4010a4: 321a0529     	orr	w9, w9, #0xc0
  4010a8: 390033e9     	strb	w9, [sp, #0xc]
  4010ac: 390037ea     	strb	w10, [sp, #0xd]
  4010b0: 1400001b     	b	0x40111c <_ZN4core3fmt5Write10write_char17he7d353504fd85aa7E+0xb0>
  4010b4: 7140403f     	cmp	w1, #0x10, lsl #12      // =0x10000
  4010b8: 54000182     	b.hs	0x4010e8 <_ZN4core3fmt5Write10write_char17he7d353504fd85aa7E+0x7c>
  4010bc: 530c7c29     	lsr	w9, w1, #12
  4010c0: 5280100a     	mov	w10, #0x80              // =128
  4010c4: 5280100b     	mov	w11, #0x80              // =128
  4010c8: 33062c2a     	bfxil	w10, w1, #6, #6
  4010cc: 3300142b     	bfxil	w11, w1, #0, #6
  4010d0: b2400508     	orr	x8, x8, #0x3
  4010d4: 321b0929     	orr	w9, w9, #0xe0
  4010d8: 390033e9     	strb	w9, [sp, #0xc]
  4010dc: 390037ea     	strb	w10, [sp, #0xd]
  4010e0: 39003beb     	strb	w11, [sp, #0xe]
  4010e4: 1400000e     	b	0x40111c <_ZN4core3fmt5Write10write_char17he7d353504fd85aa7E+0xb0>
  4010e8: 53127c29     	lsr	w9, w1, #18
  4010ec: 5280100a     	mov	w10, #0x80              // =128
  4010f0: 5280100b     	mov	w11, #0x80              // =128
  4010f4: 5280100c     	mov	w12, #0x80              // =128
  4010f8: 330c442a     	bfxil	w10, w1, #12, #6
  4010fc: 33062c2b     	bfxil	w11, w1, #6, #6
  401100: 3300142c     	bfxil	w12, w1, #0, #6
  401104: 321c0d29     	orr	w9, w9, #0xf0
  401108: 91001108     	add	x8, x8, #0x4
  40110c: 390033e9     	strb	w9, [sp, #0xc]
  401110: 390037ea     	strb	w10, [sp, #0xd]
  401114: 39003beb     	strb	w11, [sp, #0xe]
  401118: 39003fec     	strb	w12, [sp, #0xf]
  40111c: 910033e9     	add	x9, sp, #0xc
  401120: 3840152a     	ldrb	w10, [x9], #0x1
  401124: aa0a03e0     	mov	x0, x10
  401128: 92800108     	mov	x8, #-0x9               // =-9
  40112c: 92800110     	mov	x16, #-0x9              // =-9
  401130: d4000001     	svc	#0
  401134: eb08013f     	cmp	x9, x8
  401138: 54ffff41     	b.ne	0x401120 <_ZN4core3fmt5Write10write_char17he7d353504fd85aa7E+0xb4>
  40113c: 52800148     	mov	w8, #0xa                // =10
  401140: aa0803e0     	mov	x0, x8
  401144: 92800108     	mov	x8, #-0x9               // =-9
  401148: 92800110     	mov	x16, #-0x9              // =-9
  40114c: d4000001     	svc	#0
  401150: 2a1f03e0     	mov	w0, wzr
  401154: 910043ff     	add	sp, sp, #0x10
  401158: d65f03c0     	ret

000000000040115c <_ZN4core3fmt5Write9write_fmt17hfde170b46d8783aeE>:
  40115c: 14001aa3     	b	0x407be8 <_ZN4core3fmt5write17hf7092a74ebbf9db4E>

0000000000401160 <_ZN5alloc7raw_vec11finish_grow17h370a092bcd6206f8E>:
  401160: a9bd5ffe     	stp	x30, x23, [sp, #-0x30]!
  401164: a90157f6     	stp	x22, x21, [sp, #0x10]
  401168: a9024ff4     	stp	x20, x19, [sp, #0x20]
  40116c: f9400468     	ldr	x8, [x3, #0x8]
  401170: aa0203f3     	mov	x19, x2
  401174: aa0103f5     	mov	x21, x1
  401178: aa0003f4     	mov	x20, x0
  40117c: b40001c8     	cbz	x8, 0x4011b4 <_ZN5alloc7raw_vec11finish_grow17h370a092bcd6206f8E+0x54>
  401180: f9400876     	ldr	x22, [x3, #0x10]
  401184: b4000196     	cbz	x22, 0x4011b4 <_ZN5alloc7raw_vec11finish_grow17h370a092bcd6206f8E+0x54>
  401188: f9400077     	ldr	x23, [x3]
  40118c: aa1503e0     	mov	x0, x21
  401190: aa1303e1     	mov	x1, x19
  401194: 9400013f     	bl	0x401690 <_ZN91_$LT$cohesix_root..allocator..BumpAllocator$u20$as$u20$core..alloc..global..GlobalAlloc$GT$5alloc17hc97a9adda21019bdE>
  401198: b4000280     	cbz	x0, 0x4011e8 <_ZN5alloc7raw_vec11finish_grow17h370a092bcd6206f8E+0x88>
  40119c: aa1703e1     	mov	x1, x23
  4011a0: aa1603e2     	mov	x2, x22
  4011a4: aa0003f5     	mov	x21, x0
  4011a8: 94000619     	bl	0x402a0c <memcpy>
  4011ac: aa1503e0     	mov	x0, x21
  4011b0: 14000006     	b	0x4011c8 <_ZN5alloc7raw_vec11finish_grow17h370a092bcd6206f8E+0x68>
  4011b4: b4000173     	cbz	x19, 0x4011e0 <_ZN5alloc7raw_vec11finish_grow17h370a092bcd6206f8E+0x80>
  4011b8: aa1503e0     	mov	x0, x21
  4011bc: aa1303e1     	mov	x1, x19
  4011c0: 94000134     	bl	0x401690 <_ZN91_$LT$cohesix_root..allocator..BumpAllocator$u20$as$u20$core..alloc..global..GlobalAlloc$GT$5alloc17hc97a9adda21019bdE>
  4011c4: b4000120     	cbz	x0, 0x4011e8 <_ZN5alloc7raw_vec11finish_grow17h370a092bcd6206f8E+0x88>
  4011c8: a900ce80     	stp	x0, x19, [x20, #0x8]
  4011cc: a94157f6     	ldp	x22, x21, [sp, #0x10]
  4011d0: f900029f     	str	xzr, [x20]
  4011d4: a9424ff4     	ldp	x20, x19, [sp, #0x20]
  4011d8: a8c35ffe     	ldp	x30, x23, [sp], #0x30
  4011dc: d65f03c0     	ret
  4011e0: aa1503e0     	mov	x0, x21
  4011e4: b5ffff35     	cbnz	x21, 0x4011c8 <_ZN5alloc7raw_vec11finish_grow17h370a092bcd6206f8E+0x68>
  4011e8: 52800028     	mov	w8, #0x1                // =1
  4011ec: a900ce95     	stp	x21, x19, [x20, #0x8]
  4011f0: a94157f6     	ldp	x22, x21, [sp, #0x10]
  4011f4: f9000288     	str	x8, [x20]
  4011f8: a9424ff4     	ldp	x20, x19, [sp, #0x20]
  4011fc: a8c35ffe     	ldp	x30, x23, [sp], #0x30
  401200: d65f03c0     	ret

0000000000401204 <_ZN5alloc7raw_vec20RawVecInner$LT$A$GT$7reserve21do_reserve_and_handle17h8fe3f18238ba0e0dE>:
  401204: d10143ff     	sub	sp, sp, #0x50
  401208: f9001bfe     	str	x30, [sp, #0x30]
  40120c: a9044ff4     	stp	x20, x19, [sp, #0x40]
  401210: f9400009     	ldr	x9, [x0]
  401214: 8b01004c     	add	x12, x2, x1
  401218: 5280008a     	mov	w10, #0x4               // =4
  40121c: cb0303ed     	neg	x13, x3
  401220: aa0003f3     	mov	x19, x0
  401224: aa1f03e0     	mov	x0, xzr
  401228: d37ff92b     	lsl	x11, x9, #1
  40122c: eb0b019f     	cmp	x12, x11
  401230: 9a8b818b     	csel	x11, x12, x11, hi
  401234: f100049f     	cmp	x4, #0x1
  401238: 5280010c     	mov	w12, #0x8               // =8
  40123c: 9a8a018a     	csel	x10, x12, x10, eq
  401240: 8b04006c     	add	x12, x3, x4
  401244: eb0a017f     	cmp	x11, x10
  401248: d100058c     	sub	x12, x12, #0x1
  40124c: 9a8a8174     	csel	x20, x11, x10, hi
  401250: 8a0d018a     	and	x10, x12, x13
  401254: 9bd47d4b     	umulh	x11, x10, x20
  401258: eb0b03ff     	cmp	xzr, x11
  40125c: 54000381     	b.ne	0x4012cc <_ZN5alloc7raw_vec20RawVecInner$LT$A$GT$7reserve21do_reserve_and_handle17h8fe3f18238ba0e0dE+0xc8>
  401260: 9b147d42     	mul	x2, x10, x20
  401264: d2f0000a     	mov	x10, #-0x8000000000000000 // =-9223372036854775808
  401268: aa0303e8     	mov	x8, x3
  40126c: cb03014a     	sub	x10, x10, x3
  401270: eb0a005f     	cmp	x2, x10
  401274: 540002c8     	b.hi	0x4012cc <_ZN5alloc7raw_vec20RawVecInner$LT$A$GT$7reserve21do_reserve_and_handle17h8fe3f18238ba0e0dE+0xc8>
  401278: b40000c9     	cbz	x9, 0x401290 <_ZN5alloc7raw_vec20RawVecInner$LT$A$GT$7reserve21do_reserve_and_handle17h8fe3f18238ba0e0dE+0x8c>
  40127c: 9b047d29     	mul	x9, x9, x4
  401280: f940066a     	ldr	x10, [x19, #0x8]
  401284: f9000fea     	str	x10, [sp, #0x18]
  401288: f90017e9     	str	x9, [sp, #0x28]
  40128c: aa0803e9     	mov	x9, x8
  401290: 910003e0     	mov	x0, sp
  401294: 910063e3     	add	x3, sp, #0x18
  401298: aa0803e1     	mov	x1, x8
  40129c: f90013e9     	str	x9, [sp, #0x20]
  4012a0: 97ffffb0     	bl	0x401160 <_ZN5alloc7raw_vec11finish_grow17h370a092bcd6206f8E>
  4012a4: b94003e8     	ldr	w8, [sp]
  4012a8: 7100051f     	cmp	w8, #0x1
  4012ac: 540000e0     	b.eq	0x4012c8 <_ZN5alloc7raw_vec20RawVecInner$LT$A$GT$7reserve21do_reserve_and_handle17h8fe3f18238ba0e0dE+0xc4>
  4012b0: f94007e8     	ldr	x8, [sp, #0x8]
  4012b4: f9401bfe     	ldr	x30, [sp, #0x30]
  4012b8: a9002274     	stp	x20, x8, [x19]
  4012bc: a9444ff4     	ldp	x20, x19, [sp, #0x40]
  4012c0: 910143ff     	add	sp, sp, #0x50
  4012c4: d65f03c0     	ret
  4012c8: f94007e0     	ldr	x0, [sp, #0x8]
  4012cc: 940017a8     	bl	0x40716c <_ZN5alloc7raw_vec12handle_error17h68e405fe7d2eef04E>

00000000004012d0 <_ZN75_$LT$$RF$mut$u20$W$u20$as$u20$core..fmt..Write..write_fmt..SpecWriteFmt$GT$14spec_write_fmt17hca4abb18532e998bE>:
  4012d0: 14001a46     	b	0x407be8 <_ZN4core3fmt5write17hf7092a74ebbf9db4E>

00000000004012d4 <_ZN81_$LT$core..str..pattern..CharSearcher$u20$as$u20$core..str..pattern..Searcher$GT$10next_match17h59af8016d074e948E>:
  4012d4: f81b0ffe     	str	x30, [sp, #-0x50]!
  4012d8: a90167fa     	stp	x26, x25, [sp, #0x10]
  4012dc: a9025ff8     	stp	x24, x23, [sp, #0x20]
  4012e0: a90357f6     	stp	x22, x21, [sp, #0x30]
  4012e4: a9044ff4     	stp	x20, x19, [sp, #0x40]
  4012e8: a9415835     	ldp	x21, x22, [x1, #0x10]
  4012ec: aa1f03ee     	mov	x14, xzr
  4012f0: eb1502df     	cmp	x22, x21
  4012f4: 54001c03     	b.lo	0x401674 <_ZN81_$LT$core..str..pattern..CharSearcher$u20$as$u20$core..str..pattern..Searcher$GT$10next_match17h59af8016d074e948E+0x3a0>
  4012f8: f9400437     	ldr	x23, [x1, #0x8]
  4012fc: eb1702df     	cmp	x22, x23
  401300: 54001ba8     	b.hi	0x401674 <_ZN81_$LT$core..str..pattern..CharSearcher$u20$as$u20$core..str..pattern..Searcher$GT$10next_match17h59af8016d074e948E+0x3a0>
  401304: 3940a033     	ldrb	w19, [x1, #0x28]
  401308: f9400038     	ldr	x24, [x1]
  40130c: 7100167f     	cmp	w19, #0x5
  401310: 8b130028     	add	x8, x1, x19
  401314: 540015e2     	b.hs	0x4015d0 <_ZN81_$LT$core..str..pattern..CharSearcher$u20$as$u20$core..str..pattern..Searcher$GT$10next_match17h59af8016d074e948E+0x2fc>
  401318: 3841f108     	ldurb	w8, [x8, #0x1f]
  40131c: b200c3e9     	mov	x9, #0x101010101010101  // =72340172838076673
  401320: 34000c73     	cbz	w19, 0x4014ac <_ZN81_$LT$core..str..pattern..CharSearcher$u20$as$u20$core..str..pattern..Searcher$GT$10next_match17h59af8016d074e948E+0x1d8>
  401324: 9b097d0a     	mul	x10, x8, x9
  401328: b200c3eb     	mov	x11, #0x101010101010101 // =72340172838076673
  40132c: 39408029     	ldrb	w9, [x1, #0x20]
  401330: f280200b     	movk	x11, #0x100
  401334: 39408c2c     	ldrb	w12, [x1, #0x23]
  401338: b201c3ed     	mov	x13, #-0x7f7f7f7f7f7f7f80 // =-9187201950435737472
  40133c: 4e080d61     	dup	v1.2d, x11
  401340: 3940882b     	ldrb	w11, [x1, #0x22]
  401344: 4e080d40     	dup	v0.2d, x10
  401348: 3940842a     	ldrb	w10, [x1, #0x21]
  40134c: 14000004     	b	0x40135c <_ZN81_$LT$core..str..pattern..CharSearcher$u20$as$u20$core..str..pattern..Searcher$GT$10next_match17h59af8016d074e948E+0x88>
  401350: eb1502df     	cmp	x22, x21
  401354: aa1f03ee     	mov	x14, xzr
  401358: 540018e3     	b.lo	0x401674 <_ZN81_$LT$core..str..pattern..CharSearcher$u20$as$u20$core..str..pattern..Searcher$GT$10next_match17h59af8016d074e948E+0x3a0>
  40135c: cb1502cf     	sub	x15, x22, x21
  401360: 8b15030e     	add	x14, x24, x21
  401364: f1003dff     	cmp	x15, #0xf
  401368: 54000168     	b.hi	0x401394 <_ZN81_$LT$core..str..pattern..CharSearcher$u20$as$u20$core..str..pattern..Searcher$GT$10next_match17h59af8016d074e948E+0xc0>
  40136c: eb1502df     	cmp	x22, x21
  401370: 540017e0     	b.eq	0x40166c <_ZN81_$LT$core..str..pattern..CharSearcher$u20$as$u20$core..str..pattern..Searcher$GT$10next_match17h59af8016d074e948E+0x398>
  401374: aa1f03f2     	mov	x18, xzr
  401378: 387269d0     	ldrb	w16, [x14, x18]
  40137c: 6b08021f     	cmp	w16, w8
  401380: 54000600     	b.eq	0x401440 <_ZN81_$LT$core..str..pattern..CharSearcher$u20$as$u20$core..str..pattern..Searcher$GT$10next_match17h59af8016d074e948E+0x16c>
  401384: 91000652     	add	x18, x18, #0x1
  401388: eb1201ff     	cmp	x15, x18
  40138c: 54ffff61     	b.ne	0x401378 <_ZN81_$LT$core..str..pattern..CharSearcher$u20$as$u20$core..str..pattern..Searcher$GT$10next_match17h59af8016d074e948E+0xa4>
  401390: 140000b7     	b	0x40166c <_ZN81_$LT$core..str..pattern..CharSearcher$u20$as$u20$core..str..pattern..Searcher$GT$10next_match17h59af8016d074e948E+0x398>
  401394: 91001dd0     	add	x16, x14, #0x7
  401398: 927df211     	and	x17, x16, #0xfffffffffffffff8
  40139c: eb0e0230     	subs	x16, x17, x14
  4013a0: 54000180     	b.eq	0x4013d0 <_ZN81_$LT$core..str..pattern..CharSearcher$u20$as$u20$core..str..pattern..Searcher$GT$10next_match17h59af8016d074e948E+0xfc>
  4013a4: aa1f03f2     	mov	x18, xzr
  4013a8: 387269c2     	ldrb	w2, [x14, x18]
  4013ac: 6b08005f     	cmp	w2, w8
  4013b0: 54000480     	b.eq	0x401440 <_ZN81_$LT$core..str..pattern..CharSearcher$u20$as$u20$core..str..pattern..Searcher$GT$10next_match17h59af8016d074e948E+0x16c>
  4013b4: 91000652     	add	x18, x18, #0x1
  4013b8: eb12021f     	cmp	x16, x18
  4013bc: 54ffff61     	b.ne	0x4013a8 <_ZN81_$LT$core..str..pattern..CharSearcher$u20$as$u20$core..str..pattern..Searcher$GT$10next_match17h59af8016d074e948E+0xd4>
  4013c0: d10041f2     	sub	x18, x15, #0x10
  4013c4: eb12021f     	cmp	x16, x18
  4013c8: 54000069     	b.ls	0x4013d4 <_ZN81_$LT$core..str..pattern..CharSearcher$u20$as$u20$core..str..pattern..Searcher$GT$10next_match17h59af8016d074e948E+0x100>
  4013cc: 1400000f     	b	0x401408 <_ZN81_$LT$core..str..pattern..CharSearcher$u20$as$u20$core..str..pattern..Searcher$GT$10next_match17h59af8016d074e948E+0x134>
  4013d0: d10041f2     	sub	x18, x15, #0x10
  4013d4: 3dc00222     	ldr	q2, [x17]
  4013d8: 6e201c42     	eor	v2.16b, v2.16b, v0.16b
  4013dc: 6ee28423     	sub	v3.2d, v1.2d, v2.2d
  4013e0: 4ea21c62     	orr	v2.16b, v3.16b, v2.16b
  4013e4: 4e183c42     	mov	x2, v2.d[1]
  4013e8: 9e660043     	fmov	x3, d2
  4013ec: 8a020062     	and	x2, x3, x2
  4013f0: ea2201bf     	bics	xzr, x13, x2
  4013f4: 540000a1     	b.ne	0x401408 <_ZN81_$LT$core..str..pattern..CharSearcher$u20$as$u20$core..str..pattern..Searcher$GT$10next_match17h59af8016d074e948E+0x134>
  4013f8: 91004210     	add	x16, x16, #0x10
  4013fc: 91004231     	add	x17, x17, #0x10
  401400: eb12021f     	cmp	x16, x18
  401404: 54fffe89     	b.ls	0x4013d4 <_ZN81_$LT$core..str..pattern..CharSearcher$u20$as$u20$core..str..pattern..Searcher$GT$10next_match17h59af8016d074e948E+0x100>
  401408: eb1001ff     	cmp	x15, x16
  40140c: 54001300     	b.eq	0x40166c <_ZN81_$LT$core..str..pattern..CharSearcher$u20$as$u20$core..str..pattern..Searcher$GT$10next_match17h59af8016d074e948E+0x398>
  401410: cb1002d1     	sub	x17, x22, x16
  401414: aa1f03ef     	mov	x15, xzr
  401418: 8b1001ce     	add	x14, x14, x16
  40141c: cb150231     	sub	x17, x17, x21
  401420: 386f69d2     	ldrb	w18, [x14, x15]
  401424: 6b08025f     	cmp	w18, w8
  401428: 540000a0     	b.eq	0x40143c <_ZN81_$LT$core..str..pattern..CharSearcher$u20$as$u20$core..str..pattern..Searcher$GT$10next_match17h59af8016d074e948E+0x168>
  40142c: 910005ef     	add	x15, x15, #0x1
  401430: eb0f023f     	cmp	x17, x15
  401434: 54ffff61     	b.ne	0x401420 <_ZN81_$LT$core..str..pattern..CharSearcher$u20$as$u20$core..str..pattern..Searcher$GT$10next_match17h59af8016d074e948E+0x14c>
  401438: 1400008d     	b	0x40166c <_ZN81_$LT$core..str..pattern..CharSearcher$u20$as$u20$core..str..pattern..Searcher$GT$10next_match17h59af8016d074e948E+0x398>
  40143c: 8b1001f2     	add	x18, x15, x16
  401440: 8b15024e     	add	x14, x18, x21
  401444: 910005d5     	add	x21, x14, #0x1
  401448: eb1302ae     	subs	x14, x21, x19
  40144c: f9000835     	str	x21, [x1, #0x10]
  401450: 54fff803     	b.lo	0x401350 <_ZN81_$LT$core..str..pattern..CharSearcher$u20$as$u20$core..str..pattern..Searcher$GT$10next_match17h59af8016d074e948E+0x7c>
  401454: eb1702bf     	cmp	x21, x23
  401458: 54fff7c8     	b.hi	0x401350 <_ZN81_$LT$core..str..pattern..CharSearcher$u20$as$u20$core..str..pattern..Searcher$GT$10next_match17h59af8016d074e948E+0x7c>
  40145c: 8b0e030f     	add	x15, x24, x14
  401460: 394001f0     	ldrb	w16, [x15]
  401464: 6b09021f     	cmp	w16, w9
  401468: 54fff741     	b.ne	0x401350 <_ZN81_$LT$core..str..pattern..CharSearcher$u20$as$u20$core..str..pattern..Searcher$GT$10next_match17h59af8016d074e948E+0x7c>
  40146c: 7100067f     	cmp	w19, #0x1
  401470: 54000aa0     	b.eq	0x4015c4 <_ZN81_$LT$core..str..pattern..CharSearcher$u20$as$u20$core..str..pattern..Searcher$GT$10next_match17h59af8016d074e948E+0x2f0>
  401474: 394005f0     	ldrb	w16, [x15, #0x1]
  401478: 6b0a021f     	cmp	w16, w10
  40147c: 54fff6a1     	b.ne	0x401350 <_ZN81_$LT$core..str..pattern..CharSearcher$u20$as$u20$core..str..pattern..Searcher$GT$10next_match17h59af8016d074e948E+0x7c>
  401480: 71000a7f     	cmp	w19, #0x2
  401484: 54000a00     	b.eq	0x4015c4 <_ZN81_$LT$core..str..pattern..CharSearcher$u20$as$u20$core..str..pattern..Searcher$GT$10next_match17h59af8016d074e948E+0x2f0>
  401488: 394009f0     	ldrb	w16, [x15, #0x2]
  40148c: 6b0b021f     	cmp	w16, w11
  401490: 54fff601     	b.ne	0x401350 <_ZN81_$LT$core..str..pattern..CharSearcher$u20$as$u20$core..str..pattern..Searcher$GT$10next_match17h59af8016d074e948E+0x7c>
  401494: 71000e7f     	cmp	w19, #0x3
  401498: 54000960     	b.eq	0x4015c4 <_ZN81_$LT$core..str..pattern..CharSearcher$u20$as$u20$core..str..pattern..Searcher$GT$10next_match17h59af8016d074e948E+0x2f0>
  40149c: 39400def     	ldrb	w15, [x15, #0x3]
  4014a0: 6b0c01ff     	cmp	w15, w12
  4014a4: 54fff561     	b.ne	0x401350 <_ZN81_$LT$core..str..pattern..CharSearcher$u20$as$u20$core..str..pattern..Searcher$GT$10next_match17h59af8016d074e948E+0x7c>
  4014a8: 14000047     	b	0x4015c4 <_ZN81_$LT$core..str..pattern..CharSearcher$u20$as$u20$core..str..pattern..Searcher$GT$10next_match17h59af8016d074e948E+0x2f0>
  4014ac: 9b097d09     	mul	x9, x8, x9
  4014b0: b200c3ea     	mov	x10, #0x101010101010101 // =72340172838076673
  4014b4: f280200a     	movk	x10, #0x100
  4014b8: 4e080d41     	dup	v1.2d, x10
  4014bc: 4e080d20     	dup	v0.2d, x9
  4014c0: b201c3e9     	mov	x9, #-0x7f7f7f7f7f7f7f80 // =-9187201950435737472
  4014c4: cb1502cb     	sub	x11, x22, x21
  4014c8: 8b15030a     	add	x10, x24, x21
  4014cc: f100416d     	subs	x13, x11, #0x10
  4014d0: 54000162     	b.hs	0x4014fc <_ZN81_$LT$core..str..pattern..CharSearcher$u20$as$u20$core..str..pattern..Searcher$GT$10next_match17h59af8016d074e948E+0x228>
  4014d4: eb1502df     	cmp	x22, x21
  4014d8: 54000ca0     	b.eq	0x40166c <_ZN81_$LT$core..str..pattern..CharSearcher$u20$as$u20$core..str..pattern..Searcher$GT$10next_match17h59af8016d074e948E+0x398>
  4014dc: aa1f03ef     	mov	x15, xzr
  4014e0: 386f694c     	ldrb	w12, [x10, x15]
  4014e4: 6b08019f     	cmp	w12, w8
  4014e8: 540005a0     	b.eq	0x40159c <_ZN81_$LT$core..str..pattern..CharSearcher$u20$as$u20$core..str..pattern..Searcher$GT$10next_match17h59af8016d074e948E+0x2c8>
  4014ec: 910005ef     	add	x15, x15, #0x1
  4014f0: eb0f017f     	cmp	x11, x15
  4014f4: 54ffff61     	b.ne	0x4014e0 <_ZN81_$LT$core..str..pattern..CharSearcher$u20$as$u20$core..str..pattern..Searcher$GT$10next_match17h59af8016d074e948E+0x20c>
  4014f8: 1400005d     	b	0x40166c <_ZN81_$LT$core..str..pattern..CharSearcher$u20$as$u20$core..str..pattern..Searcher$GT$10next_match17h59af8016d074e948E+0x398>
  4014fc: 91001d4c     	add	x12, x10, #0x7
  401500: 927df18e     	and	x14, x12, #0xfffffffffffffff8
  401504: eb0a01cc     	subs	x12, x14, x10
  401508: 54000140     	b.eq	0x401530 <_ZN81_$LT$core..str..pattern..CharSearcher$u20$as$u20$core..str..pattern..Searcher$GT$10next_match17h59af8016d074e948E+0x25c>
  40150c: aa1f03ef     	mov	x15, xzr
  401510: 386f6950     	ldrb	w16, [x10, x15]
  401514: 6b08021f     	cmp	w16, w8
  401518: 54000420     	b.eq	0x40159c <_ZN81_$LT$core..str..pattern..CharSearcher$u20$as$u20$core..str..pattern..Searcher$GT$10next_match17h59af8016d074e948E+0x2c8>
  40151c: 910005ef     	add	x15, x15, #0x1
  401520: eb0f019f     	cmp	x12, x15
  401524: 54ffff61     	b.ne	0x401510 <_ZN81_$LT$core..str..pattern..CharSearcher$u20$as$u20$core..str..pattern..Searcher$GT$10next_match17h59af8016d074e948E+0x23c>
  401528: eb0d019f     	cmp	x12, x13
  40152c: 540001c8     	b.hi	0x401564 <_ZN81_$LT$core..str..pattern..CharSearcher$u20$as$u20$core..str..pattern..Searcher$GT$10next_match17h59af8016d074e948E+0x290>
  401530: 3dc001c2     	ldr	q2, [x14]
  401534: 6e201c42     	eor	v2.16b, v2.16b, v0.16b
  401538: 6ee28423     	sub	v3.2d, v1.2d, v2.2d
  40153c: 4ea21c62     	orr	v2.16b, v3.16b, v2.16b
  401540: 4e183c4f     	mov	x15, v2.d[1]
  401544: 9e660050     	fmov	x16, d2
  401548: 8a0f020f     	and	x15, x16, x15
  40154c: ea2f013f     	bics	xzr, x9, x15
  401550: 540000a1     	b.ne	0x401564 <_ZN81_$LT$core..str..pattern..CharSearcher$u20$as$u20$core..str..pattern..Searcher$GT$10next_match17h59af8016d074e948E+0x290>
  401554: 9100418c     	add	x12, x12, #0x10
  401558: 910041ce     	add	x14, x14, #0x10
  40155c: eb0d019f     	cmp	x12, x13
  401560: 54fffe89     	b.ls	0x401530 <_ZN81_$LT$core..str..pattern..CharSearcher$u20$as$u20$core..str..pattern..Searcher$GT$10next_match17h59af8016d074e948E+0x25c>
  401564: eb0c017f     	cmp	x11, x12
  401568: 54000820     	b.eq	0x40166c <_ZN81_$LT$core..str..pattern..CharSearcher$u20$as$u20$core..str..pattern..Searcher$GT$10next_match17h59af8016d074e948E+0x398>
  40156c: cb0c02cd     	sub	x13, x22, x12
  401570: aa1f03eb     	mov	x11, xzr
  401574: 8b0c014a     	add	x10, x10, x12
  401578: cb1501ad     	sub	x13, x13, x21
  40157c: 386b694e     	ldrb	w14, [x10, x11]
  401580: 6b0801df     	cmp	w14, w8
  401584: 540000a0     	b.eq	0x401598 <_ZN81_$LT$core..str..pattern..CharSearcher$u20$as$u20$core..str..pattern..Searcher$GT$10next_match17h59af8016d074e948E+0x2c4>
  401588: 9100056b     	add	x11, x11, #0x1
  40158c: eb0b01bf     	cmp	x13, x11
  401590: 54ffff61     	b.ne	0x40157c <_ZN81_$LT$core..str..pattern..CharSearcher$u20$as$u20$core..str..pattern..Searcher$GT$10next_match17h59af8016d074e948E+0x2a8>
  401594: 14000036     	b	0x40166c <_ZN81_$LT$core..str..pattern..CharSearcher$u20$as$u20$core..str..pattern..Searcher$GT$10next_match17h59af8016d074e948E+0x398>
  401598: 8b0c016f     	add	x15, x11, x12
  40159c: 8b1501ea     	add	x10, x15, x21
  4015a0: 91000555     	add	x21, x10, #0x1
  4015a4: eb1702bf     	cmp	x21, x23
  4015a8: f9000835     	str	x21, [x1, #0x10]
  4015ac: 540000a9     	b.ls	0x4015c0 <_ZN81_$LT$core..str..pattern..CharSearcher$u20$as$u20$core..str..pattern..Searcher$GT$10next_match17h59af8016d074e948E+0x2ec>
  4015b0: eb1502df     	cmp	x22, x21
  4015b4: aa1f03ee     	mov	x14, xzr
  4015b8: 54fff862     	b.hs	0x4014c4 <_ZN81_$LT$core..str..pattern..CharSearcher$u20$as$u20$core..str..pattern..Searcher$GT$10next_match17h59af8016d074e948E+0x1f0>
  4015bc: 1400002e     	b	0x401674 <_ZN81_$LT$core..str..pattern..CharSearcher$u20$as$u20$core..str..pattern..Searcher$GT$10next_match17h59af8016d074e948E+0x3a0>
  4015c0: cb1302ae     	sub	x14, x21, x19
  4015c4: a900d40e     	stp	x14, x21, [x0, #0x8]
  4015c8: 5280002e     	mov	w14, #0x1               // =1
  4015cc: 1400002a     	b	0x401674 <_ZN81_$LT$core..str..pattern..CharSearcher$u20$as$u20$core..str..pattern..Searcher$GT$10next_match17h59af8016d074e948E+0x3a0>
  4015d0: 3841f114     	ldurb	w20, [x8, #0x1f]
  4015d4: 14000004     	b	0x4015e4 <_ZN81_$LT$core..str..pattern..CharSearcher$u20$as$u20$core..str..pattern..Searcher$GT$10next_match17h59af8016d074e948E+0x310>
  4015d8: eb1502df     	cmp	x22, x21
  4015dc: aa1f03ee     	mov	x14, xzr
  4015e0: 540004a3     	b.lo	0x401674 <_ZN81_$LT$core..str..pattern..CharSearcher$u20$as$u20$core..str..pattern..Searcher$GT$10next_match17h59af8016d074e948E+0x3a0>
  4015e4: cb1502c2     	sub	x2, x22, x21
  4015e8: 8b150308     	add	x8, x24, x21
  4015ec: f100405f     	cmp	x2, #0x10
  4015f0: 54000162     	b.hs	0x40161c <_ZN81_$LT$core..str..pattern..CharSearcher$u20$as$u20$core..str..pattern..Searcher$GT$10next_match17h59af8016d074e948E+0x348>
  4015f4: eb1502df     	cmp	x22, x21
  4015f8: 540003a0     	b.eq	0x40166c <_ZN81_$LT$core..str..pattern..CharSearcher$u20$as$u20$core..str..pattern..Searcher$GT$10next_match17h59af8016d074e948E+0x398>
  4015fc: aa1f03e9     	mov	x9, xzr
  401600: 3869690a     	ldrb	w10, [x8, x9]
  401604: 6b14015f     	cmp	w10, w20
  401608: 540001e0     	b.eq	0x401644 <_ZN81_$LT$core..str..pattern..CharSearcher$u20$as$u20$core..str..pattern..Searcher$GT$10next_match17h59af8016d074e948E+0x370>
  40160c: 91000529     	add	x9, x9, #0x1
  401610: eb09005f     	cmp	x2, x9
  401614: 54ffff61     	b.ne	0x401600 <_ZN81_$LT$core..str..pattern..CharSearcher$u20$as$u20$core..str..pattern..Searcher$GT$10next_match17h59af8016d074e948E+0x32c>
  401618: 14000015     	b	0x40166c <_ZN81_$LT$core..str..pattern..CharSearcher$u20$as$u20$core..str..pattern..Searcher$GT$10next_match17h59af8016d074e948E+0x398>
  40161c: aa0003fa     	mov	x26, x0
  401620: 2a1403e0     	mov	w0, w20
  401624: aa0103f9     	mov	x25, x1
  401628: aa0803e1     	mov	x1, x8
  40162c: 94001b99     	bl	0x408490 <_ZN4core5slice6memchr14memchr_aligned17hc7040b907c1fd3daE>
  401630: aa0003e8     	mov	x8, x0
  401634: aa1a03e0     	mov	x0, x26
  401638: aa0103e9     	mov	x9, x1
  40163c: aa1903e1     	mov	x1, x25
  401640: 36000168     	tbz	w8, #0x0, 0x40166c <_ZN81_$LT$core..str..pattern..CharSearcher$u20$as$u20$core..str..pattern..Searcher$GT$10next_match17h59af8016d074e948E+0x398>
  401644: 8b150128     	add	x8, x9, x21
  401648: 91000515     	add	x21, x8, #0x1
  40164c: eb1302bf     	cmp	x21, x19
  401650: f9000835     	str	x21, [x1, #0x10]
  401654: 54fffc23     	b.lo	0x4015d8 <_ZN81_$LT$core..str..pattern..CharSearcher$u20$as$u20$core..str..pattern..Searcher$GT$10next_match17h59af8016d074e948E+0x304>
  401658: eb1702bf     	cmp	x21, x23
  40165c: 54fffbe8     	b.hi	0x4015d8 <_ZN81_$LT$core..str..pattern..CharSearcher$u20$as$u20$core..str..pattern..Searcher$GT$10next_match17h59af8016d074e948E+0x304>
  401660: aa1303e0     	mov	x0, x19
  401664: 52800081     	mov	w1, #0x4                // =4
  401668: 940017d1     	bl	0x4075ac <_ZN4core5slice5index24slice_end_index_len_fail17h6e690d15dace2bc9E>
  40166c: aa1f03ee     	mov	x14, xzr
  401670: f9000836     	str	x22, [x1, #0x10]
  401674: a9444ff4     	ldp	x20, x19, [sp, #0x40]
  401678: f900000e     	str	x14, [x0]
  40167c: a94357f6     	ldp	x22, x21, [sp, #0x30]
  401680: a9425ff8     	ldp	x24, x23, [sp, #0x20]
  401684: a94167fa     	ldp	x26, x25, [sp, #0x10]
  401688: f84507fe     	ldr	x30, [sp], #0x50
  40168c: d65f03c0     	ret

0000000000401690 <_ZN91_$LT$cohesix_root..allocator..BumpAllocator$u20$as$u20$core..alloc..global..GlobalAlloc$GT$5alloc17hc97a9adda21019bdE>:
  401690: f81a0ffe     	str	x30, [sp, #-0x60]!
  401694: a9016ffc     	stp	x28, x27, [sp, #0x10]
  401698: a90267fa     	stp	x26, x25, [sp, #0x20]
  40169c: a9035ff8     	stp	x24, x23, [sp, #0x30]
  4016a0: a90457f6     	stp	x22, x21, [sp, #0x40]
  4016a4: a9054ff4     	stp	x20, x19, [sp, #0x50]
  4016a8: 910003e8     	mov	x8, sp
  4016ac: 52800e57     	mov	w23, #0x72              // =114
  4016b0: 52800cb6     	mov	w22, #0x65              // =101
  4016b4: aa1d03f5     	mov	x21, x29
  4016b8: 52800cf8     	mov	w24, #0x67              // =103
  4016bc: 52800bf9     	mov	w25, #0x5f              // =95
  4016c0: aa1703e0     	mov	x0, x23
  4016c4: 92800108     	mov	x8, #-0x9               // =-9
  4016c8: 92800110     	mov	x16, #-0x9              // =-9
  4016cc: d4000001     	svc	#0
  4016d0: 52800e7a     	mov	w26, #0x73              // =115
  4016d4: 52800e1b     	mov	w27, #0x70              // =112
  4016d8: aa1603e0     	mov	x0, x22
  4016dc: 92800108     	mov	x8, #-0x9               // =-9
  4016e0: 92800110     	mov	x16, #-0x9              // =-9
  4016e4: d4000001     	svc	#0
  4016e8: 5280015c     	mov	w28, #0xa               // =10
  4016ec: aa0003f4     	mov	x20, x0
  4016f0: aa1803e0     	mov	x0, x24
  4016f4: 92800108     	mov	x8, #-0x9               // =-9
  4016f8: 92800110     	mov	x16, #-0x9              // =-9
  4016fc: d4000001     	svc	#0
  401700: aa0803e0     	mov	x0, x8
  401704: aa0103f3     	mov	x19, x1
  401708: aa1903e0     	mov	x0, x25
  40170c: 92800108     	mov	x8, #-0x9               // =-9
  401710: 92800110     	mov	x16, #-0x9              // =-9
  401714: d4000001     	svc	#0
  401718: aa1a03e0     	mov	x0, x26
  40171c: 92800108     	mov	x8, #-0x9               // =-9
  401720: 92800110     	mov	x16, #-0x9              // =-9
  401724: d4000001     	svc	#0
  401728: aa1b03e0     	mov	x0, x27
  40172c: 92800108     	mov	x8, #-0x9               // =-9
  401730: 92800110     	mov	x16, #-0x9              // =-9
  401734: d4000001     	svc	#0
  401738: aa1c03e0     	mov	x0, x28
  40173c: 92800108     	mov	x8, #-0x9               // =-9
  401740: 92800110     	mov	x16, #-0x9              // =-9
  401744: d4000001     	svc	#0
  401748: 940005f7     	bl	0x402f24 <_ZN12cohesix_root7put_hex17hd1a3bb86369fdefcE>
  40174c: aa1703e0     	mov	x0, x23
  401750: 92800108     	mov	x8, #-0x9               // =-9
  401754: 92800110     	mov	x16, #-0x9              // =-9
  401758: d4000001     	svc	#0
  40175c: 52800cd7     	mov	w23, #0x66              // =102
  401760: aa1503e0     	mov	x0, x21
  401764: aa1603e0     	mov	x0, x22
  401768: 92800108     	mov	x8, #-0x9               // =-9
  40176c: 92800110     	mov	x16, #-0x9              // =-9
  401770: d4000001     	svc	#0
  401774: aa1803e0     	mov	x0, x24
  401778: 92800108     	mov	x8, #-0x9               // =-9
  40177c: 92800110     	mov	x16, #-0x9              // =-9
  401780: d4000001     	svc	#0
  401784: aa1903e0     	mov	x0, x25
  401788: 92800108     	mov	x8, #-0x9               // =-9
  40178c: 92800110     	mov	x16, #-0x9              // =-9
  401790: d4000001     	svc	#0
  401794: aa1703e0     	mov	x0, x23
  401798: 92800108     	mov	x8, #-0x9               // =-9
  40179c: 92800110     	mov	x16, #-0x9              // =-9
  4017a0: d4000001     	svc	#0
  4017a4: aa1b03e0     	mov	x0, x27
  4017a8: 92800108     	mov	x8, #-0x9               // =-9
  4017ac: 92800110     	mov	x16, #-0x9              // =-9
  4017b0: d4000001     	svc	#0
  4017b4: aa1c03e0     	mov	x0, x28
  4017b8: 92800108     	mov	x8, #-0x9               // =-9
  4017bc: 92800110     	mov	x16, #-0x9              // =-9
  4017c0: d4000001     	svc	#0
  4017c4: 940005d8     	bl	0x402f24 <_ZN12cohesix_root7put_hex17hd1a3bb86369fdefcE>
  4017c8: 52800c28     	mov	w8, #0x61               // =97
  4017cc: aa0803e0     	mov	x0, x8
  4017d0: 92800108     	mov	x8, #-0x9               // =-9
  4017d4: 92800110     	mov	x16, #-0x9              // =-9
  4017d8: d4000001     	svc	#0
  4017dc: 52800c69     	mov	w9, #0x63               // =99
  4017e0: 52800d88     	mov	w8, #0x6c               // =108
  4017e4: aa0803e0     	mov	x0, x8
  4017e8: 92800108     	mov	x8, #-0x9               // =-9
  4017ec: 92800110     	mov	x16, #-0x9              // =-9
  4017f0: d4000001     	svc	#0
  4017f4: d1000695     	sub	x21, x20, #0x1
  4017f8: aa0803e0     	mov	x0, x8
  4017fc: 92800108     	mov	x8, #-0x9               // =-9
  401800: 92800110     	mov	x16, #-0x9              // =-9
  401804: d4000001     	svc	#0
  401808: 52800de8     	mov	w8, #0x6f               // =111
  40180c: aa0803e0     	mov	x0, x8
  401810: 92800108     	mov	x8, #-0x9               // =-9
  401814: 92800110     	mov	x16, #-0x9              // =-9
  401818: d4000001     	svc	#0
  40181c: aa0903e0     	mov	x0, x9
  401820: 92800108     	mov	x8, #-0x9               // =-9
  401824: 92800110     	mov	x16, #-0x9              // =-9
  401828: d4000001     	svc	#0
  40182c: 52800409     	mov	w9, #0x20               // =32
  401830: aa0903e0     	mov	x0, x9
  401834: 92800108     	mov	x8, #-0x9               // =-9
  401838: 92800110     	mov	x16, #-0x9              // =-9
  40183c: d4000001     	svc	#0
  401840: aa0803e0     	mov	x0, x8
  401844: 92800108     	mov	x8, #-0x9               // =-9
  401848: 92800110     	mov	x16, #-0x9              // =-9
  40184c: d4000001     	svc	#0
  401850: 52800e88     	mov	w8, #0x74               // =116
  401854: aa1703e0     	mov	x0, x23
  401858: 92800108     	mov	x8, #-0x9               // =-9
  40185c: 92800110     	mov	x16, #-0x9              // =-9
  401860: d4000001     	svc	#0
  401864: aa1703e0     	mov	x0, x23
  401868: 92800108     	mov	x8, #-0x9               // =-9
  40186c: 92800110     	mov	x16, #-0x9              // =-9
  401870: d4000001     	svc	#0
  401874: d0000077     	adrp	x23, 0x40f000 <__bss_start>
  401878: aa1a03e0     	mov	x0, x26
  40187c: 92800108     	mov	x8, #-0x9               // =-9
  401880: 92800110     	mov	x16, #-0x9              // =-9
  401884: d4000001     	svc	#0
  401888: aa1603e0     	mov	x0, x22
  40188c: 92800108     	mov	x8, #-0x9               // =-9
  401890: 92800110     	mov	x16, #-0x9              // =-9
  401894: d4000001     	svc	#0
  401898: aa0803e0     	mov	x0, x8
  40189c: 92800108     	mov	x8, #-0x9               // =-9
  4018a0: 92800110     	mov	x16, #-0x9              // =-9
  4018a4: d4000001     	svc	#0
  4018a8: aa1c03e0     	mov	x0, x28
  4018ac: 92800108     	mov	x8, #-0x9               // =-9
  4018b0: 92800110     	mov	x16, #-0x9              // =-9
  4018b4: d4000001     	svc	#0
  4018b8: f94002e0     	ldr	x0, [x23]
  4018bc: 9400059a     	bl	0x402f24 <_ZN12cohesix_root7put_hex17hd1a3bb86369fdefcE>
  4018c0: f94002e8     	ldr	x8, [x23]
  4018c4: ab15011f     	cmn	x8, x21
  4018c8: 540024e2     	b.hs	0x401d64 <_ZN91_$LT$cohesix_root..allocator..BumpAllocator$u20$as$u20$core..alloc..global..GlobalAlloc$GT$5alloc17hc97a9adda21019bdE+0x6d4>
  4018cc: 52800c29     	mov	w9, #0x61               // =97
  4018d0: aa0903e0     	mov	x0, x9
  4018d4: 92800108     	mov	x8, #-0x9               // =-9
  4018d8: 92800110     	mov	x16, #-0x9              // =-9
  4018dc: d4000001     	svc	#0
  4018e0: 52800d8a     	mov	w10, #0x6c              // =108
  4018e4: aa0a03e0     	mov	x0, x10
  4018e8: 92800108     	mov	x8, #-0x9               // =-9
  4018ec: 92800110     	mov	x16, #-0x9              // =-9
  4018f0: d4000001     	svc	#0
  4018f4: 52800deb     	mov	w11, #0x6f              // =111
  4018f8: 8b150108     	add	x8, x8, x21
  4018fc: aa0a03e0     	mov	x0, x10
  401900: 92800108     	mov	x8, #-0x9               // =-9
  401904: 92800110     	mov	x16, #-0x9              // =-9
  401908: d4000001     	svc	#0
  40190c: aa0b03e0     	mov	x0, x11
  401910: 92800108     	mov	x8, #-0x9               // =-9
  401914: 92800110     	mov	x16, #-0x9              // =-9
  401918: d4000001     	svc	#0
  40191c: 52800c6b     	mov	w11, #0x63              // =99
  401920: aa0b03e0     	mov	x0, x11
  401924: 92800108     	mov	x8, #-0x9               // =-9
  401928: 92800110     	mov	x16, #-0x9              // =-9
  40192c: d4000001     	svc	#0
  401930: 5280040b     	mov	w11, #0x20              // =32
  401934: aa0b03e0     	mov	x0, x11
  401938: 92800108     	mov	x8, #-0x9               // =-9
  40193c: 92800110     	mov	x16, #-0x9              // =-9
  401940: d4000001     	svc	#0
  401944: aa0903e0     	mov	x0, x9
  401948: 92800108     	mov	x8, #-0x9               // =-9
  40194c: 92800110     	mov	x16, #-0x9              // =-9
  401950: d4000001     	svc	#0
  401954: 52800d29     	mov	w9, #0x69               // =105
  401958: aa0a03e0     	mov	x0, x10
  40195c: 92800108     	mov	x8, #-0x9               // =-9
  401960: 92800110     	mov	x16, #-0x9              // =-9
  401964: d4000001     	svc	#0
  401968: aa0903e0     	mov	x0, x9
  40196c: 92800108     	mov	x8, #-0x9               // =-9
  401970: 92800110     	mov	x16, #-0x9              // =-9
  401974: d4000001     	svc	#0
  401978: 52800ce9     	mov	w9, #0x67               // =103
  40197c: aa0903e0     	mov	x0, x9
  401980: 92800108     	mov	x8, #-0x9               // =-9
  401984: 92800110     	mov	x16, #-0x9              // =-9
  401988: d4000001     	svc	#0
  40198c: 52800dc9     	mov	w9, #0x6e               // =110
  401990: aa0903e0     	mov	x0, x9
  401994: 92800108     	mov	x8, #-0x9               // =-9
  401998: 92800110     	mov	x16, #-0x9              // =-9
  40199c: d4000001     	svc	#0
  4019a0: 52800ca9     	mov	w9, #0x65               // =101
  4019a4: aa0903e0     	mov	x0, x9
  4019a8: 92800108     	mov	x8, #-0x9               // =-9
  4019ac: 92800110     	mov	x16, #-0x9              // =-9
  4019b0: d4000001     	svc	#0
  4019b4: 52800c89     	mov	w9, #0x64               // =100
  4019b8: aa0903e0     	mov	x0, x9
  4019bc: 92800108     	mov	x8, #-0x9               // =-9
  4019c0: 92800110     	mov	x16, #-0x9              // =-9
  4019c4: d4000001     	svc	#0
  4019c8: 52800149     	mov	w9, #0xa                // =10
  4019cc: aa0903e0     	mov	x0, x9
  4019d0: 92800108     	mov	x8, #-0x9               // =-9
  4019d4: 92800110     	mov	x16, #-0x9              // =-9
  4019d8: d4000001     	svc	#0
  4019dc: cb1403e9     	neg	x9, x20
  4019e0: 8a090116     	and	x22, x8, x9
  4019e4: aa1603e0     	mov	x0, x22
  4019e8: 9400054f     	bl	0x402f24 <_ZN12cohesix_root7put_hex17hd1a3bb86369fdefcE>
  4019ec: d503201f     	nop
  4019f0: 10093088     	adr	x8, 0x414000 <__heap_start>
  4019f4: ab0802df     	cmn	x22, x8
  4019f8: 54001282     	b.hs	0x401c48 <_ZN91_$LT$cohesix_root..allocator..BumpAllocator$u20$as$u20$core..alloc..global..GlobalAlloc$GT$5alloc17hc97a9adda21019bdE+0x5b8>
  4019fc: 8b0802d4     	add	x20, x22, x8
  401a00: ab13029f     	cmn	x20, x19
  401a04: 54001222     	b.hs	0x401c48 <_ZN91_$LT$cohesix_root..allocator..BumpAllocator$u20$as$u20$core..alloc..global..GlobalAlloc$GT$5alloc17hc97a9adda21019bdE+0x5b8>
  401a08: 52800c28     	mov	w8, #0x61               // =97
  401a0c: aa0803e0     	mov	x0, x8
  401a10: 92800108     	mov	x8, #-0x9               // =-9
  401a14: 92800110     	mov	x16, #-0x9              // =-9
  401a18: d4000001     	svc	#0
  401a1c: 8b130295     	add	x21, x20, x19
  401a20: 52800d88     	mov	w8, #0x6c               // =108
  401a24: aa0803e0     	mov	x0, x8
  401a28: 92800108     	mov	x8, #-0x9               // =-9
  401a2c: 92800110     	mov	x16, #-0x9              // =-9
  401a30: d4000001     	svc	#0
  401a34: aa1503e0     	mov	x0, x21
  401a38: aa0803e0     	mov	x0, x8
  401a3c: 92800108     	mov	x8, #-0x9               // =-9
  401a40: 92800110     	mov	x16, #-0x9              // =-9
  401a44: d4000001     	svc	#0
  401a48: 52800de8     	mov	w8, #0x6f               // =111
  401a4c: aa0803e0     	mov	x0, x8
  401a50: 92800108     	mov	x8, #-0x9               // =-9
  401a54: 92800110     	mov	x16, #-0x9              // =-9
  401a58: d4000001     	svc	#0
  401a5c: 52800c68     	mov	w8, #0x63               // =99
  401a60: aa0803e0     	mov	x0, x8
  401a64: 92800108     	mov	x8, #-0x9               // =-9
  401a68: 92800110     	mov	x16, #-0x9              // =-9
  401a6c: d4000001     	svc	#0
  401a70: 52800408     	mov	w8, #0x20               // =32
  401a74: aa0803e0     	mov	x0, x8
  401a78: 92800108     	mov	x8, #-0x9               // =-9
  401a7c: 92800110     	mov	x16, #-0x9              // =-9
  401a80: d4000001     	svc	#0
  401a84: 52800ca8     	mov	w8, #0x65               // =101
  401a88: aa0803e0     	mov	x0, x8
  401a8c: 92800108     	mov	x8, #-0x9               // =-9
  401a90: 92800110     	mov	x16, #-0x9              // =-9
  401a94: d4000001     	svc	#0
  401a98: 52800dc8     	mov	w8, #0x6e               // =110
  401a9c: aa0803e0     	mov	x0, x8
  401aa0: 92800108     	mov	x8, #-0x9               // =-9
  401aa4: 92800110     	mov	x16, #-0x9              // =-9
  401aa8: d4000001     	svc	#0
  401aac: 52800c88     	mov	w8, #0x64               // =100
  401ab0: aa0803e0     	mov	x0, x8
  401ab4: 92800108     	mov	x8, #-0x9               // =-9
  401ab8: 92800110     	mov	x16, #-0x9              // =-9
  401abc: d4000001     	svc	#0
  401ac0: 52800e08     	mov	w8, #0x70               // =112
  401ac4: aa0803e0     	mov	x0, x8
  401ac8: 92800108     	mov	x8, #-0x9               // =-9
  401acc: 92800110     	mov	x16, #-0x9              // =-9
  401ad0: d4000001     	svc	#0
  401ad4: 52800e88     	mov	w8, #0x74               // =116
  401ad8: aa0803e0     	mov	x0, x8
  401adc: 92800108     	mov	x8, #-0x9               // =-9
  401ae0: 92800110     	mov	x16, #-0x9              // =-9
  401ae4: d4000001     	svc	#0
  401ae8: 52800e48     	mov	w8, #0x72               // =114
  401aec: aa0803e0     	mov	x0, x8
  401af0: 92800108     	mov	x8, #-0x9               // =-9
  401af4: 92800110     	mov	x16, #-0x9              // =-9
  401af8: d4000001     	svc	#0
  401afc: 52800148     	mov	w8, #0xa                // =10
  401b00: aa0803e0     	mov	x0, x8
  401b04: 92800108     	mov	x8, #-0x9               // =-9
  401b08: 92800110     	mov	x16, #-0x9              // =-9
  401b0c: d4000001     	svc	#0
  401b10: 94000505     	bl	0x402f24 <_ZN12cohesix_root7put_hex17hd1a3bb86369fdefcE>
  401b14: d503201f     	nop
  401b18: 10492748     	adr	x8, 0x494000 <__heap_end>
  401b1c: eb0802bf     	cmp	x21, x8
  401b20: 54001aa8     	b.hi	0x401e74 <_ZN91_$LT$cohesix_root..allocator..BumpAllocator$u20$as$u20$core..alloc..global..GlobalAlloc$GT$5alloc17hc97a9adda21019bdE+0x7e4>
  401b24: d503201f     	nop
  401b28: 1051a6d8     	adr	x24, 0x4a5000 <__stack_end>
  401b2c: eb1802bf     	cmp	x21, x24
  401b30: 540023c8     	b.hi	0x401fa8 <_ZN91_$LT$cohesix_root..allocator..BumpAllocator$u20$as$u20$core..alloc..global..GlobalAlloc$GT$5alloc17hc97a9adda21019bdE+0x918>
  401b34: 8b1302c8     	add	x8, x22, x19
  401b38: aa1403e0     	mov	x0, x20
  401b3c: f90002e8     	str	x8, [x23]
  401b40: 52800c28     	mov	w8, #0x61               // =97
  401b44: aa0803e0     	mov	x0, x8
  401b48: 92800108     	mov	x8, #-0x9               // =-9
  401b4c: 92800110     	mov	x16, #-0x9              // =-9
  401b50: d4000001     	svc	#0
  401b54: 52800d88     	mov	w8, #0x6c               // =108
  401b58: aa0803e0     	mov	x0, x8
  401b5c: 92800108     	mov	x8, #-0x9               // =-9
  401b60: 92800110     	mov	x16, #-0x9              // =-9
  401b64: d4000001     	svc	#0
  401b68: aa0803e0     	mov	x0, x8
  401b6c: 92800108     	mov	x8, #-0x9               // =-9
  401b70: 92800110     	mov	x16, #-0x9              // =-9
  401b74: d4000001     	svc	#0
  401b78: 52800de8     	mov	w8, #0x6f               // =111
  401b7c: aa0803e0     	mov	x0, x8
  401b80: 92800108     	mov	x8, #-0x9               // =-9
  401b84: 92800110     	mov	x16, #-0x9              // =-9
  401b88: d4000001     	svc	#0
  401b8c: 52800c68     	mov	w8, #0x63               // =99
  401b90: aa0803e0     	mov	x0, x8
  401b94: 92800108     	mov	x8, #-0x9               // =-9
  401b98: 92800110     	mov	x16, #-0x9              // =-9
  401b9c: d4000001     	svc	#0
  401ba0: 52800408     	mov	w8, #0x20               // =32
  401ba4: aa0803e0     	mov	x0, x8
  401ba8: 92800108     	mov	x8, #-0x9               // =-9
  401bac: 92800110     	mov	x16, #-0x9              // =-9
  401bb0: d4000001     	svc	#0
  401bb4: 52800e08     	mov	w8, #0x70               // =112
  401bb8: aa0803e0     	mov	x0, x8
  401bbc: 92800108     	mov	x8, #-0x9               // =-9
  401bc0: 92800110     	mov	x16, #-0x9              // =-9
  401bc4: d4000001     	svc	#0
  401bc8: 52800e88     	mov	w8, #0x74               // =116
  401bcc: aa0803e0     	mov	x0, x8
  401bd0: 92800108     	mov	x8, #-0x9               // =-9
  401bd4: 92800110     	mov	x16, #-0x9              // =-9
  401bd8: d4000001     	svc	#0
  401bdc: 52800e48     	mov	w8, #0x72               // =114
  401be0: aa0803e0     	mov	x0, x8
  401be4: 92800108     	mov	x8, #-0x9               // =-9
  401be8: 92800110     	mov	x16, #-0x9              // =-9
  401bec: d4000001     	svc	#0
  401bf0: 52800148     	mov	w8, #0xa                // =10
  401bf4: aa0803e0     	mov	x0, x8
  401bf8: 92800108     	mov	x8, #-0x9               // =-9
  401bfc: 92800110     	mov	x16, #-0x9              // =-9
  401c00: d4000001     	svc	#0
  401c04: 940004c8     	bl	0x402f24 <_ZN12cohesix_root7put_hex17hd1a3bb86369fdefcE>
  401c08: d10006a0     	sub	x0, x21, #0x1
  401c0c: 94000539     	bl	0x4030f0 <_ZN12cohesix_root14check_heap_ptr17h0477fc5f1e2b816aE>
  401c10: aa1403e0     	mov	x0, x20
  401c14: 94000537     	bl	0x4030f0 <_ZN12cohesix_root14check_heap_ptr17h0477fc5f1e2b816aE>
  401c18: f150029f     	cmp	x20, #0x400, lsl #12    // =0x400000
  401c1c: 54002a03     	b.lo	0x40215c <_ZN91_$LT$cohesix_root..allocator..BumpAllocator$u20$as$u20$core..alloc..global..GlobalAlloc$GT$5alloc17hc97a9adda21019bdE+0xacc>
  401c20: eb18029f     	cmp	x20, x24
  401c24: 540029c2     	b.hs	0x40215c <_ZN91_$LT$cohesix_root..allocator..BumpAllocator$u20$as$u20$core..alloc..global..GlobalAlloc$GT$5alloc17hc97a9adda21019bdE+0xacc>
  401c28: aa1403e0     	mov	x0, x20
  401c2c: a9454ff4     	ldp	x20, x19, [sp, #0x50]
  401c30: a94457f6     	ldp	x22, x21, [sp, #0x40]
  401c34: a9435ff8     	ldp	x24, x23, [sp, #0x30]
  401c38: a94267fa     	ldp	x26, x25, [sp, #0x20]
  401c3c: a9416ffc     	ldp	x28, x27, [sp, #0x10]
  401c40: f84607fe     	ldr	x30, [sp], #0x60
  401c44: d65f03c0     	ret
  401c48: 52800c28     	mov	w8, #0x61               // =97
  401c4c: aa0803e0     	mov	x0, x8
  401c50: 92800108     	mov	x8, #-0x9               // =-9
  401c54: 92800110     	mov	x16, #-0x9              // =-9
  401c58: d4000001     	svc	#0
  401c5c: 52800c69     	mov	w9, #0x63               // =99
  401c60: 52800d88     	mov	w8, #0x6c               // =108
  401c64: aa0803e0     	mov	x0, x8
  401c68: 92800108     	mov	x8, #-0x9               // =-9
  401c6c: 92800110     	mov	x16, #-0x9              // =-9
  401c70: d4000001     	svc	#0
  401c74: 52800caa     	mov	w10, #0x65              // =101
  401c78: aa0803e0     	mov	x0, x8
  401c7c: 92800108     	mov	x8, #-0x9               // =-9
  401c80: 92800110     	mov	x16, #-0x9              // =-9
  401c84: d4000001     	svc	#0
  401c88: 52800de8     	mov	w8, #0x6f               // =111
  401c8c: aa0803e0     	mov	x0, x8
  401c90: 92800108     	mov	x8, #-0x9               // =-9
  401c94: 92800110     	mov	x16, #-0x9              // =-9
  401c98: d4000001     	svc	#0
  401c9c: aa0903e0     	mov	x0, x9
  401ca0: 92800108     	mov	x8, #-0x9               // =-9
  401ca4: 92800110     	mov	x16, #-0x9              // =-9
  401ca8: d4000001     	svc	#0
  401cac: 52800409     	mov	w9, #0x20               // =32
  401cb0: aa0903e0     	mov	x0, x9
  401cb4: 92800108     	mov	x8, #-0x9               // =-9
  401cb8: 92800110     	mov	x16, #-0x9              // =-9
  401cbc: d4000001     	svc	#0
  401cc0: aa0a03e0     	mov	x0, x10
  401cc4: 92800108     	mov	x8, #-0x9               // =-9
  401cc8: 92800110     	mov	x16, #-0x9              // =-9
  401ccc: d4000001     	svc	#0
  401cd0: 52800dca     	mov	w10, #0x6e              // =110
  401cd4: aa0a03e0     	mov	x0, x10
  401cd8: 92800108     	mov	x8, #-0x9               // =-9
  401cdc: 92800110     	mov	x16, #-0x9              // =-9
  401ce0: d4000001     	svc	#0
  401ce4: 52800c8a     	mov	w10, #0x64              // =100
  401ce8: aa0a03e0     	mov	x0, x10
  401cec: 92800108     	mov	x8, #-0x9               // =-9
  401cf0: 92800110     	mov	x16, #-0x9              // =-9
  401cf4: d4000001     	svc	#0
  401cf8: aa0903e0     	mov	x0, x9
  401cfc: 92800108     	mov	x8, #-0x9               // =-9
  401d00: 92800110     	mov	x16, #-0x9              // =-9
  401d04: d4000001     	svc	#0
  401d08: aa0803e0     	mov	x0, x8
  401d0c: 92800108     	mov	x8, #-0x9               // =-9
  401d10: 92800110     	mov	x16, #-0x9              // =-9
  401d14: d4000001     	svc	#0
  401d18: 52800ec8     	mov	w8, #0x76               // =118
  401d1c: aa0803e0     	mov	x0, x8
  401d20: 92800108     	mov	x8, #-0x9               // =-9
  401d24: 92800110     	mov	x16, #-0x9              // =-9
  401d28: d4000001     	svc	#0
  401d2c: 52800cc8     	mov	w8, #0x66               // =102
  401d30: aa0803e0     	mov	x0, x8
  401d34: 92800108     	mov	x8, #-0x9               // =-9
  401d38: 92800110     	mov	x16, #-0x9              // =-9
  401d3c: d4000001     	svc	#0
  401d40: 52800148     	mov	w8, #0xa                // =10
  401d44: aa0803e0     	mov	x0, x8
  401d48: 92800108     	mov	x8, #-0x9               // =-9
  401d4c: 92800110     	mov	x16, #-0x9              // =-9
  401d50: d4000001     	svc	#0
  401d54: d503201f     	nop
  401d58: 10042f00     	adr	x0, 0x40a338 <rodata_check_str+0x338>
  401d5c: 528001a1     	mov	w1, #0xd                // =13
  401d60: 94000605     	bl	0x403574 <_ZN12cohesix_root5abort17h2875b4dbfb5b1cb3E>
  401d64: 52800c28     	mov	w8, #0x61               // =97
  401d68: aa0803e0     	mov	x0, x8
  401d6c: 92800108     	mov	x8, #-0x9               // =-9
  401d70: 92800110     	mov	x16, #-0x9              // =-9
  401d74: d4000001     	svc	#0
  401d78: 52800c69     	mov	w9, #0x63               // =99
  401d7c: 52800d88     	mov	w8, #0x6c               // =108
  401d80: aa0803e0     	mov	x0, x8
  401d84: 92800108     	mov	x8, #-0x9               // =-9
  401d88: 92800110     	mov	x16, #-0x9              // =-9
  401d8c: d4000001     	svc	#0
  401d90: 52800cca     	mov	w10, #0x66              // =102
  401d94: aa0803e0     	mov	x0, x8
  401d98: 92800108     	mov	x8, #-0x9               // =-9
  401d9c: 92800110     	mov	x16, #-0x9              // =-9
  401da0: d4000001     	svc	#0
  401da4: 52800de8     	mov	w8, #0x6f               // =111
  401da8: aa0803e0     	mov	x0, x8
  401dac: 92800108     	mov	x8, #-0x9               // =-9
  401db0: 92800110     	mov	x16, #-0x9              // =-9
  401db4: d4000001     	svc	#0
  401db8: aa0903e0     	mov	x0, x9
  401dbc: 92800108     	mov	x8, #-0x9               // =-9
  401dc0: 92800110     	mov	x16, #-0x9              // =-9
  401dc4: d4000001     	svc	#0
  401dc8: 52800409     	mov	w9, #0x20               // =32
  401dcc: aa0903e0     	mov	x0, x9
  401dd0: 92800108     	mov	x8, #-0x9               // =-9
  401dd4: 92800110     	mov	x16, #-0x9              // =-9
  401dd8: d4000001     	svc	#0
  401ddc: aa0803e0     	mov	x0, x8
  401de0: 92800108     	mov	x8, #-0x9               // =-9
  401de4: 92800110     	mov	x16, #-0x9              // =-9
  401de8: d4000001     	svc	#0
  401dec: aa0a03e0     	mov	x0, x10
  401df0: 92800108     	mov	x8, #-0x9               // =-9
  401df4: 92800110     	mov	x16, #-0x9              // =-9
  401df8: d4000001     	svc	#0
  401dfc: aa0a03e0     	mov	x0, x10
  401e00: 92800108     	mov	x8, #-0x9               // =-9
  401e04: 92800110     	mov	x16, #-0x9              // =-9
  401e08: d4000001     	svc	#0
  401e0c: aa0903e0     	mov	x0, x9
  401e10: 92800108     	mov	x8, #-0x9               // =-9
  401e14: 92800110     	mov	x16, #-0x9              // =-9
  401e18: d4000001     	svc	#0
  401e1c: aa0803e0     	mov	x0, x8
  401e20: 92800108     	mov	x8, #-0x9               // =-9
  401e24: 92800110     	mov	x16, #-0x9              // =-9
  401e28: d4000001     	svc	#0
  401e2c: 52800ec8     	mov	w8, #0x76               // =118
  401e30: aa0803e0     	mov	x0, x8
  401e34: 92800108     	mov	x8, #-0x9               // =-9
  401e38: 92800110     	mov	x16, #-0x9              // =-9
  401e3c: d4000001     	svc	#0
  401e40: 52800148     	mov	w8, #0xa                // =10
  401e44: aa0a03e0     	mov	x0, x10
  401e48: 92800108     	mov	x8, #-0x9               // =-9
  401e4c: 92800110     	mov	x16, #-0x9              // =-9
  401e50: d4000001     	svc	#0
  401e54: aa0803e0     	mov	x0, x8
  401e58: 92800108     	mov	x8, #-0x9               // =-9
  401e5c: 92800110     	mov	x16, #-0x9              // =-9
  401e60: d4000001     	svc	#0
  401e64: d503201f     	nop
  401e68: 10042680     	adr	x0, 0x40a338 <rodata_check_str+0x338>
  401e6c: 528001a1     	mov	w1, #0xd                // =13
  401e70: 940005c1     	bl	0x403574 <_ZN12cohesix_root5abort17h2875b4dbfb5b1cb3E>
  401e74: 52800c28     	mov	w8, #0x61               // =97
  401e78: aa0803e0     	mov	x0, x8
  401e7c: 92800108     	mov	x8, #-0x9               // =-9
  401e80: 92800110     	mov	x16, #-0x9              // =-9
  401e84: d4000001     	svc	#0
  401e88: 52800de9     	mov	w9, #0x6f               // =111
  401e8c: 52800d88     	mov	w8, #0x6c               // =108
  401e90: aa0803e0     	mov	x0, x8
  401e94: 92800108     	mov	x8, #-0x9               // =-9
  401e98: 92800110     	mov	x16, #-0x9              // =-9
  401e9c: d4000001     	svc	#0
  401ea0: 52800c6a     	mov	w10, #0x63              // =99
  401ea4: aa0803e0     	mov	x0, x8
  401ea8: 92800108     	mov	x8, #-0x9               // =-9
  401eac: 92800110     	mov	x16, #-0x9              // =-9
  401eb0: d4000001     	svc	#0
  401eb4: aa1503e0     	mov	x0, x21
  401eb8: aa0903e0     	mov	x0, x9
  401ebc: 92800108     	mov	x8, #-0x9               // =-9
  401ec0: 92800110     	mov	x16, #-0x9              // =-9
  401ec4: d4000001     	svc	#0
  401ec8: aa0a03e0     	mov	x0, x10
  401ecc: 92800108     	mov	x8, #-0x9               // =-9
  401ed0: 92800110     	mov	x16, #-0x9              // =-9
  401ed4: d4000001     	svc	#0
  401ed8: 5280040a     	mov	w10, #0x20              // =32
  401edc: aa0a03e0     	mov	x0, x10
  401ee0: 92800108     	mov	x8, #-0x9               // =-9
  401ee4: 92800110     	mov	x16, #-0x9              // =-9
  401ee8: d4000001     	svc	#0
  401eec: 52800eca     	mov	w10, #0x76              // =118
  401ef0: aa0903e0     	mov	x0, x9
  401ef4: 92800108     	mov	x8, #-0x9               // =-9
  401ef8: 92800110     	mov	x16, #-0x9              // =-9
  401efc: d4000001     	svc	#0
  401f00: aa0a03e0     	mov	x0, x10
  401f04: 92800108     	mov	x8, #-0x9               // =-9
  401f08: 92800110     	mov	x16, #-0x9              // =-9
  401f0c: d4000001     	svc	#0
  401f10: 52800caa     	mov	w10, #0x65              // =101
  401f14: aa0a03e0     	mov	x0, x10
  401f18: 92800108     	mov	x8, #-0x9               // =-9
  401f1c: 92800110     	mov	x16, #-0x9              // =-9
  401f20: d4000001     	svc	#0
  401f24: 52800e4a     	mov	w10, #0x72              // =114
  401f28: aa0a03e0     	mov	x0, x10
  401f2c: 92800108     	mov	x8, #-0x9               // =-9
  401f30: 92800110     	mov	x16, #-0x9              // =-9
  401f34: d4000001     	svc	#0
  401f38: 52800cca     	mov	w10, #0x66              // =102
  401f3c: aa0a03e0     	mov	x0, x10
  401f40: 92800108     	mov	x8, #-0x9               // =-9
  401f44: 92800110     	mov	x16, #-0x9              // =-9
  401f48: d4000001     	svc	#0
  401f4c: aa0803e0     	mov	x0, x8
  401f50: 92800108     	mov	x8, #-0x9               // =-9
  401f54: 92800110     	mov	x16, #-0x9              // =-9
  401f58: d4000001     	svc	#0
  401f5c: 52800ee8     	mov	w8, #0x77               // =119
  401f60: aa0903e0     	mov	x0, x9
  401f64: 92800108     	mov	x8, #-0x9               // =-9
  401f68: 92800110     	mov	x16, #-0x9              // =-9
  401f6c: d4000001     	svc	#0
  401f70: aa0803e0     	mov	x0, x8
  401f74: 92800108     	mov	x8, #-0x9               // =-9
  401f78: 92800110     	mov	x16, #-0x9              // =-9
  401f7c: d4000001     	svc	#0
  401f80: 52800148     	mov	w8, #0xa                // =10
  401f84: aa0803e0     	mov	x0, x8
  401f88: 92800108     	mov	x8, #-0x9               // =-9
  401f8c: 92800110     	mov	x16, #-0x9              // =-9
  401f90: d4000001     	svc	#0
  401f94: 940003e4     	bl	0x402f24 <_ZN12cohesix_root7put_hex17hd1a3bb86369fdefcE>
  401f98: d503201f     	nop
  401f9c: 10041ce0     	adr	x0, 0x40a338 <rodata_check_str+0x338>
  401fa0: 528001a1     	mov	w1, #0xd                // =13
  401fa4: 94000574     	bl	0x403574 <_ZN12cohesix_root5abort17h2875b4dbfb5b1cb3E>
  401fa8: 52800c28     	mov	w8, #0x61               // =97
  401fac: aa0803e0     	mov	x0, x8
  401fb0: 92800108     	mov	x8, #-0x9               // =-9
  401fb4: 92800110     	mov	x16, #-0x9              // =-9
  401fb8: d4000001     	svc	#0
  401fbc: 52800d89     	mov	w9, #0x6c               // =108
  401fc0: aa0903e0     	mov	x0, x9
  401fc4: 92800108     	mov	x8, #-0x9               // =-9
  401fc8: 92800110     	mov	x16, #-0x9              // =-9
  401fcc: d4000001     	svc	#0
  401fd0: 52800e0a     	mov	w10, #0x70              // =112
  401fd4: aa1503e0     	mov	x0, x21
  401fd8: aa0903e0     	mov	x0, x9
  401fdc: 92800108     	mov	x8, #-0x9               // =-9
  401fe0: 92800110     	mov	x16, #-0x9              // =-9
  401fe4: d4000001     	svc	#0
  401fe8: 52800de9     	mov	w9, #0x6f               // =111
  401fec: aa0903e0     	mov	x0, x9
  401ff0: 92800108     	mov	x8, #-0x9               // =-9
  401ff4: 92800110     	mov	x16, #-0x9              // =-9
  401ff8: d4000001     	svc	#0
  401ffc: 52800c69     	mov	w9, #0x63               // =99
  402000: aa0903e0     	mov	x0, x9
  402004: 92800108     	mov	x8, #-0x9               // =-9
  402008: 92800110     	mov	x16, #-0x9              // =-9
  40200c: d4000001     	svc	#0
  402010: 52800409     	mov	w9, #0x20               // =32
  402014: aa0903e0     	mov	x0, x9
  402018: 92800108     	mov	x8, #-0x9               // =-9
  40201c: 92800110     	mov	x16, #-0x9              // =-9
  402020: d4000001     	svc	#0
  402024: aa0a03e0     	mov	x0, x10
  402028: 92800108     	mov	x8, #-0x9               // =-9
  40202c: 92800110     	mov	x16, #-0x9              // =-9
  402030: d4000001     	svc	#0
  402034: 52800e6a     	mov	w10, #0x73              // =115
  402038: aa0803e0     	mov	x0, x8
  40203c: 92800108     	mov	x8, #-0x9               // =-9
  402040: 92800110     	mov	x16, #-0x9              // =-9
  402044: d4000001     	svc	#0
  402048: aa0a03e0     	mov	x0, x10
  40204c: 92800108     	mov	x8, #-0x9               // =-9
  402050: 92800110     	mov	x16, #-0x9              // =-9
  402054: d4000001     	svc	#0
  402058: 52800e8a     	mov	w10, #0x74              // =116
  40205c: aa0a03e0     	mov	x0, x10
  402060: 92800108     	mov	x8, #-0x9               // =-9
  402064: 92800110     	mov	x16, #-0x9              // =-9
  402068: d4000001     	svc	#0
  40206c: aa0903e0     	mov	x0, x9
  402070: 92800108     	mov	x8, #-0x9               // =-9
  402074: 92800110     	mov	x16, #-0x9              // =-9
  402078: d4000001     	svc	#0
  40207c: 52800d29     	mov	w9, #0x69               // =105
  402080: aa0903e0     	mov	x0, x9
  402084: 92800108     	mov	x8, #-0x9               // =-9
  402088: 92800110     	mov	x16, #-0x9              // =-9
  40208c: d4000001     	svc	#0
  402090: 52800da9     	mov	w9, #0x6d               // =109
  402094: aa0903e0     	mov	x0, x9
  402098: 92800108     	mov	x8, #-0x9               // =-9
  40209c: 92800110     	mov	x16, #-0x9              // =-9
  4020a0: d4000001     	svc	#0
  4020a4: 52800be9     	mov	w9, #0x5f               // =95
  4020a8: aa0803e0     	mov	x0, x8
  4020ac: 92800108     	mov	x8, #-0x9               // =-9
  4020b0: 92800110     	mov	x16, #-0x9              // =-9
  4020b4: d4000001     	svc	#0
  4020b8: 52800ce8     	mov	w8, #0x67               // =103
  4020bc: aa0803e0     	mov	x0, x8
  4020c0: 92800108     	mov	x8, #-0x9               // =-9
  4020c4: 92800110     	mov	x16, #-0x9              // =-9
  4020c8: d4000001     	svc	#0
  4020cc: 52800ca8     	mov	w8, #0x65               // =101
  4020d0: aa0803e0     	mov	x0, x8
  4020d4: 92800108     	mov	x8, #-0x9               // =-9
  4020d8: 92800110     	mov	x16, #-0x9              // =-9
  4020dc: d4000001     	svc	#0
  4020e0: aa0903e0     	mov	x0, x9
  4020e4: 92800108     	mov	x8, #-0x9               // =-9
  4020e8: 92800110     	mov	x16, #-0x9              // =-9
  4020ec: d4000001     	svc	#0
  4020f0: aa0803e0     	mov	x0, x8
  4020f4: 92800108     	mov	x8, #-0x9               // =-9
  4020f8: 92800110     	mov	x16, #-0x9              // =-9
  4020fc: d4000001     	svc	#0
  402100: 52800dc8     	mov	w8, #0x6e               // =110
  402104: aa0803e0     	mov	x0, x8
  402108: 92800108     	mov	x8, #-0x9               // =-9
  40210c: 92800110     	mov	x16, #-0x9              // =-9
  402110: d4000001     	svc	#0
  402114: 52800c88     	mov	w8, #0x64               // =100
  402118: aa0803e0     	mov	x0, x8
  40211c: 92800108     	mov	x8, #-0x9               // =-9
  402120: 92800110     	mov	x16, #-0x9              // =-9
  402124: d4000001     	svc	#0
  402128: 52800148     	mov	w8, #0xa                // =10
  40212c: aa0803e0     	mov	x0, x8
  402130: 92800108     	mov	x8, #-0x9               // =-9
  402134: 92800110     	mov	x16, #-0x9              // =-9
  402138: d4000001     	svc	#0
  40213c: 9400037a     	bl	0x402f24 <_ZN12cohesix_root7put_hex17hd1a3bb86369fdefcE>
  402140: d503201f     	nop
  402144: 105175e0     	adr	x0, 0x4a5000 <__stack_end>
  402148: 94000377     	bl	0x402f24 <_ZN12cohesix_root7put_hex17hd1a3bb86369fdefcE>
  40214c: d503201f     	nop
  402150: 10040f40     	adr	x0, 0x40a338 <rodata_check_str+0x338>
  402154: 528001a1     	mov	w1, #0xd                // =13
  402158: 94000507     	bl	0x403574 <_ZN12cohesix_root5abort17h2875b4dbfb5b1cb3E>
  40215c: 52800a08     	mov	w8, #0x50               // =80
  402160: aa0803e0     	mov	x0, x8
  402164: 92800108     	mov	x8, #-0x9               // =-9
  402168: 92800110     	mov	x16, #-0x9              // =-9
  40216c: d4000001     	svc	#0
  402170: 52800a49     	mov	w9, #0x52               // =82
  402174: 52800a88     	mov	w8, #0x54               // =84
  402178: aa0803e0     	mov	x0, x8
  40217c: 92800108     	mov	x8, #-0x9               // =-9
  402180: 92800110     	mov	x16, #-0x9              // =-9
  402184: d4000001     	svc	#0
  402188: 5280040a     	mov	w10, #0x20              // =32
  40218c: aa0903e0     	mov	x0, x9
  402190: 92800108     	mov	x8, #-0x9               // =-9
  402194: 92800110     	mov	x16, #-0x9              // =-9
  402198: d4000001     	svc	#0
  40219c: 528009eb     	mov	w11, #0x4f              // =79
  4021a0: 52800aac     	mov	w12, #0x55              // =85
  4021a4: aa0a03e0     	mov	x0, x10
  4021a8: 92800108     	mov	x8, #-0x9               // =-9
  4021ac: 92800110     	mov	x16, #-0x9              // =-9
  4021b0: d4000001     	svc	#0
  4021b4: aa1403e0     	mov	x0, x20
  4021b8: aa0b03e0     	mov	x0, x11
  4021bc: 92800108     	mov	x8, #-0x9               // =-9
  4021c0: 92800110     	mov	x16, #-0x9              // =-9
  4021c4: d4000001     	svc	#0
  4021c8: aa0c03e0     	mov	x0, x12
  4021cc: 92800108     	mov	x8, #-0x9               // =-9
  4021d0: 92800110     	mov	x16, #-0x9              // =-9
  4021d4: d4000001     	svc	#0
  4021d8: aa0803e0     	mov	x0, x8
  4021dc: 92800108     	mov	x8, #-0x9               // =-9
  4021e0: 92800110     	mov	x16, #-0x9              // =-9
  4021e4: d4000001     	svc	#0
  4021e8: 528008c8     	mov	w8, #0x46               // =70
  4021ec: aa0a03e0     	mov	x0, x10
  4021f0: 92800108     	mov	x8, #-0x9               // =-9
  4021f4: 92800110     	mov	x16, #-0x9              // =-9
  4021f8: d4000001     	svc	#0
  4021fc: aa0b03e0     	mov	x0, x11
  402200: 92800108     	mov	x8, #-0x9               // =-9
  402204: 92800110     	mov	x16, #-0x9              // =-9
  402208: d4000001     	svc	#0
  40220c: aa0803e0     	mov	x0, x8
  402210: 92800108     	mov	x8, #-0x9               // =-9
  402214: 92800110     	mov	x16, #-0x9              // =-9
  402218: d4000001     	svc	#0
  40221c: 52800828     	mov	w8, #0x41               // =65
  402220: aa0a03e0     	mov	x0, x10
  402224: 92800108     	mov	x8, #-0x9               // =-9
  402228: 92800110     	mov	x16, #-0x9              // =-9
  40222c: d4000001     	svc	#0
  402230: aa0903e0     	mov	x0, x9
  402234: 92800108     	mov	x8, #-0x9               // =-9
  402238: 92800110     	mov	x16, #-0x9              // =-9
  40223c: d4000001     	svc	#0
  402240: aa0803e0     	mov	x0, x8
  402244: 92800108     	mov	x8, #-0x9               // =-9
  402248: 92800110     	mov	x16, #-0x9              // =-9
  40224c: d4000001     	svc	#0
  402250: 528009c8     	mov	w8, #0x4e               // =78
  402254: aa0803e0     	mov	x0, x8
  402258: 92800108     	mov	x8, #-0x9               // =-9
  40225c: 92800110     	mov	x16, #-0x9              // =-9
  402260: d4000001     	svc	#0
  402264: 528008e8     	mov	w8, #0x47               // =71
  402268: aa0803e0     	mov	x0, x8
  40226c: 92800108     	mov	x8, #-0x9               // =-9
  402270: 92800110     	mov	x16, #-0x9              // =-9
  402274: d4000001     	svc	#0
  402278: 528008a8     	mov	w8, #0x45               // =69
  40227c: aa0803e0     	mov	x0, x8
  402280: 92800108     	mov	x8, #-0x9               // =-9
  402284: 92800110     	mov	x16, #-0x9              // =-9
  402288: d4000001     	svc	#0
  40228c: 52800148     	mov	w8, #0xa                // =10
  402290: aa0803e0     	mov	x0, x8
  402294: 92800108     	mov	x8, #-0x9               // =-9
  402298: 92800110     	mov	x16, #-0x9              // =-9
  40229c: d4000001     	svc	#0
  4022a0: 94000321     	bl	0x402f24 <_ZN12cohesix_root7put_hex17hd1a3bb86369fdefcE>
  4022a4: d503201f     	nop
  4022a8: 10046a20     	adr	x0, 0x40afec <_ZN12cohesix_root17ROOTSERVER_ONLINE17h1dda28d86f6d4332E+0x414>
  4022ac: 528001e1     	mov	w1, #0xf                // =15
  4022b0: 940004b1     	bl	0x403574 <_ZN12cohesix_root5abort17h2875b4dbfb5b1cb3E>

00000000004022b4 <_RNvCs9km79j5joxb_7___rustc17rust_begin_unwind>:
  4022b4: 52800b68     	mov	w8, #0x5b               // =91
  4022b8: aa0803e0     	mov	x0, x8
  4022bc: 92800108     	mov	x8, #-0x9               // =-9
  4022c0: 92800110     	mov	x16, #-0x9              // =-9
  4022c4: d4000001     	svc	#0
  4022c8: 52800e48     	mov	w8, #0x72               // =114
  4022cc: aa0803e0     	mov	x0, x8
  4022d0: 92800108     	mov	x8, #-0x9               // =-9
  4022d4: 92800110     	mov	x16, #-0x9              // =-9
  4022d8: d4000001     	svc	#0
  4022dc: 52800de8     	mov	w8, #0x6f               // =111
  4022e0: aa0803e0     	mov	x0, x8
  4022e4: 92800108     	mov	x8, #-0x9               // =-9
  4022e8: 92800110     	mov	x16, #-0x9              // =-9
  4022ec: d4000001     	svc	#0
  4022f0: aa0803e0     	mov	x0, x8
  4022f4: 92800108     	mov	x8, #-0x9               // =-9
  4022f8: 92800110     	mov	x16, #-0x9              // =-9
  4022fc: d4000001     	svc	#0
  402300: 52800e88     	mov	w8, #0x74               // =116
  402304: aa0803e0     	mov	x0, x8
  402308: 92800108     	mov	x8, #-0x9               // =-9
  40230c: 92800110     	mov	x16, #-0x9              // =-9
  402310: d4000001     	svc	#0
  402314: 52800ba8     	mov	w8, #0x5d               // =93
  402318: aa0803e0     	mov	x0, x8
  40231c: 92800108     	mov	x8, #-0x9               // =-9
  402320: 92800110     	mov	x16, #-0x9              // =-9
  402324: d4000001     	svc	#0
  402328: 52800408     	mov	w8, #0x20               // =32
  40232c: aa0803e0     	mov	x0, x8
  402330: 92800108     	mov	x8, #-0x9               // =-9
  402334: 92800110     	mov	x16, #-0x9              // =-9
  402338: d4000001     	svc	#0
  40233c: 52800e08     	mov	w8, #0x70               // =112
  402340: aa0803e0     	mov	x0, x8
  402344: 92800108     	mov	x8, #-0x9               // =-9
  402348: 92800110     	mov	x16, #-0x9              // =-9
  40234c: d4000001     	svc	#0
  402350: 52800c28     	mov	w8, #0x61               // =97
  402354: aa0803e0     	mov	x0, x8
  402358: 92800108     	mov	x8, #-0x9               // =-9
  40235c: 92800110     	mov	x16, #-0x9              // =-9
  402360: d4000001     	svc	#0
  402364: 52800dc8     	mov	w8, #0x6e               // =110
  402368: aa0803e0     	mov	x0, x8
  40236c: 92800108     	mov	x8, #-0x9               // =-9
  402370: 92800110     	mov	x16, #-0x9              // =-9
  402374: d4000001     	svc	#0
  402378: 52800d28     	mov	w8, #0x69               // =105
  40237c: aa0803e0     	mov	x0, x8
  402380: 92800108     	mov	x8, #-0x9               // =-9
  402384: 92800110     	mov	x16, #-0x9              // =-9
  402388: d4000001     	svc	#0
  40238c: 52800c68     	mov	w8, #0x63               // =99
  402390: aa0803e0     	mov	x0, x8
  402394: 92800108     	mov	x8, #-0x9               // =-9
  402398: 92800110     	mov	x16, #-0x9              // =-9
  40239c: d4000001     	svc	#0
  4023a0: 52800148     	mov	w8, #0xa                // =10
  4023a4: aa0803e0     	mov	x0, x8
  4023a8: 92800108     	mov	x8, #-0x9               // =-9
  4023ac: 92800110     	mov	x16, #-0x9              // =-9
  4023b0: d4000001     	svc	#0
  4023b4: d5033fdf     	isb
  4023b8: 17ffffff     	b	0x4023b4 <_RNvCs9km79j5joxb_7___rustc17rust_begin_unwind+0x100>

00000000004023bc <rust_eh_personality>:
  4023bc: d65f03c0     	ret

00000000004023c0 <seL4_DebugPutChar>:
  4023c0: 92401c08     	and	x8, x0, #0xff
  4023c4: aa0803e0     	mov	x0, x8
  4023c8: 92800108     	mov	x8, #-0x9               // =-9
  4023cc: 92800110     	mov	x16, #-0x9              // =-9
  4023d0: d4000001     	svc	#0
  4023d4: d65f03c0     	ret

00000000004023d8 <seL4_Send>:
  4023d8: aa0003e0     	mov	x0, x0
  4023dc: aa0103e1     	mov	x1, x1
  4023e0: 92800048     	mov	x8, #-0x3               // =-3
  4023e4: 92800050     	mov	x16, #-0x3              // =-3
  4023e8: d4000001     	svc	#0
  4023ec: d65f03c0     	ret

00000000004023f0 <seL4_Recv>:
  4023f0: aa0003e0     	mov	x0, x0
  4023f4: aa0103e1     	mov	x1, x1
  4023f8: 92800088     	mov	x8, #-0x5               // =-5
  4023fc: 92800090     	mov	x16, #-0x5              // =-5
  402400: d4000001     	svc	#0
  402404: d65f03c0     	ret

0000000000402408 <seL4_Yield>:
  402408: 928000c8     	mov	x8, #-0x7               // =-7
  40240c: 928000d0     	mov	x16, #-0x7              // =-7
  402410: d4000001     	svc	#0
  402414: d65f03c0     	ret

0000000000402418 <seL4_DebugHalt>:
  402418: 92800148     	mov	x8, #-0xb               // =-11
  40241c: 92800150     	mov	x16, #-0xb              // =-11
  402420: d4000001     	svc	#0
  402424: d65f03c0     	ret

0000000000402428 <coh_open>:
  402428: b4000640     	cbz	x0, 0x4024f0 <coh_open+0xc8>
  40242c: 3940000a     	ldrb	w10, [x0]
  402430: 3400160a     	cbz	w10, 0x4026f0 <coh_open+0x2c8>
  402434: 91000408     	add	x8, x0, #0x1
  402438: 92800009     	mov	x9, #-0x1               // =-1
  40243c: 3840150b     	ldrb	w11, [x8], #0x1
  402440: 91000529     	add	x9, x9, #0x1
  402444: 35ffffcb     	cbnz	w11, 0x40243c <coh_open+0x14>
  402448: f1002d3f     	cmp	x9, #0xb
  40244c: 12800028     	mov	w8, #-0x2               // =-2
  402450: 5400054c     	b.gt	0x4024f8 <coh_open+0xd0>
  402454: f100213f     	cmp	x9, #0x8
  402458: 54000c40     	b.eq	0x4025e0 <coh_open+0x1b8>
  40245c: f1002d3f     	cmp	x9, #0xb
  402460: 540014c1     	b.ne	0x4026f8 <coh_open+0x2d0>
  402464: 7100bd5f     	cmp	w10, #0x2f
  402468: 54001481     	b.ne	0x4026f8 <coh_open+0x2d0>
  40246c: 39400408     	ldrb	w8, [x0, #0x1]
  402470: 7101cd1f     	cmp	w8, #0x73
  402474: 540013e1     	b.ne	0x4026f0 <coh_open+0x2c8>
  402478: 39400808     	ldrb	w8, [x0, #0x2]
  40247c: 7101c91f     	cmp	w8, #0x72
  402480: 54001381     	b.ne	0x4026f0 <coh_open+0x2c8>
  402484: 39400c08     	ldrb	w8, [x0, #0x3]
  402488: 7101d91f     	cmp	w8, #0x76
  40248c: 54001321     	b.ne	0x4026f0 <coh_open+0x2c8>
  402490: 39401008     	ldrb	w8, [x0, #0x4]
  402494: 7100bd1f     	cmp	w8, #0x2f
  402498: 540012c1     	b.ne	0x4026f0 <coh_open+0x2c8>
  40249c: 39401408     	ldrb	w8, [x0, #0x5]
  4024a0: 71018d1f     	cmp	w8, #0x63
  4024a4: 54001261     	b.ne	0x4026f0 <coh_open+0x2c8>
  4024a8: 39401808     	ldrb	w8, [x0, #0x6]
  4024ac: 7101bd1f     	cmp	w8, #0x6f
  4024b0: 54001201     	b.ne	0x4026f0 <coh_open+0x2c8>
  4024b4: 39401c08     	ldrb	w8, [x0, #0x7]
  4024b8: 7101a11f     	cmp	w8, #0x68
  4024bc: 540011a1     	b.ne	0x4026f0 <coh_open+0x2c8>
  4024c0: 39402008     	ldrb	w8, [x0, #0x8]
  4024c4: 7101c91f     	cmp	w8, #0x72
  4024c8: 54001141     	b.ne	0x4026f0 <coh_open+0x2c8>
  4024cc: 39402408     	ldrb	w8, [x0, #0x9]
  4024d0: 7101bd1f     	cmp	w8, #0x6f
  4024d4: 540010e1     	b.ne	0x4026f0 <coh_open+0x2c8>
  4024d8: 39402808     	ldrb	w8, [x0, #0xa]
  4024dc: 7101b11f     	cmp	w8, #0x6c
  4024e0: 54001081     	b.ne	0x4026f0 <coh_open+0x2c8>
  4024e4: 52800068     	mov	w8, #0x3                // =3
  4024e8: 52800caa     	mov	w10, #0x65              // =101
  4024ec: 14000056     	b	0x402644 <coh_open+0x21c>
  4024f0: 128002a0     	mov	w0, #-0x16              // =-22
  4024f4: d65f03c0     	ret
  4024f8: f100313f     	cmp	x9, #0xc
  4024fc: 54000ae0     	b.eq	0x402658 <coh_open+0x230>
  402500: f100453f     	cmp	x9, #0x11
  402504: 54000fa1     	b.ne	0x4026f8 <coh_open+0x2d0>
  402508: 7100bd5f     	cmp	w10, #0x2f
  40250c: 54000f61     	b.ne	0x4026f8 <coh_open+0x2d0>
  402510: 39400408     	ldrb	w8, [x0, #0x1]
  402514: 7101891f     	cmp	w8, #0x62
  402518: 54000ec1     	b.ne	0x4026f0 <coh_open+0x2c8>
  40251c: 39400808     	ldrb	w8, [x0, #0x2]
  402520: 7101bd1f     	cmp	w8, #0x6f
  402524: 12800028     	mov	w8, #-0x2               // =-2
  402528: 54000e81     	b.ne	0x4026f8 <coh_open+0x2d0>
  40252c: 39400c0a     	ldrb	w10, [x0, #0x3]
  402530: 7101bd5f     	cmp	w10, #0x6f
  402534: 54000e21     	b.ne	0x4026f8 <coh_open+0x2d0>
  402538: 39401008     	ldrb	w8, [x0, #0x4]
  40253c: 7101d11f     	cmp	w8, #0x74
  402540: 54000d81     	b.ne	0x4026f0 <coh_open+0x2c8>
  402544: 39401408     	ldrb	w8, [x0, #0x5]
  402548: 7100bd1f     	cmp	w8, #0x2f
  40254c: 54000d21     	b.ne	0x4026f0 <coh_open+0x2c8>
  402550: 39401808     	ldrb	w8, [x0, #0x6]
  402554: 7101891f     	cmp	w8, #0x62
  402558: 54000cc1     	b.ne	0x4026f0 <coh_open+0x2c8>
  40255c: 39401c08     	ldrb	w8, [x0, #0x7]
  402560: 7101bd1f     	cmp	w8, #0x6f
  402564: 12800028     	mov	w8, #-0x2               // =-2
  402568: 54000c81     	b.ne	0x4026f8 <coh_open+0x2d0>
  40256c: 3940200a     	ldrb	w10, [x0, #0x8]
  402570: 7101bd5f     	cmp	w10, #0x6f
  402574: 54000c21     	b.ne	0x4026f8 <coh_open+0x2d0>
  402578: 39402408     	ldrb	w8, [x0, #0x9]
  40257c: 7101d11f     	cmp	w8, #0x74
  402580: 54000b81     	b.ne	0x4026f0 <coh_open+0x2c8>
  402584: 39402808     	ldrb	w8, [x0, #0xa]
  402588: 7101851f     	cmp	w8, #0x61
  40258c: 54000b21     	b.ne	0x4026f0 <coh_open+0x2c8>
  402590: 39402c08     	ldrb	w8, [x0, #0xb]
  402594: 7101c91f     	cmp	w8, #0x72
  402598: 54000ac1     	b.ne	0x4026f0 <coh_open+0x2c8>
  40259c: 39403008     	ldrb	w8, [x0, #0xc]
  4025a0: 71019d1f     	cmp	w8, #0x67
  4025a4: 54000a61     	b.ne	0x4026f0 <coh_open+0x2c8>
  4025a8: 39403408     	ldrb	w8, [x0, #0xd]
  4025ac: 7101cd1f     	cmp	w8, #0x73
  4025b0: 54000a01     	b.ne	0x4026f0 <coh_open+0x2c8>
  4025b4: 39403808     	ldrb	w8, [x0, #0xe]
  4025b8: 7100b91f     	cmp	w8, #0x2e
  4025bc: 540009a1     	b.ne	0x4026f0 <coh_open+0x2c8>
  4025c0: 39403c08     	ldrb	w8, [x0, #0xf]
  4025c4: 7101d11f     	cmp	w8, #0x74
  4025c8: 54000941     	b.ne	0x4026f0 <coh_open+0x2c8>
  4025cc: 39404008     	ldrb	w8, [x0, #0x10]
  4025d0: 7101e11f     	cmp	w8, #0x78
  4025d4: 540008e1     	b.ne	0x4026f0 <coh_open+0x2c8>
  4025d8: 52800048     	mov	w8, #0x2                // =2
  4025dc: 14000019     	b	0x402640 <coh_open+0x218>
  4025e0: 7100bd5f     	cmp	w10, #0x2f
  4025e4: 540008a1     	b.ne	0x4026f8 <coh_open+0x2d0>
  4025e8: 39400408     	ldrb	w8, [x0, #0x1]
  4025ec: 7101891f     	cmp	w8, #0x62
  4025f0: 54000801     	b.ne	0x4026f0 <coh_open+0x2c8>
  4025f4: 39400808     	ldrb	w8, [x0, #0x2]
  4025f8: 7101a51f     	cmp	w8, #0x69
  4025fc: 540007a1     	b.ne	0x4026f0 <coh_open+0x2c8>
  402600: 39400c08     	ldrb	w8, [x0, #0x3]
  402604: 7101b91f     	cmp	w8, #0x6e
  402608: 54000741     	b.ne	0x4026f0 <coh_open+0x2c8>
  40260c: 39401008     	ldrb	w8, [x0, #0x4]
  402610: 7100bd1f     	cmp	w8, #0x2f
  402614: 540006e1     	b.ne	0x4026f0 <coh_open+0x2c8>
  402618: 39401408     	ldrb	w8, [x0, #0x5]
  40261c: 7101a51f     	cmp	w8, #0x69
  402620: 54000681     	b.ne	0x4026f0 <coh_open+0x2c8>
  402624: 39401808     	ldrb	w8, [x0, #0x6]
  402628: 7101b91f     	cmp	w8, #0x6e
  40262c: 54000621     	b.ne	0x4026f0 <coh_open+0x2c8>
  402630: 39401c08     	ldrb	w8, [x0, #0x7]
  402634: 7101a51f     	cmp	w8, #0x69
  402638: 540005c1     	b.ne	0x4026f0 <coh_open+0x2c8>
  40263c: 2a1f03e8     	mov	w8, wzr
  402640: 52800e8a     	mov	w10, #0x74              // =116
  402644: 38696809     	ldrb	w9, [x0, x9]
  402648: 6b0a013f     	cmp	w9, w10
  40264c: 12800029     	mov	w9, #-0x2               // =-2
  402650: 1a890108     	csel	w8, w8, w9, eq
  402654: 14000029     	b	0x4026f8 <coh_open+0x2d0>
  402658: 7100bd5f     	cmp	w10, #0x2f
  40265c: 540004e1     	b.ne	0x4026f8 <coh_open+0x2d0>
  402660: 39400408     	ldrb	w8, [x0, #0x1]
  402664: 7101951f     	cmp	w8, #0x65
  402668: 54000441     	b.ne	0x4026f0 <coh_open+0x2c8>
  40266c: 39400808     	ldrb	w8, [x0, #0x2]
  402670: 7101d11f     	cmp	w8, #0x74
  402674: 540003e1     	b.ne	0x4026f0 <coh_open+0x2c8>
  402678: 39400c08     	ldrb	w8, [x0, #0x3]
  40267c: 71018d1f     	cmp	w8, #0x63
  402680: 54000381     	b.ne	0x4026f0 <coh_open+0x2c8>
  402684: 39401008     	ldrb	w8, [x0, #0x4]
  402688: 7100bd1f     	cmp	w8, #0x2f
  40268c: 54000321     	b.ne	0x4026f0 <coh_open+0x2c8>
  402690: 39401408     	ldrb	w8, [x0, #0x5]
  402694: 7101c11f     	cmp	w8, #0x70
  402698: 540002c1     	b.ne	0x4026f0 <coh_open+0x2c8>
  40269c: 39401808     	ldrb	w8, [x0, #0x6]
  4026a0: 7101b11f     	cmp	w8, #0x6c
  4026a4: 54000261     	b.ne	0x4026f0 <coh_open+0x2c8>
  4026a8: 39401c08     	ldrb	w8, [x0, #0x7]
  4026ac: 7101851f     	cmp	w8, #0x61
  4026b0: 54000201     	b.ne	0x4026f0 <coh_open+0x2c8>
  4026b4: 39402008     	ldrb	w8, [x0, #0x8]
  4026b8: 7101b91f     	cmp	w8, #0x6e
  4026bc: 540001a1     	b.ne	0x4026f0 <coh_open+0x2c8>
  4026c0: 39402408     	ldrb	w8, [x0, #0x9]
  4026c4: 7100e51f     	cmp	w8, #0x39
  4026c8: 54000141     	b.ne	0x4026f0 <coh_open+0x2c8>
  4026cc: 39402808     	ldrb	w8, [x0, #0xa]
  4026d0: 7100b91f     	cmp	w8, #0x2e
  4026d4: 540000e1     	b.ne	0x4026f0 <coh_open+0x2c8>
  4026d8: 39402c08     	ldrb	w8, [x0, #0xb]
  4026dc: 7101b91f     	cmp	w8, #0x6e
  4026e0: 54000081     	b.ne	0x4026f0 <coh_open+0x2c8>
  4026e4: 52800028     	mov	w8, #0x1                // =1
  4026e8: 52800e6a     	mov	w10, #0x73              // =115
  4026ec: 17ffffd6     	b	0x402644 <coh_open+0x21c>
  4026f0: 12800020     	mov	w0, #-0x2               // =-2
  4026f4: d65f03c0     	ret
  4026f8: 2a0803e0     	mov	w0, w8
  4026fc: d65f03c0     	ret

0000000000402700 <coh_read>:
  402700: a9be57fe     	stp	x30, x21, [sp, #-0x20]!
  402704: a9014ff4     	stp	x20, x19, [sp, #0x10]
  402708: 71000c1f     	cmp	w0, #0x3
  40270c: 540000c9     	b.ls	0x402724 <coh_read+0x24>
  402710: 92800113     	mov	x19, #-0x9              // =-9
  402714: aa1303e0     	mov	x0, x19
  402718: a9414ff4     	ldp	x20, x19, [sp, #0x10]
  40271c: a8c257fe     	ldp	x30, x21, [sp], #0x20
  402720: d65f03c0     	ret
  402724: 52800309     	mov	w9, #0x18               // =24
  402728: d503201f     	nop
  40272c: 100546aa     	adr	x10, 0x40d000 <_ZN12cohesix_root3sys5FILES17hda1ab28c883b931eE>
  402730: 9ba92815     	umaddl	x21, w0, w9, x10
  402734: aa0103e8     	mov	x8, x1
  402738: a940d2a1     	ldp	x1, x20, [x21, #0x8]
  40273c: eb140029     	subs	x9, x1, x20
  402740: 540001e3     	b.lo	0x40277c <coh_read+0x7c>
  402744: eb02013f     	cmp	x9, x2
  402748: 9a823133     	csel	x19, x9, x2, lo
  40274c: b4fffe53     	cbz	x19, 0x402714 <coh_read+0x14>
  402750: f94002a9     	ldr	x9, [x21]
  402754: aa0803e0     	mov	x0, x8
  402758: aa1303e2     	mov	x2, x19
  40275c: 8b140121     	add	x1, x9, x20
  402760: 940000ab     	bl	0x402a0c <memcpy>
  402764: 8b140268     	add	x8, x19, x20
  402768: f9000aa8     	str	x8, [x21, #0x10]
  40276c: aa1303e0     	mov	x0, x19
  402770: a9414ff4     	ldp	x20, x19, [sp, #0x10]
  402774: a8c257fe     	ldp	x30, x21, [sp], #0x20
  402778: d65f03c0     	ret
  40277c: aa1403e0     	mov	x0, x20
  402780: 940015a5     	bl	0x407e14 <_ZN4core5slice5index22slice_index_order_fail17h65d5f108449d194bE>

0000000000402784 <coh_close>:
  402784: 71000c1f     	cmp	w0, #0x3
  402788: 54000069     	b.ls	0x402794 <coh_close+0x10>
  40278c: 12800100     	mov	w0, #-0x9               // =-9
  402790: d65f03c0     	ret
  402794: 52800309     	mov	w9, #0x18               // =24
  402798: d503201f     	nop
  40279c: 1005432a     	adr	x10, 0x40d000 <_ZN12cohesix_root3sys5FILES17hda1ab28c883b931eE>
  4027a0: 9ba92808     	umaddl	x8, w0, w9, x10
  4027a4: 2a1f03e0     	mov	w0, wzr
  4027a8: f900091f     	str	xzr, [x8, #0x10]
  4027ac: d65f03c0     	ret

00000000004027b0 <coh_write>:
  4027b0: aa0203e0     	mov	x0, x2
  4027b4: d65f03c0     	ret

00000000004027b8 <coh_exec>:
  4027b8: b40011a0     	cbz	x0, 0x4029ec <coh_exec+0x234>
  4027bc: 39400008     	ldrb	w8, [x0]
  4027c0: 34001128     	cbz	w8, 0x4029e4 <coh_exec+0x22c>
  4027c4: 52800028     	mov	w8, #0x1                // =1
  4027c8: 3868680a     	ldrb	w10, [x0, x8]
  4027cc: aa0803e9     	mov	x9, x8
  4027d0: 91000508     	add	x8, x8, #0x1
  4027d4: 35ffffaa     	cbnz	w10, 0x4027c8 <coh_exec+0x10>
  4027d8: f100253f     	cmp	x9, #0x9
  4027dc: 54001041     	b.ne	0x4029e4 <coh_exec+0x22c>
  4027e0: 39402008     	ldrb	w8, [x0, #0x8]
  4027e4: f9400009     	ldr	x9, [x0]
  4027e8: f101d11f     	cmp	x8, #0x74
  4027ec: d28c45e8     	mov	x8, #0x622f             // =25135
  4027f0: f2adcd28     	movk	x8, #0x6e69, lsl #16
  4027f4: f2cd25e8     	movk	x8, #0x692f, lsl #32
  4027f8: f2ed2dc8     	movk	x8, #0x696e, lsl #48
  4027fc: fa480120     	ccmp	x9, x8, #0x0, eq
  402800: 54000f21     	b.ne	0x4029e4 <coh_exec+0x22c>
  402804: 52800868     	mov	w8, #0x43               // =67
  402808: aa0803e0     	mov	x0, x8
  40280c: 92800108     	mov	x8, #-0x9               // =-9
  402810: 92800110     	mov	x16, #-0x9              // =-9
  402814: d4000001     	svc	#0
  402818: 52800909     	mov	w9, #0x48               // =72
  40281c: 528009e8     	mov	w8, #0x4f               // =79
  402820: aa0803e0     	mov	x0, x8
  402824: 92800108     	mov	x8, #-0x9               // =-9
  402828: 92800110     	mov	x16, #-0x9              // =-9
  40282c: d4000001     	svc	#0
  402830: 52800a6a     	mov	w10, #0x53              // =83
  402834: aa0903e0     	mov	x0, x9
  402838: 92800108     	mov	x8, #-0x9               // =-9
  40283c: 92800110     	mov	x16, #-0x9              // =-9
  402840: d4000001     	svc	#0
  402844: 528008a9     	mov	w9, #0x45               // =69
  402848: 5280092b     	mov	w11, #0x49              // =73
  40284c: aa0903e0     	mov	x0, x9
  402850: 92800108     	mov	x8, #-0x9               // =-9
  402854: 92800110     	mov	x16, #-0x9              // =-9
  402858: d4000001     	svc	#0
  40285c: 52800aac     	mov	w12, #0x55              // =85
  402860: 2a1f03e0     	mov	w0, wzr
  402864: aa0a03e0     	mov	x0, x10
  402868: 92800108     	mov	x8, #-0x9               // =-9
  40286c: 92800110     	mov	x16, #-0x9              // =-9
  402870: d4000001     	svc	#0
  402874: aa0b03e0     	mov	x0, x11
  402878: 92800108     	mov	x8, #-0x9               // =-9
  40287c: 92800110     	mov	x16, #-0x9              // =-9
  402880: d4000001     	svc	#0
  402884: 52800b0b     	mov	w11, #0x58              // =88
  402888: aa0b03e0     	mov	x0, x11
  40288c: 92800108     	mov	x8, #-0x9               // =-9
  402890: 92800110     	mov	x16, #-0x9              // =-9
  402894: d4000001     	svc	#0
  402898: 52800beb     	mov	w11, #0x5f              // =95
  40289c: aa0b03e0     	mov	x0, x11
  4028a0: 92800108     	mov	x8, #-0x9               // =-9
  4028a4: 92800110     	mov	x16, #-0x9              // =-9
  4028a8: d4000001     	svc	#0
  4028ac: aa0c03e0     	mov	x0, x12
  4028b0: 92800108     	mov	x8, #-0x9               // =-9
  4028b4: 92800110     	mov	x16, #-0x9              // =-9
  4028b8: d4000001     	svc	#0
  4028bc: aa0a03e0     	mov	x0, x10
  4028c0: 92800108     	mov	x8, #-0x9               // =-9
  4028c4: 92800110     	mov	x16, #-0x9              // =-9
  4028c8: d4000001     	svc	#0
  4028cc: aa0903e0     	mov	x0, x9
  4028d0: 92800108     	mov	x8, #-0x9               // =-9
  4028d4: 92800110     	mov	x16, #-0x9              // =-9
  4028d8: d4000001     	svc	#0
  4028dc: 52800a49     	mov	w9, #0x52               // =82
  4028e0: aa0903e0     	mov	x0, x9
  4028e4: 92800108     	mov	x8, #-0x9               // =-9
  4028e8: 92800110     	mov	x16, #-0x9              // =-9
  4028ec: d4000001     	svc	#0
  4028f0: 52800989     	mov	w9, #0x4c               // =76
  4028f4: aa0903e0     	mov	x0, x9
  4028f8: 92800108     	mov	x8, #-0x9               // =-9
  4028fc: 92800110     	mov	x16, #-0x9              // =-9
  402900: d4000001     	svc	#0
  402904: 52800829     	mov	w9, #0x41               // =65
  402908: aa0903e0     	mov	x0, x9
  40290c: 92800108     	mov	x8, #-0x9               // =-9
  402910: 92800110     	mov	x16, #-0x9              // =-9
  402914: d4000001     	svc	#0
  402918: 528009c9     	mov	w9, #0x4e               // =78
  40291c: aa0903e0     	mov	x0, x9
  402920: 92800108     	mov	x8, #-0x9               // =-9
  402924: 92800110     	mov	x16, #-0x9              // =-9
  402928: d4000001     	svc	#0
  40292c: 52800889     	mov	w9, #0x44               // =68
  402930: aa0903e0     	mov	x0, x9
  402934: 92800108     	mov	x8, #-0x9               // =-9
  402938: 92800110     	mov	x16, #-0x9              // =-9
  40293c: d4000001     	svc	#0
  402940: 52800849     	mov	w9, #0x42               // =66
  402944: aa0b03e0     	mov	x0, x11
  402948: 92800108     	mov	x8, #-0x9               // =-9
  40294c: 92800110     	mov	x16, #-0x9              // =-9
  402950: d4000001     	svc	#0
  402954: aa0903e0     	mov	x0, x9
  402958: 92800108     	mov	x8, #-0x9               // =-9
  40295c: 92800110     	mov	x16, #-0x9              // =-9
  402960: d4000001     	svc	#0
  402964: 52800a89     	mov	w9, #0x54               // =84
  402968: aa0803e0     	mov	x0, x8
  40296c: 92800108     	mov	x8, #-0x9               // =-9
  402970: 92800110     	mov	x16, #-0x9              // =-9
  402974: d4000001     	svc	#0
  402978: aa0803e0     	mov	x0, x8
  40297c: 92800108     	mov	x8, #-0x9               // =-9
  402980: 92800110     	mov	x16, #-0x9              // =-9
  402984: d4000001     	svc	#0
  402988: aa0903e0     	mov	x0, x9
  40298c: 92800108     	mov	x8, #-0x9               // =-9
  402990: 92800110     	mov	x16, #-0x9              // =-9
  402994: d4000001     	svc	#0
  402998: aa0b03e0     	mov	x0, x11
  40299c: 92800108     	mov	x8, #-0x9               // =-9
  4029a0: 92800110     	mov	x16, #-0x9              // =-9
  4029a4: d4000001     	svc	#0
  4029a8: aa0803e0     	mov	x0, x8
  4029ac: 92800108     	mov	x8, #-0x9               // =-9
  4029b0: 92800110     	mov	x16, #-0x9              // =-9
  4029b4: d4000001     	svc	#0
  4029b8: 52800968     	mov	w8, #0x4b               // =75
  4029bc: aa0803e0     	mov	x0, x8
  4029c0: 92800108     	mov	x8, #-0x9               // =-9
  4029c4: 92800110     	mov	x16, #-0x9              // =-9
  4029c8: d4000001     	svc	#0
  4029cc: 52800148     	mov	w8, #0xa                // =10
  4029d0: aa0803e0     	mov	x0, x8
  4029d4: 92800108     	mov	x8, #-0x9               // =-9
  4029d8: 92800110     	mov	x16, #-0x9              // =-9
  4029dc: d4000001     	svc	#0
  4029e0: d65f03c0     	ret
  4029e4: 12800020     	mov	w0, #-0x2               // =-2
  4029e8: d65f03c0     	ret
  4029ec: 128002a0     	mov	w0, #-0x16              // =-22
  4029f0: d65f03c0     	ret

00000000004029f4 <coh_getenv>:
  4029f4: aa1f03e0     	mov	x0, xzr
  4029f8: d65f03c0     	ret

00000000004029fc <coh_setenv>:
  4029fc: 128004a0     	mov	w0, #-0x26              // =-38
  402a00: d65f03c0     	ret

0000000000402a04 <coh_bind>:
  402a04: 2a1f03e0     	mov	w0, wzr
  402a08: d65f03c0     	ret

0000000000402a0c <memcpy>:
  402a0c: 14000000     	b	0x402a0c <memcpy>

0000000000402a10 <memmove>:
  402a10: 14000000     	b	0x402a10 <memmove>

0000000000402a14 <memset>:
  402a14: 14000000     	b	0x402a14 <memset>

0000000000402a18 <memcmp>:
  402a18: b40000e2     	cbz	x2, 0x402a34 <memcmp+0x1c>
  402a1c: 38401408     	ldrb	w8, [x0], #0x1
  402a20: 38401429     	ldrb	w9, [x1], #0x1
  402a24: 6b090108     	subs	w8, w8, w9
  402a28: 54000081     	b.ne	0x402a38 <memcmp+0x20>
  402a2c: f1000442     	subs	x2, x2, #0x1
  402a30: 54ffff61     	b.ne	0x402a1c <memcmp+0x4>
  402a34: 2a1f03e8     	mov	w8, wzr
  402a38: 2a0803e0     	mov	w0, w8
  402a3c: d65f03c0     	ret

0000000000402a40 <strlen>:
  402a40: 39400008     	ldrb	w8, [x0]
  402a44: 34000108     	cbz	w8, 0x402a64 <strlen+0x24>
  402a48: aa1f03e9     	mov	x9, xzr
  402a4c: 91000408     	add	x8, x0, #0x1
  402a50: 3869690a     	ldrb	w10, [x8, x9]
  402a54: 91000520     	add	x0, x9, #0x1
  402a58: aa0003e9     	mov	x9, x0
  402a5c: 35ffffaa     	cbnz	w10, 0x402a50 <strlen+0x10>
  402a60: d65f03c0     	ret
  402a64: aa1f03e0     	mov	x0, xzr
  402a68: d65f03c0     	ret

0000000000402a6c <rust_start>:
  402a6c: 9400042d     	bl	0x403b20 <main>

0000000000402a70 <_ZN12cohesix_root9exception12svc_dispatch17h4ffbbd4f17c203caE>:
  402a70: d10143ff     	sub	sp, sp, #0x50
  402a74: 910133e8     	add	x8, sp, #0x4c
  402a78: d503201f     	nop
  402a7c: 1002b929     	adr	x9, 0x4081a0 <_ZN4core3fmt3num3imp52_$LT$impl$u20$core..fmt..Display$u20$for$u20$u16$GT$3fmt17h3aaa28281444eae0E>
  402a80: f9001be8     	str	x8, [sp, #0x30]
  402a84: d503201f     	nop
  402a88: 1003f348     	adr	x8, 0x40a8f0 <rodata_check_str+0x8f0>
  402a8c: a903fbe9     	stp	x9, x30, [sp, #0x38]
  402a90: 52800029     	mov	w9, #0x1                // =1
  402a94: 910003e1     	mov	x1, sp
  402a98: 79009be0     	strh	w0, [sp, #0x4c]
  402a9c: 91013fe0     	add	x0, sp, #0x4f
  402aa0: a90027e8     	stp	x8, x9, [sp]
  402aa4: 9100c3e8     	add	x8, sp, #0x30
  402aa8: a901ffe9     	stp	x9, xzr, [sp, #0x18]
  402aac: f9000be8     	str	x8, [sp, #0x10]
  402ab0: 9400144e     	bl	0x407be8 <_ZN4core3fmt5write17hf7092a74ebbf9db4E>
  402ab4: f94023fe     	ldr	x30, [sp, #0x40]
  402ab8: 910143ff     	add	sp, sp, #0x50
  402abc: d65f03c0     	ret

0000000000402ac0 <handle_el1_sync>:
  402ac0: d10103ff     	sub	sp, sp, #0x40
  402ac4: f9001bfe     	str	x30, [sp, #0x30]
  402ac8: d503201f     	nop
  402acc: 1003f228     	adr	x8, 0x40a910 <rodata_check_str+0x910>
  402ad0: 52800029     	mov	w9, #0x1                // =1
  402ad4: a90027e8     	stp	x8, x9, [sp]
  402ad8: 52800108     	mov	w8, #0x8                // =8
  402adc: 9100ffe0     	add	x0, sp, #0x3f
  402ae0: 910003e1     	mov	x1, sp
  402ae4: a901ffff     	stp	xzr, xzr, [sp, #0x18]
  402ae8: f9000be8     	str	x8, [sp, #0x10]
  402aec: 97fff9f9     	bl	0x4012d0 <_ZN75_$LT$$RF$mut$u20$W$u20$as$u20$core..fmt..Write..write_fmt..SpecWriteFmt$GT$14spec_write_fmt17hca4abb18532e998bE>
  402af0: d503201f     	nop
  402af4: 1003f160     	adr	x0, 0x40a920 <rodata_check_str+0x920>
  402af8: 52800181     	mov	w1, #0xc                // =12
  402afc: 9400029e     	bl	0x403574 <_ZN12cohesix_root5abort17h2875b4dbfb5b1cb3E>

0000000000402b00 <handle_el1_irq>:
  402b00: d10103ff     	sub	sp, sp, #0x40
  402b04: f9001bfe     	str	x30, [sp, #0x30]
  402b08: d503201f     	nop
  402b0c: 1003f168     	adr	x8, 0x40a938 <rodata_check_str+0x938>
  402b10: 52800029     	mov	w9, #0x1                // =1
  402b14: a90027e8     	stp	x8, x9, [sp]
  402b18: 52800108     	mov	w8, #0x8                // =8
  402b1c: 9100ffe0     	add	x0, sp, #0x3f
  402b20: 910003e1     	mov	x1, sp
  402b24: a901ffff     	stp	xzr, xzr, [sp, #0x18]
  402b28: f9000be8     	str	x8, [sp, #0x10]
  402b2c: 97fff9e9     	bl	0x4012d0 <_ZN75_$LT$$RF$mut$u20$W$u20$as$u20$core..fmt..Write..write_fmt..SpecWriteFmt$GT$14spec_write_fmt17hca4abb18532e998bE>
  402b30: d503201f     	nop
  402b34: 1003f0a0     	adr	x0, 0x40a948 <rodata_check_str+0x948>
  402b38: 52800161     	mov	w1, #0xb                // =11
  402b3c: 9400028e     	bl	0x403574 <_ZN12cohesix_root5abort17h2875b4dbfb5b1cb3E>

0000000000402b40 <handle_el1_fiq>:
  402b40: d10103ff     	sub	sp, sp, #0x40
  402b44: f9001bfe     	str	x30, [sp, #0x30]
  402b48: d503201f     	nop
  402b4c: 1003f0a8     	adr	x8, 0x40a960 <rodata_check_str+0x960>
  402b50: 52800029     	mov	w9, #0x1                // =1
  402b54: a90027e8     	stp	x8, x9, [sp]
  402b58: 52800108     	mov	w8, #0x8                // =8
  402b5c: 9100ffe0     	add	x0, sp, #0x3f
  402b60: 910003e1     	mov	x1, sp
  402b64: a901ffff     	stp	xzr, xzr, [sp, #0x18]
  402b68: f9000be8     	str	x8, [sp, #0x10]
  402b6c: 97fff9d9     	bl	0x4012d0 <_ZN75_$LT$$RF$mut$u20$W$u20$as$u20$core..fmt..Write..write_fmt..SpecWriteFmt$GT$14spec_write_fmt17hca4abb18532e998bE>
  402b70: d503201f     	nop
  402b74: 1003efe0     	adr	x0, 0x40a970 <rodata_check_str+0x970>
  402b78: 52800161     	mov	w1, #0xb                // =11
  402b7c: 9400027e     	bl	0x403574 <_ZN12cohesix_root5abort17h2875b4dbfb5b1cb3E>

0000000000402b80 <handle_el1_serror>:
  402b80: d10103ff     	sub	sp, sp, #0x40
  402b84: f9001bfe     	str	x30, [sp, #0x30]
  402b88: d503201f     	nop
  402b8c: 1003efe8     	adr	x8, 0x40a988 <rodata_check_str+0x988>
  402b90: 52800029     	mov	w9, #0x1                // =1
  402b94: a90027e8     	stp	x8, x9, [sp]
  402b98: 52800108     	mov	w8, #0x8                // =8
  402b9c: 9100ffe0     	add	x0, sp, #0x3f
  402ba0: 910003e1     	mov	x1, sp
  402ba4: a901ffff     	stp	xzr, xzr, [sp, #0x18]
  402ba8: f9000be8     	str	x8, [sp, #0x10]
  402bac: 97fff9c9     	bl	0x4012d0 <_ZN75_$LT$$RF$mut$u20$W$u20$as$u20$core..fmt..Write..write_fmt..SpecWriteFmt$GT$14spec_write_fmt17hca4abb18532e998bE>
  402bb0: d503201f     	nop
  402bb4: 1003ef20     	adr	x0, 0x40a998 <rodata_check_str+0x998>
  402bb8: 52800181     	mov	w1, #0xc                // =12
  402bbc: 9400026e     	bl	0x403574 <_ZN12cohesix_root5abort17h2875b4dbfb5b1cb3E>

0000000000402bc0 <handle_el1_sync_sp0>:
  402bc0: d10103ff     	sub	sp, sp, #0x40
  402bc4: f9001bfe     	str	x30, [sp, #0x30]
  402bc8: d503201f     	nop
  402bcc: 1003eee8     	adr	x8, 0x40a9a8 <rodata_check_str+0x9a8>
  402bd0: 52800029     	mov	w9, #0x1                // =1
  402bd4: a90027e8     	stp	x8, x9, [sp]
  402bd8: 52800108     	mov	w8, #0x8                // =8
  402bdc: 9100ffe0     	add	x0, sp, #0x3f
  402be0: 910003e1     	mov	x1, sp
  402be4: a901ffff     	stp	xzr, xzr, [sp, #0x18]
  402be8: f9000be8     	str	x8, [sp, #0x10]
  402bec: 97fff9b9     	bl	0x4012d0 <_ZN75_$LT$$RF$mut$u20$W$u20$as$u20$core..fmt..Write..write_fmt..SpecWriteFmt$GT$14spec_write_fmt17hca4abb18532e998bE>
  402bf0: 90000040     	adrp	x0, 0x40a000 <rodata_check_str>
  402bf4: 9104c000     	add	x0, x0, #0x130
  402bf8: 52800201     	mov	w1, #0x10               // =16
  402bfc: 9400025e     	bl	0x403574 <_ZN12cohesix_root5abort17h2875b4dbfb5b1cb3E>

0000000000402c00 <handle_el1_irq_sp0>:
  402c00: d10103ff     	sub	sp, sp, #0x40
  402c04: f9001bfe     	str	x30, [sp, #0x30]
  402c08: d503201f     	nop
  402c0c: 1003ede8     	adr	x8, 0x40a9c8 <rodata_check_str+0x9c8>
  402c10: 52800029     	mov	w9, #0x1                // =1
  402c14: a90027e8     	stp	x8, x9, [sp]
  402c18: 52800108     	mov	w8, #0x8                // =8
  402c1c: 9100ffe0     	add	x0, sp, #0x3f
  402c20: 910003e1     	mov	x1, sp
  402c24: a901ffff     	stp	xzr, xzr, [sp, #0x18]
  402c28: f9000be8     	str	x8, [sp, #0x10]
  402c2c: 97fff9a9     	bl	0x4012d0 <_ZN75_$LT$$RF$mut$u20$W$u20$as$u20$core..fmt..Write..write_fmt..SpecWriteFmt$GT$14spec_write_fmt17hca4abb18532e998bE>
  402c30: d503201f     	nop
  402c34: 1003ed20     	adr	x0, 0x40a9d8 <rodata_check_str+0x9d8>
  402c38: 528001e1     	mov	w1, #0xf                // =15
  402c3c: 9400024e     	bl	0x403574 <_ZN12cohesix_root5abort17h2875b4dbfb5b1cb3E>

0000000000402c40 <handle_el1_fiq_sp0>:
  402c40: d10103ff     	sub	sp, sp, #0x40
  402c44: f9001bfe     	str	x30, [sp, #0x30]
  402c48: d503201f     	nop
  402c4c: 1003ed68     	adr	x8, 0x40a9f8 <rodata_check_str+0x9f8>
  402c50: 52800029     	mov	w9, #0x1                // =1
  402c54: a90027e8     	stp	x8, x9, [sp]
  402c58: 52800108     	mov	w8, #0x8                // =8
  402c5c: 9100ffe0     	add	x0, sp, #0x3f
  402c60: 910003e1     	mov	x1, sp
  402c64: a901ffff     	stp	xzr, xzr, [sp, #0x18]
  402c68: f9000be8     	str	x8, [sp, #0x10]
  402c6c: 97fff999     	bl	0x4012d0 <_ZN75_$LT$$RF$mut$u20$W$u20$as$u20$core..fmt..Write..write_fmt..SpecWriteFmt$GT$14spec_write_fmt17hca4abb18532e998bE>
  402c70: d503201f     	nop
  402c74: 1003eca0     	adr	x0, 0x40aa08 <rodata_check_str+0xa08>
  402c78: 528001e1     	mov	w1, #0xf                // =15
  402c7c: 9400023e     	bl	0x403574 <_ZN12cohesix_root5abort17h2875b4dbfb5b1cb3E>

0000000000402c80 <handle_el1_serror_sp0>:
  402c80: d10103ff     	sub	sp, sp, #0x40
  402c84: f9001bfe     	str	x30, [sp, #0x30]
  402c88: d503201f     	nop
  402c8c: 1003ec68     	adr	x8, 0x40aa18 <rodata_check_str+0xa18>
  402c90: 52800029     	mov	w9, #0x1                // =1
  402c94: a90027e8     	stp	x8, x9, [sp]
  402c98: 52800108     	mov	w8, #0x8                // =8
  402c9c: 9100ffe0     	add	x0, sp, #0x3f
  402ca0: 910003e1     	mov	x1, sp
  402ca4: a901ffff     	stp	xzr, xzr, [sp, #0x18]
  402ca8: f9000be8     	str	x8, [sp, #0x10]
  402cac: 97fff989     	bl	0x4012d0 <_ZN75_$LT$$RF$mut$u20$W$u20$as$u20$core..fmt..Write..write_fmt..SpecWriteFmt$GT$14spec_write_fmt17hca4abb18532e998bE>
  402cb0: 90000040     	adrp	x0, 0x40a000 <rodata_check_str>
  402cb4: 91050000     	add	x0, x0, #0x140
  402cb8: 52800201     	mov	w1, #0x10               // =16
  402cbc: 9400022e     	bl	0x403574 <_ZN12cohesix_root5abort17h2875b4dbfb5b1cb3E>

0000000000402cc0 <handle_el0_sync>:
  402cc0: d10143ff     	sub	sp, sp, #0x50
  402cc4: f90023fe     	str	x30, [sp, #0x40]
  402cc8: d5385208     	mrs	x8, ESR_EL1
  402ccc: 910133e9     	add	x9, sp, #0x4c
  402cd0: d503201f     	nop
  402cd4: 10028a4a     	adr	x10, 0x407e1c <_ZN4core3fmt3num53_$LT$impl$u20$core..fmt..LowerHex$u20$for$u20$u16$GT$3fmt17h316f8e266a8ad23eE>
  402cd8: 79009be8     	strh	w8, [sp, #0x4c]
  402cdc: 52800028     	mov	w8, #0x1                // =1
  402ce0: a9032be9     	stp	x9, x10, [sp, #0x30]
  402ce4: d503201f     	nop
  402ce8: 1003eac9     	adr	x9, 0x40aa40 <rodata_check_str+0xa40>
  402cec: a90023e9     	stp	x9, x8, [sp]
  402cf0: d503201f     	nop
  402cf4: 1003eae9     	adr	x9, 0x40aa50 <rodata_check_str+0xa50>
  402cf8: a90223e9     	stp	x9, x8, [sp, #0x20]
  402cfc: 9100c3e9     	add	x9, sp, #0x30
  402d00: 91013fe0     	add	x0, sp, #0x4f
  402d04: 910003e1     	mov	x1, sp
  402d08: a90123e9     	stp	x9, x8, [sp, #0x10]
  402d0c: 97fff971     	bl	0x4012d0 <_ZN75_$LT$$RF$mut$u20$W$u20$as$u20$core..fmt..Write..write_fmt..SpecWriteFmt$GT$14spec_write_fmt17hca4abb18532e998bE>
  402d10: 79409be0     	ldrh	w0, [sp, #0x4c]
  402d14: 97ffff57     	bl	0x402a70 <_ZN12cohesix_root9exception12svc_dispatch17h4ffbbd4f17c203caE>
  402d18: d503201f     	nop
  402d1c: 1003eb20     	adr	x0, 0x40aa80 <rodata_check_str+0xa80>
  402d20: 52800181     	mov	w1, #0xc                // =12
  402d24: 94000214     	bl	0x403574 <_ZN12cohesix_root5abort17h2875b4dbfb5b1cb3E>

0000000000402d28 <handle_el0_irq>:
  402d28: d10103ff     	sub	sp, sp, #0x40
  402d2c: f9001bfe     	str	x30, [sp, #0x30]
  402d30: d503201f     	nop
  402d34: 1003eb28     	adr	x8, 0x40aa98 <rodata_check_str+0xa98>
  402d38: 52800029     	mov	w9, #0x1                // =1
  402d3c: a90027e8     	stp	x8, x9, [sp]
  402d40: 52800108     	mov	w8, #0x8                // =8
  402d44: 9100ffe0     	add	x0, sp, #0x3f
  402d48: 910003e1     	mov	x1, sp
  402d4c: a901ffff     	stp	xzr, xzr, [sp, #0x18]
  402d50: f9000be8     	str	x8, [sp, #0x10]
  402d54: 97fff95f     	bl	0x4012d0 <_ZN75_$LT$$RF$mut$u20$W$u20$as$u20$core..fmt..Write..write_fmt..SpecWriteFmt$GT$14spec_write_fmt17hca4abb18532e998bE>
  402d58: d503201f     	nop
  402d5c: 1003ea60     	adr	x0, 0x40aaa8 <rodata_check_str+0xaa8>
  402d60: 52800161     	mov	w1, #0xb                // =11
  402d64: 94000204     	bl	0x403574 <_ZN12cohesix_root5abort17h2875b4dbfb5b1cb3E>

0000000000402d68 <handle_el0_fiq>:
  402d68: d10103ff     	sub	sp, sp, #0x40
  402d6c: f9001bfe     	str	x30, [sp, #0x30]
  402d70: d503201f     	nop
  402d74: 1003ea68     	adr	x8, 0x40aac0 <rodata_check_str+0xac0>
  402d78: 52800029     	mov	w9, #0x1                // =1
  402d7c: a90027e8     	stp	x8, x9, [sp]
  402d80: 52800108     	mov	w8, #0x8                // =8
  402d84: 9100ffe0     	add	x0, sp, #0x3f
  402d88: 910003e1     	mov	x1, sp
  402d8c: a901ffff     	stp	xzr, xzr, [sp, #0x18]
  402d90: f9000be8     	str	x8, [sp, #0x10]
  402d94: 97fff94f     	bl	0x4012d0 <_ZN75_$LT$$RF$mut$u20$W$u20$as$u20$core..fmt..Write..write_fmt..SpecWriteFmt$GT$14spec_write_fmt17hca4abb18532e998bE>
  402d98: d503201f     	nop
  402d9c: 1003e9a0     	adr	x0, 0x40aad0 <rodata_check_str+0xad0>
  402da0: 52800161     	mov	w1, #0xb                // =11
  402da4: 940001f4     	bl	0x403574 <_ZN12cohesix_root5abort17h2875b4dbfb5b1cb3E>

0000000000402da8 <handle_el0_serror>:
  402da8: d10103ff     	sub	sp, sp, #0x40
  402dac: f9001bfe     	str	x30, [sp, #0x30]
  402db0: d503201f     	nop
  402db4: 1003e9a8     	adr	x8, 0x40aae8 <rodata_check_str+0xae8>
  402db8: 52800029     	mov	w9, #0x1                // =1
  402dbc: a90027e8     	stp	x8, x9, [sp]
  402dc0: 52800108     	mov	w8, #0x8                // =8
  402dc4: 9100ffe0     	add	x0, sp, #0x3f
  402dc8: 910003e1     	mov	x1, sp
  402dcc: a901ffff     	stp	xzr, xzr, [sp, #0x18]
  402dd0: f9000be8     	str	x8, [sp, #0x10]
  402dd4: 97fff93f     	bl	0x4012d0 <_ZN75_$LT$$RF$mut$u20$W$u20$as$u20$core..fmt..Write..write_fmt..SpecWriteFmt$GT$14spec_write_fmt17hca4abb18532e998bE>
  402dd8: d503201f     	nop
  402ddc: 1003e8e0     	adr	x0, 0x40aaf8 <rodata_check_str+0xaf8>
  402de0: 52800181     	mov	w1, #0xc                // =12
  402de4: 940001e4     	bl	0x403574 <_ZN12cohesix_root5abort17h2875b4dbfb5b1cb3E>

0000000000402de8 <handle_el0_32_sync>:
  402de8: d10103ff     	sub	sp, sp, #0x40
  402dec: f9001bfe     	str	x30, [sp, #0x30]
  402df0: d503201f     	nop
  402df4: 1003e928     	adr	x8, 0x40ab18 <rodata_check_str+0xb18>
  402df8: 52800029     	mov	w9, #0x1                // =1
  402dfc: a90027e8     	stp	x8, x9, [sp]
  402e00: 52800108     	mov	w8, #0x8                // =8
  402e04: 9100ffe0     	add	x0, sp, #0x3f
  402e08: 910003e1     	mov	x1, sp
  402e0c: a901ffff     	stp	xzr, xzr, [sp, #0x18]
  402e10: f9000be8     	str	x8, [sp, #0x10]
  402e14: 97fff92f     	bl	0x4012d0 <_ZN75_$LT$$RF$mut$u20$W$u20$as$u20$core..fmt..Write..write_fmt..SpecWriteFmt$GT$14spec_write_fmt17hca4abb18532e998bE>
  402e18: d503201f     	nop
  402e1c: 1003e860     	adr	x0, 0x40ab28 <rodata_check_str+0xb28>
  402e20: 528001e1     	mov	w1, #0xf                // =15
  402e24: 940001d4     	bl	0x403574 <_ZN12cohesix_root5abort17h2875b4dbfb5b1cb3E>

0000000000402e28 <handle_el0_32_irq>:
  402e28: d10103ff     	sub	sp, sp, #0x40
  402e2c: f9001bfe     	str	x30, [sp, #0x30]
  402e30: d503201f     	nop
  402e34: 1003e8a8     	adr	x8, 0x40ab48 <rodata_check_str+0xb48>
  402e38: 52800029     	mov	w9, #0x1                // =1
  402e3c: a90027e8     	stp	x8, x9, [sp]
  402e40: 52800108     	mov	w8, #0x8                // =8
  402e44: 9100ffe0     	add	x0, sp, #0x3f
  402e48: 910003e1     	mov	x1, sp
  402e4c: a901ffff     	stp	xzr, xzr, [sp, #0x18]
  402e50: f9000be8     	str	x8, [sp, #0x10]
  402e54: 97fff91f     	bl	0x4012d0 <_ZN75_$LT$$RF$mut$u20$W$u20$as$u20$core..fmt..Write..write_fmt..SpecWriteFmt$GT$14spec_write_fmt17hca4abb18532e998bE>
  402e58: d503201f     	nop
  402e5c: 1003e7e0     	adr	x0, 0x40ab58 <rodata_check_str+0xb58>
  402e60: 528001c1     	mov	w1, #0xe                // =14
  402e64: 940001c4     	bl	0x403574 <_ZN12cohesix_root5abort17h2875b4dbfb5b1cb3E>

0000000000402e68 <handle_el0_32_fiq>:
  402e68: d10103ff     	sub	sp, sp, #0x40
  402e6c: f9001bfe     	str	x30, [sp, #0x30]
  402e70: d503201f     	nop
  402e74: 1003e828     	adr	x8, 0x40ab78 <rodata_check_str+0xb78>
  402e78: 52800029     	mov	w9, #0x1                // =1
  402e7c: a90027e8     	stp	x8, x9, [sp]
  402e80: 52800108     	mov	w8, #0x8                // =8
  402e84: 9100ffe0     	add	x0, sp, #0x3f
  402e88: 910003e1     	mov	x1, sp
  402e8c: a901ffff     	stp	xzr, xzr, [sp, #0x18]
  402e90: f9000be8     	str	x8, [sp, #0x10]
  402e94: 97fff90f     	bl	0x4012d0 <_ZN75_$LT$$RF$mut$u20$W$u20$as$u20$core..fmt..Write..write_fmt..SpecWriteFmt$GT$14spec_write_fmt17hca4abb18532e998bE>
  402e98: d503201f     	nop
  402e9c: 1003e760     	adr	x0, 0x40ab88 <rodata_check_str+0xb88>
  402ea0: 528001c1     	mov	w1, #0xe                // =14
  402ea4: 940001b4     	bl	0x403574 <_ZN12cohesix_root5abort17h2875b4dbfb5b1cb3E>

0000000000402ea8 <handle_el0_32_serror>:
  402ea8: d10103ff     	sub	sp, sp, #0x40
  402eac: f9001bfe     	str	x30, [sp, #0x30]
  402eb0: d503201f     	nop
  402eb4: 1003e7a8     	adr	x8, 0x40aba8 <rodata_check_str+0xba8>
  402eb8: 52800029     	mov	w9, #0x1                // =1
  402ebc: a90027e8     	stp	x8, x9, [sp]
  402ec0: 52800108     	mov	w8, #0x8                // =8
  402ec4: 9100ffe0     	add	x0, sp, #0x3f
  402ec8: 910003e1     	mov	x1, sp
  402ecc: a901ffff     	stp	xzr, xzr, [sp, #0x18]
  402ed0: f9000be8     	str	x8, [sp, #0x10]
  402ed4: 97fff8ff     	bl	0x4012d0 <_ZN75_$LT$$RF$mut$u20$W$u20$as$u20$core..fmt..Write..write_fmt..SpecWriteFmt$GT$14spec_write_fmt17hca4abb18532e998bE>
  402ed8: d503201f     	nop
  402edc: 1003e6e0     	adr	x0, 0x40abb8 <rodata_check_str+0xbb8>
  402ee0: 528001e1     	mov	w1, #0xf                // =15
  402ee4: 940001a4     	bl	0x403574 <_ZN12cohesix_root5abort17h2875b4dbfb5b1cb3E>

0000000000402ee8 <_ZN60_$LT$cohesix_root..CohLogger$u20$as$u20$core..fmt..Write$GT$9write_str17hef3ae0aa6fc31cf2E>:
  402ee8: b4000102     	cbz	x2, 0x402f08 <_ZN60_$LT$cohesix_root..CohLogger$u20$as$u20$core..fmt..Write$GT$9write_str17hef3ae0aa6fc31cf2E+0x20>
  402eec: 38401428     	ldrb	w8, [x1], #0x1
  402ef0: aa0803e0     	mov	x0, x8
  402ef4: 92800108     	mov	x8, #-0x9               // =-9
  402ef8: 92800110     	mov	x16, #-0x9              // =-9
  402efc: d4000001     	svc	#0
  402f00: f1000442     	subs	x2, x2, #0x1
  402f04: 54ffff41     	b.ne	0x402eec <_ZN60_$LT$cohesix_root..CohLogger$u20$as$u20$core..fmt..Write$GT$9write_str17hef3ae0aa6fc31cf2E+0x4>
  402f08: 52800148     	mov	w8, #0xa                // =10
  402f0c: aa0803e0     	mov	x0, x8
  402f10: 92800108     	mov	x8, #-0x9               // =-9
  402f14: 92800110     	mov	x16, #-0x9              // =-9
  402f18: d4000001     	svc	#0
  402f1c: 2a1f03e0     	mov	w0, wzr
  402f20: d65f03c0     	ret

0000000000402f24 <_ZN12cohesix_root7put_hex17hd1a3bb86369fdefcE>:
  402f24: d3441c09     	ubfx	x9, x0, #4, #4
  402f28: d3482c0a     	ubfx	x10, x0, #8, #4
  402f2c: 92400c08     	and	x8, x0, #0xf
  402f30: d34c3c0c     	ubfx	x12, x0, #12, #4
  402f34: d3504c0d     	ubfx	x13, x0, #16, #4
  402f38: d3545c0e     	ubfx	x14, x0, #20, #4
  402f3c: d3586c0f     	ubfx	x15, x0, #24, #4
  402f40: 531c7c10     	lsr	w16, w0, #28
  402f44: d3608c11     	ubfx	x17, x0, #32, #4
  402f48: d3649c12     	ubfx	x18, x0, #36, #4
  402f4c: d368ac01     	ubfx	x1, x0, #40, #4
  402f50: d36cbc02     	ubfx	x2, x0, #44, #4
  402f54: d370cc03     	ubfx	x3, x0, #48, #4
  402f58: d374dc04     	ubfx	x4, x0, #52, #4
  402f5c: d378ec05     	ubfx	x5, x0, #56, #4
  402f60: d37cfc00     	lsr	x0, x0, #60
  402f64: 9000004b     	adrp	x11, 0x40a000 <rodata_check_str>
  402f68: 9106816b     	add	x11, x11, #0x1a0
  402f6c: 38686968     	ldrb	w8, [x11, x8]
  402f70: 38696969     	ldrb	w9, [x11, x9]
  402f74: 386a696a     	ldrb	w10, [x11, x10]
  402f78: 386c696c     	ldrb	w12, [x11, x12]
  402f7c: 386d696d     	ldrb	w13, [x11, x13]
  402f80: 386e696e     	ldrb	w14, [x11, x14]
  402f84: 386f696f     	ldrb	w15, [x11, x15]
  402f88: 38706970     	ldrb	w16, [x11, x16]
  402f8c: 38716971     	ldrb	w17, [x11, x17]
  402f90: 38726972     	ldrb	w18, [x11, x18]
  402f94: 38616961     	ldrb	w1, [x11, x1]
  402f98: 38626962     	ldrb	w2, [x11, x2]
  402f9c: 38636963     	ldrb	w3, [x11, x3]
  402fa0: 38646964     	ldrb	w4, [x11, x4]
  402fa4: 38656965     	ldrb	w5, [x11, x5]
  402fa8: 52800606     	mov	w6, #0x30               // =48
  402fac: 3860696b     	ldrb	w11, [x11, x0]
  402fb0: aa0603e0     	mov	x0, x6
  402fb4: 92800108     	mov	x8, #-0x9               // =-9
  402fb8: 92800110     	mov	x16, #-0x9              // =-9
  402fbc: d4000001     	svc	#0
  402fc0: 52800f00     	mov	w0, #0x78               // =120
  402fc4: aa0003e0     	mov	x0, x0
  402fc8: 92800108     	mov	x8, #-0x9               // =-9
  402fcc: 92800110     	mov	x16, #-0x9              // =-9
  402fd0: d4000001     	svc	#0
  402fd4: aa0b03e0     	mov	x0, x11
  402fd8: 92800108     	mov	x8, #-0x9               // =-9
  402fdc: 92800110     	mov	x16, #-0x9              // =-9
  402fe0: d4000001     	svc	#0
  402fe4: aa0503e0     	mov	x0, x5
  402fe8: 92800108     	mov	x8, #-0x9               // =-9
  402fec: 92800110     	mov	x16, #-0x9              // =-9
  402ff0: d4000001     	svc	#0
  402ff4: aa0403e0     	mov	x0, x4
  402ff8: 92800108     	mov	x8, #-0x9               // =-9
  402ffc: 92800110     	mov	x16, #-0x9              // =-9
  403000: d4000001     	svc	#0
  403004: aa0303e0     	mov	x0, x3
  403008: 92800108     	mov	x8, #-0x9               // =-9
  40300c: 92800110     	mov	x16, #-0x9              // =-9
  403010: d4000001     	svc	#0
  403014: aa0203e0     	mov	x0, x2
  403018: 92800108     	mov	x8, #-0x9               // =-9
  40301c: 92800110     	mov	x16, #-0x9              // =-9
  403020: d4000001     	svc	#0
  403024: aa0103e0     	mov	x0, x1
  403028: 92800108     	mov	x8, #-0x9               // =-9
  40302c: 92800110     	mov	x16, #-0x9              // =-9
  403030: d4000001     	svc	#0
  403034: aa1203e0     	mov	x0, x18
  403038: 92800108     	mov	x8, #-0x9               // =-9
  40303c: 92800110     	mov	x16, #-0x9              // =-9
  403040: d4000001     	svc	#0
  403044: aa1103e0     	mov	x0, x17
  403048: 92800108     	mov	x8, #-0x9               // =-9
  40304c: 92800110     	mov	x16, #-0x9              // =-9
  403050: d4000001     	svc	#0
  403054: aa1003e0     	mov	x0, x16
  403058: 92800108     	mov	x8, #-0x9               // =-9
  40305c: 92800110     	mov	x16, #-0x9              // =-9
  403060: d4000001     	svc	#0
  403064: aa0f03e0     	mov	x0, x15
  403068: 92800108     	mov	x8, #-0x9               // =-9
  40306c: 92800110     	mov	x16, #-0x9              // =-9
  403070: d4000001     	svc	#0
  403074: aa0e03e0     	mov	x0, x14
  403078: 92800108     	mov	x8, #-0x9               // =-9
  40307c: 92800110     	mov	x16, #-0x9              // =-9
  403080: d4000001     	svc	#0
  403084: aa0d03e0     	mov	x0, x13
  403088: 92800108     	mov	x8, #-0x9               // =-9
  40308c: 92800110     	mov	x16, #-0x9              // =-9
  403090: d4000001     	svc	#0
  403094: aa0c03e0     	mov	x0, x12
  403098: 92800108     	mov	x8, #-0x9               // =-9
  40309c: 92800110     	mov	x16, #-0x9              // =-9
  4030a0: d4000001     	svc	#0
  4030a4: aa0a03e0     	mov	x0, x10
  4030a8: 92800108     	mov	x8, #-0x9               // =-9
  4030ac: 92800110     	mov	x16, #-0x9              // =-9
  4030b0: d4000001     	svc	#0
  4030b4: aa0903e0     	mov	x0, x9
  4030b8: 92800108     	mov	x8, #-0x9               // =-9
  4030bc: 92800110     	mov	x16, #-0x9              // =-9
  4030c0: d4000001     	svc	#0
  4030c4: aa0803e0     	mov	x0, x8
  4030c8: 92800108     	mov	x8, #-0x9               // =-9
  4030cc: 92800110     	mov	x16, #-0x9              // =-9
  4030d0: d4000001     	svc	#0
  4030d4: 52800148     	mov	w8, #0xa                // =10
  4030d8: aa0803e0     	mov	x0, x8
  4030dc: 92800108     	mov	x8, #-0x9               // =-9
  4030e0: 92800110     	mov	x16, #-0x9              // =-9
  4030e4: d4000001     	svc	#0
  4030e8: d65f03c0     	ret

00000000004030ec <boot_log_hex>:
  4030ec: 17ffff8e     	b	0x402f24 <_ZN12cohesix_root7put_hex17hd1a3bb86369fdefcE>

00000000004030f0 <_ZN12cohesix_root14check_heap_ptr17h0477fc5f1e2b816aE>:
  4030f0: f81b0ffe     	str	x30, [sp, #-0x50]!
  4030f4: a90167fa     	stp	x26, x25, [sp, #0x10]
  4030f8: a9025ff8     	stp	x24, x23, [sp, #0x20]
  4030fc: a90357f6     	stp	x22, x21, [sp, #0x30]
  403100: a9044ff4     	stp	x20, x19, [sp, #0x40]
  403104: 910003e8     	mov	x8, sp
  403108: 52800d95     	mov	w21, #0x6c              // =108
  40310c: 52800df6     	mov	w22, #0x6f              // =111
  403110: aa1d03f4     	mov	x20, x29
  403114: 52800cf7     	mov	w23, #0x67              // =103
  403118: 52800bf8     	mov	w24, #0x5f              // =95
  40311c: aa1503e0     	mov	x0, x21
  403120: 92800108     	mov	x8, #-0x9               // =-9
  403124: 92800110     	mov	x16, #-0x9              // =-9
  403128: d4000001     	svc	#0
  40312c: 52800e69     	mov	w9, #0x73               // =115
  403130: 52800e19     	mov	w25, #0x70              // =112
  403134: aa1603e0     	mov	x0, x22
  403138: 92800108     	mov	x8, #-0x9               // =-9
  40313c: 92800110     	mov	x16, #-0x9              // =-9
  403140: d4000001     	svc	#0
  403144: 5280015a     	mov	w26, #0xa               // =10
  403148: aa0003f3     	mov	x19, x0
  40314c: aa1703e0     	mov	x0, x23
  403150: 92800108     	mov	x8, #-0x9               // =-9
  403154: 92800110     	mov	x16, #-0x9              // =-9
  403158: d4000001     	svc	#0
  40315c: aa0803e0     	mov	x0, x8
  403160: aa1803e0     	mov	x0, x24
  403164: 92800108     	mov	x8, #-0x9               // =-9
  403168: 92800110     	mov	x16, #-0x9              // =-9
  40316c: d4000001     	svc	#0
  403170: aa0903e0     	mov	x0, x9
  403174: 92800108     	mov	x8, #-0x9               // =-9
  403178: 92800110     	mov	x16, #-0x9              // =-9
  40317c: d4000001     	svc	#0
  403180: aa1903e0     	mov	x0, x25
  403184: 92800108     	mov	x8, #-0x9               // =-9
  403188: 92800110     	mov	x16, #-0x9              // =-9
  40318c: d4000001     	svc	#0
  403190: aa1a03e0     	mov	x0, x26
  403194: 92800108     	mov	x8, #-0x9               // =-9
  403198: 92800110     	mov	x16, #-0x9              // =-9
  40319c: d4000001     	svc	#0
  4031a0: 97ffff61     	bl	0x402f24 <_ZN12cohesix_root7put_hex17hd1a3bb86369fdefcE>
  4031a4: aa1503e0     	mov	x0, x21
  4031a8: 92800108     	mov	x8, #-0x9               // =-9
  4031ac: 92800110     	mov	x16, #-0x9              // =-9
  4031b0: d4000001     	svc	#0
  4031b4: 52800cc8     	mov	w8, #0x66               // =102
  4031b8: aa1403e0     	mov	x0, x20
  4031bc: aa1603e0     	mov	x0, x22
  4031c0: 92800108     	mov	x8, #-0x9               // =-9
  4031c4: 92800110     	mov	x16, #-0x9              // =-9
  4031c8: d4000001     	svc	#0
  4031cc: aa1703e0     	mov	x0, x23
  4031d0: 92800108     	mov	x8, #-0x9               // =-9
  4031d4: 92800110     	mov	x16, #-0x9              // =-9
  4031d8: d4000001     	svc	#0
  4031dc: aa1803e0     	mov	x0, x24
  4031e0: 92800108     	mov	x8, #-0x9               // =-9
  4031e4: 92800110     	mov	x16, #-0x9              // =-9
  4031e8: d4000001     	svc	#0
  4031ec: aa0803e0     	mov	x0, x8
  4031f0: 92800108     	mov	x8, #-0x9               // =-9
  4031f4: 92800110     	mov	x16, #-0x9              // =-9
  4031f8: d4000001     	svc	#0
  4031fc: aa1903e0     	mov	x0, x25
  403200: 92800108     	mov	x8, #-0x9               // =-9
  403204: 92800110     	mov	x16, #-0x9              // =-9
  403208: d4000001     	svc	#0
  40320c: aa1a03e0     	mov	x0, x26
  403210: 92800108     	mov	x8, #-0x9               // =-9
  403214: 92800110     	mov	x16, #-0x9              // =-9
  403218: d4000001     	svc	#0
  40321c: 97ffff42     	bl	0x402f24 <_ZN12cohesix_root7put_hex17hd1a3bb86369fdefcE>
  403220: 52800c68     	mov	w8, #0x63               // =99
  403224: aa0803e0     	mov	x0, x8
  403228: 92800108     	mov	x8, #-0x9               // =-9
  40322c: 92800110     	mov	x16, #-0x9              // =-9
  403230: d4000001     	svc	#0
  403234: 52800d09     	mov	w9, #0x68               // =104
  403238: aa0903e0     	mov	x0, x9
  40323c: 92800108     	mov	x8, #-0x9               // =-9
  403240: 92800110     	mov	x16, #-0x9              // =-9
  403244: d4000001     	svc	#0
  403248: 52800caa     	mov	w10, #0x65              // =101
  40324c: aa1303e0     	mov	x0, x19
  403250: aa0a03e0     	mov	x0, x10
  403254: 92800108     	mov	x8, #-0x9               // =-9
  403258: 92800110     	mov	x16, #-0x9              // =-9
  40325c: d4000001     	svc	#0
  403260: aa0803e0     	mov	x0, x8
  403264: 92800108     	mov	x8, #-0x9               // =-9
  403268: 92800110     	mov	x16, #-0x9              // =-9
  40326c: d4000001     	svc	#0
  403270: 52800d68     	mov	w8, #0x6b               // =107
  403274: aa0803e0     	mov	x0, x8
  403278: 92800108     	mov	x8, #-0x9               // =-9
  40327c: 92800110     	mov	x16, #-0x9              // =-9
  403280: d4000001     	svc	#0
  403284: 52800c28     	mov	w8, #0x61               // =97
  403288: aa1803e0     	mov	x0, x24
  40328c: 92800108     	mov	x8, #-0x9               // =-9
  403290: 92800110     	mov	x16, #-0x9              // =-9
  403294: d4000001     	svc	#0
  403298: aa0903e0     	mov	x0, x9
  40329c: 92800108     	mov	x8, #-0x9               // =-9
  4032a0: 92800110     	mov	x16, #-0x9              // =-9
  4032a4: d4000001     	svc	#0
  4032a8: aa0a03e0     	mov	x0, x10
  4032ac: 92800108     	mov	x8, #-0x9               // =-9
  4032b0: 92800110     	mov	x16, #-0x9              // =-9
  4032b4: d4000001     	svc	#0
  4032b8: aa0803e0     	mov	x0, x8
  4032bc: 92800108     	mov	x8, #-0x9               // =-9
  4032c0: 92800110     	mov	x16, #-0x9              // =-9
  4032c4: d4000001     	svc	#0
  4032c8: 52800e88     	mov	w8, #0x74               // =116
  4032cc: aa1903e0     	mov	x0, x25
  4032d0: 92800108     	mov	x8, #-0x9               // =-9
  4032d4: 92800110     	mov	x16, #-0x9              // =-9
  4032d8: d4000001     	svc	#0
  4032dc: aa1803e0     	mov	x0, x24
  4032e0: 92800108     	mov	x8, #-0x9               // =-9
  4032e4: 92800110     	mov	x16, #-0x9              // =-9
  4032e8: d4000001     	svc	#0
  4032ec: aa1903e0     	mov	x0, x25
  4032f0: 92800108     	mov	x8, #-0x9               // =-9
  4032f4: 92800110     	mov	x16, #-0x9              // =-9
  4032f8: d4000001     	svc	#0
  4032fc: aa0803e0     	mov	x0, x8
  403300: 92800108     	mov	x8, #-0x9               // =-9
  403304: 92800110     	mov	x16, #-0x9              // =-9
  403308: d4000001     	svc	#0
  40330c: 52800e48     	mov	w8, #0x72               // =114
  403310: aa0803e0     	mov	x0, x8
  403314: 92800108     	mov	x8, #-0x9               // =-9
  403318: 92800110     	mov	x16, #-0x9              // =-9
  40331c: d4000001     	svc	#0
  403320: aa1a03e0     	mov	x0, x26
  403324: 92800108     	mov	x8, #-0x9               // =-9
  403328: 92800110     	mov	x16, #-0x9              // =-9
  40332c: d4000001     	svc	#0
  403330: 97fffefd     	bl	0x402f24 <_ZN12cohesix_root7put_hex17hd1a3bb86369fdefcE>
  403334: f150027f     	cmp	x19, #0x400, lsl #12    // =0x400000
  403338: 54000263     	b.lo	0x403384 <_ZN12cohesix_root14check_heap_ptr17h0477fc5f1e2b816aE+0x294>
  40333c: d503201f     	nop
  403340: 1050e608     	adr	x8, 0x4a5000 <__stack_end>
  403344: eb08027f     	cmp	x19, x8
  403348: 540001e2     	b.hs	0x403384 <_ZN12cohesix_root14check_heap_ptr17h0477fc5f1e2b816aE+0x294>
  40334c: d503201f     	nop
  403350: 10086588     	adr	x8, 0x414000 <__heap_start>
  403354: eb08027f     	cmp	x19, x8
  403358: 54000163     	b.lo	0x403384 <_ZN12cohesix_root14check_heap_ptr17h0477fc5f1e2b816aE+0x294>
  40335c: d503201f     	nop
  403360: 10486508     	adr	x8, 0x494000 <__heap_end>
  403364: eb08027f     	cmp	x19, x8
  403368: 540000e2     	b.hs	0x403384 <_ZN12cohesix_root14check_heap_ptr17h0477fc5f1e2b816aE+0x294>
  40336c: a9444ff4     	ldp	x20, x19, [sp, #0x40]
  403370: a94357f6     	ldp	x22, x21, [sp, #0x30]
  403374: a9425ff8     	ldp	x24, x23, [sp, #0x20]
  403378: a94167fa     	ldp	x26, x25, [sp, #0x10]
  40337c: f84507fe     	ldr	x30, [sp], #0x50
  403380: d65f03c0     	ret
  403384: 52800908     	mov	w8, #0x48               // =72
  403388: aa0803e0     	mov	x0, x8
  40338c: 92800108     	mov	x8, #-0x9               // =-9
  403390: 92800110     	mov	x16, #-0x9              // =-9
  403394: d4000001     	svc	#0
  403398: 52800829     	mov	w9, #0x41               // =65
  40339c: 528008a8     	mov	w8, #0x45               // =69
  4033a0: aa0803e0     	mov	x0, x8
  4033a4: 92800108     	mov	x8, #-0x9               // =-9
  4033a8: 92800110     	mov	x16, #-0x9              // =-9
  4033ac: d4000001     	svc	#0
  4033b0: 52800a0a     	mov	w10, #0x50              // =80
  4033b4: aa0903e0     	mov	x0, x9
  4033b8: 92800108     	mov	x8, #-0x9               // =-9
  4033bc: 92800110     	mov	x16, #-0x9              // =-9
  4033c0: d4000001     	svc	#0
  4033c4: 5280040b     	mov	w11, #0x20              // =32
  4033c8: 5280092c     	mov	w12, #0x49              // =73
  4033cc: aa0a03e0     	mov	x0, x10
  4033d0: 92800108     	mov	x8, #-0x9               // =-9
  4033d4: 92800110     	mov	x16, #-0x9              // =-9
  4033d8: d4000001     	svc	#0
  4033dc: 52800a8d     	mov	w13, #0x54              // =84
  4033e0: 52800a4e     	mov	w14, #0x52              // =82
  4033e4: aa0b03e0     	mov	x0, x11
  4033e8: 92800108     	mov	x8, #-0x9               // =-9
  4033ec: 92800110     	mov	x16, #-0x9              // =-9
  4033f0: d4000001     	svc	#0
  4033f4: 52800aaf     	mov	w15, #0x55              // =85
  4033f8: aa1303e0     	mov	x0, x19
  4033fc: aa0a03e0     	mov	x0, x10
  403400: 92800108     	mov	x8, #-0x9               // =-9
  403404: 92800110     	mov	x16, #-0x9              // =-9
  403408: d4000001     	svc	#0
  40340c: 528009ea     	mov	w10, #0x4f              // =79
  403410: aa0a03e0     	mov	x0, x10
  403414: 92800108     	mov	x8, #-0x9               // =-9
  403418: 92800110     	mov	x16, #-0x9              // =-9
  40341c: d4000001     	svc	#0
  403420: aa0c03e0     	mov	x0, x12
  403424: 92800108     	mov	x8, #-0x9               // =-9
  403428: 92800110     	mov	x16, #-0x9              // =-9
  40342c: d4000001     	svc	#0
  403430: 528009cc     	mov	w12, #0x4e              // =78
  403434: aa0c03e0     	mov	x0, x12
  403438: 92800108     	mov	x8, #-0x9               // =-9
  40343c: 92800110     	mov	x16, #-0x9              // =-9
  403440: d4000001     	svc	#0
  403444: aa0d03e0     	mov	x0, x13
  403448: 92800108     	mov	x8, #-0x9               // =-9
  40344c: 92800110     	mov	x16, #-0x9              // =-9
  403450: d4000001     	svc	#0
  403454: aa0803e0     	mov	x0, x8
  403458: 92800108     	mov	x8, #-0x9               // =-9
  40345c: 92800110     	mov	x16, #-0x9              // =-9
  403460: d4000001     	svc	#0
  403464: aa0e03e0     	mov	x0, x14
  403468: 92800108     	mov	x8, #-0x9               // =-9
  40346c: 92800110     	mov	x16, #-0x9              // =-9
  403470: d4000001     	svc	#0
  403474: aa0b03e0     	mov	x0, x11
  403478: 92800108     	mov	x8, #-0x9               // =-9
  40347c: 92800110     	mov	x16, #-0x9              // =-9
  403480: d4000001     	svc	#0
  403484: aa0a03e0     	mov	x0, x10
  403488: 92800108     	mov	x8, #-0x9               // =-9
  40348c: 92800110     	mov	x16, #-0x9              // =-9
  403490: d4000001     	svc	#0
  403494: aa0f03e0     	mov	x0, x15
  403498: 92800108     	mov	x8, #-0x9               // =-9
  40349c: 92800110     	mov	x16, #-0x9              // =-9
  4034a0: d4000001     	svc	#0
  4034a4: aa0d03e0     	mov	x0, x13
  4034a8: 92800108     	mov	x8, #-0x9               // =-9
  4034ac: 92800110     	mov	x16, #-0x9              // =-9
  4034b0: d4000001     	svc	#0
  4034b4: aa0b03e0     	mov	x0, x11
  4034b8: 92800108     	mov	x8, #-0x9               // =-9
  4034bc: 92800110     	mov	x16, #-0x9              // =-9
  4034c0: d4000001     	svc	#0
  4034c4: aa0a03e0     	mov	x0, x10
  4034c8: 92800108     	mov	x8, #-0x9               // =-9
  4034cc: 92800110     	mov	x16, #-0x9              // =-9
  4034d0: d4000001     	svc	#0
  4034d4: 528008ca     	mov	w10, #0x46              // =70
  4034d8: aa0a03e0     	mov	x0, x10
  4034dc: 92800108     	mov	x8, #-0x9               // =-9
  4034e0: 92800110     	mov	x16, #-0x9              // =-9
  4034e4: d4000001     	svc	#0
  4034e8: aa0b03e0     	mov	x0, x11
  4034ec: 92800108     	mov	x8, #-0x9               // =-9
  4034f0: 92800110     	mov	x16, #-0x9              // =-9
  4034f4: d4000001     	svc	#0
  4034f8: aa0e03e0     	mov	x0, x14
  4034fc: 92800108     	mov	x8, #-0x9               // =-9
  403500: 92800110     	mov	x16, #-0x9              // =-9
  403504: d4000001     	svc	#0
  403508: aa0903e0     	mov	x0, x9
  40350c: 92800108     	mov	x8, #-0x9               // =-9
  403510: 92800110     	mov	x16, #-0x9              // =-9
  403514: d4000001     	svc	#0
  403518: 528008e9     	mov	w9, #0x47               // =71
  40351c: aa0c03e0     	mov	x0, x12
  403520: 92800108     	mov	x8, #-0x9               // =-9
  403524: 92800110     	mov	x16, #-0x9              // =-9
  403528: d4000001     	svc	#0
  40352c: aa0903e0     	mov	x0, x9
  403530: 92800108     	mov	x8, #-0x9               // =-9
  403534: 92800110     	mov	x16, #-0x9              // =-9
  403538: d4000001     	svc	#0
  40353c: aa0803e0     	mov	x0, x8
  403540: 92800108     	mov	x8, #-0x9               // =-9
  403544: 92800110     	mov	x16, #-0x9              // =-9
  403548: d4000001     	svc	#0
  40354c: 52800148     	mov	w8, #0xa                // =10
  403550: aa0803e0     	mov	x0, x8
  403554: 92800108     	mov	x8, #-0x9               // =-9
  403558: 92800110     	mov	x16, #-0x9              // =-9
  40355c: d4000001     	svc	#0
  403560: 97fffe71     	bl	0x402f24 <_ZN12cohesix_root7put_hex17hd1a3bb86369fdefcE>
  403564: d503201f     	nop
  403568: 1003d280     	adr	x0, 0x40afb8 <_ZN12cohesix_root17ROOTSERVER_ONLINE17h1dda28d86f6d4332E+0x3e0>
  40356c: 52800321     	mov	w1, #0x19               // =25
  403570: 94000001     	bl	0x403574 <_ZN12cohesix_root5abort17h2875b4dbfb5b1cb3E>

0000000000403574 <_ZN12cohesix_root5abort17h2875b4dbfb5b1cb3E>:
  403574: 38401408     	ldrb	w8, [x0], #0x1
  403578: aa0803e0     	mov	x0, x8
  40357c: 92800108     	mov	x8, #-0x9               // =-9
  403580: 92800110     	mov	x16, #-0x9              // =-9
  403584: d4000001     	svc	#0
  403588: f1000421     	subs	x1, x1, #0x1
  40358c: 54ffff41     	b.ne	0x403574 <_ZN12cohesix_root5abort17h2875b4dbfb5b1cb3E>
  403590: 52800148     	mov	w8, #0xa                // =10
  403594: aa0803e0     	mov	x0, x8
  403598: 92800108     	mov	x8, #-0x9               // =-9
  40359c: 92800110     	mov	x16, #-0x9              // =-9
  4035a0: d4000001     	svc	#0
  4035a4: d5033fdf     	isb
  4035a8: 17ffffff     	b	0x4035a4 <_ZN12cohesix_root5abort17h2875b4dbfb5b1cb3E+0x30>

00000000004035ac <_ZN12cohesix_root7env_var17h0268a69405ad3f4aE>:
  4035ac: d10103ff     	sub	sp, sp, #0x40
  4035b0: a90257fe     	stp	x30, x21, [sp, #0x20]
  4035b4: a9034ff4     	stp	x20, x19, [sp, #0x30]
  4035b8: aa0003f4     	mov	x20, x0
  4035bc: 52800020     	mov	w0, #0x1                // =1
  4035c0: aa0103f3     	mov	x19, x1
  4035c4: 97fff833     	bl	0x401690 <_ZN91_$LT$cohesix_root..allocator..BumpAllocator$u20$as$u20$core..alloc..global..GlobalAlloc$GT$5alloc17hc97a9adda21019bdE>
  4035c8: b40013c0     	cbz	x0, 0x403840 <_ZN12cohesix_root7env_var17h0268a69405ad3f4aE+0x294>
  4035cc: aa1403e1     	mov	x1, x20
  4035d0: aa1303e2     	mov	x2, x19
  4035d4: aa0003f5     	mov	x21, x0
  4035d8: 97fffd0d     	bl	0x402a0c <memcpy>
  4035dc: 910023e0     	add	x0, sp, #0x8
  4035e0: a900d7f3     	stp	x19, x21, [sp, #0x8]
  4035e4: f9000ff3     	str	x19, [sp, #0x18]
  4035e8: 94000ea0     	bl	0x407068 <_ZN5alloc7raw_vec19RawVec$LT$T$C$A$GT$8grow_one17he2c50e2ed9571b6bE>
  4035ec: f9400be8     	ldr	x8, [sp, #0x10]
  4035f0: 52800e89     	mov	w9, #0x74               // =116
  4035f4: 52800dca     	mov	w10, #0x6e              // =110
  4035f8: 52800ecb     	mov	w11, #0x76              // =118
  4035fc: 3833691f     	strb	wzr, [x8, x19]
  403600: 52800ce8     	mov	w8, #0x67               // =103
  403604: aa0803e0     	mov	x0, x8
  403608: 92800108     	mov	x8, #-0x9               // =-9
  40360c: 92800110     	mov	x16, #-0x9              // =-9
  403610: d4000001     	svc	#0
  403614: 52800ca8     	mov	w8, #0x65               // =101
  403618: aa0803e0     	mov	x0, x8
  40361c: 92800108     	mov	x8, #-0x9               // =-9
  403620: 92800110     	mov	x16, #-0x9              // =-9
  403624: d4000001     	svc	#0
  403628: aa0903e0     	mov	x0, x9
  40362c: 92800108     	mov	x8, #-0x9               // =-9
  403630: 92800110     	mov	x16, #-0x9              // =-9
  403634: d4000001     	svc	#0
  403638: aa0803e0     	mov	x0, x8
  40363c: 92800108     	mov	x8, #-0x9               // =-9
  403640: 92800110     	mov	x16, #-0x9              // =-9
  403644: d4000001     	svc	#0
  403648: aa0a03e0     	mov	x0, x10
  40364c: 92800108     	mov	x8, #-0x9               // =-9
  403650: 92800110     	mov	x16, #-0x9              // =-9
  403654: d4000001     	svc	#0
  403658: aa0b03e0     	mov	x0, x11
  40365c: 92800108     	mov	x8, #-0x9               // =-9
  403660: 92800110     	mov	x16, #-0x9              // =-9
  403664: d4000001     	svc	#0
  403668: 5280040b     	mov	w11, #0x20              // =32
  40366c: aa0b03e0     	mov	x0, x11
  403670: 92800108     	mov	x8, #-0x9               // =-9
  403674: 92800110     	mov	x16, #-0x9              // =-9
  403678: d4000001     	svc	#0
  40367c: 52800e4b     	mov	w11, #0x72              // =114
  403680: aa0b03e0     	mov	x0, x11
  403684: 92800108     	mov	x8, #-0x9               // =-9
  403688: 92800110     	mov	x16, #-0x9              // =-9
  40368c: d4000001     	svc	#0
  403690: aa0803e0     	mov	x0, x8
  403694: 92800108     	mov	x8, #-0x9               // =-9
  403698: 92800110     	mov	x16, #-0x9              // =-9
  40369c: d4000001     	svc	#0
  4036a0: 52800ea8     	mov	w8, #0x75               // =117
  4036a4: aa0903e0     	mov	x0, x9
  4036a8: 92800108     	mov	x8, #-0x9               // =-9
  4036ac: 92800110     	mov	x16, #-0x9              // =-9
  4036b0: d4000001     	svc	#0
  4036b4: 52800609     	mov	w9, #0x30               // =48
  4036b8: aa0803e0     	mov	x0, x8
  4036bc: 92800108     	mov	x8, #-0x9               // =-9
  4036c0: 92800110     	mov	x16, #-0x9              // =-9
  4036c4: d4000001     	svc	#0
  4036c8: 52800148     	mov	w8, #0xa                // =10
  4036cc: aa0b03e0     	mov	x0, x11
  4036d0: 92800108     	mov	x8, #-0x9               // =-9
  4036d4: 92800110     	mov	x16, #-0x9              // =-9
  4036d8: d4000001     	svc	#0
  4036dc: aa0a03e0     	mov	x0, x10
  4036e0: 92800108     	mov	x8, #-0x9               // =-9
  4036e4: 92800110     	mov	x16, #-0x9              // =-9
  4036e8: d4000001     	svc	#0
  4036ec: 52800f0a     	mov	w10, #0x78              // =120
  4036f0: aa0803e0     	mov	x0, x8
  4036f4: 92800108     	mov	x8, #-0x9               // =-9
  4036f8: 92800110     	mov	x16, #-0x9              // =-9
  4036fc: d4000001     	svc	#0
  403700: aa0903e0     	mov	x0, x9
  403704: 92800108     	mov	x8, #-0x9               // =-9
  403708: 92800110     	mov	x16, #-0x9              // =-9
  40370c: d4000001     	svc	#0
  403710: aa0a03e0     	mov	x0, x10
  403714: 92800108     	mov	x8, #-0x9               // =-9
  403718: 92800110     	mov	x16, #-0x9              // =-9
  40371c: d4000001     	svc	#0
  403720: aa0903e0     	mov	x0, x9
  403724: 92800108     	mov	x8, #-0x9               // =-9
  403728: 92800110     	mov	x16, #-0x9              // =-9
  40372c: d4000001     	svc	#0
  403730: aa0903e0     	mov	x0, x9
  403734: 92800108     	mov	x8, #-0x9               // =-9
  403738: 92800110     	mov	x16, #-0x9              // =-9
  40373c: d4000001     	svc	#0
  403740: aa0903e0     	mov	x0, x9
  403744: 92800108     	mov	x8, #-0x9               // =-9
  403748: 92800110     	mov	x16, #-0x9              // =-9
  40374c: d4000001     	svc	#0
  403750: aa0903e0     	mov	x0, x9
  403754: 92800108     	mov	x8, #-0x9               // =-9
  403758: 92800110     	mov	x16, #-0x9              // =-9
  40375c: d4000001     	svc	#0
  403760: aa0903e0     	mov	x0, x9
  403764: 92800108     	mov	x8, #-0x9               // =-9
  403768: 92800110     	mov	x16, #-0x9              // =-9
  40376c: d4000001     	svc	#0
  403770: aa0903e0     	mov	x0, x9
  403774: 92800108     	mov	x8, #-0x9               // =-9
  403778: 92800110     	mov	x16, #-0x9              // =-9
  40377c: d4000001     	svc	#0
  403780: aa0903e0     	mov	x0, x9
  403784: 92800108     	mov	x8, #-0x9               // =-9
  403788: 92800110     	mov	x16, #-0x9              // =-9
  40378c: d4000001     	svc	#0
  403790: aa0903e0     	mov	x0, x9
  403794: 92800108     	mov	x8, #-0x9               // =-9
  403798: 92800110     	mov	x16, #-0x9              // =-9
  40379c: d4000001     	svc	#0
  4037a0: aa0903e0     	mov	x0, x9
  4037a4: 92800108     	mov	x8, #-0x9               // =-9
  4037a8: 92800110     	mov	x16, #-0x9              // =-9
  4037ac: d4000001     	svc	#0
  4037b0: aa0903e0     	mov	x0, x9
  4037b4: 92800108     	mov	x8, #-0x9               // =-9
  4037b8: 92800110     	mov	x16, #-0x9              // =-9
  4037bc: d4000001     	svc	#0
  4037c0: aa0903e0     	mov	x0, x9
  4037c4: 92800108     	mov	x8, #-0x9               // =-9
  4037c8: 92800110     	mov	x16, #-0x9              // =-9
  4037cc: d4000001     	svc	#0
  4037d0: aa0903e0     	mov	x0, x9
  4037d4: 92800108     	mov	x8, #-0x9               // =-9
  4037d8: 92800110     	mov	x16, #-0x9              // =-9
  4037dc: d4000001     	svc	#0
  4037e0: aa0903e0     	mov	x0, x9
  4037e4: 92800108     	mov	x8, #-0x9               // =-9
  4037e8: 92800110     	mov	x16, #-0x9              // =-9
  4037ec: d4000001     	svc	#0
  4037f0: aa0903e0     	mov	x0, x9
  4037f4: 92800108     	mov	x8, #-0x9               // =-9
  4037f8: 92800110     	mov	x16, #-0x9              // =-9
  4037fc: d4000001     	svc	#0
  403800: aa0903e0     	mov	x0, x9
  403804: 92800108     	mov	x8, #-0x9               // =-9
  403808: 92800110     	mov	x16, #-0x9              // =-9
  40380c: d4000001     	svc	#0
  403810: aa0903e0     	mov	x0, x9
  403814: 92800108     	mov	x8, #-0x9               // =-9
  403818: 92800110     	mov	x16, #-0x9              // =-9
  40381c: d4000001     	svc	#0
  403820: aa0803e0     	mov	x0, x8
  403824: 92800108     	mov	x8, #-0x9               // =-9
  403828: 92800110     	mov	x16, #-0x9              // =-9
  40382c: d4000001     	svc	#0
  403830: a9434ff4     	ldp	x20, x19, [sp, #0x30]
  403834: a94257fe     	ldp	x30, x21, [sp, #0x20]
  403838: 910103ff     	add	sp, sp, #0x40
  40383c: d65f03c0     	ret
  403840: 94000db0     	bl	0x406f00 <_ZN12cohesix_root10lang_items11alloc_error17hc9d76ef5e243e316E>

0000000000403844 <_ZN12cohesix_root9exec_init17h355255ea938d66f6E>:
  403844: f81f0ffe     	str	x30, [sp, #-0x10]!
  403848: 90000040     	adrp	x0, 0x40b000 <_ZN12cohesix_root17ROOTSERVER_ONLINE17h1dda28d86f6d4332E+0x428>
  40384c: 91001000     	add	x0, x0, #0x4
  403850: 97fffbda     	bl	0x4027b8 <coh_exec>
  403854: 34000b20     	cbz	w0, 0x4039b8 <_ZN12cohesix_root9exec_init17h355255ea938d66f6E+0x174>
  403858: 52800cc8     	mov	w8, #0x66               // =102
  40385c: aa0803e0     	mov	x0, x8
  403860: 92800108     	mov	x8, #-0x9               // =-9
  403864: 92800110     	mov	x16, #-0x9              // =-9
  403868: d4000001     	svc	#0
  40386c: 52800c29     	mov	w9, #0x61               // =97
  403870: aa0903e0     	mov	x0, x9
  403874: 92800108     	mov	x8, #-0x9               // =-9
  403878: 92800110     	mov	x16, #-0x9              // =-9
  40387c: d4000001     	svc	#0
  403880: 52800e8a     	mov	w10, #0x74              // =116
  403884: 5280074b     	mov	w11, #0x3a              // =58
  403888: aa0a03e0     	mov	x0, x10
  40388c: 92800108     	mov	x8, #-0x9               // =-9
  403890: 92800110     	mov	x16, #-0x9              // =-9
  403894: d4000001     	svc	#0
  403898: 52800d8a     	mov	w10, #0x6c              // =108
  40389c: 52800cac     	mov	w12, #0x65              // =101
  4038a0: aa0903e0     	mov	x0, x9
  4038a4: 92800108     	mov	x8, #-0x9               // =-9
  4038a8: 92800110     	mov	x16, #-0x9              // =-9
  4038ac: d4000001     	svc	#0
  4038b0: 52800f0d     	mov	w13, #0x78              // =120
  4038b4: aa0a03e0     	mov	x0, x10
  4038b8: 92800108     	mov	x8, #-0x9               // =-9
  4038bc: 92800110     	mov	x16, #-0x9              // =-9
  4038c0: d4000001     	svc	#0
  4038c4: aa0b03e0     	mov	x0, x11
  4038c8: 92800108     	mov	x8, #-0x9               // =-9
  4038cc: 92800110     	mov	x16, #-0x9              // =-9
  4038d0: d4000001     	svc	#0
  4038d4: 5280040b     	mov	w11, #0x20              // =32
  4038d8: aa0b03e0     	mov	x0, x11
  4038dc: 92800108     	mov	x8, #-0x9               // =-9
  4038e0: 92800110     	mov	x16, #-0x9              // =-9
  4038e4: d4000001     	svc	#0
  4038e8: aa0c03e0     	mov	x0, x12
  4038ec: 92800108     	mov	x8, #-0x9               // =-9
  4038f0: 92800110     	mov	x16, #-0x9              // =-9
  4038f4: d4000001     	svc	#0
  4038f8: aa0d03e0     	mov	x0, x13
  4038fc: 92800108     	mov	x8, #-0x9               // =-9
  403900: 92800110     	mov	x16, #-0x9              // =-9
  403904: d4000001     	svc	#0
  403908: 52800c6d     	mov	w13, #0x63              // =99
  40390c: aa0c03e0     	mov	x0, x12
  403910: 92800108     	mov	x8, #-0x9               // =-9
  403914: 92800110     	mov	x16, #-0x9              // =-9
  403918: d4000001     	svc	#0
  40391c: aa0d03e0     	mov	x0, x13
  403920: 92800108     	mov	x8, #-0x9               // =-9
  403924: 92800110     	mov	x16, #-0x9              // =-9
  403928: d4000001     	svc	#0
  40392c: aa0b03e0     	mov	x0, x11
  403930: 92800108     	mov	x8, #-0x9               // =-9
  403934: 92800110     	mov	x16, #-0x9              // =-9
  403938: d4000001     	svc	#0
  40393c: aa0803e0     	mov	x0, x8
  403940: 92800108     	mov	x8, #-0x9               // =-9
  403944: 92800110     	mov	x16, #-0x9              // =-9
  403948: d4000001     	svc	#0
  40394c: 52800d28     	mov	w8, #0x69               // =105
  403950: aa0903e0     	mov	x0, x9
  403954: 92800108     	mov	x8, #-0x9               // =-9
  403958: 92800110     	mov	x16, #-0x9              // =-9
  40395c: d4000001     	svc	#0
  403960: aa0803e0     	mov	x0, x8
  403964: 92800108     	mov	x8, #-0x9               // =-9
  403968: 92800110     	mov	x16, #-0x9              // =-9
  40396c: d4000001     	svc	#0
  403970: 52800c88     	mov	w8, #0x64               // =100
  403974: aa0a03e0     	mov	x0, x10
  403978: 92800108     	mov	x8, #-0x9               // =-9
  40397c: 92800110     	mov	x16, #-0x9              // =-9
  403980: d4000001     	svc	#0
  403984: aa0c03e0     	mov	x0, x12
  403988: 92800108     	mov	x8, #-0x9               // =-9
  40398c: 92800110     	mov	x16, #-0x9              // =-9
  403990: d4000001     	svc	#0
  403994: aa0803e0     	mov	x0, x8
  403998: 92800108     	mov	x8, #-0x9               // =-9
  40399c: 92800110     	mov	x16, #-0x9              // =-9
  4039a0: d4000001     	svc	#0
  4039a4: 52800148     	mov	w8, #0xa                // =10
  4039a8: aa0803e0     	mov	x0, x8
  4039ac: 92800108     	mov	x8, #-0x9               // =-9
  4039b0: 92800110     	mov	x16, #-0x9              // =-9
  4039b4: d4000001     	svc	#0
  4039b8: 52800cc8     	mov	w8, #0x66               // =102
  4039bc: 52800c29     	mov	w9, #0x61               // =97
  4039c0: 52800e8a     	mov	w10, #0x74              // =116
  4039c4: 52800d8b     	mov	w11, #0x6c              // =108
  4039c8: 5280074c     	mov	w12, #0x3a              // =58
  4039cc: 5280040d     	mov	w13, #0x20              // =32
  4039d0: 52800cae     	mov	w14, #0x65              // =101
  4039d4: 52800f0f     	mov	w15, #0x78              // =120
  4039d8: 52800c70     	mov	w16, #0x63              // =99
  4039dc: 52800d31     	mov	w17, #0x69              // =105
  4039e0: 52800c92     	mov	w18, #0x64              // =100
  4039e4: 52800140     	mov	w0, #0xa                // =10
  4039e8: aa0803e0     	mov	x0, x8
  4039ec: 92800108     	mov	x8, #-0x9               // =-9
  4039f0: 92800110     	mov	x16, #-0x9              // =-9
  4039f4: d4000001     	svc	#0
  4039f8: aa0903e0     	mov	x0, x9
  4039fc: 92800108     	mov	x8, #-0x9               // =-9
  403a00: 92800110     	mov	x16, #-0x9              // =-9
  403a04: d4000001     	svc	#0
  403a08: aa0a03e0     	mov	x0, x10
  403a0c: 92800108     	mov	x8, #-0x9               // =-9
  403a10: 92800110     	mov	x16, #-0x9              // =-9
  403a14: d4000001     	svc	#0
  403a18: aa0903e0     	mov	x0, x9
  403a1c: 92800108     	mov	x8, #-0x9               // =-9
  403a20: 92800110     	mov	x16, #-0x9              // =-9
  403a24: d4000001     	svc	#0
  403a28: aa0b03e0     	mov	x0, x11
  403a2c: 92800108     	mov	x8, #-0x9               // =-9
  403a30: 92800110     	mov	x16, #-0x9              // =-9
  403a34: d4000001     	svc	#0
  403a38: aa0c03e0     	mov	x0, x12
  403a3c: 92800108     	mov	x8, #-0x9               // =-9
  403a40: 92800110     	mov	x16, #-0x9              // =-9
  403a44: d4000001     	svc	#0
  403a48: aa0d03e0     	mov	x0, x13
  403a4c: 92800108     	mov	x8, #-0x9               // =-9
  403a50: 92800110     	mov	x16, #-0x9              // =-9
  403a54: d4000001     	svc	#0
  403a58: aa0e03e0     	mov	x0, x14
  403a5c: 92800108     	mov	x8, #-0x9               // =-9
  403a60: 92800110     	mov	x16, #-0x9              // =-9
  403a64: d4000001     	svc	#0
  403a68: aa0f03e0     	mov	x0, x15
  403a6c: 92800108     	mov	x8, #-0x9               // =-9
  403a70: 92800110     	mov	x16, #-0x9              // =-9
  403a74: d4000001     	svc	#0
  403a78: aa0e03e0     	mov	x0, x14
  403a7c: 92800108     	mov	x8, #-0x9               // =-9
  403a80: 92800110     	mov	x16, #-0x9              // =-9
  403a84: d4000001     	svc	#0
  403a88: aa1003e0     	mov	x0, x16
  403a8c: 92800108     	mov	x8, #-0x9               // =-9
  403a90: 92800110     	mov	x16, #-0x9              // =-9
  403a94: d4000001     	svc	#0
  403a98: aa0d03e0     	mov	x0, x13
  403a9c: 92800108     	mov	x8, #-0x9               // =-9
  403aa0: 92800110     	mov	x16, #-0x9              // =-9
  403aa4: d4000001     	svc	#0
  403aa8: aa0803e0     	mov	x0, x8
  403aac: 92800108     	mov	x8, #-0x9               // =-9
  403ab0: 92800110     	mov	x16, #-0x9              // =-9
  403ab4: d4000001     	svc	#0
  403ab8: aa0903e0     	mov	x0, x9
  403abc: 92800108     	mov	x8, #-0x9               // =-9
  403ac0: 92800110     	mov	x16, #-0x9              // =-9
  403ac4: d4000001     	svc	#0
  403ac8: aa1103e0     	mov	x0, x17
  403acc: 92800108     	mov	x8, #-0x9               // =-9
  403ad0: 92800110     	mov	x16, #-0x9              // =-9
  403ad4: d4000001     	svc	#0
  403ad8: aa0b03e0     	mov	x0, x11
  403adc: 92800108     	mov	x8, #-0x9               // =-9
  403ae0: 92800110     	mov	x16, #-0x9              // =-9
  403ae4: d4000001     	svc	#0
  403ae8: aa0e03e0     	mov	x0, x14
  403aec: 92800108     	mov	x8, #-0x9               // =-9
  403af0: 92800110     	mov	x16, #-0x9              // =-9
  403af4: d4000001     	svc	#0
  403af8: aa1203e0     	mov	x0, x18
  403afc: 92800108     	mov	x8, #-0x9               // =-9
  403b00: 92800110     	mov	x16, #-0x9              // =-9
  403b04: d4000001     	svc	#0
  403b08: aa0003e0     	mov	x0, x0
  403b0c: 92800108     	mov	x8, #-0x9               // =-9
  403b10: 92800110     	mov	x16, #-0x9              // =-9
  403b14: d4000001     	svc	#0
  403b18: d5033fdf     	isb
  403b1c: 17ffffb3     	b	0x4039e8 <_ZN12cohesix_root9exec_init17h355255ea938d66f6E+0x1a4>

0000000000403b20 <main>:
  403b20: fc190fe8     	str	d8, [sp, #-0x70]!
  403b24: a9017bfd     	stp	x29, x30, [sp, #0x10]
  403b28: a9026ffc     	stp	x28, x27, [sp, #0x20]
  403b2c: a90367fa     	stp	x26, x25, [sp, #0x30]
  403b30: a9045ff8     	stp	x24, x23, [sp, #0x40]
  403b34: a90557f6     	stp	x22, x21, [sp, #0x50]
  403b38: a9064ff4     	stp	x20, x19, [sp, #0x60]
  403b3c: d10743ff     	sub	sp, sp, #0x1d0
  403b40: 52800a48     	mov	w8, #0x52               // =82
  403b44: aa0803e0     	mov	x0, x8
  403b48: 92800108     	mov	x8, #-0x9               // =-9
  403b4c: 92800110     	mov	x16, #-0x9              // =-9
  403b50: d4000001     	svc	#0
  403b54: 528009e9     	mov	w9, #0x4f               // =79
  403b58: aa0903e0     	mov	x0, x9
  403b5c: 92800108     	mov	x8, #-0x9               // =-9
  403b60: 92800110     	mov	x16, #-0x9              // =-9
  403b64: d4000001     	svc	#0
  403b68: 52800a8a     	mov	w10, #0x54              // =84
  403b6c: 52800acb     	mov	w11, #0x56              // =86
  403b70: aa0903e0     	mov	x0, x9
  403b74: 92800108     	mov	x8, #-0x9               // =-9
  403b78: 92800110     	mov	x16, #-0x9              // =-9
  403b7c: d4000001     	svc	#0
  403b80: d503201f     	nop
  403b84: 10072438     	adr	x24, 0x412008 <__bss_end>
  403b88: aa0a03e0     	mov	x0, x10
  403b8c: 92800108     	mov	x8, #-0x9               // =-9
  403b90: 92800110     	mov	x16, #-0x9              // =-9
  403b94: d4000001     	svc	#0
  403b98: 52800a6a     	mov	w10, #0x53              // =83
  403b9c: d503201f     	nop
  403ba0: 1005a30e     	adr	x14, 0x40f000 <__bss_start>
  403ba4: aa0a03e0     	mov	x0, x10
  403ba8: 92800108     	mov	x8, #-0x9               // =-9
  403bac: 92800110     	mov	x16, #-0x9              // =-9
  403bb0: d4000001     	svc	#0
  403bb4: 528008aa     	mov	w10, #0x45              // =69
  403bb8: aa0a03e0     	mov	x0, x10
  403bbc: 92800108     	mov	x8, #-0x9               // =-9
  403bc0: 92800110     	mov	x16, #-0x9              // =-9
  403bc4: d4000001     	svc	#0
  403bc8: d503201f     	nop
  403bcc: 1002423a     	adr	x26, 0x408410 <_ZN4core3fmt3num55_$LT$impl$u20$core..fmt..LowerHex$u20$for$u20$usize$GT$3fmt17h5a890080aa137826E>
  403bd0: aa0803e0     	mov	x0, x8
  403bd4: 92800108     	mov	x8, #-0x9               // =-9
  403bd8: 92800110     	mov	x16, #-0x9              // =-9
  403bdc: d4000001     	svc	#0
  403be0: aa0b03e0     	mov	x0, x11
  403be4: 92800108     	mov	x8, #-0x9               // =-9
  403be8: 92800110     	mov	x16, #-0x9              // =-9
  403bec: d4000001     	svc	#0
  403bf0: aa0a03e0     	mov	x0, x10
  403bf4: 92800108     	mov	x8, #-0x9               // =-9
  403bf8: 92800110     	mov	x16, #-0x9              // =-9
  403bfc: d4000001     	svc	#0
  403c00: aa0803e0     	mov	x0, x8
  403c04: 92800108     	mov	x8, #-0x9               // =-9
  403c08: 92800110     	mov	x16, #-0x9              // =-9
  403c0c: d4000001     	svc	#0
  403c10: 52800408     	mov	w8, #0x20               // =32
  403c14: aa0803e0     	mov	x0, x8
  403c18: 92800108     	mov	x8, #-0x9               // =-9
  403c1c: 92800110     	mov	x16, #-0x9              // =-9
  403c20: d4000001     	svc	#0
  403c24: 528009c8     	mov	w8, #0x4e               // =78
  403c28: aa0903e0     	mov	x0, x9
  403c2c: 92800108     	mov	x8, #-0x9               // =-9
  403c30: 92800110     	mov	x16, #-0x9              // =-9
  403c34: d4000001     	svc	#0
  403c38: 52800989     	mov	w9, #0x4c               // =76
  403c3c: aa0803e0     	mov	x0, x8
  403c40: 92800108     	mov	x8, #-0x9               // =-9
  403c44: 92800110     	mov	x16, #-0x9              // =-9
  403c48: d4000001     	svc	#0
  403c4c: aa0903e0     	mov	x0, x9
  403c50: 92800108     	mov	x8, #-0x9               // =-9
  403c54: 92800110     	mov	x16, #-0x9              // =-9
  403c58: d4000001     	svc	#0
  403c5c: 52800929     	mov	w9, #0x49               // =73
  403c60: aa0903e0     	mov	x0, x9
  403c64: 92800108     	mov	x8, #-0x9               // =-9
  403c68: 92800110     	mov	x16, #-0x9              // =-9
  403c6c: d4000001     	svc	#0
  403c70: aa0803e0     	mov	x0, x8
  403c74: 92800108     	mov	x8, #-0x9               // =-9
  403c78: 92800110     	mov	x16, #-0x9              // =-9
  403c7c: d4000001     	svc	#0
  403c80: 52800148     	mov	w8, #0xa                // =10
  403c84: aa0a03e0     	mov	x0, x10
  403c88: 92800108     	mov	x8, #-0x9               // =-9
  403c8c: 92800110     	mov	x16, #-0x9              // =-9
  403c90: d4000001     	svc	#0
  403c94: aa0803e0     	mov	x0, x8
  403c98: 92800108     	mov	x8, #-0x9               // =-9
  403c9c: 92800110     	mov	x16, #-0x9              // =-9
  403ca0: d4000001     	svc	#0
  403ca4: eb1801df     	cmp	x14, x24
  403ca8: 540004e2     	b.hs	0x403d44 <main+0x224>
  403cac: d503201f     	nop
  403cb0: 10059a8a     	adr	x10, 0x40f000 <__bss_start>
  403cb4: aa1f03e8     	mov	x8, xzr
  403cb8: aa1f03e9     	mov	x9, xzr
  403cbc: aa0a03eb     	mov	x11, x10
  403cc0: 3840156c     	ldrb	w12, [x11], #0x1
  403cc4: f100011f     	cmp	x8, #0x0
  403cc8: 1a9f17ed     	cset	w13, eq
  403ccc: 7100019f     	cmp	w12, #0x0
  403cd0: 1a9f07ec     	cset	w12, ne
  403cd4: 9a880508     	cinc	x8, x8, ne
  403cd8: 6a0d019f     	tst	w12, w13
  403cdc: 9a891149     	csel	x9, x10, x9, ne
  403ce0: 9100054a     	add	x10, x10, #0x1
  403ce4: eb0a031f     	cmp	x24, x10
  403ce8: 54fffec1     	b.ne	0x403cc0 <main+0x1a0>
  403cec: f9005be8     	str	x8, [sp, #0xb0]
  403cf0: f9001be9     	str	x9, [sp, #0x30]
  403cf4: b40002c8     	cbz	x8, 0x403d4c <main+0x22c>
  403cf8: 9100c3e8     	add	x8, sp, #0x30
  403cfc: d503201f     	nop
  403d00: 1001a3c9     	adr	x9, 0x407178 <_ZN4core3fmt3num3imp54_$LT$impl$u20$core..fmt..Display$u20$for$u20$usize$GT$3fmt17h3b552058fef45ba7E>
  403d04: a904ebe8     	stp	x8, x26, [sp, #0x48]
  403d08: 9102c3e8     	add	x8, sp, #0xb0
  403d0c: a905a7e8     	stp	x8, x9, [sp, #0x58]
  403d10: d503201f     	nop
  403d14: 100385a8     	adr	x8, 0x40adc8 <_ZN12cohesix_root17ROOTSERVER_ONLINE17h1dda28d86f6d4332E+0x1f0>
  403d18: 52800049     	mov	w9, #0x2                // =2
  403d1c: a90d27e8     	stp	x8, x9, [sp, #0xd0]
  403d20: d503201f     	nop
  403d24: 10038628     	adr	x8, 0x40ade8 <_ZN12cohesix_root17ROOTSERVER_ONLINE17h1dda28d86f6d4332E+0x210>
  403d28: a90f27e8     	stp	x8, x9, [sp, #0xf0]
  403d2c: 910123e8     	add	x8, sp, #0x48
  403d30: a90e27e8     	stp	x8, x9, [sp, #0xe0]
  403d34: 91077fe0     	add	x0, sp, #0x1df
  403d38: 910343e1     	add	x1, sp, #0xd0
  403d3c: 97fff565     	bl	0x4012d0 <_ZN75_$LT$$RF$mut$u20$W$u20$as$u20$core..fmt..Write..write_fmt..SpecWriteFmt$GT$14spec_write_fmt17hca4abb18532e998bE>
  403d40: 94000d5a     	bl	0x4072a8 <_ZN4core9panicking9panic_fmt17h7d27c6f13468728dE>
  403d44: f9005bff     	str	xzr, [sp, #0xb0]
  403d48: f9001bff     	str	xzr, [sp, #0x30]
  403d4c: 52800c48     	mov	w8, #0x62               // =98
  403d50: aa0803e0     	mov	x0, x8
  403d54: 92800108     	mov	x8, #-0x9               // =-9
  403d58: 92800110     	mov	x16, #-0x9              // =-9
  403d5c: d4000001     	svc	#0
  403d60: 52800e69     	mov	w9, #0x73               // =115
  403d64: aa0903e0     	mov	x0, x9
  403d68: 92800108     	mov	x8, #-0x9               // =-9
  403d6c: 92800110     	mov	x16, #-0x9              // =-9
  403d70: d4000001     	svc	#0
  403d74: 52800be8     	mov	w8, #0x5f               // =95
  403d78: 52800caa     	mov	w10, #0x65              // =101
  403d7c: aa0903e0     	mov	x0, x9
  403d80: 92800108     	mov	x8, #-0x9               // =-9
  403d84: 92800110     	mov	x16, #-0x9              // =-9
  403d88: d4000001     	svc	#0
  403d8c: 52800f49     	mov	w9, #0x7a               // =122
  403d90: d503201f     	nop
  403d94: 1008137b     	adr	x27, 0x414000 <__heap_start>
  403d98: aa0803e0     	mov	x0, x8
  403d9c: 92800108     	mov	x8, #-0x9               // =-9
  403da0: 92800110     	mov	x16, #-0x9              // =-9
  403da4: d4000001     	svc	#0
  403da8: d503201f     	nop
  403dac: 104812b6     	adr	x22, 0x494000 <__heap_end>
  403db0: aa0903e0     	mov	x0, x9
  403db4: 92800108     	mov	x8, #-0x9               // =-9
  403db8: 92800110     	mov	x16, #-0x9              // =-9
  403dbc: d4000001     	svc	#0
  403dc0: 52800e49     	mov	w9, #0x72               // =114
  403dc4: aa0a03e0     	mov	x0, x10
  403dc8: 92800108     	mov	x8, #-0x9               // =-9
  403dcc: 92800110     	mov	x16, #-0x9              // =-9
  403dd0: d4000001     	svc	#0
  403dd4: 52800dea     	mov	w10, #0x6f              // =111
  403dd8: d503201f     	nop
  403ddc: 10509135     	adr	x21, 0x4a5000 <__stack_end>
  403de0: aa0903e0     	mov	x0, x9
  403de4: 92800108     	mov	x8, #-0x9               // =-9
  403de8: 92800110     	mov	x16, #-0x9              // =-9
  403dec: d4000001     	svc	#0
  403df0: 52800149     	mov	w9, #0xa                // =10
  403df4: aa0a03e0     	mov	x0, x10
  403df8: 92800108     	mov	x8, #-0x9               // =-9
  403dfc: 92800110     	mov	x16, #-0x9              // =-9
  403e00: d4000001     	svc	#0
  403e04: 9100c3f3     	add	x19, sp, #0x30
  403e08: 9102c3f4     	add	x20, sp, #0xb0
  403e0c: aa0803e0     	mov	x0, x8
  403e10: 92800108     	mov	x8, #-0x9               // =-9
  403e14: 92800110     	mov	x16, #-0x9              // =-9
  403e18: d4000001     	svc	#0
  403e1c: 52800d68     	mov	w8, #0x6b               // =107
  403e20: 910343f9     	add	x25, sp, #0xd0
  403e24: aa0a03e0     	mov	x0, x10
  403e28: 92800108     	mov	x8, #-0x9               // =-9
  403e2c: 92800110     	mov	x16, #-0x9              // =-9
  403e30: d4000001     	svc	#0
  403e34: 91077fe0     	add	x0, sp, #0x1df
  403e38: 910123e1     	add	x1, sp, #0x48
  403e3c: aa0803e0     	mov	x0, x8
  403e40: 92800108     	mov	x8, #-0x9               // =-9
  403e44: 92800110     	mov	x16, #-0x9              // =-9
  403e48: d4000001     	svc	#0
  403e4c: d503201f     	nop
  403e50: 10488d88     	adr	x8, 0x495000 <__stack_start>
  403e54: aa0903e0     	mov	x0, x9
  403e58: 92800108     	mov	x8, #-0x9               // =-9
  403e5c: 92800110     	mov	x16, #-0x9              // =-9
  403e60: d4000001     	svc	#0
  403e64: a902a3ee     	stp	x14, x8, [sp, #0x28]
  403e68: 9100a3e8     	add	x8, sp, #0x28
  403e6c: a90d6be8     	stp	x8, x26, [sp, #0xd0]
  403e70: 910283e8     	add	x8, sp, #0xa0
  403e74: 528000c9     	mov	w9, #0x6                // =6
  403e78: a90e6be8     	stp	x8, x26, [sp, #0xe0]
  403e7c: 9102a3e8     	add	x8, sp, #0xa8
  403e80: a90f6be8     	stp	x8, x26, [sp, #0xf0]
  403e84: 910243e8     	add	x8, sp, #0x90
  403e88: a9106be8     	stp	x8, x26, [sp, #0x100]
  403e8c: d503201f     	nop
  403e90: 10036cc8     	adr	x8, 0x40ac28 <_ZN12cohesix_root17ROOTSERVER_ONLINE17h1dda28d86f6d4332E+0x50>
  403e94: a904a7e8     	stp	x8, x9, [sp, #0x48]
  403e98: d503201f     	nop
  403e9c: 10036f68     	adr	x8, 0x40ac88 <_ZN12cohesix_root17ROOTSERVER_ONLINE17h1dda28d86f6d4332E+0xb0>
  403ea0: a90a6ff8     	stp	x24, x27, [sp, #0xa0]
  403ea4: f9004bf6     	str	x22, [sp, #0x90]
  403ea8: f9005bf5     	str	x21, [sp, #0xb0]
  403eac: a9116bf3     	stp	x19, x26, [sp, #0x110]
  403eb0: a9126bf4     	stp	x20, x26, [sp, #0x120]
  403eb4: a906a7e8     	stp	x8, x9, [sp, #0x68]
  403eb8: a905a7f9     	stp	x25, x9, [sp, #0x58]
  403ebc: 94000f4b     	bl	0x407be8 <_ZN4core3fmt5write17hf7092a74ebbf9db4E>
  403ec0: 910043e8     	add	x8, sp, #0x10
  403ec4: d503201f     	nop
  403ec8: 100589dd     	adr	x29, 0x40f000 <__bss_start>
  403ecc: a90d6be8     	stp	x8, x26, [sp, #0xd0]
  403ed0: 910063e8     	add	x8, sp, #0x18
  403ed4: 52800069     	mov	w9, #0x3                // =3
  403ed8: a90e6be8     	stp	x8, x26, [sp, #0xe0]
  403edc: d503201f     	nop
  403ee0: 100390c8     	adr	x8, 0x40b0f8 <_ZN12cohesix_root17ROOTSERVER_ONLINE17h1dda28d86f6d4332E+0x520>
  403ee4: d503201f     	nop
  403ee8: 10038217     	adr	x23, 0x40af28 <_ZN12cohesix_root17ROOTSERVER_ONLINE17h1dda28d86f6d4332E+0x350>
  403eec: 91077fe0     	add	x0, sp, #0x1df
  403ef0: 910123e1     	add	x1, sp, #0x48
  403ef4: a9015bfb     	stp	x27, x22, [sp, #0x10]
  403ef8: f9005bfd     	str	x29, [sp, #0xb0]
  403efc: a90f6bf4     	stp	x20, x26, [sp, #0xf0]
  403f00: a904a7e8     	stp	x8, x9, [sp, #0x48]
  403f04: a906a7f7     	stp	x23, x9, [sp, #0x68]
  403f08: a905a7f9     	stp	x25, x9, [sp, #0x58]
  403f0c: 910123f9     	add	x25, sp, #0x48
  403f10: 94000f36     	bl	0x407be8 <_ZN4core3fmt5write17hf7092a74ebbf9db4E>
  403f14: eb16037f     	cmp	x27, x22
  403f18: f9001bfb     	str	x27, [sp, #0x30]
  403f1c: f9005bf6     	str	x22, [sp, #0xb0]
  403f20: 54012ca2     	b.hs	0x4064b4 <main+0x2994>
  403f24: 90000068     	adrp	x8, 0x40f000 <__bss_start>
  403f28: 90000069     	adrp	x9, 0x40f000 <__bss_start>
  403f2c: 9000006a     	adrp	x10, 0x40f000 <__bss_start>
  403f30: f9400508     	ldr	x8, [x8, #0x8]
  403f34: f9400929     	ldr	x9, [x9, #0x10]
  403f38: f9400d4a     	ldr	x10, [x10, #0x18]
  403f3c: b5012948     	cbnz	x8, 0x406464 <main+0x2944>
  403f40: b5012929     	cbnz	x9, 0x406464 <main+0x2944>
  403f44: b501290a     	cbnz	x10, 0x406464 <main+0x2944>
  403f48: 52800c48     	mov	w8, #0x62               // =98
  403f4c: aa0803e0     	mov	x0, x8
  403f50: 92800108     	mov	x8, #-0x9               // =-9
  403f54: 92800110     	mov	x16, #-0x9              // =-9
  403f58: d4000001     	svc	#0
  403f5c: 52800de9     	mov	w9, #0x6f               // =111
  403f60: aa0903e0     	mov	x0, x9
  403f64: 92800108     	mov	x8, #-0x9               // =-9
  403f68: 92800110     	mov	x16, #-0x9              // =-9
  403f6c: d4000001     	svc	#0
  403f70: 52800e9c     	mov	w28, #0x74              // =116
  403f74: 52800bea     	mov	w10, #0x5f              // =95
  403f78: aa0903e0     	mov	x0, x9
  403f7c: 92800108     	mov	x8, #-0x9               // =-9
  403f80: 92800110     	mov	x16, #-0x9              // =-9
  403f84: d4000001     	svc	#0
  403f88: 52800de9     	mov	w9, #0x6f               // =111
  403f8c: 52800e6f     	mov	w15, #0x73              // =115
  403f90: aa1c03e0     	mov	x0, x28
  403f94: 92800108     	mov	x8, #-0x9               // =-9
  403f98: 92800110     	mov	x16, #-0x9              // =-9
  403f9c: d4000001     	svc	#0
  403fa0: 52800cb0     	mov	w16, #0x65              // =101
  403fa4: 52800c39     	mov	w25, #0x61              // =97
  403fa8: aa0a03e0     	mov	x0, x10
  403fac: 92800108     	mov	x8, #-0x9               // =-9
  403fb0: 92800110     	mov	x16, #-0x9              // =-9
  403fb4: d4000001     	svc	#0
  403fb8: 52800d6a     	mov	w10, #0x6b              // =107
  403fbc: 52800dee     	mov	w14, #0x6f              // =111
  403fc0: aa0903e0     	mov	x0, x9
  403fc4: 92800108     	mov	x8, #-0x9               // =-9
  403fc8: 92800110     	mov	x16, #-0x9              // =-9
  403fcc: d4000001     	svc	#0
  403fd0: 52800749     	mov	w9, #0x3a               // =58
  403fd4: 52800e71     	mov	w17, #0x73              // =115
  403fd8: aa0a03e0     	mov	x0, x10
  403fdc: 92800108     	mov	x8, #-0x9               // =-9
  403fe0: 92800110     	mov	x16, #-0x9              // =-9
  403fe4: d4000001     	svc	#0
  403fe8: 5280040a     	mov	w10, #0x20              // =32
  403fec: 9102c3f4     	add	x20, sp, #0xb0
  403ff0: aa0903e0     	mov	x0, x9
  403ff4: 92800108     	mov	x8, #-0x9               // =-9
  403ff8: 92800110     	mov	x16, #-0x9              // =-9
  403ffc: d4000001     	svc	#0
  404000: 52800589     	mov	w9, #0x2c               // =44
  404004: 910343f3     	add	x19, sp, #0xd0
  404008: aa0a03e0     	mov	x0, x10
  40400c: 92800108     	mov	x8, #-0x9               // =-9
  404010: 92800110     	mov	x16, #-0x9              // =-9
  404014: d4000001     	svc	#0
  404018: 91077fe0     	add	x0, sp, #0x1df
  40401c: 910123e1     	add	x1, sp, #0x48
  404020: aa0803e0     	mov	x0, x8
  404024: 92800108     	mov	x8, #-0x9               // =-9
  404028: 92800110     	mov	x16, #-0x9              // =-9
  40402c: d4000001     	svc	#0
  404030: aa0f03e0     	mov	x0, x15
  404034: 92800108     	mov	x8, #-0x9               // =-9
  404038: 92800110     	mov	x16, #-0x9              // =-9
  40403c: d4000001     	svc	#0
  404040: aa0f03e0     	mov	x0, x15
  404044: 92800108     	mov	x8, #-0x9               // =-9
  404048: 92800110     	mov	x16, #-0x9              // =-9
  40404c: d4000001     	svc	#0
  404050: 52800d0f     	mov	w15, #0x68              // =104
  404054: aa0903e0     	mov	x0, x9
  404058: 92800108     	mov	x8, #-0x9               // =-9
  40405c: 92800110     	mov	x16, #-0x9              // =-9
  404060: d4000001     	svc	#0
  404064: aa0a03e0     	mov	x0, x10
  404068: 92800108     	mov	x8, #-0x9               // =-9
  40406c: 92800110     	mov	x16, #-0x9              // =-9
  404070: d4000001     	svc	#0
  404074: aa0f03e0     	mov	x0, x15
  404078: 92800108     	mov	x8, #-0x9               // =-9
  40407c: 92800110     	mov	x16, #-0x9              // =-9
  404080: d4000001     	svc	#0
  404084: 52800e0f     	mov	w15, #0x70              // =112
  404088: aa1003e0     	mov	x0, x16
  40408c: 92800108     	mov	x8, #-0x9               // =-9
  404090: 92800110     	mov	x16, #-0x9              // =-9
  404094: d4000001     	svc	#0
  404098: 52800cb0     	mov	w16, #0x65              // =101
  40409c: aa1903e0     	mov	x0, x25
  4040a0: 92800108     	mov	x8, #-0x9               // =-9
  4040a4: 92800110     	mov	x16, #-0x9              // =-9
  4040a8: d4000001     	svc	#0
  4040ac: aa0f03e0     	mov	x0, x15
  4040b0: 92800108     	mov	x8, #-0x9               // =-9
  4040b4: 92800110     	mov	x16, #-0x9              // =-9
  4040b8: d4000001     	svc	#0
  4040bc: 52800d8f     	mov	w15, #0x6c              // =108
  4040c0: aa0903e0     	mov	x0, x9
  4040c4: 92800108     	mov	x8, #-0x9               // =-9
  4040c8: 92800110     	mov	x16, #-0x9              // =-9
  4040cc: d4000001     	svc	#0
  4040d0: 52800ce9     	mov	w9, #0x67               // =103
  4040d4: aa0a03e0     	mov	x0, x10
  4040d8: 92800108     	mov	x8, #-0x9               // =-9
  4040dc: 92800110     	mov	x16, #-0x9              // =-9
  4040e0: d4000001     	svc	#0
  4040e4: aa0903e0     	mov	x0, x9
  4040e8: 92800108     	mov	x8, #-0x9               // =-9
  4040ec: 92800110     	mov	x16, #-0x9              // =-9
  4040f0: d4000001     	svc	#0
  4040f4: 52800d89     	mov	w9, #0x6c               // =108
  4040f8: aa0f03e0     	mov	x0, x15
  4040fc: 92800108     	mov	x8, #-0x9               // =-9
  404100: 92800110     	mov	x16, #-0x9              // =-9
  404104: d4000001     	svc	#0
  404108: aa0e03e0     	mov	x0, x14
  40410c: 92800108     	mov	x8, #-0x9               // =-9
  404110: 92800110     	mov	x16, #-0x9              // =-9
  404114: d4000001     	svc	#0
  404118: aa0803e0     	mov	x0, x8
  40411c: 92800108     	mov	x8, #-0x9               // =-9
  404120: 92800110     	mov	x16, #-0x9              // =-9
  404124: d4000001     	svc	#0
  404128: 52800ec8     	mov	w8, #0x76               // =118
  40412c: aa1903e0     	mov	x0, x25
  404130: 92800108     	mov	x8, #-0x9               // =-9
  404134: 92800110     	mov	x16, #-0x9              // =-9
  404138: d4000001     	svc	#0
  40413c: aa0f03e0     	mov	x0, x15
  404140: 92800108     	mov	x8, #-0x9               // =-9
  404144: 92800110     	mov	x16, #-0x9              // =-9
  404148: d4000001     	svc	#0
  40414c: aa1103e0     	mov	x0, x17
  404150: 92800108     	mov	x8, #-0x9               // =-9
  404154: 92800110     	mov	x16, #-0x9              // =-9
  404158: d4000001     	svc	#0
  40415c: aa0a03e0     	mov	x0, x10
  404160: 92800108     	mov	x8, #-0x9               // =-9
  404164: 92800110     	mov	x16, #-0x9              // =-9
  404168: d4000001     	svc	#0
  40416c: 5280008a     	mov	w10, #0x4               // =4
  404170: aa0803e0     	mov	x0, x8
  404174: 92800108     	mov	x8, #-0x9               // =-9
  404178: 92800110     	mov	x16, #-0x9              // =-9
  40417c: d4000001     	svc	#0
  404180: 52800d28     	mov	w8, #0x69               // =105
  404184: aa1903e0     	mov	x0, x25
  404188: 92800108     	mov	x8, #-0x9               // =-9
  40418c: 92800110     	mov	x16, #-0x9              // =-9
  404190: d4000001     	svc	#0
  404194: aa0903e0     	mov	x0, x9
  404198: 92800108     	mov	x8, #-0x9               // =-9
  40419c: 92800110     	mov	x16, #-0x9              // =-9
  4041a0: d4000001     	svc	#0
  4041a4: 52800c89     	mov	w9, #0x64               // =100
  4041a8: aa0803e0     	mov	x0, x8
  4041ac: 92800108     	mov	x8, #-0x9               // =-9
  4041b0: 92800110     	mov	x16, #-0x9              // =-9
  4041b4: d4000001     	svc	#0
  4041b8: 52800148     	mov	w8, #0xa                // =10
  4041bc: aa0903e0     	mov	x0, x9
  4041c0: 92800108     	mov	x8, #-0x9               // =-9
  4041c4: 92800110     	mov	x16, #-0x9              // =-9
  4041c8: d4000001     	svc	#0
  4041cc: aa1903e0     	mov	x0, x25
  4041d0: 92800108     	mov	x8, #-0x9               // =-9
  4041d4: 92800110     	mov	x16, #-0x9              // =-9
  4041d8: d4000001     	svc	#0
  4041dc: aa1c03e0     	mov	x0, x28
  4041e0: 92800108     	mov	x8, #-0x9               // =-9
  4041e4: 92800110     	mov	x16, #-0x9              // =-9
  4041e8: d4000001     	svc	#0
  4041ec: aa1003e0     	mov	x0, x16
  4041f0: 92800108     	mov	x8, #-0x9               // =-9
  4041f4: 92800110     	mov	x16, #-0x9              // =-9
  4041f8: d4000001     	svc	#0
  4041fc: aa0903e0     	mov	x0, x9
  404200: 92800108     	mov	x8, #-0x9               // =-9
  404204: 92800110     	mov	x16, #-0x9              // =-9
  404208: d4000001     	svc	#0
  40420c: aa0803e0     	mov	x0, x8
  404210: 92800108     	mov	x8, #-0x9               // =-9
  404214: 92800110     	mov	x16, #-0x9              // =-9
  404218: d4000001     	svc	#0
  40421c: 9102a3e8     	add	x8, sp, #0xa8
  404220: f94003a9     	ldr	x9, [x29]
  404224: a90d6be8     	stp	x8, x26, [sp, #0xd0]
  404228: 910243e8     	add	x8, sp, #0x90
  40422c: a90e6be8     	stp	x8, x26, [sp, #0xe0]
  404230: 9100c3e8     	add	x8, sp, #0x30
  404234: a90f6be8     	stp	x8, x26, [sp, #0xf0]
  404238: d503201f     	nop
  40423c: 1002ffe8     	adr	x8, 0x40a238 <rodata_check_str+0x238>
  404240: a904abe8     	stp	x8, x10, [sp, #0x48]
  404244: 8b1b0128     	add	x8, x9, x27
  404248: f9004be8     	str	x8, [sp, #0x90]
  40424c: d503201f     	nop
  404250: 10030148     	adr	x8, 0x40a278 <rodata_check_str+0x278>
  404254: a90ad7fb     	stp	x27, x21, [sp, #0xa8]
  404258: f9001bf6     	str	x22, [sp, #0x30]
  40425c: a9106bf4     	stp	x20, x26, [sp, #0x100]
  404260: a906abe8     	stp	x8, x10, [sp, #0x68]
  404264: a905abf3     	stp	x19, x10, [sp, #0x58]
  404268: 94000e60     	bl	0x407be8 <_ZN4core3fmt5write17hf7092a74ebbf9db4E>
  40426c: 940010c5     	bl	0x408580 <seL4_GetBootInfo>
  404270: a949a80b     	ldp	x11, x10, [x0, #0x98]
  404274: d503201f     	nop
  404278: 10017808     	adr	x8, 0x407178 <_ZN4core3fmt3num3imp54_$LT$impl$u20$core..fmt..Display$u20$for$u20$usize$GT$3fmt17h3b552058fef45ba7E>
  40427c: 91002009     	add	x9, x0, #0x8
  404280: 910123e1     	add	x1, sp, #0x48
  404284: a90e23f4     	stp	x20, x8, [sp, #0xe0]
  404288: a90d23e9     	stp	x9, x8, [sp, #0xd0]
  40428c: cb0b0148     	sub	x8, x10, x11
  404290: 9102c009     	add	x9, x0, #0xb0
  404294: f9005be8     	str	x8, [sp, #0xb0]
  404298: d503201f     	nop
  40429c: 1001f388     	adr	x8, 0x40810c <_ZN4core3fmt3num3imp51_$LT$impl$u20$core..fmt..Display$u20$for$u20$u8$GT$3fmt17hf6f6bf2069801d97E>
  4042a0: a90f23e9     	stp	x9, x8, [sp, #0xf0]
  4042a4: d503201f     	nop
  4042a8: 10033048     	adr	x8, 0x40a8b0 <rodata_check_str+0x8b0>
  4042ac: 52800069     	mov	w9, #0x3                // =3
  4042b0: 91077fe0     	add	x0, sp, #0x1df
  4042b4: f9002ff3     	str	x19, [sp, #0x58]
  4042b8: a904a7e8     	stp	x8, x9, [sp, #0x48]
  4042bc: a9067fe9     	stp	x9, xzr, [sp, #0x60]
  4042c0: 94000e4a     	bl	0x407be8 <_ZN4core3fmt5write17hf7092a74ebbf9db4E>
  4042c4: f90013f5     	str	x21, [sp, #0x20]
  4042c8: d503201f     	nop
  4042cc: 1005e9b5     	adr	x21, 0x410000 <_ZN12cohesix_root3mmu8L1_TABLE17hd7707f21e0d4f47cE>
  4042d0: aa1503e0     	mov	x0, x21
  4042d4: 2a1f03e1     	mov	w1, wzr
  4042d8: 52820002     	mov	w2, #0x1000             // =4096
  4042dc: 97fff9ce     	bl	0x402a14 <memset>
  4042e0: d503201f     	nop
  4042e4: 100668f6     	adr	x22, 0x411000 <_ZN12cohesix_root3mmu8L2_TABLE17h4d5d98de1dce61b1E>
  4042e8: 2a1f03e1     	mov	w1, wzr
  4042ec: aa1603e0     	mov	x0, x22
  4042f0: 52820002     	mov	w2, #0x1000             // =4096
  4042f4: 97fff9c8     	bl	0x402a14 <memset>
  4042f8: d0000028     	adrp	x8, 0x40a000 <rodata_check_str>
  4042fc: b24006c9     	orr	x9, x22, #0x3
  404300: 91077fe0     	add	x0, sp, #0x1df
  404304: 3dc07100     	ldr	q0, [x8, #0x1c0]
  404308: d0000028     	adrp	x8, 0x40a000 <rodata_check_str>
  40430c: f90002a9     	str	x9, [x21]
  404310: 3dc06501     	ldr	q1, [x8, #0x190]
  404314: d0000028     	adrp	x8, 0x40a000 <rodata_check_str>
  404318: 910123e1     	add	x1, sp, #0x48
  40431c: 3dc06102     	ldr	q2, [x8, #0x180]
  404320: d0000028     	adrp	x8, 0x40a000 <rodata_check_str>
  404324: ad0006c0     	stp	q0, q1, [x22]
  404328: 3dc04900     	ldr	q0, [x8, #0x120]
  40432c: d0000028     	adrp	x8, 0x40a000 <rodata_check_str>
  404330: 3dc04101     	ldr	q1, [x8, #0x100]
  404334: d0000028     	adrp	x8, 0x40a000 <rodata_check_str>
  404338: ad0102c2     	stp	q2, q0, [x22, #0x20]
  40433c: 3dc04500     	ldr	q0, [x8, #0x110]
  404340: d0000028     	adrp	x8, 0x40a000 <rodata_check_str>
  404344: 3dc06d02     	ldr	q2, [x8, #0x1b0]
  404348: d0000028     	adrp	x8, 0x40a000 <rodata_check_str>
  40434c: ad0202c1     	stp	q1, q0, [x22, #0x40]
  404350: 3dc05500     	ldr	q0, [x8, #0x150]
  404354: 528000e8     	mov	w8, #0x7                // =7
  404358: 72a12008     	movk	w8, #0x900, lsl #16
  40435c: ad0302c2     	stp	q2, q0, [x22, #0x60]
  404360: f90122c8     	str	x8, [x22, #0x240]
  404364: d503201f     	nop
  404368: 100564c8     	adr	x8, 0x40f000 <__bss_start>
  40436c: d5182015     	msr	TTBR0_EL1, x21
  404370: d5033a9f     	dsb	ishst
  404374: d5033fdf     	isb
  404378: a90a63e8     	stp	x8, x24, [sp, #0xa0]
  40437c: f9400be8     	ldr	x8, [sp, #0x10]
  404380: f94003a9     	ldr	x9, [x29]
  404384: a9116bf4     	stp	x20, x26, [sp, #0x110]
  404388: f9004be8     	str	x8, [sp, #0x90]
  40438c: 8b1b0128     	add	x8, x9, x27
  404390: f9400fe9     	ldr	x9, [sp, #0x18]
  404394: f9001be8     	str	x8, [sp, #0x30]
  404398: 910283e8     	add	x8, sp, #0xa0
  40439c: a90d6be8     	stp	x8, x26, [sp, #0xd0]
  4043a0: 9102a3e8     	add	x8, sp, #0xa8
  4043a4: a90e6be8     	stp	x8, x26, [sp, #0xe0]
  4043a8: 910243e8     	add	x8, sp, #0x90
  4043ac: a90f6be8     	stp	x8, x26, [sp, #0xf0]
  4043b0: 9100c3e8     	add	x8, sp, #0x30
  4043b4: a9106be8     	stp	x8, x26, [sp, #0x100]
  4043b8: 910083e8     	add	x8, sp, #0x20
  4043bc: f9005be9     	str	x9, [sp, #0xb0]
  4043c0: 528000c9     	mov	w9, #0x6                // =6
  4043c4: a9126be8     	stp	x8, x26, [sp, #0x120]
  4043c8: d503201f     	nop
  4043cc: 10036ba8     	adr	x8, 0x40b140 <_ZN12cohesix_root17ROOTSERVER_ONLINE17h1dda28d86f6d4332E+0x568>
  4043d0: a904a7e8     	stp	x8, x9, [sp, #0x48]
  4043d4: d503201f     	nop
  4043d8: 10034588     	adr	x8, 0x40ac88 <_ZN12cohesix_root17ROOTSERVER_ONLINE17h1dda28d86f6d4332E+0xb0>
  4043dc: a906a7e8     	stp	x8, x9, [sp, #0x68]
  4043e0: a905a7f3     	stp	x19, x9, [sp, #0x58]
  4043e4: 94000e01     	bl	0x407be8 <_ZN4core3fmt5write17hf7092a74ebbf9db4E>
  4043e8: 52800868     	mov	w8, #0x43               // =67
  4043ec: aa0803e0     	mov	x0, x8
  4043f0: 92800108     	mov	x8, #-0x9               // =-9
  4043f4: 92800110     	mov	x16, #-0x9              // =-9
  4043f8: d4000001     	svc	#0
  4043fc: 52800909     	mov	w9, #0x48               // =72
  404400: 528009e8     	mov	w8, #0x4f               // =79
  404404: aa0803e0     	mov	x0, x8
  404408: 92800108     	mov	x8, #-0x9               // =-9
  40440c: 92800110     	mov	x16, #-0x9              // =-9
  404410: d4000001     	svc	#0
  404414: 5280092a     	mov	w10, #0x49              // =73
  404418: aa0903e0     	mov	x0, x9
  40441c: 92800108     	mov	x8, #-0x9               // =-9
  404420: 92800110     	mov	x16, #-0x9              // =-9
  404424: d4000001     	svc	#0
  404428: 528008a9     	mov	w9, #0x45               // =69
  40442c: 52800beb     	mov	w11, #0x5f              // =95
  404430: aa0903e0     	mov	x0, x9
  404434: 92800108     	mov	x8, #-0x9               // =-9
  404438: 92800110     	mov	x16, #-0x9              // =-9
  40443c: d4000001     	svc	#0
  404440: 52800a69     	mov	w9, #0x53               // =83
  404444: 52800a13     	mov	w19, #0x50              // =80
  404448: aa0903e0     	mov	x0, x9
  40444c: 92800108     	mov	x8, #-0x9               // =-9
  404450: 92800110     	mov	x16, #-0x9              // =-9
  404454: d4000001     	svc	#0
  404458: 52800bfb     	mov	w27, #0x5f              // =95
  40445c: 5280015d     	mov	w29, #0xa               // =10
  404460: aa0a03e0     	mov	x0, x10
  404464: 92800108     	mov	x8, #-0x9               // =-9
  404468: 92800110     	mov	x16, #-0x9              // =-9
  40446c: d4000001     	svc	#0
  404470: 52800b0a     	mov	w10, #0x58              // =88
  404474: aa0a03e0     	mov	x0, x10
  404478: 92800108     	mov	x8, #-0x9               // =-9
  40447c: 92800110     	mov	x16, #-0x9              // =-9
  404480: d4000001     	svc	#0
  404484: 5280084a     	mov	w10, #0x42              // =66
  404488: aa0b03e0     	mov	x0, x11
  40448c: 92800108     	mov	x8, #-0x9               // =-9
  404490: 92800110     	mov	x16, #-0x9              // =-9
  404494: d4000001     	svc	#0
  404498: aa0a03e0     	mov	x0, x10
  40449c: 92800108     	mov	x8, #-0x9               // =-9
  4044a0: 92800110     	mov	x16, #-0x9              // =-9
  4044a4: d4000001     	svc	#0
  4044a8: 52800a8a     	mov	w10, #0x54              // =84
  4044ac: aa0803e0     	mov	x0, x8
  4044b0: 92800108     	mov	x8, #-0x9               // =-9
  4044b4: 92800110     	mov	x16, #-0x9              // =-9
  4044b8: d4000001     	svc	#0
  4044bc: aa0803e0     	mov	x0, x8
  4044c0: 92800108     	mov	x8, #-0x9               // =-9
  4044c4: 92800110     	mov	x16, #-0x9              // =-9
  4044c8: d4000001     	svc	#0
  4044cc: aa0a03e0     	mov	x0, x10
  4044d0: 92800108     	mov	x8, #-0x9               // =-9
  4044d4: 92800110     	mov	x16, #-0x9              // =-9
  4044d8: d4000001     	svc	#0
  4044dc: aa0b03e0     	mov	x0, x11
  4044e0: 92800108     	mov	x8, #-0x9               // =-9
  4044e4: 92800110     	mov	x16, #-0x9              // =-9
  4044e8: d4000001     	svc	#0
  4044ec: aa0803e0     	mov	x0, x8
  4044f0: 92800108     	mov	x8, #-0x9               // =-9
  4044f4: 92800110     	mov	x16, #-0x9              // =-9
  4044f8: d4000001     	svc	#0
  4044fc: 52800968     	mov	w8, #0x4b               // =75
  404500: aa0803e0     	mov	x0, x8
  404504: 92800108     	mov	x8, #-0x9               // =-9
  404508: 92800110     	mov	x16, #-0x9              // =-9
  40450c: d4000001     	svc	#0
  404510: 52800148     	mov	w8, #0xa                // =10
  404514: aa0803e0     	mov	x0, x8
  404518: 92800108     	mov	x8, #-0x9               // =-9
  40451c: 92800110     	mov	x16, #-0x9              // =-9
  404520: d4000001     	svc	#0
  404524: 910003f5     	mov	x21, sp
  404528: aa1503e0     	mov	x0, x21
  40452c: aa1d03f6     	mov	x22, x29
  404530: aa0903e0     	mov	x0, x9
  404534: 92800108     	mov	x8, #-0x9               // =-9
  404538: 92800110     	mov	x16, #-0x9              // =-9
  40453c: d4000001     	svc	#0
  404540: aa1303e0     	mov	x0, x19
  404544: 92800108     	mov	x8, #-0x9               // =-9
  404548: 92800110     	mov	x16, #-0x9              // =-9
  40454c: d4000001     	svc	#0
  404550: aa0803e0     	mov	x0, x8
  404554: 92800108     	mov	x8, #-0x9               // =-9
  404558: 92800110     	mov	x16, #-0x9              // =-9
  40455c: d4000001     	svc	#0
  404560: 97fffa71     	bl	0x402f24 <_ZN12cohesix_root7put_hex17hd1a3bb86369fdefcE>
  404564: 528008c8     	mov	w8, #0x46               // =70
  404568: aa0803e0     	mov	x0, x8
  40456c: 92800108     	mov	x8, #-0x9               // =-9
  404570: 92800110     	mov	x16, #-0x9              // =-9
  404574: d4000001     	svc	#0
  404578: aa1603e0     	mov	x0, x22
  40457c: aa1303e0     	mov	x0, x19
  404580: 92800108     	mov	x8, #-0x9               // =-9
  404584: 92800110     	mov	x16, #-0x9              // =-9
  404588: d4000001     	svc	#0
  40458c: aa1d03e0     	mov	x0, x29
  404590: 92800108     	mov	x8, #-0x9               // =-9
  404594: 92800110     	mov	x16, #-0x9              // =-9
  404598: d4000001     	svc	#0
  40459c: 97fffa62     	bl	0x402f24 <_ZN12cohesix_root7put_hex17hd1a3bb86369fdefcE>
  4045a0: 52800e68     	mov	w8, #0x73               // =115
  4045a4: aa0803e0     	mov	x0, x8
  4045a8: 92800108     	mov	x8, #-0x9               // =-9
  4045ac: 92800110     	mov	x16, #-0x9              // =-9
  4045b0: d4000001     	svc	#0
  4045b4: 52800c69     	mov	w9, #0x63               // =99
  4045b8: aa1c03e0     	mov	x0, x28
  4045bc: 92800108     	mov	x8, #-0x9               // =-9
  4045c0: 92800110     	mov	x16, #-0x9              // =-9
  4045c4: d4000001     	svc	#0
  4045c8: 52800d74     	mov	w20, #0x6b              // =107
  4045cc: 52800dba     	mov	w26, #0x6d              // =109
  4045d0: aa1903e0     	mov	x0, x25
  4045d4: 92800108     	mov	x8, #-0x9               // =-9
  4045d8: 92800110     	mov	x16, #-0x9              // =-9
  4045dc: d4000001     	svc	#0
  4045e0: 52800e53     	mov	w19, #0x72              // =114
  4045e4: aa1503e0     	mov	x0, x21
  4045e8: aa0903e0     	mov	x0, x9
  4045ec: 92800108     	mov	x8, #-0x9               // =-9
  4045f0: 92800110     	mov	x16, #-0x9              // =-9
  4045f4: d4000001     	svc	#0
  4045f8: 52800c89     	mov	w9, #0x64               // =100
  4045fc: 52800c77     	mov	w23, #0x63              // =99
  404600: aa1403e0     	mov	x0, x20
  404604: 92800108     	mov	x8, #-0x9               // =-9
  404608: 92800110     	mov	x16, #-0x9              // =-9
  40460c: d4000001     	svc	#0
  404610: 52800ebc     	mov	w28, #0x75              // =117
  404614: 52800e76     	mov	w22, #0x73              // =115
  404618: aa1b03e0     	mov	x0, x27
  40461c: 92800108     	mov	x8, #-0x9               // =-9
  404620: 92800110     	mov	x16, #-0x9              // =-9
  404624: d4000001     	svc	#0
  404628: aa0903e0     	mov	x0, x9
  40462c: 92800108     	mov	x8, #-0x9               // =-9
  404630: 92800110     	mov	x16, #-0x9              // =-9
  404634: d4000001     	svc	#0
  404638: 52800ea9     	mov	w9, #0x75               // =117
  40463c: aa0903e0     	mov	x0, x9
  404640: 92800108     	mov	x8, #-0x9               // =-9
  404644: 92800110     	mov	x16, #-0x9              // =-9
  404648: d4000001     	svc	#0
  40464c: 52800e09     	mov	w9, #0x70               // =112
  404650: aa1a03e0     	mov	x0, x26
  404654: 92800108     	mov	x8, #-0x9               // =-9
  404658: 92800110     	mov	x16, #-0x9              // =-9
  40465c: d4000001     	svc	#0
  404660: aa0903e0     	mov	x0, x9
  404664: 92800108     	mov	x8, #-0x9               // =-9
  404668: 92800110     	mov	x16, #-0x9              // =-9
  40466c: d4000001     	svc	#0
  404670: aa1b03e0     	mov	x0, x27
  404674: 92800108     	mov	x8, #-0x9               // =-9
  404678: 92800110     	mov	x16, #-0x9              // =-9
  40467c: d4000001     	svc	#0
  404680: 52800e9b     	mov	w27, #0x74              // =116
  404684: aa0803e0     	mov	x0, x8
  404688: 92800108     	mov	x8, #-0x9               // =-9
  40468c: 92800110     	mov	x16, #-0x9              // =-9
  404690: d4000001     	svc	#0
  404694: 52800e88     	mov	w8, #0x74               // =116
  404698: aa0803e0     	mov	x0, x8
  40469c: 92800108     	mov	x8, #-0x9               // =-9
  4046a0: 92800110     	mov	x16, #-0x9              // =-9
  4046a4: d4000001     	svc	#0
  4046a8: aa1903e0     	mov	x0, x25
  4046ac: 92800108     	mov	x8, #-0x9               // =-9
  4046b0: 92800110     	mov	x16, #-0x9              // =-9
  4046b4: d4000001     	svc	#0
  4046b8: aa1303e0     	mov	x0, x19
  4046bc: 92800108     	mov	x8, #-0x9               // =-9
  4046c0: 92800110     	mov	x16, #-0x9              // =-9
  4046c4: d4000001     	svc	#0
  4046c8: aa0803e0     	mov	x0, x8
  4046cc: 92800108     	mov	x8, #-0x9               // =-9
  4046d0: 92800110     	mov	x16, #-0x9              // =-9
  4046d4: d4000001     	svc	#0
  4046d8: aa1d03e0     	mov	x0, x29
  4046dc: 92800108     	mov	x8, #-0x9               // =-9
  4046e0: 92800110     	mov	x16, #-0x9              // =-9
  4046e4: d4000001     	svc	#0
  4046e8: 97fffa0f     	bl	0x402f24 <_ZN12cohesix_root7put_hex17hd1a3bb86369fdefcE>
  4046ec: f94002a0     	ldr	x0, [x21]
  4046f0: 97fffa0d     	bl	0x402f24 <_ZN12cohesix_root7put_hex17hd1a3bb86369fdefcE>
  4046f4: 910022a0     	add	x0, x21, #0x8
  4046f8: 97fffa0b     	bl	0x402f24 <_ZN12cohesix_root7put_hex17hd1a3bb86369fdefcE>
  4046fc: f94006a0     	ldr	x0, [x21, #0x8]
  404700: 97fffa09     	bl	0x402f24 <_ZN12cohesix_root7put_hex17hd1a3bb86369fdefcE>
  404704: 910042a0     	add	x0, x21, #0x10
  404708: 97fffa07     	bl	0x402f24 <_ZN12cohesix_root7put_hex17hd1a3bb86369fdefcE>
  40470c: f9400aa0     	ldr	x0, [x21, #0x10]
  404710: 97fffa05     	bl	0x402f24 <_ZN12cohesix_root7put_hex17hd1a3bb86369fdefcE>
  404714: 910062a0     	add	x0, x21, #0x18
  404718: 97fffa03     	bl	0x402f24 <_ZN12cohesix_root7put_hex17hd1a3bb86369fdefcE>
  40471c: f9400ea0     	ldr	x0, [x21, #0x18]
  404720: 97fffa01     	bl	0x402f24 <_ZN12cohesix_root7put_hex17hd1a3bb86369fdefcE>
  404724: aa1603e0     	mov	x0, x22
  404728: 92800108     	mov	x8, #-0x9               // =-9
  40472c: 92800110     	mov	x16, #-0x9              // =-9
  404730: d4000001     	svc	#0
  404734: 52800be8     	mov	w8, #0x5f               // =95
  404738: 52800c8a     	mov	w10, #0x64              // =100
  40473c: aa1b03e0     	mov	x0, x27
  404740: 92800108     	mov	x8, #-0x9               // =-9
  404744: 92800110     	mov	x16, #-0x9              // =-9
  404748: d4000001     	svc	#0
  40474c: 52800e09     	mov	w9, #0x70               // =112
  404750: 52800edb     	mov	w27, #0x76              // =118
  404754: aa1903e0     	mov	x0, x25
  404758: 92800108     	mov	x8, #-0x9               // =-9
  40475c: 92800110     	mov	x16, #-0x9              // =-9
  404760: d4000001     	svc	#0
  404764: 52800d8b     	mov	w11, #0x6c              // =108
  404768: 52800bf9     	mov	w25, #0x5f              // =95
  40476c: aa1703e0     	mov	x0, x23
  404770: 92800108     	mov	x8, #-0x9               // =-9
  404774: 92800110     	mov	x16, #-0x9              // =-9
  404778: d4000001     	svc	#0
  40477c: 52800e76     	mov	w22, #0x73              // =115
  404780: 52800e97     	mov	w23, #0x74              // =116
  404784: aa1403e0     	mov	x0, x20
  404788: 92800108     	mov	x8, #-0x9               // =-9
  40478c: 92800110     	mov	x16, #-0x9              // =-9
  404790: d4000001     	svc	#0
  404794: 52800c94     	mov	w20, #0x64              // =100
  404798: aa0803e0     	mov	x0, x8
  40479c: 92800108     	mov	x8, #-0x9               // =-9
  4047a0: 92800110     	mov	x16, #-0x9              // =-9
  4047a4: d4000001     	svc	#0
  4047a8: aa0a03e0     	mov	x0, x10
  4047ac: 92800108     	mov	x8, #-0x9               // =-9
  4047b0: 92800110     	mov	x16, #-0x9              // =-9
  4047b4: d4000001     	svc	#0
  4047b8: aa1c03e0     	mov	x0, x28
  4047bc: 92800108     	mov	x8, #-0x9               // =-9
  4047c0: 92800110     	mov	x16, #-0x9              // =-9
  4047c4: d4000001     	svc	#0
  4047c8: 52800e1c     	mov	w28, #0x70              // =112
  4047cc: aa1a03e0     	mov	x0, x26
  4047d0: 92800108     	mov	x8, #-0x9               // =-9
  4047d4: 92800110     	mov	x16, #-0x9              // =-9
  4047d8: d4000001     	svc	#0
  4047dc: 52800dfa     	mov	w26, #0x6f              // =111
  4047e0: aa0903e0     	mov	x0, x9
  4047e4: 92800108     	mov	x8, #-0x9               // =-9
  4047e8: 92800110     	mov	x16, #-0x9              // =-9
  4047ec: d4000001     	svc	#0
  4047f0: aa0803e0     	mov	x0, x8
  4047f4: 92800108     	mov	x8, #-0x9               // =-9
  4047f8: 92800110     	mov	x16, #-0x9              // =-9
  4047fc: d4000001     	svc	#0
  404800: 52800ca8     	mov	w8, #0x65               // =101
  404804: aa0803e0     	mov	x0, x8
  404808: 92800108     	mov	x8, #-0x9               // =-9
  40480c: 92800110     	mov	x16, #-0x9              // =-9
  404810: d4000001     	svc	#0
  404814: 52800dc8     	mov	w8, #0x6e               // =110
  404818: aa0803e0     	mov	x0, x8
  40481c: 92800108     	mov	x8, #-0x9               // =-9
  404820: 92800110     	mov	x16, #-0x9              // =-9
  404824: d4000001     	svc	#0
  404828: 52800c28     	mov	w8, #0x61               // =97
  40482c: aa0a03e0     	mov	x0, x10
  404830: 92800108     	mov	x8, #-0x9               // =-9
  404834: 92800110     	mov	x16, #-0x9              // =-9
  404838: d4000001     	svc	#0
  40483c: aa1d03e0     	mov	x0, x29
  404840: 92800108     	mov	x8, #-0x9               // =-9
  404844: 92800110     	mov	x16, #-0x9              // =-9
  404848: d4000001     	svc	#0
  40484c: aa1b03e0     	mov	x0, x27
  404850: 92800108     	mov	x8, #-0x9               // =-9
  404854: 92800110     	mov	x16, #-0x9              // =-9
  404858: d4000001     	svc	#0
  40485c: aa0803e0     	mov	x0, x8
  404860: 92800108     	mov	x8, #-0x9               // =-9
  404864: 92800110     	mov	x16, #-0x9              // =-9
  404868: d4000001     	svc	#0
  40486c: aa0b03e0     	mov	x0, x11
  404870: 92800108     	mov	x8, #-0x9               // =-9
  404874: 92800110     	mov	x16, #-0x9              // =-9
  404878: d4000001     	svc	#0
  40487c: 52800d2b     	mov	w11, #0x69              // =105
  404880: aa0b03e0     	mov	x0, x11
  404884: 92800108     	mov	x8, #-0x9               // =-9
  404888: 92800110     	mov	x16, #-0x9              // =-9
  40488c: d4000001     	svc	#0
  404890: aa0a03e0     	mov	x0, x10
  404894: 92800108     	mov	x8, #-0x9               // =-9
  404898: 92800110     	mov	x16, #-0x9              // =-9
  40489c: d4000001     	svc	#0
  4048a0: aa0803e0     	mov	x0, x8
  4048a4: 92800108     	mov	x8, #-0x9               // =-9
  4048a8: 92800110     	mov	x16, #-0x9              // =-9
  4048ac: d4000001     	svc	#0
  4048b0: 52800e88     	mov	w8, #0x74               // =116
  4048b4: aa0803e0     	mov	x0, x8
  4048b8: 92800108     	mov	x8, #-0x9               // =-9
  4048bc: 92800110     	mov	x16, #-0x9              // =-9
  4048c0: d4000001     	svc	#0
  4048c4: aa1a03e0     	mov	x0, x26
  4048c8: 92800108     	mov	x8, #-0x9               // =-9
  4048cc: 92800110     	mov	x16, #-0x9              // =-9
  4048d0: d4000001     	svc	#0
  4048d4: aa1303e0     	mov	x0, x19
  4048d8: 92800108     	mov	x8, #-0x9               // =-9
  4048dc: 92800110     	mov	x16, #-0x9              // =-9
  4048e0: d4000001     	svc	#0
  4048e4: aa1903e0     	mov	x0, x25
  4048e8: 92800108     	mov	x8, #-0x9               // =-9
  4048ec: 92800110     	mov	x16, #-0x9              // =-9
  4048f0: d4000001     	svc	#0
  4048f4: aa0903e0     	mov	x0, x9
  4048f8: 92800108     	mov	x8, #-0x9               // =-9
  4048fc: 92800110     	mov	x16, #-0x9              // =-9
  404900: d4000001     	svc	#0
  404904: aa0803e0     	mov	x0, x8
  404908: 92800108     	mov	x8, #-0x9               // =-9
  40490c: 92800110     	mov	x16, #-0x9              // =-9
  404910: d4000001     	svc	#0
  404914: f0000048     	adrp	x8, 0x40f000 <__bss_start>
  404918: aa1303e0     	mov	x0, x19
  40491c: 92800108     	mov	x8, #-0x9               // =-9
  404920: 92800110     	mov	x16, #-0x9              // =-9
  404924: d4000001     	svc	#0
  404928: aa1d03e0     	mov	x0, x29
  40492c: 92800108     	mov	x8, #-0x9               // =-9
  404930: 92800110     	mov	x16, #-0x9              // =-9
  404934: d4000001     	svc	#0
  404938: f9400500     	ldr	x0, [x8, #0x8]
  40493c: 97fff97a     	bl	0x402f24 <_ZN12cohesix_root7put_hex17hd1a3bb86369fdefcE>
  404940: aa1603e0     	mov	x0, x22
  404944: 92800108     	mov	x8, #-0x9               // =-9
  404948: 92800110     	mov	x16, #-0x9              // =-9
  40494c: d4000001     	svc	#0
  404950: f0000048     	adrp	x8, 0x40f000 <__bss_start>
  404954: 52800e76     	mov	w22, #0x73              // =115
  404958: aa1303e0     	mov	x0, x19
  40495c: 92800108     	mov	x8, #-0x9               // =-9
  404960: 92800110     	mov	x16, #-0x9              // =-9
  404964: d4000001     	svc	#0
  404968: aa1b03e0     	mov	x0, x27
  40496c: 92800108     	mov	x8, #-0x9               // =-9
  404970: 92800110     	mov	x16, #-0x9              // =-9
  404974: d4000001     	svc	#0
  404978: aa1903e0     	mov	x0, x25
  40497c: 92800108     	mov	x8, #-0x9               // =-9
  404980: 92800110     	mov	x16, #-0x9              // =-9
  404984: d4000001     	svc	#0
  404988: aa1c03e0     	mov	x0, x28
  40498c: 92800108     	mov	x8, #-0x9               // =-9
  404990: 92800110     	mov	x16, #-0x9              // =-9
  404994: d4000001     	svc	#0
  404998: aa1703e0     	mov	x0, x23
  40499c: 92800108     	mov	x8, #-0x9               // =-9
  4049a0: 92800110     	mov	x16, #-0x9              // =-9
  4049a4: d4000001     	svc	#0
  4049a8: aa1303e0     	mov	x0, x19
  4049ac: 92800108     	mov	x8, #-0x9               // =-9
  4049b0: 92800110     	mov	x16, #-0x9              // =-9
  4049b4: d4000001     	svc	#0
  4049b8: aa1d03e0     	mov	x0, x29
  4049bc: 92800108     	mov	x8, #-0x9               // =-9
  4049c0: 92800110     	mov	x16, #-0x9              // =-9
  4049c4: d4000001     	svc	#0
  4049c8: f9400900     	ldr	x0, [x8, #0x10]
  4049cc: 97fff956     	bl	0x402f24 <_ZN12cohesix_root7put_hex17hd1a3bb86369fdefcE>
  4049d0: 52800c68     	mov	w8, #0x63               // =99
  4049d4: aa0803e0     	mov	x0, x8
  4049d8: 92800108     	mov	x8, #-0x9               // =-9
  4049dc: 92800110     	mov	x16, #-0x9              // =-9
  4049e0: d4000001     	svc	#0
  4049e4: 52800c3b     	mov	w27, #0x61              // =97
  4049e8: 52800ea8     	mov	w8, #0x75               // =117
  4049ec: aa0803e0     	mov	x0, x8
  4049f0: 92800108     	mov	x8, #-0x9               // =-9
  4049f4: 92800110     	mov	x16, #-0x9              // =-9
  4049f8: d4000001     	svc	#0
  4049fc: aa1403e0     	mov	x0, x20
  404a00: 92800108     	mov	x8, #-0x9               // =-9
  404a04: 92800110     	mov	x16, #-0x9              // =-9
  404a08: d4000001     	svc	#0
  404a0c: 52800c28     	mov	w8, #0x61               // =97
  404a10: aa0803e0     	mov	x0, x8
  404a14: 92800108     	mov	x8, #-0x9               // =-9
  404a18: 92800110     	mov	x16, #-0x9              // =-9
  404a1c: d4000001     	svc	#0
  404a20: f0000048     	adrp	x8, 0x40f000 <__bss_start>
  404a24: aa1903e0     	mov	x0, x25
  404a28: 92800108     	mov	x8, #-0x9               // =-9
  404a2c: 92800110     	mov	x16, #-0x9              // =-9
  404a30: d4000001     	svc	#0
  404a34: aa1c03e0     	mov	x0, x28
  404a38: 92800108     	mov	x8, #-0x9               // =-9
  404a3c: 92800110     	mov	x16, #-0x9              // =-9
  404a40: d4000001     	svc	#0
  404a44: aa1703e0     	mov	x0, x23
  404a48: 92800108     	mov	x8, #-0x9               // =-9
  404a4c: 92800110     	mov	x16, #-0x9              // =-9
  404a50: d4000001     	svc	#0
  404a54: aa1303e0     	mov	x0, x19
  404a58: 92800108     	mov	x8, #-0x9               // =-9
  404a5c: 92800110     	mov	x16, #-0x9              // =-9
  404a60: d4000001     	svc	#0
  404a64: aa1d03e0     	mov	x0, x29
  404a68: 92800108     	mov	x8, #-0x9               // =-9
  404a6c: 92800110     	mov	x16, #-0x9              // =-9
  404a70: d4000001     	svc	#0
  404a74: f9400d00     	ldr	x0, [x8, #0x18]
  404a78: 97fff92b     	bl	0x402f24 <_ZN12cohesix_root7put_hex17hd1a3bb86369fdefcE>
  404a7c: aa1a03e0     	mov	x0, x26
  404a80: 92800108     	mov	x8, #-0x9               // =-9
  404a84: 92800110     	mov	x16, #-0x9              // =-9
  404a88: d4000001     	svc	#0
  404a8c: 52800cc8     	mov	w8, #0x66               // =102
  404a90: d503201f     	nop
  404a94: 10052b60     	adr	x0, 0x40f000 <__bss_start>
  404a98: aa0803e0     	mov	x0, x8
  404a9c: 92800108     	mov	x8, #-0x9               // =-9
  404aa0: 92800110     	mov	x16, #-0x9              // =-9
  404aa4: d4000001     	svc	#0
  404aa8: 52800e94     	mov	w20, #0x74              // =116
  404aac: aa0803e0     	mov	x0, x8
  404ab0: 92800108     	mov	x8, #-0x9               // =-9
  404ab4: 92800110     	mov	x16, #-0x9              // =-9
  404ab8: d4000001     	svc	#0
  404abc: 52800ca8     	mov	w8, #0x65               // =101
  404ac0: aa1603e0     	mov	x0, x22
  404ac4: 92800108     	mov	x8, #-0x9               // =-9
  404ac8: 92800110     	mov	x16, #-0x9              // =-9
  404acc: d4000001     	svc	#0
  404ad0: aa0803e0     	mov	x0, x8
  404ad4: 92800108     	mov	x8, #-0x9               // =-9
  404ad8: 92800110     	mov	x16, #-0x9              // =-9
  404adc: d4000001     	svc	#0
  404ae0: 52800e88     	mov	w8, #0x74               // =116
  404ae4: aa0803e0     	mov	x0, x8
  404ae8: 92800108     	mov	x8, #-0x9               // =-9
  404aec: 92800110     	mov	x16, #-0x9              // =-9
  404af0: d4000001     	svc	#0
  404af4: aa1903e0     	mov	x0, x25
  404af8: 92800108     	mov	x8, #-0x9               // =-9
  404afc: 92800110     	mov	x16, #-0x9              // =-9
  404b00: d4000001     	svc	#0
  404b04: aa1c03e0     	mov	x0, x28
  404b08: 92800108     	mov	x8, #-0x9               // =-9
  404b0c: 92800110     	mov	x16, #-0x9              // =-9
  404b10: d4000001     	svc	#0
  404b14: aa0803e0     	mov	x0, x8
  404b18: 92800108     	mov	x8, #-0x9               // =-9
  404b1c: 92800110     	mov	x16, #-0x9              // =-9
  404b20: d4000001     	svc	#0
  404b24: aa1303e0     	mov	x0, x19
  404b28: 92800108     	mov	x8, #-0x9               // =-9
  404b2c: 92800110     	mov	x16, #-0x9              // =-9
  404b30: d4000001     	svc	#0
  404b34: aa1d03e0     	mov	x0, x29
  404b38: 92800108     	mov	x8, #-0x9               // =-9
  404b3c: 92800110     	mov	x16, #-0x9              // =-9
  404b40: d4000001     	svc	#0
  404b44: 97fff8f8     	bl	0x402f24 <_ZN12cohesix_root7put_hex17hd1a3bb86369fdefcE>
  404b48: aa1c03e0     	mov	x0, x28
  404b4c: 92800108     	mov	x8, #-0x9               // =-9
  404b50: 92800110     	mov	x16, #-0x9              // =-9
  404b54: d4000001     	svc	#0
  404b58: 52800d08     	mov	w8, #0x68               // =104
  404b5c: 52800f09     	mov	w9, #0x78               // =120
  404b60: aa1403e0     	mov	x0, x20
  404b64: 92800108     	mov	x8, #-0x9               // =-9
  404b68: 92800110     	mov	x16, #-0x9              // =-9
  404b6c: d4000001     	svc	#0
  404b70: aa1303e0     	mov	x0, x19
  404b74: 92800108     	mov	x8, #-0x9               // =-9
  404b78: 92800110     	mov	x16, #-0x9              // =-9
  404b7c: d4000001     	svc	#0
  404b80: aa1903e0     	mov	x0, x25
  404b84: 92800108     	mov	x8, #-0x9               // =-9
  404b88: 92800110     	mov	x16, #-0x9              // =-9
  404b8c: d4000001     	svc	#0
  404b90: aa0803e0     	mov	x0, x8
  404b94: 92800108     	mov	x8, #-0x9               // =-9
  404b98: 92800110     	mov	x16, #-0x9              // =-9
  404b9c: d4000001     	svc	#0
  404ba0: aa1b03e0     	mov	x0, x27
  404ba4: 92800108     	mov	x8, #-0x9               // =-9
  404ba8: 92800110     	mov	x16, #-0x9              // =-9
  404bac: d4000001     	svc	#0
  404bb0: aa1603e0     	mov	x0, x22
  404bb4: 92800108     	mov	x8, #-0x9               // =-9
  404bb8: 92800110     	mov	x16, #-0x9              // =-9
  404bbc: d4000001     	svc	#0
  404bc0: aa0803e0     	mov	x0, x8
  404bc4: 92800108     	mov	x8, #-0x9               // =-9
  404bc8: 92800110     	mov	x16, #-0x9              // =-9
  404bcc: d4000001     	svc	#0
  404bd0: 52800608     	mov	w8, #0x30               // =48
  404bd4: aa1d03e0     	mov	x0, x29
  404bd8: 92800108     	mov	x8, #-0x9               // =-9
  404bdc: 92800110     	mov	x16, #-0x9              // =-9
  404be0: d4000001     	svc	#0
  404be4: aa0803e0     	mov	x0, x8
  404be8: 92800108     	mov	x8, #-0x9               // =-9
  404bec: 92800110     	mov	x16, #-0x9              // =-9
  404bf0: d4000001     	svc	#0
  404bf4: aa0903e0     	mov	x0, x9
  404bf8: 92800108     	mov	x8, #-0x9               // =-9
  404bfc: 92800110     	mov	x16, #-0x9              // =-9
  404c00: d4000001     	svc	#0
  404c04: aa0803e0     	mov	x0, x8
  404c08: 92800108     	mov	x8, #-0x9               // =-9
  404c0c: 92800110     	mov	x16, #-0x9              // =-9
  404c10: d4000001     	svc	#0
  404c14: aa0803e0     	mov	x0, x8
  404c18: 92800108     	mov	x8, #-0x9               // =-9
  404c1c: 92800110     	mov	x16, #-0x9              // =-9
  404c20: d4000001     	svc	#0
  404c24: aa0803e0     	mov	x0, x8
  404c28: 92800108     	mov	x8, #-0x9               // =-9
  404c2c: 92800110     	mov	x16, #-0x9              // =-9
  404c30: d4000001     	svc	#0
  404c34: aa0803e0     	mov	x0, x8
  404c38: 92800108     	mov	x8, #-0x9               // =-9
  404c3c: 92800110     	mov	x16, #-0x9              // =-9
  404c40: d4000001     	svc	#0
  404c44: aa0803e0     	mov	x0, x8
  404c48: 92800108     	mov	x8, #-0x9               // =-9
  404c4c: 92800110     	mov	x16, #-0x9              // =-9
  404c50: d4000001     	svc	#0
  404c54: aa0803e0     	mov	x0, x8
  404c58: 92800108     	mov	x8, #-0x9               // =-9
  404c5c: 92800110     	mov	x16, #-0x9              // =-9
  404c60: d4000001     	svc	#0
  404c64: aa0803e0     	mov	x0, x8
  404c68: 92800108     	mov	x8, #-0x9               // =-9
  404c6c: 92800110     	mov	x16, #-0x9              // =-9
  404c70: d4000001     	svc	#0
  404c74: aa0803e0     	mov	x0, x8
  404c78: 92800108     	mov	x8, #-0x9               // =-9
  404c7c: 92800110     	mov	x16, #-0x9              // =-9
  404c80: d4000001     	svc	#0
  404c84: aa0803e0     	mov	x0, x8
  404c88: 92800108     	mov	x8, #-0x9               // =-9
  404c8c: 92800110     	mov	x16, #-0x9              // =-9
  404c90: d4000001     	svc	#0
  404c94: aa0803e0     	mov	x0, x8
  404c98: 92800108     	mov	x8, #-0x9               // =-9
  404c9c: 92800110     	mov	x16, #-0x9              // =-9
  404ca0: d4000001     	svc	#0
  404ca4: aa0803e0     	mov	x0, x8
  404ca8: 92800108     	mov	x8, #-0x9               // =-9
  404cac: 92800110     	mov	x16, #-0x9              // =-9
  404cb0: d4000001     	svc	#0
  404cb4: aa0803e0     	mov	x0, x8
  404cb8: 92800108     	mov	x8, #-0x9               // =-9
  404cbc: 92800110     	mov	x16, #-0x9              // =-9
  404cc0: d4000001     	svc	#0
  404cc4: aa0803e0     	mov	x0, x8
  404cc8: 92800108     	mov	x8, #-0x9               // =-9
  404ccc: 92800110     	mov	x16, #-0x9              // =-9
  404cd0: d4000001     	svc	#0
  404cd4: aa0803e0     	mov	x0, x8
  404cd8: 92800108     	mov	x8, #-0x9               // =-9
  404cdc: 92800110     	mov	x16, #-0x9              // =-9
  404ce0: d4000001     	svc	#0
  404ce4: aa0803e0     	mov	x0, x8
  404ce8: 92800108     	mov	x8, #-0x9               // =-9
  404cec: 92800110     	mov	x16, #-0x9              // =-9
  404cf0: d4000001     	svc	#0
  404cf4: aa0803e0     	mov	x0, x8
  404cf8: 92800108     	mov	x8, #-0x9               // =-9
  404cfc: 92800110     	mov	x16, #-0x9              // =-9
  404d00: d4000001     	svc	#0
  404d04: d503201f     	nop
  404d08: 100517c8     	adr	x8, 0x40f000 <__bss_start>
  404d0c: aa1d03e0     	mov	x0, x29
  404d10: 92800108     	mov	x8, #-0x9               // =-9
  404d14: 92800110     	mov	x16, #-0x9              // =-9
  404d18: d4000001     	svc	#0
  404d1c: eb18011f     	cmp	x8, x24
  404d20: 5400bc82     	b.hs	0x4064b0 <main+0x2990>
  404d24: 52800c48     	mov	w8, #0x62               // =98
  404d28: aa0803e0     	mov	x0, x8
  404d2c: 92800108     	mov	x8, #-0x9               // =-9
  404d30: 92800110     	mov	x16, #-0x9              // =-9
  404d34: d4000001     	svc	#0
  404d38: 52800e77     	mov	w23, #0x73              // =115
  404d3c: aa1703e0     	mov	x0, x23
  404d40: 92800108     	mov	x8, #-0x9               // =-9
  404d44: 92800110     	mov	x16, #-0x9              // =-9
  404d48: d4000001     	svc	#0
  404d4c: 52800bf3     	mov	w19, #0x5f              // =95
  404d50: 52800e9a     	mov	w26, #0x74              // =116
  404d54: aa1703e0     	mov	x0, x23
  404d58: 92800108     	mov	x8, #-0x9               // =-9
  404d5c: 92800110     	mov	x16, #-0x9              // =-9
  404d60: d4000001     	svc	#0
  404d64: 52800c38     	mov	w24, #0x61              // =97
  404d68: 52800e5b     	mov	w27, #0x72              // =114
  404d6c: aa1303e0     	mov	x0, x19
  404d70: 92800108     	mov	x8, #-0x9               // =-9
  404d74: 92800110     	mov	x16, #-0x9              // =-9
  404d78: d4000001     	svc	#0
  404d7c: 52800159     	mov	w25, #0xa               // =10
  404d80: d503201f     	nop
  404d84: 100513e0     	adr	x0, 0x40f000 <__bss_start>
  404d88: aa1703e0     	mov	x0, x23
  404d8c: 92800108     	mov	x8, #-0x9               // =-9
  404d90: 92800110     	mov	x16, #-0x9              // =-9
  404d94: d4000001     	svc	#0
  404d98: 52800c54     	mov	w20, #0x62              // =98
  404d9c: aa1a03e0     	mov	x0, x26
  404da0: 92800108     	mov	x8, #-0x9               // =-9
  404da4: 92800110     	mov	x16, #-0x9              // =-9
  404da8: d4000001     	svc	#0
  404dac: aa1803e0     	mov	x0, x24
  404db0: 92800108     	mov	x8, #-0x9               // =-9
  404db4: 92800110     	mov	x16, #-0x9              // =-9
  404db8: d4000001     	svc	#0
  404dbc: aa1b03e0     	mov	x0, x27
  404dc0: 92800108     	mov	x8, #-0x9               // =-9
  404dc4: 92800110     	mov	x16, #-0x9              // =-9
  404dc8: d4000001     	svc	#0
  404dcc: aa1a03e0     	mov	x0, x26
  404dd0: 92800108     	mov	x8, #-0x9               // =-9
  404dd4: 92800110     	mov	x16, #-0x9              // =-9
  404dd8: d4000001     	svc	#0
  404ddc: aa1903e0     	mov	x0, x25
  404de0: 92800108     	mov	x8, #-0x9               // =-9
  404de4: 92800110     	mov	x16, #-0x9              // =-9
  404de8: d4000001     	svc	#0
  404dec: 97fff84e     	bl	0x402f24 <_ZN12cohesix_root7put_hex17hd1a3bb86369fdefcE>
  404df0: aa1403e0     	mov	x0, x20
  404df4: 92800108     	mov	x8, #-0x9               // =-9
  404df8: 92800110     	mov	x16, #-0x9              // =-9
  404dfc: d4000001     	svc	#0
  404e00: 52800ca8     	mov	w8, #0x65               // =101
  404e04: d503201f     	nop
  404e08: 10069000     	adr	x0, 0x412008 <__bss_end>
  404e0c: aa1703e0     	mov	x0, x23
  404e10: 92800108     	mov	x8, #-0x9               // =-9
  404e14: 92800110     	mov	x16, #-0x9              // =-9
  404e18: d4000001     	svc	#0
  404e1c: 52800c54     	mov	w20, #0x62              // =98
  404e20: aa1703e0     	mov	x0, x23
  404e24: 92800108     	mov	x8, #-0x9               // =-9
  404e28: 92800110     	mov	x16, #-0x9              // =-9
  404e2c: d4000001     	svc	#0
  404e30: aa1303e0     	mov	x0, x19
  404e34: 92800108     	mov	x8, #-0x9               // =-9
  404e38: 92800110     	mov	x16, #-0x9              // =-9
  404e3c: d4000001     	svc	#0
  404e40: aa0803e0     	mov	x0, x8
  404e44: 92800108     	mov	x8, #-0x9               // =-9
  404e48: 92800110     	mov	x16, #-0x9              // =-9
  404e4c: d4000001     	svc	#0
  404e50: 52800dc8     	mov	w8, #0x6e               // =110
  404e54: aa0803e0     	mov	x0, x8
  404e58: 92800108     	mov	x8, #-0x9               // =-9
  404e5c: 92800110     	mov	x16, #-0x9              // =-9
  404e60: d4000001     	svc	#0
  404e64: 52800c88     	mov	w8, #0x64               // =100
  404e68: aa0803e0     	mov	x0, x8
  404e6c: 92800108     	mov	x8, #-0x9               // =-9
  404e70: 92800110     	mov	x16, #-0x9              // =-9
  404e74: d4000001     	svc	#0
  404e78: aa1903e0     	mov	x0, x25
  404e7c: 92800108     	mov	x8, #-0x9               // =-9
  404e80: 92800110     	mov	x16, #-0x9              // =-9
  404e84: d4000001     	svc	#0
  404e88: 97fff827     	bl	0x402f24 <_ZN12cohesix_root7put_hex17hd1a3bb86369fdefcE>
  404e8c: aa1403e0     	mov	x0, x20
  404e90: 92800108     	mov	x8, #-0x9               // =-9
  404e94: 92800110     	mov	x16, #-0x9              // =-9
  404e98: d4000001     	svc	#0
  404e9c: 52800dfd     	mov	w29, #0x6f              // =111
  404ea0: 52800ce8     	mov	w8, #0x67               // =103
  404ea4: aa1d03e0     	mov	x0, x29
  404ea8: 92800108     	mov	x8, #-0x9               // =-9
  404eac: 92800110     	mov	x16, #-0x9              // =-9
  404eb0: d4000001     	svc	#0
  404eb4: 52800e14     	mov	w20, #0x70              // =112
  404eb8: d503201f     	nop
  404ebc: 30030b60     	adr	x0, 0x40b029 <_ZN12cohesix_root17ROOTSERVER_ONLINE17h1dda28d86f6d4332E+0x451>
  404ec0: aa1d03e0     	mov	x0, x29
  404ec4: 92800108     	mov	x8, #-0x9               // =-9
  404ec8: 92800110     	mov	x16, #-0x9              // =-9
  404ecc: d4000001     	svc	#0
  404ed0: aa1a03e0     	mov	x0, x26
  404ed4: 92800108     	mov	x8, #-0x9               // =-9
  404ed8: 92800110     	mov	x16, #-0x9              // =-9
  404edc: d4000001     	svc	#0
  404ee0: aa1803e0     	mov	x0, x24
  404ee4: 92800108     	mov	x8, #-0x9               // =-9
  404ee8: 92800110     	mov	x16, #-0x9              // =-9
  404eec: d4000001     	svc	#0
  404ef0: aa1b03e0     	mov	x0, x27
  404ef4: 92800108     	mov	x8, #-0x9               // =-9
  404ef8: 92800110     	mov	x16, #-0x9              // =-9
  404efc: d4000001     	svc	#0
  404f00: aa0803e0     	mov	x0, x8
  404f04: 92800108     	mov	x8, #-0x9               // =-9
  404f08: 92800110     	mov	x16, #-0x9              // =-9
  404f0c: d4000001     	svc	#0
  404f10: aa1703e0     	mov	x0, x23
  404f14: 92800108     	mov	x8, #-0x9               // =-9
  404f18: 92800110     	mov	x16, #-0x9              // =-9
  404f1c: d4000001     	svc	#0
  404f20: aa1303e0     	mov	x0, x19
  404f24: 92800108     	mov	x8, #-0x9               // =-9
  404f28: 92800110     	mov	x16, #-0x9              // =-9
  404f2c: d4000001     	svc	#0
  404f30: aa1403e0     	mov	x0, x20
  404f34: 92800108     	mov	x8, #-0x9               // =-9
  404f38: 92800110     	mov	x16, #-0x9              // =-9
  404f3c: d4000001     	svc	#0
  404f40: aa1a03e0     	mov	x0, x26
  404f44: 92800108     	mov	x8, #-0x9               // =-9
  404f48: 92800110     	mov	x16, #-0x9              // =-9
  404f4c: d4000001     	svc	#0
  404f50: aa1b03e0     	mov	x0, x27
  404f54: 92800108     	mov	x8, #-0x9               // =-9
  404f58: 92800110     	mov	x16, #-0x9              // =-9
  404f5c: d4000001     	svc	#0
  404f60: aa1903e0     	mov	x0, x25
  404f64: 92800108     	mov	x8, #-0x9               // =-9
  404f68: 92800110     	mov	x16, #-0x9              // =-9
  404f6c: d4000001     	svc	#0
  404f70: 97fff7ed     	bl	0x402f24 <_ZN12cohesix_root7put_hex17hd1a3bb86369fdefcE>
  404f74: 52800c68     	mov	w8, #0x63               // =99
  404f78: aa0803e0     	mov	x0, x8
  404f7c: 92800108     	mov	x8, #-0x9               // =-9
  404f80: 92800110     	mov	x16, #-0x9              // =-9
  404f84: d4000001     	svc	#0
  404f88: 52800d1c     	mov	w28, #0x68              // =104
  404f8c: aa1d03e0     	mov	x0, x29
  404f90: 92800108     	mov	x8, #-0x9               // =-9
  404f94: 92800110     	mov	x16, #-0x9              // =-9
  404f98: d4000001     	svc	#0
  404f9c: 52800d96     	mov	w22, #0x6c              // =108
  404fa0: 52800ca8     	mov	w8, #0x65               // =101
  404fa4: aa1c03e0     	mov	x0, x28
  404fa8: 92800108     	mov	x8, #-0x9               // =-9
  404fac: 92800110     	mov	x16, #-0x9              // =-9
  404fb0: d4000001     	svc	#0
  404fb4: f0000020     	adrp	x0, 0x40b000 <_ZN12cohesix_root17ROOTSERVER_ONLINE17h1dda28d86f6d4332E+0x428>
  404fb8: 91003800     	add	x0, x0, #0xe
  404fbc: aa1b03e0     	mov	x0, x27
  404fc0: 92800108     	mov	x8, #-0x9               // =-9
  404fc4: 92800110     	mov	x16, #-0x9              // =-9
  404fc8: d4000001     	svc	#0
  404fcc: aa1d03e0     	mov	x0, x29
  404fd0: 92800108     	mov	x8, #-0x9               // =-9
  404fd4: 92800110     	mov	x16, #-0x9              // =-9
  404fd8: d4000001     	svc	#0
  404fdc: aa1603e0     	mov	x0, x22
  404fe0: 92800108     	mov	x8, #-0x9               // =-9
  404fe4: 92800110     	mov	x16, #-0x9              // =-9
  404fe8: d4000001     	svc	#0
  404fec: aa0803e0     	mov	x0, x8
  404ff0: 92800108     	mov	x8, #-0x9               // =-9
  404ff4: 92800110     	mov	x16, #-0x9              // =-9
  404ff8: d4000001     	svc	#0
  404ffc: aa1303e0     	mov	x0, x19
  405000: 92800108     	mov	x8, #-0x9               // =-9
  405004: 92800110     	mov	x16, #-0x9              // =-9
  405008: d4000001     	svc	#0
  40500c: aa1403e0     	mov	x0, x20
  405010: 92800108     	mov	x8, #-0x9               // =-9
  405014: 92800110     	mov	x16, #-0x9              // =-9
  405018: d4000001     	svc	#0
  40501c: aa1a03e0     	mov	x0, x26
  405020: 92800108     	mov	x8, #-0x9               // =-9
  405024: 92800110     	mov	x16, #-0x9              // =-9
  405028: d4000001     	svc	#0
  40502c: aa1b03e0     	mov	x0, x27
  405030: 92800108     	mov	x8, #-0x9               // =-9
  405034: 92800110     	mov	x16, #-0x9              // =-9
  405038: d4000001     	svc	#0
  40503c: aa1903e0     	mov	x0, x25
  405040: 92800108     	mov	x8, #-0x9               // =-9
  405044: 92800110     	mov	x16, #-0x9              // =-9
  405048: d4000001     	svc	#0
  40504c: 97fff7b6     	bl	0x402f24 <_ZN12cohesix_root7put_hex17hd1a3bb86369fdefcE>
  405050: 52800d28     	mov	w8, #0x69               // =105
  405054: aa0803e0     	mov	x0, x8
  405058: 92800108     	mov	x8, #-0x9               // =-9
  40505c: 92800110     	mov	x16, #-0x9              // =-9
  405060: d4000001     	svc	#0
  405064: 52800dc9     	mov	w9, #0x6e               // =110
  405068: aa0903e0     	mov	x0, x9
  40506c: 92800108     	mov	x8, #-0x9               // =-9
  405070: 92800110     	mov	x16, #-0x9              // =-9
  405074: d4000001     	svc	#0
  405078: 52800c4a     	mov	w10, #0x62              // =98
  40507c: d0000020     	adrp	x0, 0x40b000 <_ZN12cohesix_root17ROOTSERVER_ONLINE17h1dda28d86f6d4332E+0x428>
  405080: 91001000     	add	x0, x0, #0x4
  405084: aa0803e0     	mov	x0, x8
  405088: 92800108     	mov	x8, #-0x9               // =-9
  40508c: 92800110     	mov	x16, #-0x9              // =-9
  405090: d4000001     	svc	#0
  405094: aa1a03e0     	mov	x0, x26
  405098: 92800108     	mov	x8, #-0x9               // =-9
  40509c: 92800110     	mov	x16, #-0x9              // =-9
  4050a0: d4000001     	svc	#0
  4050a4: aa1303e0     	mov	x0, x19
  4050a8: 92800108     	mov	x8, #-0x9               // =-9
  4050ac: 92800110     	mov	x16, #-0x9              // =-9
  4050b0: d4000001     	svc	#0
  4050b4: aa0a03e0     	mov	x0, x10
  4050b8: 92800108     	mov	x8, #-0x9               // =-9
  4050bc: 92800110     	mov	x16, #-0x9              // =-9
  4050c0: d4000001     	svc	#0
  4050c4: aa0803e0     	mov	x0, x8
  4050c8: 92800108     	mov	x8, #-0x9               // =-9
  4050cc: 92800110     	mov	x16, #-0x9              // =-9
  4050d0: d4000001     	svc	#0
  4050d4: aa0903e0     	mov	x0, x9
  4050d8: 92800108     	mov	x8, #-0x9               // =-9
  4050dc: 92800110     	mov	x16, #-0x9              // =-9
  4050e0: d4000001     	svc	#0
  4050e4: aa1303e0     	mov	x0, x19
  4050e8: 92800108     	mov	x8, #-0x9               // =-9
  4050ec: 92800110     	mov	x16, #-0x9              // =-9
  4050f0: d4000001     	svc	#0
  4050f4: aa1403e0     	mov	x0, x20
  4050f8: 92800108     	mov	x8, #-0x9               // =-9
  4050fc: 92800110     	mov	x16, #-0x9              // =-9
  405100: d4000001     	svc	#0
  405104: aa1a03e0     	mov	x0, x26
  405108: 92800108     	mov	x8, #-0x9               // =-9
  40510c: 92800110     	mov	x16, #-0x9              // =-9
  405110: d4000001     	svc	#0
  405114: aa1b03e0     	mov	x0, x27
  405118: 92800108     	mov	x8, #-0x9               // =-9
  40511c: 92800110     	mov	x16, #-0x9              // =-9
  405120: d4000001     	svc	#0
  405124: aa1903e0     	mov	x0, x25
  405128: 92800108     	mov	x8, #-0x9               // =-9
  40512c: 92800110     	mov	x16, #-0x9              // =-9
  405130: d4000001     	svc	#0
  405134: 97fff77c     	bl	0x402f24 <_ZN12cohesix_root7put_hex17hd1a3bb86369fdefcE>
  405138: 3900a3ff     	strb	wzr, [sp, #0x28]
  40513c: 52800c68     	mov	w8, #0x63               // =99
  405140: 9100a3e0     	add	x0, sp, #0x28
  405144: aa1603e0     	mov	x0, x22
  405148: 92800108     	mov	x8, #-0x9               // =-9
  40514c: 92800110     	mov	x16, #-0x9              // =-9
  405150: d4000001     	svc	#0
  405154: aa1d03e0     	mov	x0, x29
  405158: 92800108     	mov	x8, #-0x9               // =-9
  40515c: 92800110     	mov	x16, #-0x9              // =-9
  405160: d4000001     	svc	#0
  405164: aa0803e0     	mov	x0, x8
  405168: 92800108     	mov	x8, #-0x9               // =-9
  40516c: 92800110     	mov	x16, #-0x9              // =-9
  405170: d4000001     	svc	#0
  405174: aa1803e0     	mov	x0, x24
  405178: 92800108     	mov	x8, #-0x9               // =-9
  40517c: 92800110     	mov	x16, #-0x9              // =-9
  405180: d4000001     	svc	#0
  405184: aa1603e0     	mov	x0, x22
  405188: 92800108     	mov	x8, #-0x9               // =-9
  40518c: 92800110     	mov	x16, #-0x9              // =-9
  405190: d4000001     	svc	#0
  405194: aa1903e0     	mov	x0, x25
  405198: 92800108     	mov	x8, #-0x9               // =-9
  40519c: 92800110     	mov	x16, #-0x9              // =-9
  4051a0: d4000001     	svc	#0
  4051a4: 97fff760     	bl	0x402f24 <_ZN12cohesix_root7put_hex17hd1a3bb86369fdefcE>
  4051a8: a9415be0     	ldp	x0, x22, [sp, #0x10]
  4051ac: aa1c03e0     	mov	x0, x28
  4051b0: 92800108     	mov	x8, #-0x9               // =-9
  4051b4: 92800110     	mov	x16, #-0x9              // =-9
  4051b8: d4000001     	svc	#0
  4051bc: 52800ca8     	mov	w8, #0x65               // =101
  4051c0: aa0803e0     	mov	x0, x8
  4051c4: 92800108     	mov	x8, #-0x9               // =-9
  4051c8: 92800110     	mov	x16, #-0x9              // =-9
  4051cc: d4000001     	svc	#0
  4051d0: aa1803e0     	mov	x0, x24
  4051d4: 92800108     	mov	x8, #-0x9               // =-9
  4051d8: 92800110     	mov	x16, #-0x9              // =-9
  4051dc: d4000001     	svc	#0
  4051e0: aa1403e0     	mov	x0, x20
  4051e4: 92800108     	mov	x8, #-0x9               // =-9
  4051e8: 92800110     	mov	x16, #-0x9              // =-9
  4051ec: d4000001     	svc	#0
  4051f0: aa1303e0     	mov	x0, x19
  4051f4: 92800108     	mov	x8, #-0x9               // =-9
  4051f8: 92800110     	mov	x16, #-0x9              // =-9
  4051fc: d4000001     	svc	#0
  405200: aa1703e0     	mov	x0, x23
  405204: 92800108     	mov	x8, #-0x9               // =-9
  405208: 92800110     	mov	x16, #-0x9              // =-9
  40520c: d4000001     	svc	#0
  405210: aa1a03e0     	mov	x0, x26
  405214: 92800108     	mov	x8, #-0x9               // =-9
  405218: 92800110     	mov	x16, #-0x9              // =-9
  40521c: d4000001     	svc	#0
  405220: aa1803e0     	mov	x0, x24
  405224: 92800108     	mov	x8, #-0x9               // =-9
  405228: 92800110     	mov	x16, #-0x9              // =-9
  40522c: d4000001     	svc	#0
  405230: aa1b03e0     	mov	x0, x27
  405234: 92800108     	mov	x8, #-0x9               // =-9
  405238: 92800110     	mov	x16, #-0x9              // =-9
  40523c: d4000001     	svc	#0
  405240: aa1a03e0     	mov	x0, x26
  405244: 92800108     	mov	x8, #-0x9               // =-9
  405248: 92800110     	mov	x16, #-0x9              // =-9
  40524c: d4000001     	svc	#0
  405250: aa1903e0     	mov	x0, x25
  405254: 92800108     	mov	x8, #-0x9               // =-9
  405258: 92800110     	mov	x16, #-0x9              // =-9
  40525c: d4000001     	svc	#0
  405260: 97fff731     	bl	0x402f24 <_ZN12cohesix_root7put_hex17hd1a3bb86369fdefcE>
  405264: aa1c03e0     	mov	x0, x28
  405268: 92800108     	mov	x8, #-0x9               // =-9
  40526c: 92800110     	mov	x16, #-0x9              // =-9
  405270: d4000001     	svc	#0
  405274: 52800ca8     	mov	w8, #0x65               // =101
  405278: aa1603e0     	mov	x0, x22
  40527c: aa0803e0     	mov	x0, x8
  405280: 92800108     	mov	x8, #-0x9               // =-9
  405284: 92800110     	mov	x16, #-0x9              // =-9
  405288: d4000001     	svc	#0
  40528c: aa1803e0     	mov	x0, x24
  405290: 92800108     	mov	x8, #-0x9               // =-9
  405294: 92800110     	mov	x16, #-0x9              // =-9
  405298: d4000001     	svc	#0
  40529c: aa1403e0     	mov	x0, x20
  4052a0: 92800108     	mov	x8, #-0x9               // =-9
  4052a4: 92800110     	mov	x16, #-0x9              // =-9
  4052a8: d4000001     	svc	#0
  4052ac: aa1303e0     	mov	x0, x19
  4052b0: 92800108     	mov	x8, #-0x9               // =-9
  4052b4: 92800110     	mov	x16, #-0x9              // =-9
  4052b8: d4000001     	svc	#0
  4052bc: aa0803e0     	mov	x0, x8
  4052c0: 92800108     	mov	x8, #-0x9               // =-9
  4052c4: 92800110     	mov	x16, #-0x9              // =-9
  4052c8: d4000001     	svc	#0
  4052cc: 52800dc8     	mov	w8, #0x6e               // =110
  4052d0: aa0803e0     	mov	x0, x8
  4052d4: 92800108     	mov	x8, #-0x9               // =-9
  4052d8: 92800110     	mov	x16, #-0x9              // =-9
  4052dc: d4000001     	svc	#0
  4052e0: 52800c88     	mov	w8, #0x64               // =100
  4052e4: aa0803e0     	mov	x0, x8
  4052e8: 92800108     	mov	x8, #-0x9               // =-9
  4052ec: 92800110     	mov	x16, #-0x9              // =-9
  4052f0: d4000001     	svc	#0
  4052f4: aa1903e0     	mov	x0, x25
  4052f8: 92800108     	mov	x8, #-0x9               // =-9
  4052fc: 92800110     	mov	x16, #-0x9              // =-9
  405300: d4000001     	svc	#0
  405304: 97fff708     	bl	0x402f24 <_ZN12cohesix_root7put_hex17hd1a3bb86369fdefcE>
  405308: d0000048     	adrp	x8, 0x40f000 <__bss_start>
  40530c: f94013f6     	ldr	x22, [sp, #0x20]
  405310: d503201f     	nop
  405314: 10076769     	adr	x9, 0x414000 <__heap_start>
  405318: f9400108     	ldr	x8, [x8]
  40531c: 8b090108     	add	x8, x8, x9
  405320: eb16011f     	cmp	x8, x22
  405324: 54008c62     	b.hs	0x4064b0 <main+0x2990>
  405328: 52800e73     	mov	w19, #0x73              // =115
  40532c: aa1303e0     	mov	x0, x19
  405330: 92800108     	mov	x8, #-0x9               // =-9
  405334: 92800110     	mov	x16, #-0x9              // =-9
  405338: d4000001     	svc	#0
  40533c: 52800e94     	mov	w20, #0x74              // =116
  405340: aa1403e0     	mov	x0, x20
  405344: 92800108     	mov	x8, #-0x9               // =-9
  405348: 92800110     	mov	x16, #-0x9              // =-9
  40534c: d4000001     	svc	#0
  405350: 52800c37     	mov	w23, #0x61              // =97
  405354: 52800c78     	mov	w24, #0x63              // =99
  405358: aa1703e0     	mov	x0, x23
  40535c: 92800108     	mov	x8, #-0x9               // =-9
  405360: 92800110     	mov	x16, #-0x9              // =-9
  405364: d4000001     	svc	#0
  405368: 52800d79     	mov	w25, #0x6b              // =107
  40536c: 52800bfa     	mov	w26, #0x5f              // =95
  405370: aa1803e0     	mov	x0, x24
  405374: 92800108     	mov	x8, #-0x9               // =-9
  405378: 92800110     	mov	x16, #-0x9              // =-9
  40537c: d4000001     	svc	#0
  405380: 52800e48     	mov	w8, #0x72               // =114
  405384: 5280015b     	mov	w27, #0xa               // =10
  405388: aa1903e0     	mov	x0, x25
  40538c: 92800108     	mov	x8, #-0x9               // =-9
  405390: 92800110     	mov	x16, #-0x9              // =-9
  405394: d4000001     	svc	#0
  405398: d503201f     	nop
  40539c: 1047e33c     	adr	x28, 0x495000 <__stack_start>
  4053a0: aa1a03e0     	mov	x0, x26
  4053a4: 92800108     	mov	x8, #-0x9               // =-9
  4053a8: 92800110     	mov	x16, #-0x9              // =-9
  4053ac: d4000001     	svc	#0
  4053b0: aa1c03e0     	mov	x0, x28
  4053b4: aa1303e0     	mov	x0, x19
  4053b8: 92800108     	mov	x8, #-0x9               // =-9
  4053bc: 92800110     	mov	x16, #-0x9              // =-9
  4053c0: d4000001     	svc	#0
  4053c4: aa1403e0     	mov	x0, x20
  4053c8: 92800108     	mov	x8, #-0x9               // =-9
  4053cc: 92800110     	mov	x16, #-0x9              // =-9
  4053d0: d4000001     	svc	#0
  4053d4: aa1703e0     	mov	x0, x23
  4053d8: 92800108     	mov	x8, #-0x9               // =-9
  4053dc: 92800110     	mov	x16, #-0x9              // =-9
  4053e0: d4000001     	svc	#0
  4053e4: aa0803e0     	mov	x0, x8
  4053e8: 92800108     	mov	x8, #-0x9               // =-9
  4053ec: 92800110     	mov	x16, #-0x9              // =-9
  4053f0: d4000001     	svc	#0
  4053f4: aa1403e0     	mov	x0, x20
  4053f8: 92800108     	mov	x8, #-0x9               // =-9
  4053fc: 92800110     	mov	x16, #-0x9              // =-9
  405400: d4000001     	svc	#0
  405404: aa1b03e0     	mov	x0, x27
  405408: 92800108     	mov	x8, #-0x9               // =-9
  40540c: 92800110     	mov	x16, #-0x9              // =-9
  405410: d4000001     	svc	#0
  405414: 97fff6c4     	bl	0x402f24 <_ZN12cohesix_root7put_hex17hd1a3bb86369fdefcE>
  405418: aa1303e0     	mov	x0, x19
  40541c: 92800108     	mov	x8, #-0x9               // =-9
  405420: 92800110     	mov	x16, #-0x9              // =-9
  405424: d4000001     	svc	#0
  405428: 52800ca8     	mov	w8, #0x65               // =101
  40542c: aa1603e0     	mov	x0, x22
  405430: aa1403e0     	mov	x0, x20
  405434: 92800108     	mov	x8, #-0x9               // =-9
  405438: 92800110     	mov	x16, #-0x9              // =-9
  40543c: d4000001     	svc	#0
  405440: aa1703e0     	mov	x0, x23
  405444: 92800108     	mov	x8, #-0x9               // =-9
  405448: 92800110     	mov	x16, #-0x9              // =-9
  40544c: d4000001     	svc	#0
  405450: aa1803e0     	mov	x0, x24
  405454: 92800108     	mov	x8, #-0x9               // =-9
  405458: 92800110     	mov	x16, #-0x9              // =-9
  40545c: d4000001     	svc	#0
  405460: aa1903e0     	mov	x0, x25
  405464: 92800108     	mov	x8, #-0x9               // =-9
  405468: 92800110     	mov	x16, #-0x9              // =-9
  40546c: d4000001     	svc	#0
  405470: aa1a03e0     	mov	x0, x26
  405474: 92800108     	mov	x8, #-0x9               // =-9
  405478: 92800110     	mov	x16, #-0x9              // =-9
  40547c: d4000001     	svc	#0
  405480: aa0803e0     	mov	x0, x8
  405484: 92800108     	mov	x8, #-0x9               // =-9
  405488: 92800110     	mov	x16, #-0x9              // =-9
  40548c: d4000001     	svc	#0
  405490: 52800dc8     	mov	w8, #0x6e               // =110
  405494: aa0803e0     	mov	x0, x8
  405498: 92800108     	mov	x8, #-0x9               // =-9
  40549c: 92800110     	mov	x16, #-0x9              // =-9
  4054a0: d4000001     	svc	#0
  4054a4: 52800c88     	mov	w8, #0x64               // =100
  4054a8: aa0803e0     	mov	x0, x8
  4054ac: 92800108     	mov	x8, #-0x9               // =-9
  4054b0: 92800110     	mov	x16, #-0x9              // =-9
  4054b4: d4000001     	svc	#0
  4054b8: aa1b03e0     	mov	x0, x27
  4054bc: 92800108     	mov	x8, #-0x9               // =-9
  4054c0: 92800110     	mov	x16, #-0x9              // =-9
  4054c4: d4000001     	svc	#0
  4054c8: 97fff697     	bl	0x402f24 <_ZN12cohesix_root7put_hex17hd1a3bb86369fdefcE>
  4054cc: eb1c02bf     	cmp	x21, x28
  4054d0: 54001e43     	b.lo	0x405898 <main+0x1d78>
  4054d4: f94013e8     	ldr	x8, [sp, #0x20]
  4054d8: eb0802bf     	cmp	x21, x8
  4054dc: 54001de8     	b.hi	0x405898 <main+0x1d78>
  4054e0: 52800e48     	mov	w8, #0x72               // =114
  4054e4: aa0803e0     	mov	x0, x8
  4054e8: 92800108     	mov	x8, #-0x9               // =-9
  4054ec: 92800110     	mov	x16, #-0x9              // =-9
  4054f0: d4000001     	svc	#0
  4054f4: 52800de9     	mov	w9, #0x6f               // =111
  4054f8: aa0903e0     	mov	x0, x9
  4054fc: 92800108     	mov	x8, #-0x9               // =-9
  405500: 92800110     	mov	x16, #-0x9              // =-9
  405504: d4000001     	svc	#0
  405508: 52800c89     	mov	w9, #0x64               // =100
  40550c: 52800c2a     	mov	w10, #0x61              // =97
  405510: aa0903e0     	mov	x0, x9
  405514: 92800108     	mov	x8, #-0x9               // =-9
  405518: 92800110     	mov	x16, #-0x9              // =-9
  40551c: d4000001     	svc	#0
  405520: 52800e8b     	mov	w11, #0x74              // =116
  405524: d503201f     	nop
  405528: 7002d695     	adr	x21, 0x40affb <_ZN12cohesix_root17ROOTSERVER_ONLINE17h1dda28d86f6d4332E+0x423>
  40552c: aa0a03e0     	mov	x0, x10
  405530: 92800108     	mov	x8, #-0x9               // =-9
  405534: 92800110     	mov	x16, #-0x9              // =-9
  405538: d4000001     	svc	#0
  40553c: aa0b03e0     	mov	x0, x11
  405540: 92800108     	mov	x8, #-0x9               // =-9
  405544: 92800110     	mov	x16, #-0x9              // =-9
  405548: d4000001     	svc	#0
  40554c: 52800beb     	mov	w11, #0x5f              // =95
  405550: aa1503e0     	mov	x0, x21
  405554: aa0a03e0     	mov	x0, x10
  405558: 92800108     	mov	x8, #-0x9               // =-9
  40555c: 92800110     	mov	x16, #-0x9              // =-9
  405560: d4000001     	svc	#0
  405564: aa0b03e0     	mov	x0, x11
  405568: 92800108     	mov	x8, #-0x9               // =-9
  40556c: 92800110     	mov	x16, #-0x9              // =-9
  405570: d4000001     	svc	#0
  405574: aa0a03e0     	mov	x0, x10
  405578: 92800108     	mov	x8, #-0x9               // =-9
  40557c: 92800110     	mov	x16, #-0x9              // =-9
  405580: d4000001     	svc	#0
  405584: aa0903e0     	mov	x0, x9
  405588: 92800108     	mov	x8, #-0x9               // =-9
  40558c: 92800110     	mov	x16, #-0x9              // =-9
  405590: d4000001     	svc	#0
  405594: aa0903e0     	mov	x0, x9
  405598: 92800108     	mov	x8, #-0x9               // =-9
  40559c: 92800110     	mov	x16, #-0x9              // =-9
  4055a0: d4000001     	svc	#0
  4055a4: aa0803e0     	mov	x0, x8
  4055a8: 92800108     	mov	x8, #-0x9               // =-9
  4055ac: 92800110     	mov	x16, #-0x9              // =-9
  4055b0: d4000001     	svc	#0
  4055b4: 52800148     	mov	w8, #0xa                // =10
  4055b8: aa0803e0     	mov	x0, x8
  4055bc: 92800108     	mov	x8, #-0x9               // =-9
  4055c0: 92800110     	mov	x16, #-0x9              // =-9
  4055c4: d4000001     	svc	#0
  4055c8: 97fff657     	bl	0x402f24 <_ZN12cohesix_root7put_hex17hd1a3bb86369fdefcE>
  4055cc: f15002bf     	cmp	x21, #0x400, lsl #12    // =0x400000
  4055d0: 540020e3     	b.lo	0x4059ec <main+0x1ecc>
  4055d4: d503201f     	nop
  4055d8: 1004d148     	adr	x8, 0x40f000 <__bss_start>
  4055dc: eb0802bf     	cmp	x21, x8
  4055e0: 54002062     	b.hs	0x4059ec <main+0x1ecc>
  4055e4: 52800e48     	mov	w8, #0x72               // =114
  4055e8: aa0803e0     	mov	x0, x8
  4055ec: 92800108     	mov	x8, #-0x9               // =-9
  4055f0: 92800110     	mov	x16, #-0x9              // =-9
  4055f4: d4000001     	svc	#0
  4055f8: 52800e89     	mov	w9, #0x74               // =116
  4055fc: 52800de8     	mov	w8, #0x6f               // =111
  405600: aa0803e0     	mov	x0, x8
  405604: 92800108     	mov	x8, #-0x9               // =-9
  405608: 92800110     	mov	x16, #-0x9              // =-9
  40560c: d4000001     	svc	#0
  405610: 52800eca     	mov	w10, #0x76              // =118
  405614: 52800c88     	mov	w8, #0x64               // =100
  405618: aa0803e0     	mov	x0, x8
  40561c: 92800108     	mov	x8, #-0x9               // =-9
  405620: 92800110     	mov	x16, #-0x9              // =-9
  405624: d4000001     	svc	#0
  405628: 5280088b     	mov	w11, #0x44              // =68
  40562c: 52800c28     	mov	w8, #0x61               // =97
  405630: aa0803e0     	mov	x0, x8
  405634: 92800108     	mov	x8, #-0x9               // =-9
  405638: 92800110     	mov	x16, #-0x9              // =-9
  40563c: d4000001     	svc	#0
  405640: 52800a8c     	mov	w12, #0x54              // =84
  405644: aa0903e0     	mov	x0, x9
  405648: 92800108     	mov	x8, #-0x9               // =-9
  40564c: 92800110     	mov	x16, #-0x9              // =-9
  405650: d4000001     	svc	#0
  405654: 52800be9     	mov	w9, #0x5f               // =95
  405658: aa0803e0     	mov	x0, x8
  40565c: 92800108     	mov	x8, #-0x9               // =-9
  405660: 92800110     	mov	x16, #-0x9              // =-9
  405664: d4000001     	svc	#0
  405668: aa0903e0     	mov	x0, x9
  40566c: 92800108     	mov	x8, #-0x9               // =-9
  405670: 92800110     	mov	x16, #-0x9              // =-9
  405674: d4000001     	svc	#0
  405678: aa0a03e0     	mov	x0, x10
  40567c: 92800108     	mov	x8, #-0x9               // =-9
  405680: 92800110     	mov	x16, #-0x9              // =-9
  405684: d4000001     	svc	#0
  405688: 52800a4a     	mov	w10, #0x52              // =82
  40568c: aa0803e0     	mov	x0, x8
  405690: 92800108     	mov	x8, #-0x9               // =-9
  405694: 92800110     	mov	x16, #-0x9              // =-9
  405698: d4000001     	svc	#0
  40569c: 52800d88     	mov	w8, #0x6c               // =108
  4056a0: aa0803e0     	mov	x0, x8
  4056a4: 92800108     	mov	x8, #-0x9               // =-9
  4056a8: 92800110     	mov	x16, #-0x9              // =-9
  4056ac: d4000001     	svc	#0
  4056b0: 52800148     	mov	w8, #0xa                // =10
  4056b4: aa0803e0     	mov	x0, x8
  4056b8: 92800108     	mov	x8, #-0x9               // =-9
  4056bc: 92800110     	mov	x16, #-0x9              // =-9
  4056c0: d4000001     	svc	#0
  4056c4: aa0a03e0     	mov	x0, x10
  4056c8: 92800108     	mov	x8, #-0x9               // =-9
  4056cc: 92800110     	mov	x16, #-0x9              // =-9
  4056d0: d4000001     	svc	#0
  4056d4: 528009ea     	mov	w10, #0x4f              // =79
  4056d8: aa0a03e0     	mov	x0, x10
  4056dc: 92800108     	mov	x8, #-0x9               // =-9
  4056e0: 92800110     	mov	x16, #-0x9              // =-9
  4056e4: d4000001     	svc	#0
  4056e8: aa0b03e0     	mov	x0, x11
  4056ec: 92800108     	mov	x8, #-0x9               // =-9
  4056f0: 92800110     	mov	x16, #-0x9              // =-9
  4056f4: d4000001     	svc	#0
  4056f8: 5280082b     	mov	w11, #0x41              // =65
  4056fc: aa0b03e0     	mov	x0, x11
  405700: 92800108     	mov	x8, #-0x9               // =-9
  405704: 92800110     	mov	x16, #-0x9              // =-9
  405708: d4000001     	svc	#0
  40570c: aa0c03e0     	mov	x0, x12
  405710: 92800108     	mov	x8, #-0x9               // =-9
  405714: 92800110     	mov	x16, #-0x9              // =-9
  405718: d4000001     	svc	#0
  40571c: aa0b03e0     	mov	x0, x11
  405720: 92800108     	mov	x8, #-0x9               // =-9
  405724: 92800110     	mov	x16, #-0x9              // =-9
  405728: d4000001     	svc	#0
  40572c: aa0903e0     	mov	x0, x9
  405730: 92800108     	mov	x8, #-0x9               // =-9
  405734: 92800110     	mov	x16, #-0x9              // =-9
  405738: d4000001     	svc	#0
  40573c: 52800969     	mov	w9, #0x4b               // =75
  405740: aa0a03e0     	mov	x0, x10
  405744: 92800108     	mov	x8, #-0x9               // =-9
  405748: 92800110     	mov	x16, #-0x9              // =-9
  40574c: d4000001     	svc	#0
  405750: aa0903e0     	mov	x0, x9
  405754: 92800108     	mov	x8, #-0x9               // =-9
  405758: 92800110     	mov	x16, #-0x9              // =-9
  40575c: d4000001     	svc	#0
  405760: 9100a3e9     	add	x9, sp, #0x28
  405764: aa0803e0     	mov	x0, x8
  405768: 92800108     	mov	x8, #-0x9               // =-9
  40576c: 92800110     	mov	x16, #-0x9              // =-9
  405770: d4000001     	svc	#0
  405774: eb1c013f     	cmp	x9, x28
  405778: 54002443     	b.lo	0x405c00 <main+0x20e0>
  40577c: f94013e8     	ldr	x8, [sp, #0x20]
  405780: eb09011f     	cmp	x8, x9
  405784: 540023e3     	b.lo	0x405c00 <main+0x20e0>
  405788: f9400be9     	ldr	x9, [sp, #0x10]
  40578c: d1500129     	sub	x9, x9, #0x400, lsl #12 // =0x400000
  405790: f158cd3f     	cmp	x9, #0x633, lsl #12     // =0x633000
  405794: 540023e2     	b.hs	0x405c10 <main+0x20f0>
  405798: eb1c0108     	subs	x8, x8, x28
  40579c: 54002429     	b.ls	0x405c20 <main+0x2100>
  4057a0: f140411f     	cmp	x8, #0x10, lsl #12      // =0x10000
  4057a4: 540023e1     	b.ne	0x405c20 <main+0x2100>
  4057a8: d503201f     	nop
  4057ac: 3002c3e0     	adr	x0, 0x40b029 <_ZN12cohesix_root17ROOTSERVER_ONLINE17h1dda28d86f6d4332E+0x451>
  4057b0: 97fff31e     	bl	0x402428 <coh_open>
  4057b4: 37f80500     	tbnz	w0, #0x1f, 0x405854 <main+0x1d34>
  4057b8: 52800308     	mov	w8, #0x18               // =24
  4057bc: d503201f     	nop
  4057c0: 1003c214     	adr	x20, 0x40d000 <_ZN12cohesix_root3sys5FILES17hda1ab28c883b931eE>
  4057c4: 9ba85009     	umaddl	x9, w0, w8, x20
  4057c8: 6f00e400     	movi	v0.2d, #0000000000000000
  4057cc: a940a121     	ldp	x1, x8, [x9, #0x8]
  4057d0: ad0683e0     	stp	q0, q0, [sp, #0xd0]
  4057d4: ad0783e0     	stp	q0, q0, [sp, #0xf0]
  4057d8: eb08002a     	subs	x10, x1, x8
  4057dc: ad0883e0     	stp	q0, q0, [sp, #0x110]
  4057e0: ad0983e0     	stp	q0, q0, [sp, #0x130]
  4057e4: ad0a83e0     	stp	q0, q0, [sp, #0x150]
  4057e8: ad0b83e0     	stp	q0, q0, [sp, #0x170]
  4057ec: ad0c83e0     	stp	q0, q0, [sp, #0x190]
  4057f0: ad0d83e0     	stp	q0, q0, [sp, #0x1b0]
  4057f4: 5400b763     	b.lo	0x406ee0 <main+0x33c0>
  4057f8: f104015f     	cmp	x10, #0x100
  4057fc: 5280200b     	mov	w11, #0x100             // =256
  405800: 2a0003f5     	mov	w21, w0
  405804: 9a8b3153     	csel	x19, x10, x11, lo
  405808: eb08003f     	cmp	x1, x8
  40580c: 540000c0     	b.eq	0x405824 <main+0x1d04>
  405810: f9400129     	ldr	x9, [x9]
  405814: 910343e0     	add	x0, sp, #0xd0
  405818: aa1303e2     	mov	x2, x19
  40581c: 8b080121     	add	x1, x9, x8
  405820: 97fff47b     	bl	0x402a0c <memcpy>
  405824: 52800308     	mov	w8, #0x18               // =24
  405828: 910123e0     	add	x0, sp, #0x48
  40582c: 910343e1     	add	x1, sp, #0xd0
  405830: 9ba852a8     	umaddl	x8, w21, w8, x20
  405834: aa1303e2     	mov	x2, x19
  405838: f900091f     	str	xzr, [x8, #0x10]
  40583c: 94000998     	bl	0x407e9c <_ZN4core3str8converts9from_utf817h8a8c012533dc3c6dE>
  405840: b9404be8     	ldr	w8, [sp, #0x48]
  405844: 7100051f     	cmp	w8, #0x1
  405848: 54000060     	b.eq	0x405854 <main+0x1d34>
  40584c: f9402ff3     	ldr	x19, [sp, #0x58]
  405850: b5002d13     	cbnz	x19, 0x405df0 <main+0x22d0>
  405854: d503201f     	nop
  405858: 5002cba0     	adr	x0, 0x40b1ce <_ZN12cohesix_root17ROOTSERVER_ONLINE17h1dda28d86f6d4332E+0x5f6>
  40585c: 528001a1     	mov	w1, #0xd                // =13
  405860: 97fff753     	bl	0x4035ac <_ZN12cohesix_root7env_var17h0268a69405ad3f4aE>
  405864: d503201f     	nop
  405868: 7002cb80     	adr	x0, 0x40b1db <_ZN12cohesix_root17ROOTSERVER_ONLINE17h1dda28d86f6d4332E+0x603>
  40586c: 528001c1     	mov	w1, #0xe                // =14
  405870: 97fff74f     	bl	0x4035ac <_ZN12cohesix_root7env_var17h0268a69405ad3f4aE>
  405874: d503201f     	nop
  405878: 3002cb80     	adr	x0, 0x40b1e9 <_ZN12cohesix_root17ROOTSERVER_ONLINE17h1dda28d86f6d4332E+0x611>
  40587c: 528000e1     	mov	w1, #0x7                // =7
  405880: 97fff74b     	bl	0x4035ac <_ZN12cohesix_root7env_var17h0268a69405ad3f4aE>
  405884: 52800020     	mov	w0, #0x1                // =1
  405888: 52800161     	mov	w1, #0xb                // =11
  40588c: 97ffef81     	bl	0x401690 <_ZN91_$LT$cohesix_root..allocator..BumpAllocator$u20$as$u20$core..alloc..global..GlobalAlloc$GT$5alloc17hc97a9adda21019bdE>
  405890: b5001d00     	cbnz	x0, 0x405c30 <main+0x2110>
  405894: 9400059b     	bl	0x406f00 <_ZN12cohesix_root10lang_items11alloc_error17hc9d76ef5e243e316E>
  405898: 52800a68     	mov	w8, #0x53               // =83
  40589c: aa0803e0     	mov	x0, x8
  4058a0: 92800108     	mov	x8, #-0x9               // =-9
  4058a4: 92800110     	mov	x16, #-0x9              // =-9
  4058a8: d4000001     	svc	#0
  4058ac: 52800829     	mov	w9, #0x41               // =65
  4058b0: 52800a88     	mov	w8, #0x54               // =84
  4058b4: aa0803e0     	mov	x0, x8
  4058b8: 92800108     	mov	x8, #-0x9               // =-9
  4058bc: 92800110     	mov	x16, #-0x9              // =-9
  4058c0: d4000001     	svc	#0
  4058c4: 5280096a     	mov	w10, #0x4b              // =75
  4058c8: aa0903e0     	mov	x0, x9
  4058cc: 92800108     	mov	x8, #-0x9               // =-9
  4058d0: 92800110     	mov	x16, #-0x9              // =-9
  4058d4: d4000001     	svc	#0
  4058d8: 52800869     	mov	w9, #0x43               // =67
  4058dc: d503201f     	nop
  4058e0: 1002c920     	adr	x0, 0x40b204 <_ZN12cohesix_root17ROOTSERVER_ONLINE17h1dda28d86f6d4332E+0x62c>
  4058e4: aa0903e0     	mov	x0, x9
  4058e8: 92800108     	mov	x8, #-0x9               // =-9
  4058ec: 92800110     	mov	x16, #-0x9              // =-9
  4058f0: d4000001     	svc	#0
  4058f4: 528001e1     	mov	w1, #0xf                // =15
  4058f8: aa0a03e0     	mov	x0, x10
  4058fc: 92800108     	mov	x8, #-0x9               // =-9
  405900: 92800110     	mov	x16, #-0x9              // =-9
  405904: d4000001     	svc	#0
  405908: 5280040a     	mov	w10, #0x20              // =32
  40590c: aa0a03e0     	mov	x0, x10
  405910: 92800108     	mov	x8, #-0x9               // =-9
  405914: 92800110     	mov	x16, #-0x9              // =-9
  405918: d4000001     	svc	#0
  40591c: 52800a4a     	mov	w10, #0x52              // =82
  405920: aa0903e0     	mov	x0, x9
  405924: 92800108     	mov	x8, #-0x9               // =-9
  405928: 92800110     	mov	x16, #-0x9              // =-9
  40592c: d4000001     	svc	#0
  405930: 528009e9     	mov	w9, #0x4f               // =79
  405934: aa0903e0     	mov	x0, x9
  405938: 92800108     	mov	x8, #-0x9               // =-9
  40593c: 92800110     	mov	x16, #-0x9              // =-9
  405940: d4000001     	svc	#0
  405944: aa0a03e0     	mov	x0, x10
  405948: 92800108     	mov	x8, #-0x9               // =-9
  40594c: 92800110     	mov	x16, #-0x9              // =-9
  405950: d4000001     	svc	#0
  405954: aa0a03e0     	mov	x0, x10
  405958: 92800108     	mov	x8, #-0x9               // =-9
  40595c: 92800110     	mov	x16, #-0x9              // =-9
  405960: d4000001     	svc	#0
  405964: 52800aaa     	mov	w10, #0x55              // =85
  405968: aa0a03e0     	mov	x0, x10
  40596c: 92800108     	mov	x8, #-0x9               // =-9
  405970: 92800110     	mov	x16, #-0x9              // =-9
  405974: d4000001     	svc	#0
  405978: 52800a0a     	mov	w10, #0x50              // =80
  40597c: aa0a03e0     	mov	x0, x10
  405980: 92800108     	mov	x8, #-0x9               // =-9
  405984: 92800110     	mov	x16, #-0x9              // =-9
  405988: d4000001     	svc	#0
  40598c: aa0803e0     	mov	x0, x8
  405990: 92800108     	mov	x8, #-0x9               // =-9
  405994: 92800110     	mov	x16, #-0x9              // =-9
  405998: d4000001     	svc	#0
  40599c: 52800928     	mov	w8, #0x49               // =73
  4059a0: aa0803e0     	mov	x0, x8
  4059a4: 92800108     	mov	x8, #-0x9               // =-9
  4059a8: 92800110     	mov	x16, #-0x9              // =-9
  4059ac: d4000001     	svc	#0
  4059b0: 528009c8     	mov	w8, #0x4e               // =78
  4059b4: aa0903e0     	mov	x0, x9
  4059b8: 92800108     	mov	x8, #-0x9               // =-9
  4059bc: 92800110     	mov	x16, #-0x9              // =-9
  4059c0: d4000001     	svc	#0
  4059c4: aa0803e0     	mov	x0, x8
  4059c8: 92800108     	mov	x8, #-0x9               // =-9
  4059cc: 92800110     	mov	x16, #-0x9              // =-9
  4059d0: d4000001     	svc	#0
  4059d4: 52800148     	mov	w8, #0xa                // =10
  4059d8: aa0803e0     	mov	x0, x8
  4059dc: 92800108     	mov	x8, #-0x9               // =-9
  4059e0: 92800110     	mov	x16, #-0x9              // =-9
  4059e4: d4000001     	svc	#0
  4059e8: 97fff6e3     	bl	0x403574 <_ZN12cohesix_root5abort17h2875b4dbfb5b1cb3E>
  4059ec: 52800a48     	mov	w8, #0x52               // =82
  4059f0: aa0803e0     	mov	x0, x8
  4059f4: 92800108     	mov	x8, #-0x9               // =-9
  4059f8: 92800110     	mov	x16, #-0x9              // =-9
  4059fc: d4000001     	svc	#0
  405a00: 528009e9     	mov	w9, #0x4f               // =79
  405a04: aa0903e0     	mov	x0, x9
  405a08: 92800108     	mov	x8, #-0x9               // =-9
  405a0c: 92800110     	mov	x16, #-0x9              // =-9
  405a10: d4000001     	svc	#0
  405a14: 5280088a     	mov	w10, #0x44              // =68
  405a18: 52800a8b     	mov	w11, #0x54              // =84
  405a1c: aa0a03e0     	mov	x0, x10
  405a20: 92800108     	mov	x8, #-0x9               // =-9
  405a24: 92800110     	mov	x16, #-0x9              // =-9
  405a28: d4000001     	svc	#0
  405a2c: 5280082a     	mov	w10, #0x41              // =65
  405a30: 5280040c     	mov	w12, #0x20              // =32
  405a34: aa0a03e0     	mov	x0, x10
  405a38: 92800108     	mov	x8, #-0x9               // =-9
  405a3c: 92800110     	mov	x16, #-0x9              // =-9
  405a40: d4000001     	svc	#0
  405a44: 52800a0d     	mov	w13, #0x50              // =80
  405a48: 528008ae     	mov	w14, #0x45              // =69
  405a4c: aa0b03e0     	mov	x0, x11
  405a50: 92800108     	mov	x8, #-0x9               // =-9
  405a54: 92800110     	mov	x16, #-0x9              // =-9
  405a58: d4000001     	svc	#0
  405a5c: 52800aaf     	mov	w15, #0x55              // =85
  405a60: d503201f     	nop
  405a64: 7002aca0     	adr	x0, 0x40affb <_ZN12cohesix_root17ROOTSERVER_ONLINE17h1dda28d86f6d4332E+0x423>
  405a68: aa0a03e0     	mov	x0, x10
  405a6c: 92800108     	mov	x8, #-0x9               // =-9
  405a70: 92800110     	mov	x16, #-0x9              // =-9
  405a74: d4000001     	svc	#0
  405a78: aa0c03e0     	mov	x0, x12
  405a7c: 92800108     	mov	x8, #-0x9               // =-9
  405a80: 92800110     	mov	x16, #-0x9              // =-9
  405a84: d4000001     	svc	#0
  405a88: aa0d03e0     	mov	x0, x13
  405a8c: 92800108     	mov	x8, #-0x9               // =-9
  405a90: 92800110     	mov	x16, #-0x9              // =-9
  405a94: d4000001     	svc	#0
  405a98: 5280092d     	mov	w13, #0x49              // =73
  405a9c: aa0903e0     	mov	x0, x9
  405aa0: 92800108     	mov	x8, #-0x9               // =-9
  405aa4: 92800110     	mov	x16, #-0x9              // =-9
  405aa8: d4000001     	svc	#0
  405aac: aa0d03e0     	mov	x0, x13
  405ab0: 92800108     	mov	x8, #-0x9               // =-9
  405ab4: 92800110     	mov	x16, #-0x9              // =-9
  405ab8: d4000001     	svc	#0
  405abc: 528009cd     	mov	w13, #0x4e              // =78
  405ac0: aa0d03e0     	mov	x0, x13
  405ac4: 92800108     	mov	x8, #-0x9               // =-9
  405ac8: 92800110     	mov	x16, #-0x9              // =-9
  405acc: d4000001     	svc	#0
  405ad0: aa0b03e0     	mov	x0, x11
  405ad4: 92800108     	mov	x8, #-0x9               // =-9
  405ad8: 92800110     	mov	x16, #-0x9              // =-9
  405adc: d4000001     	svc	#0
  405ae0: aa0e03e0     	mov	x0, x14
  405ae4: 92800108     	mov	x8, #-0x9               // =-9
  405ae8: 92800110     	mov	x16, #-0x9              // =-9
  405aec: d4000001     	svc	#0
  405af0: aa0803e0     	mov	x0, x8
  405af4: 92800108     	mov	x8, #-0x9               // =-9
  405af8: 92800110     	mov	x16, #-0x9              // =-9
  405afc: d4000001     	svc	#0
  405b00: aa0c03e0     	mov	x0, x12
  405b04: 92800108     	mov	x8, #-0x9               // =-9
  405b08: 92800110     	mov	x16, #-0x9              // =-9
  405b0c: d4000001     	svc	#0
  405b10: aa0903e0     	mov	x0, x9
  405b14: 92800108     	mov	x8, #-0x9               // =-9
  405b18: 92800110     	mov	x16, #-0x9              // =-9
  405b1c: d4000001     	svc	#0
  405b20: aa0f03e0     	mov	x0, x15
  405b24: 92800108     	mov	x8, #-0x9               // =-9
  405b28: 92800110     	mov	x16, #-0x9              // =-9
  405b2c: d4000001     	svc	#0
  405b30: aa0b03e0     	mov	x0, x11
  405b34: 92800108     	mov	x8, #-0x9               // =-9
  405b38: 92800110     	mov	x16, #-0x9              // =-9
  405b3c: d4000001     	svc	#0
  405b40: aa0c03e0     	mov	x0, x12
  405b44: 92800108     	mov	x8, #-0x9               // =-9
  405b48: 92800110     	mov	x16, #-0x9              // =-9
  405b4c: d4000001     	svc	#0
  405b50: aa0903e0     	mov	x0, x9
  405b54: 92800108     	mov	x8, #-0x9               // =-9
  405b58: 92800110     	mov	x16, #-0x9              // =-9
  405b5c: d4000001     	svc	#0
  405b60: 528008c9     	mov	w9, #0x46               // =70
  405b64: aa0903e0     	mov	x0, x9
  405b68: 92800108     	mov	x8, #-0x9               // =-9
  405b6c: 92800110     	mov	x16, #-0x9              // =-9
  405b70: d4000001     	svc	#0
  405b74: aa0c03e0     	mov	x0, x12
  405b78: 92800108     	mov	x8, #-0x9               // =-9
  405b7c: 92800110     	mov	x16, #-0x9              // =-9
  405b80: d4000001     	svc	#0
  405b84: aa0803e0     	mov	x0, x8
  405b88: 92800108     	mov	x8, #-0x9               // =-9
  405b8c: 92800110     	mov	x16, #-0x9              // =-9
  405b90: d4000001     	svc	#0
  405b94: 528008e8     	mov	w8, #0x47               // =71
  405b98: aa0a03e0     	mov	x0, x10
  405b9c: 92800108     	mov	x8, #-0x9               // =-9
  405ba0: 92800110     	mov	x16, #-0x9              // =-9
  405ba4: d4000001     	svc	#0
  405ba8: aa0d03e0     	mov	x0, x13
  405bac: 92800108     	mov	x8, #-0x9               // =-9
  405bb0: 92800110     	mov	x16, #-0x9              // =-9
  405bb4: d4000001     	svc	#0
  405bb8: aa0803e0     	mov	x0, x8
  405bbc: 92800108     	mov	x8, #-0x9               // =-9
  405bc0: 92800110     	mov	x16, #-0x9              // =-9
  405bc4: d4000001     	svc	#0
  405bc8: 52800148     	mov	w8, #0xa                // =10
  405bcc: aa0e03e0     	mov	x0, x14
  405bd0: 92800108     	mov	x8, #-0x9               // =-9
  405bd4: 92800110     	mov	x16, #-0x9              // =-9
  405bd8: d4000001     	svc	#0
  405bdc: aa0803e0     	mov	x0, x8
  405be0: 92800108     	mov	x8, #-0x9               // =-9
  405be4: 92800110     	mov	x16, #-0x9              // =-9
  405be8: d4000001     	svc	#0
  405bec: 97fff4ce     	bl	0x402f24 <_ZN12cohesix_root7put_hex17hd1a3bb86369fdefcE>
  405bf0: d503201f     	nop
  405bf4: 30029ee0     	adr	x0, 0x40afd1 <_ZN12cohesix_root17ROOTSERVER_ONLINE17h1dda28d86f6d4332E+0x3f9>
  405bf8: 52800361     	mov	w1, #0x1b               // =27
  405bfc: 97fff65e     	bl	0x403574 <_ZN12cohesix_root5abort17h2875b4dbfb5b1cb3E>
  405c00: d503201f     	nop
  405c04: 1002ace0     	adr	x0, 0x40b1a0 <_ZN12cohesix_root17ROOTSERVER_ONLINE17h1dda28d86f6d4332E+0x5c8>
  405c08: 528002e1     	mov	w1, #0x17               // =23
  405c0c: 97fff65a     	bl	0x403574 <_ZN12cohesix_root5abort17h2875b4dbfb5b1cb3E>
  405c10: d503201f     	nop
  405c14: 7002ad00     	adr	x0, 0x40b1b7 <_ZN12cohesix_root17ROOTSERVER_ONLINE17h1dda28d86f6d4332E+0x5df>
  405c18: 528002e1     	mov	w1, #0x17               // =23
  405c1c: 97fff656     	bl	0x403574 <_ZN12cohesix_root5abort17h2875b4dbfb5b1cb3E>
  405c20: d503201f     	nop
  405c24: 1002ae60     	adr	x0, 0x40b1f0 <_ZN12cohesix_root17ROOTSERVER_ONLINE17h1dda28d86f6d4332E+0x618>
  405c28: 52800281     	mov	w1, #0x14               // =20
  405c2c: 97fff652     	bl	0x403574 <_ZN12cohesix_root5abort17h2875b4dbfb5b1cb3E>
  405c30: 528d6e48     	mov	w8, #0x6b72             // =27506
  405c34: d503201f     	nop
  405c38: 1002a4c9     	adr	x9, 0x40b0d0 <_ZN12cohesix_root17ROOTSERVER_ONLINE17h1dda28d86f6d4332E+0x4f8>
  405c3c: 72ae4ca8     	movk	w8, #0x7265, lsl #16
  405c40: f9400129     	ldr	x9, [x9]
  405c44: b8007008     	stur	w8, [x0, #0x7]
  405c48: 52800168     	mov	w8, #0xb                // =11
  405c4c: f9000009     	str	x9, [x0]
  405c50: a90d03e8     	stp	x8, x0, [sp, #0xd0]
  405c54: 910343e0     	add	x0, sp, #0xd0
  405c58: f90073e8     	str	x8, [sp, #0xe0]
  405c5c: 94000503     	bl	0x407068 <_ZN5alloc7raw_vec19RawVec$LT$T$C$A$GT$8grow_one17he2c50e2ed9571b6bE>
  405c60: f9406fe8     	ldr	x8, [sp, #0xd8]
  405c64: d0000020     	adrp	x0, 0x40b000 <_ZN12cohesix_root17ROOTSERVER_ONLINE17h1dda28d86f6d4332E+0x428>
  405c68: 91003800     	add	x0, x0, #0xe
  405c6c: 39002d1f     	strb	wzr, [x8, #0xb]
  405c70: 97fff1ee     	bl	0x402428 <coh_open>
  405c74: 37f800c0     	tbnz	w0, #0x1f, 0x405c8c <main+0x216c>
  405c78: 52800308     	mov	w8, #0x18               // =24
  405c7c: d503201f     	nop
  405c80: 10039c09     	adr	x9, 0x40d000 <_ZN12cohesix_root3sys5FILES17hda1ab28c883b931eE>
  405c84: 9ba82408     	umaddl	x8, w0, w8, x9
  405c88: f900091f     	str	xzr, [x8, #0x10]
  405c8c: d0000033     	adrp	x19, 0x40b000 <_ZN12cohesix_root17ROOTSERVER_ONLINE17h1dda28d86f6d4332E+0x428>
  405c90: 91006e73     	add	x19, x19, #0x1b
  405c94: aa1303e0     	mov	x0, x19
  405c98: 97fff1e4     	bl	0x402428 <coh_open>
  405c9c: 36f80360     	tbz	w0, #0x1f, 0x405d08 <main+0x21e8>
  405ca0: 528001c8     	mov	w8, #0xe                // =14
  405ca4: 910123e9     	add	x9, sp, #0x48
  405ca8: 91077fe0     	add	x0, sp, #0x1df
  405cac: a904a3f3     	stp	x19, x8, [sp, #0x48]
  405cb0: d503201f     	nop
  405cb4: 10fd9d48     	adr	x8, 0x40105c <_ZN44_$LT$$RF$T$u20$as$u20$core..fmt..Display$GT$3fmt17h49eddc5c262f8d49E>
  405cb8: a90b23e9     	stp	x9, x8, [sp, #0xb0]
  405cbc: d503201f     	nop
  405cc0: 10029c48     	adr	x8, 0x40b048 <_ZN12cohesix_root17ROOTSERVER_ONLINE17h1dda28d86f6d4332E+0x470>
  405cc4: 52800029     	mov	w9, #0x1                // =1
  405cc8: 910343e1     	add	x1, sp, #0xd0
  405ccc: a90d27e8     	stp	x8, x9, [sp, #0xd0]
  405cd0: 9102c3e8     	add	x8, sp, #0xb0
  405cd4: a90effe9     	stp	x9, xzr, [sp, #0xe8]
  405cd8: f90073e8     	str	x8, [sp, #0xe0]
  405cdc: 940007c3     	bl	0x407be8 <_ZN4core3fmt5write17hf7092a74ebbf9db4E>
  405ce0: d0000020     	adrp	x0, 0x40b000 <_ZN12cohesix_root17ROOTSERVER_ONLINE17h1dda28d86f6d4332E+0x428>
  405ce4: 91001000     	add	x0, x0, #0x4
  405ce8: 97fff1d0     	bl	0x402428 <coh_open>
  405cec: 37f81680     	tbnz	w0, #0x1f, 0x405fbc <main+0x249c>
  405cf0: 52800308     	mov	w8, #0x18               // =24
  405cf4: d503201f     	nop
  405cf8: 10039849     	adr	x9, 0x40d000 <_ZN12cohesix_root3sys5FILES17hda1ab28c883b931eE>
  405cfc: 9ba82408     	umaddl	x8, w0, w8, x9
  405d00: f900091f     	str	xzr, [x8, #0x10]
  405d04: 1400014a     	b	0x40622c <main+0x270c>
  405d08: 52800028     	mov	w8, #0x1                // =1
  405d0c: d503201f     	nop
  405d10: 10039796     	adr	x22, 0x40d000 <_ZN12cohesix_root3sys5FILES17hda1ab28c883b931eE>
  405d14: a9057fe8     	stp	x8, xzr, [sp, #0x50]
  405d18: 52800308     	mov	w8, #0x18               // =24
  405d1c: 6f00e400     	movi	v0.2d, #0000000000000000
  405d20: 9ba85817     	umaddl	x23, w0, w8, x22
  405d24: f90027ff     	str	xzr, [sp, #0x48]
  405d28: a940d2e1     	ldp	x1, x20, [x23, #0x8]
  405d2c: ad0683e0     	stp	q0, q0, [sp, #0xd0]
  405d30: ad0783e0     	stp	q0, q0, [sp, #0xf0]
  405d34: ad0883e0     	stp	q0, q0, [sp, #0x110]
  405d38: eb01029f     	cmp	x20, x1
  405d3c: ad0983e0     	stp	q0, q0, [sp, #0x130]
  405d40: ad0a83e0     	stp	q0, q0, [sp, #0x150]
  405d44: ad0b83e0     	stp	q0, q0, [sp, #0x170]
  405d48: ad0c83e0     	stp	q0, q0, [sp, #0x190]
  405d4c: ad0d83e0     	stp	q0, q0, [sp, #0x1b0]
  405d50: 540004c8     	b.hi	0x405de8 <main+0x22c8>
  405d54: aa1f03f3     	mov	x19, xzr
  405d58: 2a0003f8     	mov	w24, w0
  405d5c: 5280003a     	mov	w26, #0x1               // =1
  405d60: 52802019     	mov	w25, #0x100             // =256
  405d64: eb140028     	subs	x8, x1, x20
  405d68: 54003d40     	b.eq	0x406510 <main+0x29f0>
  405d6c: f104011f     	cmp	x8, #0x100
  405d70: f94002e9     	ldr	x9, [x23]
  405d74: 910343e0     	add	x0, sp, #0xd0
  405d78: 9a993115     	csel	x21, x8, x25, lo
  405d7c: 8b140121     	add	x1, x9, x20
  405d80: aa1503e2     	mov	x2, x21
  405d84: 97fff322     	bl	0x402a0c <memcpy>
  405d88: f94027e8     	ldr	x8, [sp, #0x48]
  405d8c: 8b1402a9     	add	x9, x21, x20
  405d90: f9000ae9     	str	x9, [x23, #0x10]
  405d94: cb130108     	sub	x8, x8, x19
  405d98: eb0802bf     	cmp	x21, x8
  405d9c: 54000168     	b.hi	0x405dc8 <main+0x22a8>
  405da0: 8b130340     	add	x0, x26, x19
  405da4: 910343e1     	add	x1, sp, #0xd0
  405da8: aa1503e2     	mov	x2, x21
  405dac: 97fff318     	bl	0x402a0c <memcpy>
  405db0: a940d2e1     	ldp	x1, x20, [x23, #0x8]
  405db4: 8b150273     	add	x19, x19, x21
  405db8: f9002ff3     	str	x19, [sp, #0x58]
  405dbc: eb01029f     	cmp	x20, x1
  405dc0: 54fffd29     	b.ls	0x405d64 <main+0x2244>
  405dc4: 14000009     	b	0x405de8 <main+0x22c8>
  405dc8: 910123e0     	add	x0, sp, #0x48
  405dcc: aa1303e1     	mov	x1, x19
  405dd0: aa1503e2     	mov	x2, x21
  405dd4: 52800023     	mov	w3, #0x1                // =1
  405dd8: 52800024     	mov	w4, #0x1                // =1
  405ddc: 97ffed0a     	bl	0x401204 <_ZN5alloc7raw_vec20RawVecInner$LT$A$GT$7reserve21do_reserve_and_handle17h8fe3f18238ba0e0dE>
  405de0: a9454ffa     	ldp	x26, x19, [sp, #0x50]
  405de4: 17ffffef     	b	0x405da0 <main+0x2280>
  405de8: aa1403e0     	mov	x0, x20
  405dec: 9400080a     	bl	0x407e14 <_ZN4core5slice5index22slice_index_order_fail17h65d5f108449d194bE>
  405df0: 0f0107a8     	movi	v8.2s, #0x3d
  405df4: f9402bfa     	ldr	x26, [sp, #0x50]
  405df8: d286c01c     	mov	x28, #0x3600            // =13824
  405dfc: aa1f03e8     	mov	x8, xzr
  405e00: 5280003b     	mov	w27, #0x1               // =1
  405e04: f2c0003c     	movk	x28, #0x1, lsl #32
  405e08: 14000004     	b	0x405e18 <main+0x22f8>
  405e0c: 91000508     	add	x8, x8, #0x1
  405e10: eb13011f     	cmp	x8, x19
  405e14: 54ffd202     	b.hs	0x405854 <main+0x1d34>
  405e18: 38686b49     	ldrb	w9, [x26, x8]
  405e1c: 9ac9236a     	lsl	x10, x27, x9
  405e20: 7100813f     	cmp	w9, #0x20
  405e24: 8a1c0149     	and	x9, x10, x28
  405e28: fa409924     	ccmp	x9, #0x0, #0x4, ls
  405e2c: 54ffff01     	b.ne	0x405e0c <main+0x22ec>
  405e30: eb13011f     	cmp	x8, x19
  405e34: aa0803f4     	mov	x20, x8
  405e38: 540001c2     	b.hs	0x405e70 <main+0x2350>
  405e3c: 38746b49     	ldrb	w9, [x26, x20]
  405e40: 9ac9236a     	lsl	x10, x27, x9
  405e44: 7100813f     	cmp	w9, #0x20
  405e48: 8a1c0149     	and	x9, x10, x28
  405e4c: fa409924     	ccmp	x9, #0x0, #0x4, ls
  405e50: 540000a1     	b.ne	0x405e64 <main+0x2344>
  405e54: 91000694     	add	x20, x20, #0x1
  405e58: eb14027f     	cmp	x19, x20
  405e5c: 54ffff01     	b.ne	0x405e3c <main+0x231c>
  405e60: aa1303f4     	mov	x20, x19
  405e64: eb08029f     	cmp	x20, x8
  405e68: 54000062     	b.hs	0x405e74 <main+0x2354>
  405e6c: 14000178     	b	0x40644c <main+0x292c>
  405e70: aa0803f4     	mov	x20, x8
  405e74: eb13029f     	cmp	x20, x19
  405e78: 54002f08     	b.hi	0x406458 <main+0x2938>
  405e7c: cb080282     	sub	x2, x20, x8
  405e80: 910123e0     	add	x0, sp, #0x48
  405e84: 8b080341     	add	x1, x26, x8
  405e88: 94000805     	bl	0x407e9c <_ZN4core3str8converts9from_utf817h8a8c012533dc3c6dE>
  405e8c: b9404be8     	ldr	w8, [sp, #0x48]
  405e90: 370008e8     	tbnz	w8, #0x0, 0x405fac <main+0x248c>
  405e94: a94557f6     	ldp	x22, x21, [sp, #0x50]
  405e98: 9102c3e0     	add	x0, sp, #0xb0
  405e9c: 910123e1     	add	x1, sp, #0x48
  405ea0: 3901c3fb     	strb	w27, [sp, #0x70]
  405ea4: fd0037e8     	str	d8, [sp, #0x68]
  405ea8: a904d7f6     	stp	x22, x21, [sp, #0x48]
  405eac: a905d7ff     	stp	xzr, x21, [sp, #0x58]
  405eb0: 97ffed09     	bl	0x4012d4 <_ZN81_$LT$core..str..pattern..CharSearcher$u20$as$u20$core..str..pattern..Searcher$GT$10next_match17h59af8016d074e948E>
  405eb4: b940b3e8     	ldr	w8, [sp, #0xb0]
  405eb8: 7100051f     	cmp	w8, #0x1
  405ebc: 54000781     	b.ne	0x405fac <main+0x248c>
  405ec0: f9405ff7     	ldr	x23, [sp, #0xb8]
  405ec4: b4000117     	cbz	x23, 0x405ee4 <main+0x23c4>
  405ec8: eb1702bf     	cmp	x21, x23
  405ecc: 540000a9     	b.ls	0x405ee0 <main+0x23c0>
  405ed0: 38f76ac8     	ldrsb	w8, [x22, x23]
  405ed4: 3101011f     	cmn	w8, #0x40
  405ed8: 5400006a     	b.ge	0x405ee4 <main+0x23c4>
  405edc: 14000404     	b	0x406eec <main+0x33cc>
  405ee0: 54008061     	b.ne	0x406eec <main+0x33cc>
  405ee4: cb1702a1     	sub	x1, x21, x23
  405ee8: 8b1702d5     	add	x21, x22, x23
  405eec: f100083f     	cmp	x1, #0x2
  405ef0: 540000a2     	b.hs	0x405f04 <main+0x23e4>
  405ef4: f100043f     	cmp	x1, #0x1
  405ef8: 54002fa1     	b.ne	0x4064ec <main+0x29cc>
  405efc: aa1f03f8     	mov	x24, xzr
  405f00: 14000005     	b	0x405f14 <main+0x23f4>
  405f04: 39c006a8     	ldrsb	w8, [x21, #0x1]
  405f08: 3101051f     	cmn	w8, #0x41
  405f0c: 54002fad     	b.le	0x406500 <main+0x29e0>
  405f10: d1000438     	sub	x24, x1, #0x1
  405f14: b7f87eb7     	tbnz	x23, #0x3f, 0x406ee8 <main+0x33c8>
  405f18: b40000f7     	cbz	x23, 0x405f34 <main+0x2414>
  405f1c: 52800020     	mov	w0, #0x1                // =1
  405f20: aa1703e1     	mov	x1, x23
  405f24: 97ffeddb     	bl	0x401690 <_ZN91_$LT$cohesix_root..allocator..BumpAllocator$u20$as$u20$core..alloc..global..GlobalAlloc$GT$5alloc17hc97a9adda21019bdE>
  405f28: aa0003f9     	mov	x25, x0
  405f2c: b5000060     	cbnz	x0, 0x405f38 <main+0x2418>
  405f30: 17fffe59     	b	0x405894 <main+0x1d74>
  405f34: 52800039     	mov	w25, #0x1               // =1
  405f38: aa1903e0     	mov	x0, x25
  405f3c: aa1603e1     	mov	x1, x22
  405f40: aa1703e2     	mov	x2, x23
  405f44: 97fff2b2     	bl	0x402a0c <memcpy>
  405f48: 9102c3e0     	add	x0, sp, #0xb0
  405f4c: a90b67f7     	stp	x23, x25, [sp, #0xb0]
  405f50: f90063f7     	str	x23, [sp, #0xc0]
  405f54: 94000445     	bl	0x407068 <_ZN5alloc7raw_vec19RawVec$LT$T$C$A$GT$8grow_one17he2c50e2ed9571b6bE>
  405f58: f9405fe8     	ldr	x8, [sp, #0xb8]
  405f5c: 3837691f     	strb	wzr, [x8, x23]
  405f60: b7f87c58     	tbnz	x24, #0x3f, 0x406ee8 <main+0x33c8>
  405f64: b40000f8     	cbz	x24, 0x405f80 <main+0x2460>
  405f68: 52800020     	mov	w0, #0x1                // =1
  405f6c: aa1803e1     	mov	x1, x24
  405f70: 97ffedc8     	bl	0x401690 <_ZN91_$LT$cohesix_root..allocator..BumpAllocator$u20$as$u20$core..alloc..global..GlobalAlloc$GT$5alloc17hc97a9adda21019bdE>
  405f74: aa0003f6     	mov	x22, x0
  405f78: b5000060     	cbnz	x0, 0x405f84 <main+0x2464>
  405f7c: 17fffe46     	b	0x405894 <main+0x1d74>
  405f80: 52800036     	mov	w22, #0x1               // =1
  405f84: 910006a1     	add	x1, x21, #0x1
  405f88: aa1603e0     	mov	x0, x22
  405f8c: aa1803e2     	mov	x2, x24
  405f90: 97fff29f     	bl	0x402a0c <memcpy>
  405f94: 910123e0     	add	x0, sp, #0x48
  405f98: a904dbf8     	stp	x24, x22, [sp, #0x48]
  405f9c: f9002ff8     	str	x24, [sp, #0x58]
  405fa0: 94000432     	bl	0x407068 <_ZN5alloc7raw_vec19RawVec$LT$T$C$A$GT$8grow_one17he2c50e2ed9571b6bE>
  405fa4: f9402be8     	ldr	x8, [sp, #0x50]
  405fa8: 3838691f     	strb	wzr, [x8, x24]
  405fac: eb13029f     	cmp	x20, x19
  405fb0: aa1403e8     	mov	x8, x20
  405fb4: 54fff323     	b.lo	0x405e18 <main+0x22f8>
  405fb8: 17fffe27     	b	0x405854 <main+0x1d34>
  405fbc: 52800da9     	mov	w9, #0x6d               // =109
  405fc0: aa0903e0     	mov	x0, x9
  405fc4: 92800108     	mov	x8, #-0x9               // =-9
  405fc8: 92800110     	mov	x16, #-0x9              // =-9
  405fcc: d4000001     	svc	#0
  405fd0: 52800d28     	mov	w8, #0x69               // =105
  405fd4: aa0803e0     	mov	x0, x8
  405fd8: 92800108     	mov	x8, #-0x9               // =-9
  405fdc: 92800110     	mov	x16, #-0x9              // =-9
  405fe0: d4000001     	svc	#0
  405fe4: 52800e6a     	mov	w10, #0x73              // =115
  405fe8: 52800dcb     	mov	w11, #0x6e              // =110
  405fec: aa0a03e0     	mov	x0, x10
  405ff0: 92800108     	mov	x8, #-0x9               // =-9
  405ff4: 92800110     	mov	x16, #-0x9              // =-9
  405ff8: d4000001     	svc	#0
  405ffc: 52800cec     	mov	w12, #0x67              // =103
  406000: 52800bed     	mov	w13, #0x5f              // =95
  406004: aa0a03e0     	mov	x0, x10
  406008: 92800108     	mov	x8, #-0x9               // =-9
  40600c: 92800110     	mov	x16, #-0x9              // =-9
  406010: d4000001     	svc	#0
  406014: 52800e8e     	mov	w14, #0x74              // =116
  406018: 52800c4f     	mov	w15, #0x62              // =98
  40601c: aa0803e0     	mov	x0, x8
  406020: 92800108     	mov	x8, #-0x9               // =-9
  406024: 92800110     	mov	x16, #-0x9              // =-9
  406028: d4000001     	svc	#0
  40602c: 52800cd0     	mov	w16, #0x66              // =102
  406030: aa0b03e0     	mov	x0, x11
  406034: 92800108     	mov	x8, #-0x9               // =-9
  406038: 92800110     	mov	x16, #-0x9              // =-9
  40603c: d4000001     	svc	#0
  406040: aa0c03e0     	mov	x0, x12
  406044: 92800108     	mov	x8, #-0x9               // =-9
  406048: 92800110     	mov	x16, #-0x9              // =-9
  40604c: d4000001     	svc	#0
  406050: aa0d03e0     	mov	x0, x13
  406054: 92800108     	mov	x8, #-0x9               // =-9
  406058: 92800110     	mov	x16, #-0x9              // =-9
  40605c: d4000001     	svc	#0
  406060: aa0803e0     	mov	x0, x8
  406064: 92800108     	mov	x8, #-0x9               // =-9
  406068: 92800110     	mov	x16, #-0x9              // =-9
  40606c: d4000001     	svc	#0
  406070: aa0b03e0     	mov	x0, x11
  406074: 92800108     	mov	x8, #-0x9               // =-9
  406078: 92800110     	mov	x16, #-0x9              // =-9
  40607c: d4000001     	svc	#0
  406080: aa0803e0     	mov	x0, x8
  406084: 92800108     	mov	x8, #-0x9               // =-9
  406088: 92800110     	mov	x16, #-0x9              // =-9
  40608c: d4000001     	svc	#0
  406090: aa0e03e0     	mov	x0, x14
  406094: 92800108     	mov	x8, #-0x9               // =-9
  406098: 92800110     	mov	x16, #-0x9              // =-9
  40609c: d4000001     	svc	#0
  4060a0: aa0d03e0     	mov	x0, x13
  4060a4: 92800108     	mov	x8, #-0x9               // =-9
  4060a8: 92800110     	mov	x16, #-0x9              // =-9
  4060ac: d4000001     	svc	#0
  4060b0: aa0f03e0     	mov	x0, x15
  4060b4: 92800108     	mov	x8, #-0x9               // =-9
  4060b8: 92800110     	mov	x16, #-0x9              // =-9
  4060bc: d4000001     	svc	#0
  4060c0: 5280014f     	mov	w15, #0xa               // =10
  4060c4: aa0803e0     	mov	x0, x8
  4060c8: 92800108     	mov	x8, #-0x9               // =-9
  4060cc: 92800110     	mov	x16, #-0x9              // =-9
  4060d0: d4000001     	svc	#0
  4060d4: aa0b03e0     	mov	x0, x11
  4060d8: 92800108     	mov	x8, #-0x9               // =-9
  4060dc: 92800110     	mov	x16, #-0x9              // =-9
  4060e0: d4000001     	svc	#0
  4060e4: aa0f03e0     	mov	x0, x15
  4060e8: 92800108     	mov	x8, #-0x9               // =-9
  4060ec: 92800110     	mov	x16, #-0x9              // =-9
  4060f0: d4000001     	svc	#0
  4060f4: aa1003e0     	mov	x0, x16
  4060f8: 92800108     	mov	x8, #-0x9               // =-9
  4060fc: 92800110     	mov	x16, #-0x9              // =-9
  406100: d4000001     	svc	#0
  406104: 52800c30     	mov	w16, #0x61              // =97
  406108: aa1003e0     	mov	x0, x16
  40610c: 92800108     	mov	x8, #-0x9               // =-9
  406110: 92800110     	mov	x16, #-0x9              // =-9
  406114: d4000001     	svc	#0
  406118: aa0e03e0     	mov	x0, x14
  40611c: 92800108     	mov	x8, #-0x9               // =-9
  406120: 92800110     	mov	x16, #-0x9              // =-9
  406124: d4000001     	svc	#0
  406128: aa1003e0     	mov	x0, x16
  40612c: 92800108     	mov	x8, #-0x9               // =-9
  406130: 92800110     	mov	x16, #-0x9              // =-9
  406134: d4000001     	svc	#0
  406138: 52800d90     	mov	w16, #0x6c              // =108
  40613c: aa1003e0     	mov	x0, x16
  406140: 92800108     	mov	x8, #-0x9               // =-9
  406144: 92800110     	mov	x16, #-0x9              // =-9
  406148: d4000001     	svc	#0
  40614c: aa0d03e0     	mov	x0, x13
  406150: 92800108     	mov	x8, #-0x9               // =-9
  406154: 92800110     	mov	x16, #-0x9              // =-9
  406158: d4000001     	svc	#0
  40615c: aa0903e0     	mov	x0, x9
  406160: 92800108     	mov	x8, #-0x9               // =-9
  406164: 92800110     	mov	x16, #-0x9              // =-9
  406168: d4000001     	svc	#0
  40616c: aa0803e0     	mov	x0, x8
  406170: 92800108     	mov	x8, #-0x9               // =-9
  406174: 92800110     	mov	x16, #-0x9              // =-9
  406178: d4000001     	svc	#0
  40617c: aa0a03e0     	mov	x0, x10
  406180: 92800108     	mov	x8, #-0x9               // =-9
  406184: 92800110     	mov	x16, #-0x9              // =-9
  406188: d4000001     	svc	#0
  40618c: aa0a03e0     	mov	x0, x10
  406190: 92800108     	mov	x8, #-0x9               // =-9
  406194: 92800110     	mov	x16, #-0x9              // =-9
  406198: d4000001     	svc	#0
  40619c: aa0803e0     	mov	x0, x8
  4061a0: 92800108     	mov	x8, #-0x9               // =-9
  4061a4: 92800110     	mov	x16, #-0x9              // =-9
  4061a8: d4000001     	svc	#0
  4061ac: aa0b03e0     	mov	x0, x11
  4061b0: 92800108     	mov	x8, #-0x9               // =-9
  4061b4: 92800110     	mov	x16, #-0x9              // =-9
  4061b8: d4000001     	svc	#0
  4061bc: aa0c03e0     	mov	x0, x12
  4061c0: 92800108     	mov	x8, #-0x9               // =-9
  4061c4: 92800110     	mov	x16, #-0x9              // =-9
  4061c8: d4000001     	svc	#0
  4061cc: aa0d03e0     	mov	x0, x13
  4061d0: 92800108     	mov	x8, #-0x9               // =-9
  4061d4: 92800110     	mov	x16, #-0x9              // =-9
  4061d8: d4000001     	svc	#0
  4061dc: aa0803e0     	mov	x0, x8
  4061e0: 92800108     	mov	x8, #-0x9               // =-9
  4061e4: 92800110     	mov	x16, #-0x9              // =-9
  4061e8: d4000001     	svc	#0
  4061ec: aa0b03e0     	mov	x0, x11
  4061f0: 92800108     	mov	x8, #-0x9               // =-9
  4061f4: 92800110     	mov	x16, #-0x9              // =-9
  4061f8: d4000001     	svc	#0
  4061fc: aa0803e0     	mov	x0, x8
  406200: 92800108     	mov	x8, #-0x9               // =-9
  406204: 92800110     	mov	x16, #-0x9              // =-9
  406208: d4000001     	svc	#0
  40620c: aa0e03e0     	mov	x0, x14
  406210: 92800108     	mov	x8, #-0x9               // =-9
  406214: 92800110     	mov	x16, #-0x9              // =-9
  406218: d4000001     	svc	#0
  40621c: aa0f03e0     	mov	x0, x15
  406220: 92800108     	mov	x8, #-0x9               // =-9
  406224: 92800110     	mov	x16, #-0x9              // =-9
  406228: d4000001     	svc	#0
  40622c: 52800b68     	mov	w8, #0x5b               // =91
  406230: aa0803e0     	mov	x0, x8
  406234: 92800108     	mov	x8, #-0x9               // =-9
  406238: 92800110     	mov	x16, #-0x9              // =-9
  40623c: d4000001     	svc	#0
  406240: 52800de9     	mov	w9, #0x6f               // =111
  406244: 52800e48     	mov	w8, #0x72               // =114
  406248: aa0803e0     	mov	x0, x8
  40624c: 92800108     	mov	x8, #-0x9               // =-9
  406250: 92800110     	mov	x16, #-0x9              // =-9
  406254: d4000001     	svc	#0
  406258: 52800d8a     	mov	w10, #0x6c              // =108
  40625c: aa0903e0     	mov	x0, x9
  406260: 92800108     	mov	x8, #-0x9               // =-9
  406264: 92800110     	mov	x16, #-0x9              // =-9
  406268: d4000001     	svc	#0
  40626c: 52800c2b     	mov	w11, #0x61              // =97
  406270: 52800eac     	mov	w12, #0x75              // =117
  406274: aa0903e0     	mov	x0, x9
  406278: 92800108     	mov	x8, #-0x9               // =-9
  40627c: 92800110     	mov	x16, #-0x9              // =-9
  406280: d4000001     	svc	#0
  406284: 52800e89     	mov	w9, #0x74               // =116
  406288: 52800dcd     	mov	w13, #0x6e              // =110
  40628c: aa0903e0     	mov	x0, x9
  406290: 92800108     	mov	x8, #-0x9               // =-9
  406294: 92800110     	mov	x16, #-0x9              // =-9
  406298: d4000001     	svc	#0
  40629c: 52800ba9     	mov	w9, #0x5d               // =93
  4062a0: 52800c6e     	mov	w14, #0x63              // =99
  4062a4: aa0903e0     	mov	x0, x9
  4062a8: 92800108     	mov	x8, #-0x9               // =-9
  4062ac: 92800110     	mov	x16, #-0x9              // =-9
  4062b0: d4000001     	svc	#0
  4062b4: 52800409     	mov	w9, #0x20               // =32
  4062b8: aa0903e0     	mov	x0, x9
  4062bc: 92800108     	mov	x8, #-0x9               // =-9
  4062c0: 92800110     	mov	x16, #-0x9              // =-9
  4062c4: d4000001     	svc	#0
  4062c8: aa0a03e0     	mov	x0, x10
  4062cc: 92800108     	mov	x8, #-0x9               // =-9
  4062d0: 92800110     	mov	x16, #-0x9              // =-9
  4062d4: d4000001     	svc	#0
  4062d8: aa0b03e0     	mov	x0, x11
  4062dc: 92800108     	mov	x8, #-0x9               // =-9
  4062e0: 92800110     	mov	x16, #-0x9              // =-9
  4062e4: d4000001     	svc	#0
  4062e8: aa0c03e0     	mov	x0, x12
  4062ec: 92800108     	mov	x8, #-0x9               // =-9
  4062f0: 92800110     	mov	x16, #-0x9              // =-9
  4062f4: d4000001     	svc	#0
  4062f8: aa0d03e0     	mov	x0, x13
  4062fc: 92800108     	mov	x8, #-0x9               // =-9
  406300: 92800110     	mov	x16, #-0x9              // =-9
  406304: d4000001     	svc	#0
  406308: aa0e03e0     	mov	x0, x14
  40630c: 92800108     	mov	x8, #-0x9               // =-9
  406310: 92800110     	mov	x16, #-0x9              // =-9
  406314: d4000001     	svc	#0
  406318: 52800d0e     	mov	w14, #0x68              // =104
  40631c: aa0e03e0     	mov	x0, x14
  406320: 92800108     	mov	x8, #-0x9               // =-9
  406324: 92800110     	mov	x16, #-0x9              // =-9
  406328: d4000001     	svc	#0
  40632c: 52800d2e     	mov	w14, #0x69              // =105
  406330: aa0e03e0     	mov	x0, x14
  406334: 92800108     	mov	x8, #-0x9               // =-9
  406338: 92800110     	mov	x16, #-0x9              // =-9
  40633c: d4000001     	svc	#0
  406340: 52800cee     	mov	w14, #0x67              // =103
  406344: aa0d03e0     	mov	x0, x13
  406348: 92800108     	mov	x8, #-0x9               // =-9
  40634c: 92800110     	mov	x16, #-0x9              // =-9
  406350: d4000001     	svc	#0
  406354: aa0e03e0     	mov	x0, x14
  406358: 92800108     	mov	x8, #-0x9               // =-9
  40635c: 92800110     	mov	x16, #-0x9              // =-9
  406360: d4000001     	svc	#0
  406364: aa0903e0     	mov	x0, x9
  406368: 92800108     	mov	x8, #-0x9               // =-9
  40636c: 92800110     	mov	x16, #-0x9              // =-9
  406370: d4000001     	svc	#0
  406374: 52800e69     	mov	w9, #0x73               // =115
  406378: aa0c03e0     	mov	x0, x12
  40637c: 92800108     	mov	x8, #-0x9               // =-9
  406380: 92800110     	mov	x16, #-0x9              // =-9
  406384: d4000001     	svc	#0
  406388: aa0903e0     	mov	x0, x9
  40638c: 92800108     	mov	x8, #-0x9               // =-9
  406390: 92800110     	mov	x16, #-0x9              // =-9
  406394: d4000001     	svc	#0
  406398: 52800ca9     	mov	w9, #0x65               // =101
  40639c: aa0903e0     	mov	x0, x9
  4063a0: 92800108     	mov	x8, #-0x9               // =-9
  4063a4: 92800110     	mov	x16, #-0x9              // =-9
  4063a8: d4000001     	svc	#0
  4063ac: aa0803e0     	mov	x0, x8
  4063b0: 92800108     	mov	x8, #-0x9               // =-9
  4063b4: 92800110     	mov	x16, #-0x9              // =-9
  4063b8: d4000001     	svc	#0
  4063bc: 52800c88     	mov	w8, #0x64               // =100
  4063c0: aa0a03e0     	mov	x0, x10
  4063c4: 92800108     	mov	x8, #-0x9               // =-9
  4063c8: 92800110     	mov	x16, #-0x9              // =-9
  4063cc: d4000001     	svc	#0
  4063d0: aa0b03e0     	mov	x0, x11
  4063d4: 92800108     	mov	x8, #-0x9               // =-9
  4063d8: 92800110     	mov	x16, #-0x9              // =-9
  4063dc: d4000001     	svc	#0
  4063e0: aa0d03e0     	mov	x0, x13
  4063e4: 92800108     	mov	x8, #-0x9               // =-9
  4063e8: 92800110     	mov	x16, #-0x9              // =-9
  4063ec: d4000001     	svc	#0
  4063f0: aa0803e0     	mov	x0, x8
  4063f4: 92800108     	mov	x8, #-0x9               // =-9
  4063f8: 92800110     	mov	x16, #-0x9              // =-9
  4063fc: d4000001     	svc	#0
  406400: 528005c8     	mov	w8, #0x2e               // =46
  406404: aa0803e0     	mov	x0, x8
  406408: 92800108     	mov	x8, #-0x9               // =-9
  40640c: 92800110     	mov	x16, #-0x9              // =-9
  406410: d4000001     	svc	#0
  406414: aa0803e0     	mov	x0, x8
  406418: 92800108     	mov	x8, #-0x9               // =-9
  40641c: 92800110     	mov	x16, #-0x9              // =-9
  406420: d4000001     	svc	#0
  406424: aa0803e0     	mov	x0, x8
  406428: 92800108     	mov	x8, #-0x9               // =-9
  40642c: 92800110     	mov	x16, #-0x9              // =-9
  406430: d4000001     	svc	#0
  406434: 52800148     	mov	w8, #0xa                // =10
  406438: aa0803e0     	mov	x0, x8
  40643c: 92800108     	mov	x8, #-0x9               // =-9
  406440: 92800110     	mov	x16, #-0x9              // =-9
  406444: d4000001     	svc	#0
  406448: 97fff4ff     	bl	0x403844 <_ZN12cohesix_root9exec_init17h355255ea938d66f6E>
  40644c: aa0803e0     	mov	x0, x8
  406450: aa1403e1     	mov	x1, x20
  406454: 94000670     	bl	0x407e14 <_ZN4core5slice5index22slice_index_order_fail17h65d5f108449d194bE>
  406458: aa1403e0     	mov	x0, x20
  40645c: aa1303e1     	mov	x1, x19
  406460: 94000453     	bl	0x4075ac <_ZN4core5slice5index24slice_end_index_len_fail17h6e690d15dace2bc9E>
  406464: f9004be8     	str	x8, [sp, #0x90]
  406468: 910243e8     	add	x8, sp, #0x90
  40646c: 91077fe0     	add	x0, sp, #0x1df
  406470: a90d6be8     	stp	x8, x26, [sp, #0xd0]
  406474: 9100c3e8     	add	x8, sp, #0x30
  406478: 910123e1     	add	x1, sp, #0x48
  40647c: a90e6be8     	stp	x8, x26, [sp, #0xe0]
  406480: 9102c3e8     	add	x8, sp, #0xb0
  406484: f9001be9     	str	x9, [sp, #0x30]
  406488: 52800069     	mov	w9, #0x3                // =3
  40648c: a90f6be8     	stp	x8, x26, [sp, #0xf0]
  406490: d503201f     	nop
  406494: 10025328     	adr	x8, 0x40aef8 <_ZN12cohesix_root17ROOTSERVER_ONLINE17h1dda28d86f6d4332E+0x320>
  406498: a904a7e8     	stp	x8, x9, [sp, #0x48]
  40649c: 910343e8     	add	x8, sp, #0xd0
  4064a0: f9005bea     	str	x10, [sp, #0xb0]
  4064a4: a906a7f7     	stp	x23, x9, [sp, #0x68]
  4064a8: a905a7e8     	stp	x8, x9, [sp, #0x58]
  4064ac: 97ffeb89     	bl	0x4012d0 <_ZN75_$LT$$RF$mut$u20$W$u20$as$u20$core..fmt..Write..write_fmt..SpecWriteFmt$GT$14spec_write_fmt17hca4abb18532e998bE>
  4064b0: 9400037e     	bl	0x4072a8 <_ZN4core9panicking9panic_fmt17h7d27c6f13468728dE>
  4064b4: d503201f     	nop
  4064b8: 10024d48     	adr	x8, 0x40ae60 <_ZN12cohesix_root17ROOTSERVER_ONLINE17h1dda28d86f6d4332E+0x288>
  4064bc: 52800049     	mov	w9, #0x2                // =2
  4064c0: a90d27e8     	stp	x8, x9, [sp, #0xd0]
  4064c4: d503201f     	nop
  4064c8: 10024dc8     	adr	x8, 0x40ae80 <_ZN12cohesix_root17ROOTSERVER_ONLINE17h1dda28d86f6d4332E+0x2a8>
  4064cc: a904ebf3     	stp	x19, x26, [sp, #0x48]
  4064d0: a905ebf4     	stp	x20, x26, [sp, #0x58]
  4064d4: a90f27e8     	stp	x8, x9, [sp, #0xf0]
  4064d8: a90e27f9     	stp	x25, x9, [sp, #0xe0]
  4064dc: 91077fe0     	add	x0, sp, #0x1df
  4064e0: 910343e1     	add	x1, sp, #0xd0
  4064e4: 97ffeb7b     	bl	0x4012d0 <_ZN75_$LT$$RF$mut$u20$W$u20$as$u20$core..fmt..Write..write_fmt..SpecWriteFmt$GT$14spec_write_fmt17hca4abb18532e998bE>
  4064e8: 94000370     	bl	0x4072a8 <_ZN4core9panicking9panic_fmt17h7d27c6f13468728dE>
  4064ec: aa1503e0     	mov	x0, x21
  4064f0: aa1f03e1     	mov	x1, xzr
  4064f4: 52800022     	mov	w2, #0x1                // =1
  4064f8: aa1f03e3     	mov	x3, xzr
  4064fc: 94000765     	bl	0x408290 <_ZN4core3str16slice_error_fail17h298ab1af74ec8f92E>
  406500: aa1503e0     	mov	x0, x21
  406504: 52800022     	mov	w2, #0x1                // =1
  406508: aa0103e3     	mov	x3, x1
  40650c: 94000761     	bl	0x408290 <_ZN4core3str16slice_error_fail17h298ab1af74ec8f92E>
  406510: 52800308     	mov	w8, #0x18               // =24
  406514: f94027e9     	ldr	x9, [sp, #0x48]
  406518: d2f0000a     	mov	x10, #-0x8000000000000000 // =-9223372036854775808
  40651c: 9ba85b08     	umaddl	x8, w24, w8, x22
  406520: eb0a013f     	cmp	x9, x10
  406524: f900091f     	str	xzr, [x8, #0x10]
  406528: 54ffbdc0     	b.eq	0x405ce0 <main+0x21c0>
  40652c: f9402be1     	ldr	x1, [sp, #0x50]
  406530: 9100c3e0     	add	x0, sp, #0x30
  406534: aa1303e2     	mov	x2, x19
  406538: 94000659     	bl	0x407e9c <_ZN4core3str8converts9from_utf817h8a8c012533dc3c6dE>
  40653c: b94033e8     	ldr	w8, [sp, #0x30]
  406540: 7100051f     	cmp	w8, #0x1
  406544: 54ffbce0     	b.eq	0x405ce0 <main+0x21c0>
  406548: 0f000540     	movi	v0.2s, #0xa
  40654c: 0f010468     	movi	v8.2s, #0x23
  406550: d287c01c     	mov	x28, #0x3e00            // =15872
  406554: a943a3e9     	ldp	x9, x8, [sp, #0x38]
  406558: 910123fa     	add	x26, sp, #0x48
  40655c: 52800037     	mov	w23, #0x1               // =1
  406560: 5282d016     	mov	w22, #0x1680            // =5760
  406564: f2c0003c     	movk	x28, #0x1, lsl #32
  406568: 390203f7     	strb	w23, [sp, #0x80]
  40656c: a904a3ff     	stp	xzr, x8, [sp, #0x48]
  406570: fd003fe0     	str	d0, [sp, #0x78]
  406574: a905a3e9     	stp	x9, x8, [sp, #0x58]
  406578: a906a3ff     	stp	xzr, x8, [sp, #0x68]
  40657c: 790113ff     	strh	wzr, [sp, #0x88]
  406580: 14000012     	b	0x4065c8 <main+0x2aa8>
  406584: 5282d016     	mov	w22, #0x1680            // =5760
  406588: 910243e8     	add	x8, sp, #0x90
  40658c: 91077fe0     	add	x0, sp, #0x1df
  406590: 910343e1     	add	x1, sp, #0xd0
  406594: f9005be8     	str	x8, [sp, #0xb0]
  406598: d503201f     	nop
  40659c: 10fd5608     	adr	x8, 0x40105c <_ZN44_$LT$$RF$T$u20$as$u20$core..fmt..Display$GT$3fmt17h49eddc5c262f8d49E>
  4065a0: f9005fe8     	str	x8, [sp, #0xb8]
  4065a4: d503201f     	nop
  4065a8: 100258c8     	adr	x8, 0x40b0c0 <_ZN12cohesix_root17ROOTSERVER_ONLINE17h1dda28d86f6d4332E+0x4e8>
  4065ac: a90d5fe8     	stp	x8, x23, [sp, #0xd0]
  4065b0: 9102c3e8     	add	x8, sp, #0xb0
  4065b4: a90efff7     	stp	x23, xzr, [sp, #0xe8]
  4065b8: f90073e8     	str	x8, [sp, #0xe0]
  4065bc: 9400058b     	bl	0x407be8 <_ZN4core3fmt5write17hf7092a74ebbf9db4E>
  4065c0: 394227e8     	ldrb	w8, [sp, #0x89]
  4065c4: 3707b8e8     	tbnz	w8, #0x0, 0x405ce0 <main+0x21c0>
  4065c8: f9402ff3     	ldr	x19, [sp, #0x58]
  4065cc: 910343e0     	add	x0, sp, #0xd0
  4065d0: 91004341     	add	x1, x26, #0x10
  4065d4: 97ffeb40     	bl	0x4012d4 <_ZN81_$LT$core..str..pattern..CharSearcher$u20$as$u20$core..str..pattern..Searcher$GT$10next_match17h59af8016d074e948E>
  4065d8: b940d3e8     	ldr	w8, [sp, #0xd0]
  4065dc: 7100051f     	cmp	w8, #0x1
  4065e0: 54000101     	b.ne	0x406600 <main+0x2ae0>
  4065e4: f94073e9     	ldr	x9, [sp, #0xe0]
  4065e8: f94027ea     	ldr	x10, [sp, #0x48]
  4065ec: cb0a0128     	sub	x8, x9, x10
  4065f0: 8b0a0273     	add	x19, x19, x10
  4065f4: f90027e9     	str	x9, [sp, #0x48]
  4065f8: b50001c8     	cbnz	x8, 0x406630 <main+0x2b10>
  4065fc: 1400001b     	b	0x406668 <main+0x2b48>
  406600: 394227e8     	ldrb	w8, [sp, #0x89]
  406604: 3707b6e8     	tbnz	w8, #0x0, 0x405ce0 <main+0x21c0>
  406608: a944a3e9     	ldp	x9, x8, [sp, #0x48]
  40660c: 394223ea     	ldrb	w10, [sp, #0x88]
  406610: 390227f7     	strb	w23, [sp, #0x89]
  406614: 3700006a     	tbnz	w10, #0x0, 0x406620 <main+0x2b00>
  406618: eb09011f     	cmp	x8, x9
  40661c: 54ffb620     	b.eq	0x405ce0 <main+0x21c0>
  406620: f9402fea     	ldr	x10, [sp, #0x58]
  406624: cb090108     	sub	x8, x8, x9
  406628: 8b090153     	add	x19, x10, x9
  40662c: b40001e8     	cbz	x8, 0x406668 <main+0x2b48>
  406630: d1000509     	sub	x9, x8, #0x1
  406634: 38696a6a     	ldrb	w10, [x19, x9]
  406638: 7100295f     	cmp	w10, #0xa
  40663c: 54000161     	b.ne	0x406668 <main+0x2b48>
  406640: d1000908     	sub	x8, x8, #0x2
  406644: b40000a9     	cbz	x9, 0x406658 <main+0x2b38>
  406648: 38686a6a     	ldrb	w10, [x19, x8]
  40664c: 7100355f     	cmp	w10, #0xd
  406650: 9a9f026a     	csel	x10, x19, xzr, eq
  406654: 14000002     	b	0x40665c <main+0x2b3c>
  406658: aa1f03ea     	mov	x10, xzr
  40665c: f100015f     	cmp	x10, #0x0
  406660: 9a880128     	csel	x8, x9, x8, eq
  406664: 9a8a0273     	csel	x19, x19, x10, eq
  406668: b4ffb3d3     	cbz	x19, 0x405ce0 <main+0x21c0>
  40666c: a90d23ff     	stp	xzr, x8, [sp, #0xd0]
  406670: 9102c3e0     	add	x0, sp, #0xb0
  406674: a90e23f3     	stp	x19, x8, [sp, #0xe0]
  406678: a90f23ff     	stp	xzr, x8, [sp, #0xf0]
  40667c: 910343e8     	add	x8, sp, #0xd0
  406680: 91004101     	add	x1, x8, #0x10
  406684: fd0083e8     	str	d8, [sp, #0x100]
  406688: 390423f7     	strb	w23, [sp, #0x108]
  40668c: 790223f7     	strh	w23, [sp, #0x110]
  406690: 97ffeb11     	bl	0x4012d4 <_ZN81_$LT$core..str..pattern..CharSearcher$u20$as$u20$core..str..pattern..Searcher$GT$10next_match17h59af8016d074e948E>
  406694: b940b3e8     	ldr	w8, [sp, #0xb0]
  406698: 7100051f     	cmp	w8, #0x1
  40669c: 540001a1     	b.ne	0x4066d0 <main+0x2bb0>
  4066a0: a94babe8     	ldp	x8, x10, [sp, #0xb8]
  4066a4: d503201f     	nop
  4066a8: 70025b52     	adr	x18, 0x40b213 <_ZN4core7unicode12unicode_data11white_space14WHITESPACE_MAP17hb21770c3c413f814E>
  4066ac: f9406beb     	ldr	x11, [sp, #0xd0]
  4066b0: cb0b0109     	sub	x9, x8, x11
  4066b4: 8b0b0268     	add	x8, x19, x11
  4066b8: f9006bea     	str	x10, [sp, #0xd0]
  4066bc: 8b09010a     	add	x10, x8, x9
  4066c0: aa1f03eb     	mov	x11, xzr
  4066c4: aa0803ec     	mov	x12, x8
  4066c8: b5000449     	cbnz	x9, 0x406750 <main+0x2c30>
  4066cc: 1400005b     	b	0x406838 <main+0x2d18>
  4066d0: 394447e8     	ldrb	w8, [sp, #0x111]
  4066d4: d503201f     	nop
  4066d8: 700259d2     	adr	x18, 0x40b213 <_ZN4core7unicode12unicode_data11white_space14WHITESPACE_MAP17hb21770c3c413f814E>
  4066dc: 370000e8     	tbnz	w8, #0x0, 0x4066f8 <main+0x2bd8>
  4066e0: a94d27e8     	ldp	x8, x9, [sp, #0xd0]
  4066e4: 394443ea     	ldrb	w10, [sp, #0x110]
  4066e8: 390447f7     	strb	w23, [sp, #0x111]
  4066ec: 370000ea     	tbnz	w10, #0x0, 0x406708 <main+0x2be8>
  4066f0: eb08013f     	cmp	x9, x8
  4066f4: 540000a1     	b.ne	0x406708 <main+0x2be8>
  4066f8: aa1f03e9     	mov	x9, xzr
  4066fc: aa1f03eb     	mov	x11, xzr
  406700: 52800028     	mov	w8, #0x1                // =1
  406704: 14000085     	b	0x406918 <main+0x2df8>
  406708: f94073ea     	ldr	x10, [sp, #0xe0]
  40670c: cb080129     	sub	x9, x9, x8
  406710: 8b080148     	add	x8, x10, x8
  406714: 8b09010a     	add	x10, x8, x9
  406718: aa1f03eb     	mov	x11, xzr
  40671c: aa0803ec     	mov	x12, x8
  406720: b5000189     	cbnz	x9, 0x406750 <main+0x2c30>
  406724: 14000045     	b	0x406838 <main+0x2d18>
  406728: 331a11ab     	bfi	w11, w13, #6, #5
  40672c: 910009cc     	add	x12, x14, #0x2
  406730: 2a0b03ed     	mov	w13, w11
  406734: 510025ab     	sub	w11, w13, #0x9
  406738: cb0e018e     	sub	x14, x12, x14
  40673c: 7100157f     	cmp	w11, #0x5
  406740: 8b0901cb     	add	x11, x14, x9
  406744: 54000302     	b.hs	0x4067a4 <main+0x2c84>
  406748: eb0a019f     	cmp	x12, x10
  40674c: 54000e20     	b.eq	0x406910 <main+0x2df0>
  406750: aa0c03ee     	mov	x14, x12
  406754: 38c0158f     	ldrsb	w15, [x12], #0x1
  406758: aa0b03e9     	mov	x9, x11
  40675c: 12001ded     	and	w13, w15, #0xff
  406760: 36fffeaf     	tbz	w15, #0x1f, 0x406734 <main+0x2c14>
  406764: 394005cb     	ldrb	w11, [x14, #0x1]
  406768: 710381bf     	cmp	w13, #0xe0
  40676c: 1200156b     	and	w11, w11, #0x3f
  406770: 54fffdc3     	b.lo	0x406728 <main+0x2c08>
  406774: 394009cc     	ldrb	w12, [x14, #0x2]
  406778: 7103c1bf     	cmp	w13, #0xf0
  40677c: 1200158c     	and	w12, w12, #0x3f
  406780: 2a0b198c     	orr	w12, w12, w11, lsl #6
  406784: 120011ab     	and	w11, w13, #0x1f
  406788: 54000283     	b.lo	0x4067d8 <main+0x2cb8>
  40678c: 39400dcd     	ldrb	w13, [x14, #0x3]
  406790: 120015ad     	and	w13, w13, #0x3f
  406794: 2a0c19ad     	orr	w13, w13, w12, lsl #6
  406798: 910011cc     	add	x12, x14, #0x4
  40679c: 330e096d     	bfi	w13, w11, #18, #3
  4067a0: 17ffffe5     	b	0x406734 <main+0x2c14>
  4067a4: 710081bf     	cmp	w13, #0x20
  4067a8: 54fffd00     	b.eq	0x406748 <main+0x2c28>
  4067ac: 710201bf     	cmp	w13, #0x80
  4067b0: 54000443     	b.lo	0x406838 <main+0x2d18>
  4067b4: 53087dae     	lsr	w14, w13, #8
  4067b8: 71007ddf     	cmp	w14, #0x1f
  4067bc: 5400014c     	b.gt	0x4067e4 <main+0x2cc4>
  4067c0: 3400020e     	cbz	w14, 0x406800 <main+0x2ce0>
  4067c4: 710059df     	cmp	w14, #0x16
  4067c8: 54000381     	b.ne	0x406838 <main+0x2d18>
  4067cc: 6b1601bf     	cmp	w13, w22
  4067d0: 54fffbc0     	b.eq	0x406748 <main+0x2c28>
  4067d4: 14000019     	b	0x406838 <main+0x2d18>
  4067d8: 2a0b318d     	orr	w13, w12, w11, lsl #12
  4067dc: 91000dcc     	add	x12, x14, #0x3
  4067e0: 17ffffd5     	b	0x406734 <main+0x2c14>
  4067e4: 710081df     	cmp	w14, #0x20
  4067e8: 54000140     	b.eq	0x406810 <main+0x2cf0>
  4067ec: 7100c1df     	cmp	w14, #0x30
  4067f0: 54000241     	b.ne	0x406838 <main+0x2d18>
  4067f4: 71400dbf     	cmp	w13, #0x3, lsl #12      // =0x3000
  4067f8: 54fffa80     	b.eq	0x406748 <main+0x2c28>
  4067fc: 1400000f     	b	0x406838 <main+0x2d18>
  406800: 92401dad     	and	x13, x13, #0xff
  406804: 386d6a4d     	ldrb	w13, [x18, x13]
  406808: 3707fa0d     	tbnz	w13, #0x0, 0x406748 <main+0x2c28>
  40680c: 1400000b     	b	0x406838 <main+0x2d18>
  406810: 92401dad     	and	x13, x13, #0xff
  406814: 386d6a4d     	ldrb	w13, [x18, x13]
  406818: 370ff98d     	tbnz	w13, #0x1, 0x406748 <main+0x2c28>
  40681c: 14000007     	b	0x406838 <main+0x2d18>
  406820: 120011ef     	and	w15, w15, #0x1f
  406824: 120015ce     	and	w14, w14, #0x3f
  406828: 2a0f19ce     	orr	w14, w14, w15, lsl #6
  40682c: 510025cf     	sub	w15, w14, #0x9
  406830: 710015ff     	cmp	w15, #0x5
  406834: 54000282     	b.hs	0x406884 <main+0x2d64>
  406838: eb0a019f     	cmp	x12, x10
  40683c: 540006e0     	b.eq	0x406918 <main+0x2df8>
  406840: aa0a03ed     	mov	x13, x10
  406844: 38dffd4e     	ldrsb	w14, [x10, #-0x1]!
  406848: 36ffff2e     	tbz	w14, #0x1f, 0x40682c <main+0x2d0c>
  40684c: aa0d03ea     	mov	x10, x13
  406850: 38dfed4f     	ldrsb	w15, [x10, #-0x2]!
  406854: 310101ff     	cmn	w15, #0x40
  406858: 54fffe4a     	b.ge	0x406820 <main+0x2d00>
  40685c: aa0d03ea     	mov	x10, x13
  406860: 38dfdd50     	ldrsb	w16, [x10, #-0x3]!
  406864: 3101021f     	cmn	w16, #0x40
  406868: 5400028a     	b.ge	0x4068b8 <main+0x2d98>
  40686c: aa0d03ea     	mov	x10, x13
  406870: 12001e10     	and	w16, w16, #0xff
  406874: 385fcd51     	ldrb	w17, [x10, #-0x4]!
  406878: 12001610     	and	w16, w16, #0x3f
  40687c: 331a0a30     	bfi	w16, w17, #6, #3
  406880: 1400000f     	b	0x4068bc <main+0x2d9c>
  406884: 710081df     	cmp	w14, #0x20
  406888: 54fffd80     	b.eq	0x406838 <main+0x2d18>
  40688c: 710201df     	cmp	w14, #0x80
  406890: 540003a3     	b.lo	0x406904 <main+0x2de4>
  406894: 53087dcf     	lsr	w15, w14, #8
  406898: 71007dff     	cmp	w15, #0x1f
  40689c: 5400018c     	b.gt	0x4068cc <main+0x2dac>
  4068a0: 3400024f     	cbz	w15, 0x4068e8 <main+0x2dc8>
  4068a4: 710059ff     	cmp	w15, #0x16
  4068a8: 540002e1     	b.ne	0x406904 <main+0x2de4>
  4068ac: 6b1601df     	cmp	w14, w22
  4068b0: 54fffc40     	b.eq	0x406838 <main+0x2d18>
  4068b4: 14000014     	b	0x406904 <main+0x2de4>
  4068b8: 12000e10     	and	w16, w16, #0xf
  4068bc: 12001def     	and	w15, w15, #0xff
  4068c0: 120015ef     	and	w15, w15, #0x3f
  4068c4: 2a1019ef     	orr	w15, w15, w16, lsl #6
  4068c8: 17ffffd7     	b	0x406824 <main+0x2d04>
  4068cc: 710081ff     	cmp	w15, #0x20
  4068d0: 54000140     	b.eq	0x4068f8 <main+0x2dd8>
  4068d4: 7100c1ff     	cmp	w15, #0x30
  4068d8: 54000161     	b.ne	0x406904 <main+0x2de4>
  4068dc: 71400ddf     	cmp	w14, #0x3, lsl #12      // =0x3000
  4068e0: 54fffac0     	b.eq	0x406838 <main+0x2d18>
  4068e4: 14000008     	b	0x406904 <main+0x2de4>
  4068e8: 92401dce     	and	x14, x14, #0xff
  4068ec: 386e6a4e     	ldrb	w14, [x18, x14]
  4068f0: 3707fa4e     	tbnz	w14, #0x0, 0x406838 <main+0x2d18>
  4068f4: 14000004     	b	0x406904 <main+0x2de4>
  4068f8: 92401dce     	and	x14, x14, #0xff
  4068fc: 386e6a4e     	ldrb	w14, [x18, x14]
  406900: 370ff9ce     	tbnz	w14, #0x1, 0x406838 <main+0x2d18>
  406904: cb0c016a     	sub	x10, x11, x12
  406908: 8b0d014b     	add	x11, x10, x13
  40690c: 14000003     	b	0x406918 <main+0x2df8>
  406910: aa1f03e9     	mov	x9, xzr
  406914: aa1f03eb     	mov	x11, xzr
  406918: 8b09010f     	add	x15, x8, x9
  40691c: eb09017d     	subs	x29, x11, x9
  406920: a90977ef     	stp	x15, x29, [sp, #0x90]
  406924: 54ffe4e0     	b.eq	0x4065c0 <main+0x2aa0>
  406928: aa1f03f6     	mov	x22, xzr
  40692c: 2a1f03f9     	mov	w25, wzr
  406930: aa1f03fb     	mov	x27, xzr
  406934: aa1f03e9     	mov	x9, xzr
  406938: aa1f03ec     	mov	x12, xzr
  40693c: 2a1f03ea     	mov	w10, wzr
  406940: 8b0b0114     	add	x20, x8, x11
  406944: aa0f03f5     	mov	x21, x15
  406948: d503201f     	nop
  40694c: 7002462d     	adr	x13, 0x40b213 <_ZN4core7unicode12unicode_data11white_space14WHITESPACE_MAP17hb21770c3c413f814E>
  406950: 5282d00e     	mov	w14, #0x1680            // =5760
  406954: 14000007     	b	0x406970 <main+0x2e50>
  406958: 2a1f03ea     	mov	w10, wzr
  40695c: aa0903f6     	mov	x22, x9
  406960: aa0903fb     	mov	x27, x9
  406964: aa0903ec     	mov	x12, x9
  406968: eb130118     	subs	x24, x8, x19
  40696c: 540009e1     	b.ne	0x406aa8 <main+0x2f88>
  406970: 3707e0aa     	tbnz	w10, #0x0, 0x406584 <main+0x2a64>
  406974: aa0c03f3     	mov	x19, x12
  406978: eb1402bf     	cmp	x21, x20
  40697c: 54000181     	b.ne	0x4069ac <main+0x2e8c>
  406980: 52800039     	mov	w25, #0x1               // =1
  406984: aa1303ec     	mov	x12, x19
  406988: 5280002a     	mov	w10, #0x1               // =1
  40698c: eb1303b8     	subs	x24, x29, x19
  406990: 54ffff00     	b.eq	0x406970 <main+0x2e50>
  406994: 14000045     	b	0x406aa8 <main+0x2f88>
  406998: 92401d4a     	and	x10, x10, #0xff
  40699c: 386a69aa     	ldrb	w10, [x13, x10]
  4069a0: 3707fdca     	tbnz	w10, #0x0, 0x406958 <main+0x2e38>
  4069a4: eb1402bf     	cmp	x21, x20
  4069a8: 54000740     	b.eq	0x406a90 <main+0x2f70>
  4069ac: aa1503eb     	mov	x11, x21
  4069b0: 38c016ac     	ldrsb	w12, [x21], #0x1
  4069b4: aa0903e8     	mov	x8, x9
  4069b8: 12001d8a     	and	w10, w12, #0xff
  4069bc: 36f802ec     	tbz	w12, #0x1f, 0x406a18 <main+0x2ef8>
  4069c0: 39400569     	ldrb	w9, [x11, #0x1]
  4069c4: 7103815f     	cmp	w10, #0xe0
  4069c8: 12001529     	and	w9, w9, #0x3f
  4069cc: 540001a3     	b.lo	0x406a00 <main+0x2ee0>
  4069d0: 3940096c     	ldrb	w12, [x11, #0x2]
  4069d4: 7103c15f     	cmp	w10, #0xf0
  4069d8: 1200158c     	and	w12, w12, #0x3f
  4069dc: 2a09198c     	orr	w12, w12, w9, lsl #6
  4069e0: 12001149     	and	w9, w10, #0x1f
  4069e4: 54000163     	b.lo	0x406a10 <main+0x2ef0>
  4069e8: 39400d6a     	ldrb	w10, [x11, #0x3]
  4069ec: 91001175     	add	x21, x11, #0x4
  4069f0: 1200154a     	and	w10, w10, #0x3f
  4069f4: 2a0c194a     	orr	w10, w10, w12, lsl #6
  4069f8: 330e092a     	bfi	w10, w9, #18, #3
  4069fc: 14000007     	b	0x406a18 <main+0x2ef8>
  406a00: 331a1149     	bfi	w9, w10, #6, #5
  406a04: 91000975     	add	x21, x11, #0x2
  406a08: 2a0903ea     	mov	w10, w9
  406a0c: 14000003     	b	0x406a18 <main+0x2ef8>
  406a10: 2a09318a     	orr	w10, w12, w9, lsl #12
  406a14: 91000d75     	add	x21, x11, #0x3
  406a18: 2a0a03e9     	mov	w9, w10
  406a1c: 7100815f     	cmp	w10, #0x20
  406a20: cb0b02ab     	sub	x11, x21, x11
  406a24: 9ac922e9     	lsl	x9, x23, x9
  406a28: 8a1c0129     	and	x9, x9, x28
  406a2c: fa409924     	ccmp	x9, #0x0, #0x4, ls
  406a30: 8b080169     	add	x9, x11, x8
  406a34: 54fff921     	b.ne	0x406958 <main+0x2e38>
  406a38: 7102015f     	cmp	w10, #0x80
  406a3c: 54fffb43     	b.lo	0x4069a4 <main+0x2e84>
  406a40: 53087d4b     	lsr	w11, w10, #8
  406a44: 71007d7f     	cmp	w11, #0x1f
  406a48: 540000ec     	b.gt	0x406a64 <main+0x2f44>
  406a4c: 34fffa6b     	cbz	w11, 0x406998 <main+0x2e78>
  406a50: 7100597f     	cmp	w11, #0x16
  406a54: 54fffa81     	b.ne	0x4069a4 <main+0x2e84>
  406a58: 6b0e015f     	cmp	w10, w14
  406a5c: 54fffa41     	b.ne	0x4069a4 <main+0x2e84>
  406a60: 17ffffbe     	b	0x406958 <main+0x2e38>
  406a64: 7100817f     	cmp	w11, #0x20
  406a68: 540000c0     	b.eq	0x406a80 <main+0x2f60>
  406a6c: 7100c17f     	cmp	w11, #0x30
  406a70: 54fff9a1     	b.ne	0x4069a4 <main+0x2e84>
  406a74: 71400d5f     	cmp	w10, #0x3, lsl #12      // =0x3000
  406a78: 54fff961     	b.ne	0x4069a4 <main+0x2e84>
  406a7c: 17ffffb7     	b	0x406958 <main+0x2e38>
  406a80: 92401d4a     	and	x10, x10, #0xff
  406a84: 386a69aa     	ldrb	w10, [x13, x10]
  406a88: 360ff8ea     	tbz	w10, #0x1, 0x4069a4 <main+0x2e84>
  406a8c: 17ffffb3     	b	0x406958 <main+0x2e38>
  406a90: 52800039     	mov	w25, #0x1               // =1
  406a94: aa0903f6     	mov	x22, x9
  406a98: aa1303ec     	mov	x12, x19
  406a9c: 5280002a     	mov	w10, #0x1               // =1
  406aa0: eb1303b8     	subs	x24, x29, x19
  406aa4: 54fff660     	b.eq	0x406970 <main+0x2e50>
  406aa8: 52800100     	mov	w0, #0x8                // =8
  406aac: 52800801     	mov	w1, #0x40               // =64
  406ab0: f90007ef     	str	x15, [sp, #0x8]
  406ab4: 97ffeaf7     	bl	0x401690 <_ZN91_$LT$cohesix_root..allocator..BumpAllocator$u20$as$u20$core..alloc..global..GlobalAlloc$GT$5alloc17hc97a9adda21019bdE>
  406ab8: b4ff6ee0     	cbz	x0, 0x405894 <main+0x1d74>
  406abc: f94007ef     	ldr	x15, [sp, #0x8]
  406ac0: d503201f     	nop
  406ac4: 70023a6d     	adr	x13, 0x40b213 <_ZN4core7unicode12unicode_data11white_space14WHITESPACE_MAP17hb21770c3c413f814E>
  406ac8: 5282d00e     	mov	w14, #0x1680            // =5760
  406acc: 8b1301e8     	add	x8, x15, x19
  406ad0: 52800033     	mov	w19, #0x1               // =1
  406ad4: a9006008     	stp	x8, x24, [x0]
  406ad8: 52800088     	mov	w8, #0x4                // =4
  406adc: a90d03e8     	stp	x8, x0, [sp, #0xd0]
  406ae0: f90073f7     	str	x23, [sp, #0xe0]
  406ae4: aa1b03ea     	mov	x10, x27
  406ae8: 2a1903e9     	mov	w9, w25
  406aec: 14000006     	b	0x406b04 <main+0x2fe4>
  406af0: 2a1f03e9     	mov	w9, wzr
  406af4: aa1603fb     	mov	x27, x22
  406af8: aa1603ea     	mov	x10, x22
  406afc: eb1a0118     	subs	x24, x8, x26
  406b00: 540008e1     	b.ne	0x406c1c <main+0x30fc>
  406b04: 37000b69     	tbnz	w9, #0x0, 0x406c70 <main+0x3150>
  406b08: aa0a03fa     	mov	x26, x10
  406b0c: eb1402bf     	cmp	x21, x20
  406b10: 540007c0     	b.eq	0x406c08 <main+0x30e8>
  406b14: aa1503ea     	mov	x10, x21
  406b18: 38c016ab     	ldrsb	w11, [x21], #0x1
  406b1c: aa1603e8     	mov	x8, x22
  406b20: 12001d69     	and	w9, w11, #0xff
  406b24: 36f802eb     	tbz	w11, #0x1f, 0x406b80 <main+0x3060>
  406b28: 3940054b     	ldrb	w11, [x10, #0x1]
  406b2c: 7103813f     	cmp	w9, #0xe0
  406b30: 1200156b     	and	w11, w11, #0x3f
  406b34: 540001a3     	b.lo	0x406b68 <main+0x3048>
  406b38: 3940094c     	ldrb	w12, [x10, #0x2]
  406b3c: 7103c13f     	cmp	w9, #0xf0
  406b40: 1200158c     	and	w12, w12, #0x3f
  406b44: 2a0b198c     	orr	w12, w12, w11, lsl #6
  406b48: 1200112b     	and	w11, w9, #0x1f
  406b4c: 54000163     	b.lo	0x406b78 <main+0x3058>
  406b50: 39400d49     	ldrb	w9, [x10, #0x3]
  406b54: 91001155     	add	x21, x10, #0x4
  406b58: 12001529     	and	w9, w9, #0x3f
  406b5c: 2a0c1929     	orr	w9, w9, w12, lsl #6
  406b60: 330e0969     	bfi	w9, w11, #18, #3
  406b64: 14000007     	b	0x406b80 <main+0x3060>
  406b68: 331a112b     	bfi	w11, w9, #6, #5
  406b6c: 91000955     	add	x21, x10, #0x2
  406b70: 2a0b03e9     	mov	w9, w11
  406b74: 14000003     	b	0x406b80 <main+0x3060>
  406b78: 2a0b3189     	orr	w9, w12, w11, lsl #12
  406b7c: 91000d55     	add	x21, x10, #0x3
  406b80: 2a0903eb     	mov	w11, w9
  406b84: 7100813f     	cmp	w9, #0x20
  406b88: cb0a02aa     	sub	x10, x21, x10
  406b8c: 9acb22eb     	lsl	x11, x23, x11
  406b90: 8b080156     	add	x22, x10, x8
  406b94: 8a1c016b     	and	x11, x11, x28
  406b98: fa409964     	ccmp	x11, #0x0, #0x4, ls
  406b9c: 54fffaa1     	b.ne	0x406af0 <main+0x2fd0>
  406ba0: 7102013f     	cmp	w9, #0x80
  406ba4: 54fffb43     	b.lo	0x406b0c <main+0x2fec>
  406ba8: 53087d2a     	lsr	w10, w9, #8
  406bac: 71007d5f     	cmp	w10, #0x1f
  406bb0: 540000ec     	b.gt	0x406bcc <main+0x30ac>
  406bb4: 340001aa     	cbz	w10, 0x406be8 <main+0x30c8>
  406bb8: 7100595f     	cmp	w10, #0x16
  406bbc: 54fffa81     	b.ne	0x406b0c <main+0x2fec>
  406bc0: 6b0e013f     	cmp	w9, w14
  406bc4: 54fffa41     	b.ne	0x406b0c <main+0x2fec>
  406bc8: 17ffffca     	b	0x406af0 <main+0x2fd0>
  406bcc: 7100815f     	cmp	w10, #0x20
  406bd0: 54000140     	b.eq	0x406bf8 <main+0x30d8>
  406bd4: 7100c15f     	cmp	w10, #0x30
  406bd8: 54fff9a1     	b.ne	0x406b0c <main+0x2fec>
  406bdc: 71400d3f     	cmp	w9, #0x3, lsl #12       // =0x3000
  406be0: 54fff961     	b.ne	0x406b0c <main+0x2fec>
  406be4: 17ffffc3     	b	0x406af0 <main+0x2fd0>
  406be8: 92401d29     	and	x9, x9, #0xff
  406bec: 386969a9     	ldrb	w9, [x13, x9]
  406bf0: 3607f8e9     	tbz	w9, #0x0, 0x406b0c <main+0x2fec>
  406bf4: 17ffffbf     	b	0x406af0 <main+0x2fd0>
  406bf8: 92401d29     	and	x9, x9, #0xff
  406bfc: 386969a9     	ldrb	w9, [x13, x9]
  406c00: 360ff869     	tbz	w9, #0x1, 0x406b0c <main+0x2fec>
  406c04: 17ffffbb     	b	0x406af0 <main+0x2fd0>
  406c08: 52800039     	mov	w25, #0x1               // =1
  406c0c: aa1a03ea     	mov	x10, x26
  406c10: 52800029     	mov	w9, #0x1                // =1
  406c14: eb1a03b8     	subs	x24, x29, x26
  406c18: 54fff760     	b.eq	0x406b04 <main+0x2fe4>
  406c1c: f9406be8     	ldr	x8, [sp, #0xd0]
  406c20: eb08027f     	cmp	x19, x8
  406c24: 540000e0     	b.eq	0x406c40 <main+0x3120>
  406c28: 8b131008     	add	x8, x0, x19, lsl #4
  406c2c: 8b1a01e9     	add	x9, x15, x26
  406c30: 91000673     	add	x19, x19, #0x1
  406c34: a9006109     	stp	x9, x24, [x8]
  406c38: f90073f3     	str	x19, [sp, #0xe0]
  406c3c: 17ffffaa     	b	0x406ae4 <main+0x2fc4>
  406c40: 910343e0     	add	x0, sp, #0xd0
  406c44: aa1303e1     	mov	x1, x19
  406c48: 52800022     	mov	w2, #0x1                // =1
  406c4c: 52800103     	mov	w3, #0x8                // =8
  406c50: 52800204     	mov	w4, #0x10               // =16
  406c54: 97ffe96c     	bl	0x401204 <_ZN5alloc7raw_vec20RawVecInner$LT$A$GT$7reserve21do_reserve_and_handle17h8fe3f18238ba0e0dE>
  406c58: f94007ef     	ldr	x15, [sp, #0x8]
  406c5c: f9406fe0     	ldr	x0, [sp, #0xd8]
  406c60: 5282d00e     	mov	w14, #0x1680            // =5760
  406c64: d503201f     	nop
  406c68: 70022d4d     	adr	x13, 0x40b213 <_ZN4core7unicode12unicode_data11white_space14WHITESPACE_MAP17hb21770c3c413f814E>
  406c6c: 17ffffef     	b	0x406c28 <main+0x3108>
  406c70: f9406ff4     	ldr	x20, [sp, #0xd8]
  406c74: 5282d016     	mov	w22, #0x1680            // =5760
  406c78: f1000e7f     	cmp	x19, #0x3
  406c7c: 54000760     	b.eq	0x406d68 <main+0x3248>
  406c80: f100127f     	cmp	x19, #0x4
  406c84: 910123fa     	add	x26, sp, #0x48
  406c88: 54ffc801     	b.ne	0x406588 <main+0x2a68>
  406c8c: f9400688     	ldr	x8, [x20, #0x8]
  406c90: f100111f     	cmp	x8, #0x4
  406c94: 54ffc7a1     	b.ne	0x406588 <main+0x2a68>
  406c98: f9400288     	ldr	x8, [x20]
  406c9c: 39400109     	ldrb	w9, [x8]
  406ca0: 7101893f     	cmp	w9, #0x62
  406ca4: 54ffc721     	b.ne	0x406588 <main+0x2a68>
  406ca8: 39400509     	ldrb	w9, [x8, #0x1]
  406cac: 7101a53f     	cmp	w9, #0x69
  406cb0: 54ffc6c1     	b.ne	0x406588 <main+0x2a68>
  406cb4: 39400909     	ldrb	w9, [x8, #0x2]
  406cb8: 7101b93f     	cmp	w9, #0x6e
  406cbc: 54ffc661     	b.ne	0x406588 <main+0x2a68>
  406cc0: 39400d08     	ldrb	w8, [x8, #0x3]
  406cc4: 7101911f     	cmp	w8, #0x64
  406cc8: 54ffc601     	b.ne	0x406588 <main+0x2a68>
  406ccc: f9400e88     	ldr	x8, [x20, #0x18]
  406cd0: f100091f     	cmp	x8, #0x2
  406cd4: 54ffc5a1     	b.ne	0x406588 <main+0x2a68>
  406cd8: f9400a88     	ldr	x8, [x20, #0x10]
  406cdc: 39400109     	ldrb	w9, [x8]
  406ce0: 7100b53f     	cmp	w9, #0x2d
  406ce4: 54ffc521     	b.ne	0x406588 <main+0x2a68>
  406ce8: 39400508     	ldrb	w8, [x8, #0x1]
  406cec: 7101851f     	cmp	w8, #0x61
  406cf0: 54ffc4c1     	b.ne	0x406588 <main+0x2a68>
  406cf4: 91008288     	add	x8, x20, #0x20
  406cf8: 9100c289     	add	x9, x20, #0x30
  406cfc: 91077fe0     	add	x0, sp, #0x1df
  406d00: a90a27e8     	stp	x8, x9, [sp, #0xa0]
  406d04: 910283e8     	add	x8, sp, #0xa0
  406d08: 9102a3e9     	add	x9, sp, #0xa8
  406d0c: f9005be8     	str	x8, [sp, #0xb0]
  406d10: f0ffffc8     	adrp	x8, 0x401000 <rust_entry>
  406d14: 9101210a     	add	x10, x8, #0x48
  406d18: d503201f     	nop
  406d1c: 10021a68     	adr	x8, 0x40b068 <_ZN12cohesix_root17ROOTSERVER_ONLINE17h1dda28d86f6d4332E+0x490>
  406d20: a90ba7ea     	stp	x10, x9, [sp, #0xb8]
  406d24: a90ca3ea     	stp	x10, x8, [sp, #0xc8]
  406d28: 52800049     	mov	w9, #0x2                // =2
  406d2c: 9102c3e8     	add	x8, sp, #0xb0
  406d30: 910343e1     	add	x1, sp, #0xd0
  406d34: a90effe9     	stp	x9, xzr, [sp, #0xe8]
  406d38: a90da3e9     	stp	x9, x8, [sp, #0xd8]
  406d3c: 940003ab     	bl	0x407be8 <_ZN4core3fmt5write17hf7092a74ebbf9db4E>
  406d40: f9401693     	ldr	x19, [x20, #0x28]
  406d44: b7f80d33     	tbnz	x19, #0x3f, 0x406ee8 <main+0x33c8>
  406d48: f9401298     	ldr	x24, [x20, #0x20]
  406d4c: b4000953     	cbz	x19, 0x406e74 <main+0x3354>
  406d50: 52800020     	mov	w0, #0x1                // =1
  406d54: aa1303e1     	mov	x1, x19
  406d58: 97ffea4e     	bl	0x401690 <_ZN91_$LT$cohesix_root..allocator..BumpAllocator$u20$as$u20$core..alloc..global..GlobalAlloc$GT$5alloc17hc97a9adda21019bdE>
  406d5c: aa0003f5     	mov	x21, x0
  406d60: b50008c0     	cbnz	x0, 0x406e78 <main+0x3358>
  406d64: 17fffacc     	b	0x405894 <main+0x1d74>
  406d68: f9400688     	ldr	x8, [x20, #0x8]
  406d6c: 910123fa     	add	x26, sp, #0x48
  406d70: f100111f     	cmp	x8, #0x4
  406d74: 54ffc0a1     	b.ne	0x406588 <main+0x2a68>
  406d78: f9400288     	ldr	x8, [x20]
  406d7c: 39400109     	ldrb	w9, [x8]
  406d80: 7101893f     	cmp	w9, #0x62
  406d84: 54ffc021     	b.ne	0x406588 <main+0x2a68>
  406d88: 39400509     	ldrb	w9, [x8, #0x1]
  406d8c: 7101a53f     	cmp	w9, #0x69
  406d90: 54ffbfc1     	b.ne	0x406588 <main+0x2a68>
  406d94: 39400909     	ldrb	w9, [x8, #0x2]
  406d98: 7101b93f     	cmp	w9, #0x6e
  406d9c: 54ffbf61     	b.ne	0x406588 <main+0x2a68>
  406da0: 39400d08     	ldrb	w8, [x8, #0x3]
  406da4: 7101911f     	cmp	w8, #0x64
  406da8: 54ffbf01     	b.ne	0x406588 <main+0x2a68>
  406dac: 91004288     	add	x8, x20, #0x10
  406db0: 91008289     	add	x9, x20, #0x20
  406db4: 91077fe0     	add	x0, sp, #0x1df
  406db8: a90a27e8     	stp	x8, x9, [sp, #0xa0]
  406dbc: 910283e8     	add	x8, sp, #0xa0
  406dc0: 9102a3e9     	add	x9, sp, #0xa8
  406dc4: f9005be8     	str	x8, [sp, #0xb0]
  406dc8: f0ffffc8     	adrp	x8, 0x401000 <rust_entry>
  406dcc: 9101210a     	add	x10, x8, #0x48
  406dd0: d503201f     	nop
  406dd4: 100215e8     	adr	x8, 0x40b090 <_ZN12cohesix_root17ROOTSERVER_ONLINE17h1dda28d86f6d4332E+0x4b8>
  406dd8: a90ba7ea     	stp	x10, x9, [sp, #0xb8]
  406ddc: a90ca3ea     	stp	x10, x8, [sp, #0xc8]
  406de0: 52800049     	mov	w9, #0x2                // =2
  406de4: 9102c3e8     	add	x8, sp, #0xb0
  406de8: 910343e1     	add	x1, sp, #0xd0
  406dec: a90effe9     	stp	x9, xzr, [sp, #0xe8]
  406df0: a90da3e9     	stp	x9, x8, [sp, #0xd8]
  406df4: 9400037d     	bl	0x407be8 <_ZN4core3fmt5write17hf7092a74ebbf9db4E>
  406df8: f9400e93     	ldr	x19, [x20, #0x18]
  406dfc: b7f80773     	tbnz	x19, #0x3f, 0x406ee8 <main+0x33c8>
  406e00: f9400a98     	ldr	x24, [x20, #0x10]
  406e04: b40000f3     	cbz	x19, 0x406e20 <main+0x3300>
  406e08: 52800020     	mov	w0, #0x1                // =1
  406e0c: aa1303e1     	mov	x1, x19
  406e10: 97ffea20     	bl	0x401690 <_ZN91_$LT$cohesix_root..allocator..BumpAllocator$u20$as$u20$core..alloc..global..GlobalAlloc$GT$5alloc17hc97a9adda21019bdE>
  406e14: aa0003f5     	mov	x21, x0
  406e18: b5000060     	cbnz	x0, 0x406e24 <main+0x3304>
  406e1c: 17fffa9e     	b	0x405894 <main+0x1d74>
  406e20: 52800035     	mov	w21, #0x1               // =1
  406e24: aa1503e0     	mov	x0, x21
  406e28: aa1803e1     	mov	x1, x24
  406e2c: aa1303e2     	mov	x2, x19
  406e30: 97ffeef7     	bl	0x402a0c <memcpy>
  406e34: 9102c3e0     	add	x0, sp, #0xb0
  406e38: a90b57f3     	stp	x19, x21, [sp, #0xb0]
  406e3c: f90063f3     	str	x19, [sp, #0xc0]
  406e40: 9400008a     	bl	0x407068 <_ZN5alloc7raw_vec19RawVec$LT$T$C$A$GT$8grow_one17he2c50e2ed9571b6bE>
  406e44: f9405fe8     	ldr	x8, [sp, #0xb8]
  406e48: 3833691f     	strb	wzr, [x8, x19]
  406e4c: f9401693     	ldr	x19, [x20, #0x28]
  406e50: b7f804d3     	tbnz	x19, #0x3f, 0x406ee8 <main+0x33c8>
  406e54: f9401294     	ldr	x20, [x20, #0x20]
  406e58: b40002d3     	cbz	x19, 0x406eb0 <main+0x3390>
  406e5c: 52800020     	mov	w0, #0x1                // =1
  406e60: aa1303e1     	mov	x1, x19
  406e64: 97ffea0b     	bl	0x401690 <_ZN91_$LT$cohesix_root..allocator..BumpAllocator$u20$as$u20$core..alloc..global..GlobalAlloc$GT$5alloc17hc97a9adda21019bdE>
  406e68: aa0003f5     	mov	x21, x0
  406e6c: b5000240     	cbnz	x0, 0x406eb4 <main+0x3394>
  406e70: 17fffa89     	b	0x405894 <main+0x1d74>
  406e74: 52800035     	mov	w21, #0x1               // =1
  406e78: aa1503e0     	mov	x0, x21
  406e7c: aa1803e1     	mov	x1, x24
  406e80: aa1303e2     	mov	x2, x19
  406e84: 97ffeee2     	bl	0x402a0c <memcpy>
  406e88: 9102c3e0     	add	x0, sp, #0xb0
  406e8c: a90b57f3     	stp	x19, x21, [sp, #0xb0]
  406e90: f90063f3     	str	x19, [sp, #0xc0]
  406e94: 94000075     	bl	0x407068 <_ZN5alloc7raw_vec19RawVec$LT$T$C$A$GT$8grow_one17he2c50e2ed9571b6bE>
  406e98: f9405fe8     	ldr	x8, [sp, #0xb8]
  406e9c: 3833691f     	strb	wzr, [x8, x19]
  406ea0: f9401e93     	ldr	x19, [x20, #0x38]
  406ea4: b7f80233     	tbnz	x19, #0x3f, 0x406ee8 <main+0x33c8>
  406ea8: f9401a94     	ldr	x20, [x20, #0x30]
  406eac: b5fffd93     	cbnz	x19, 0x406e5c <main+0x333c>
  406eb0: 52800035     	mov	w21, #0x1               // =1
  406eb4: aa1503e0     	mov	x0, x21
  406eb8: aa1403e1     	mov	x1, x20
  406ebc: aa1303e2     	mov	x2, x19
  406ec0: 97ffeed3     	bl	0x402a0c <memcpy>
  406ec4: 910343e0     	add	x0, sp, #0xd0
  406ec8: a90d57f3     	stp	x19, x21, [sp, #0xd0]
  406ecc: f90073f3     	str	x19, [sp, #0xe0]
  406ed0: 94000066     	bl	0x407068 <_ZN5alloc7raw_vec19RawVec$LT$T$C$A$GT$8grow_one17he2c50e2ed9571b6bE>
  406ed4: f9406fe8     	ldr	x8, [sp, #0xd8]
  406ed8: 3833691f     	strb	wzr, [x8, x19]
  406edc: 17fffdb9     	b	0x4065c0 <main+0x2aa0>
  406ee0: aa0803e0     	mov	x0, x8
  406ee4: 940003cc     	bl	0x407e14 <_ZN4core5slice5index22slice_index_order_fail17h65d5f108449d194bE>
  406ee8: 9400033f     	bl	0x407be4 <_ZN4core9panicking5panic17h629f58d3f16909bdE>
  406eec: aa1603e0     	mov	x0, x22
  406ef0: aa1503e1     	mov	x1, x21
  406ef4: aa1f03e2     	mov	x2, xzr
  406ef8: aa1703e3     	mov	x3, x23
  406efc: 940004e5     	bl	0x408290 <_ZN4core3str16slice_error_fail17h298ab1af74ec8f92E>

0000000000406f00 <_ZN12cohesix_root10lang_items11alloc_error17hc9d76ef5e243e316E>:
  406f00: 52800b68     	mov	w8, #0x5b               // =91
  406f04: aa0803e0     	mov	x0, x8
  406f08: 92800108     	mov	x8, #-0x9               // =-9
  406f0c: 92800110     	mov	x16, #-0x9              // =-9
  406f10: d4000001     	svc	#0
  406f14: 52800de9     	mov	w9, #0x6f               // =111
  406f18: 52800e48     	mov	w8, #0x72               // =114
  406f1c: aa0803e0     	mov	x0, x8
  406f20: 92800108     	mov	x8, #-0x9               // =-9
  406f24: 92800110     	mov	x16, #-0x9              // =-9
  406f28: d4000001     	svc	#0
  406f2c: 52800e8a     	mov	w10, #0x74              // =116
  406f30: aa0903e0     	mov	x0, x9
  406f34: 92800108     	mov	x8, #-0x9               // =-9
  406f38: 92800110     	mov	x16, #-0x9              // =-9
  406f3c: d4000001     	svc	#0
  406f40: aa0903e0     	mov	x0, x9
  406f44: 92800108     	mov	x8, #-0x9               // =-9
  406f48: 92800110     	mov	x16, #-0x9              // =-9
  406f4c: d4000001     	svc	#0
  406f50: aa0a03e0     	mov	x0, x10
  406f54: 92800108     	mov	x8, #-0x9               // =-9
  406f58: 92800110     	mov	x16, #-0x9              // =-9
  406f5c: d4000001     	svc	#0
  406f60: 52800baa     	mov	w10, #0x5d              // =93
  406f64: aa0a03e0     	mov	x0, x10
  406f68: 92800108     	mov	x8, #-0x9               // =-9
  406f6c: 92800110     	mov	x16, #-0x9              // =-9
  406f70: d4000001     	svc	#0
  406f74: 5280040a     	mov	w10, #0x20              // =32
  406f78: aa0a03e0     	mov	x0, x10
  406f7c: 92800108     	mov	x8, #-0x9               // =-9
  406f80: 92800110     	mov	x16, #-0x9              // =-9
  406f84: d4000001     	svc	#0
  406f88: 52800c2a     	mov	w10, #0x61              // =97
  406f8c: aa0a03e0     	mov	x0, x10
  406f90: 92800108     	mov	x8, #-0x9               // =-9
  406f94: 92800110     	mov	x16, #-0x9              // =-9
  406f98: d4000001     	svc	#0
  406f9c: 52800d8a     	mov	w10, #0x6c              // =108
  406fa0: aa0a03e0     	mov	x0, x10
  406fa4: 92800108     	mov	x8, #-0x9               // =-9
  406fa8: 92800110     	mov	x16, #-0x9              // =-9
  406fac: d4000001     	svc	#0
  406fb0: aa0a03e0     	mov	x0, x10
  406fb4: 92800108     	mov	x8, #-0x9               // =-9
  406fb8: 92800110     	mov	x16, #-0x9              // =-9
  406fbc: d4000001     	svc	#0
  406fc0: 52800c6a     	mov	w10, #0x63              // =99
  406fc4: aa0903e0     	mov	x0, x9
  406fc8: 92800108     	mov	x8, #-0x9               // =-9
  406fcc: 92800110     	mov	x16, #-0x9              // =-9
  406fd0: d4000001     	svc	#0
  406fd4: aa0a03e0     	mov	x0, x10
  406fd8: 92800108     	mov	x8, #-0x9               // =-9
  406fdc: 92800110     	mov	x16, #-0x9              // =-9
  406fe0: d4000001     	svc	#0
  406fe4: 52800bea     	mov	w10, #0x5f              // =95
  406fe8: aa0a03e0     	mov	x0, x10
  406fec: 92800108     	mov	x8, #-0x9               // =-9
  406ff0: 92800110     	mov	x16, #-0x9              // =-9
  406ff4: d4000001     	svc	#0
  406ff8: 52800caa     	mov	w10, #0x65              // =101
  406ffc: aa0a03e0     	mov	x0, x10
  407000: 92800108     	mov	x8, #-0x9               // =-9
  407004: 92800110     	mov	x16, #-0x9              // =-9
  407008: d4000001     	svc	#0
  40700c: aa0803e0     	mov	x0, x8
  407010: 92800108     	mov	x8, #-0x9               // =-9
  407014: 92800110     	mov	x16, #-0x9              // =-9
  407018: d4000001     	svc	#0
  40701c: aa0803e0     	mov	x0, x8
  407020: 92800108     	mov	x8, #-0x9               // =-9
  407024: 92800110     	mov	x16, #-0x9              // =-9
  407028: d4000001     	svc	#0
  40702c: aa0903e0     	mov	x0, x9
  407030: 92800108     	mov	x8, #-0x9               // =-9
  407034: 92800110     	mov	x16, #-0x9              // =-9
  407038: d4000001     	svc	#0
  40703c: aa0803e0     	mov	x0, x8
  407040: 92800108     	mov	x8, #-0x9               // =-9
  407044: 92800110     	mov	x16, #-0x9              // =-9
  407048: d4000001     	svc	#0
  40704c: 52800148     	mov	w8, #0xa                // =10
  407050: aa0803e0     	mov	x0, x8
  407054: 92800108     	mov	x8, #-0x9               // =-9
  407058: 92800110     	mov	x16, #-0x9              // =-9
  40705c: d4000001     	svc	#0
  407060: d5033fdf     	isb
  407064: 17ffffff     	b	0x407060 <_ZN12cohesix_root10lang_items11alloc_error17hc9d76ef5e243e316E+0x160>

0000000000407068 <_ZN5alloc7raw_vec19RawVec$LT$T$C$A$GT$8grow_one17he2c50e2ed9571b6bE>:
  407068: d10143ff     	sub	sp, sp, #0x50
  40706c: f9001bfe     	str	x30, [sp, #0x30]
  407070: a9044ff4     	stp	x20, x19, [sp, #0x40]
  407074: f9400008     	ldr	x8, [x0]
  407078: 52800109     	mov	w9, #0x8                // =8
  40707c: d37ff90a     	lsl	x10, x8, #1
  407080: f100215f     	cmp	x10, #0x8
  407084: 9a898154     	csel	x20, x10, x9, hi
  407088: b7f802b4     	tbnz	x20, #0x3f, 0x4070dc <_ZN5alloc7raw_vec19RawVec$LT$T$C$A$GT$8grow_one17he2c50e2ed9571b6bE+0x74>
  40708c: aa0003f3     	mov	x19, x0
  407090: b40000a8     	cbz	x8, 0x4070a4 <_ZN5alloc7raw_vec19RawVec$LT$T$C$A$GT$8grow_one17he2c50e2ed9571b6bE+0x3c>
  407094: f9400669     	ldr	x9, [x19, #0x8]
  407098: f90017e8     	str	x8, [sp, #0x28]
  40709c: 52800028     	mov	w8, #0x1                // =1
  4070a0: f9000fe9     	str	x9, [sp, #0x18]
  4070a4: 910003e0     	mov	x0, sp
  4070a8: 910063e2     	add	x2, sp, #0x18
  4070ac: aa1403e1     	mov	x1, x20
  4070b0: f90013e8     	str	x8, [sp, #0x20]
  4070b4: 9400000e     	bl	0x4070ec <_ZN5alloc7raw_vec11finish_grow17h525429338a3c2198E>
  4070b8: b94003e8     	ldr	w8, [sp]
  4070bc: 7100051f     	cmp	w8, #0x1
  4070c0: 54000120     	b.eq	0x4070e4 <_ZN5alloc7raw_vec19RawVec$LT$T$C$A$GT$8grow_one17he2c50e2ed9571b6bE+0x7c>
  4070c4: f94007e8     	ldr	x8, [sp, #0x8]
  4070c8: f9401bfe     	ldr	x30, [sp, #0x30]
  4070cc: a9002274     	stp	x20, x8, [x19]
  4070d0: a9444ff4     	ldp	x20, x19, [sp, #0x40]
  4070d4: 910143ff     	add	sp, sp, #0x50
  4070d8: d65f03c0     	ret
  4070dc: aa1f03e0     	mov	x0, xzr
  4070e0: 94000023     	bl	0x40716c <_ZN5alloc7raw_vec12handle_error17h68e405fe7d2eef04E>
  4070e4: f94007e0     	ldr	x0, [sp, #0x8]
  4070e8: 94000021     	bl	0x40716c <_ZN5alloc7raw_vec12handle_error17h68e405fe7d2eef04E>

00000000004070ec <_ZN5alloc7raw_vec11finish_grow17h525429338a3c2198E>:
  4070ec: a9bd5ffe     	stp	x30, x23, [sp, #-0x30]!
  4070f0: a90157f6     	stp	x22, x21, [sp, #0x10]
  4070f4: a9024ff4     	stp	x20, x19, [sp, #0x20]
  4070f8: f9400448     	ldr	x8, [x2, #0x8]
  4070fc: aa0103f4     	mov	x20, x1
  407100: aa0003f3     	mov	x19, x0
  407104: b40001c8     	cbz	x8, 0x40713c <_ZN5alloc7raw_vec11finish_grow17h525429338a3c2198E+0x50>
  407108: f9400855     	ldr	x21, [x2, #0x10]
  40710c: b4000195     	cbz	x21, 0x40713c <_ZN5alloc7raw_vec11finish_grow17h525429338a3c2198E+0x50>
  407110: f9400056     	ldr	x22, [x2]
  407114: 52800020     	mov	w0, #0x1                // =1
  407118: aa1403e1     	mov	x1, x20
  40711c: 97ffe95d     	bl	0x401690 <_ZN91_$LT$cohesix_root..allocator..BumpAllocator$u20$as$u20$core..alloc..global..GlobalAlloc$GT$5alloc17hc97a9adda21019bdE>
  407120: b4000140     	cbz	x0, 0x407148 <_ZN5alloc7raw_vec11finish_grow17h525429338a3c2198E+0x5c>
  407124: aa1603e1     	mov	x1, x22
  407128: aa1503e2     	mov	x2, x21
  40712c: aa0003f7     	mov	x23, x0
  407130: 97ffee37     	bl	0x402a0c <memcpy>
  407134: aa1703e0     	mov	x0, x23
  407138: 14000004     	b	0x407148 <_ZN5alloc7raw_vec11finish_grow17h525429338a3c2198E+0x5c>
  40713c: 52800020     	mov	w0, #0x1                // =1
  407140: aa1403e1     	mov	x1, x20
  407144: 97ffe953     	bl	0x401690 <_ZN91_$LT$cohesix_root..allocator..BumpAllocator$u20$as$u20$core..alloc..global..GlobalAlloc$GT$5alloc17hc97a9adda21019bdE>
  407148: f100001f     	cmp	x0, #0x0
  40714c: a94157f6     	ldp	x22, x21, [sp, #0x10]
  407150: 9a9f1408     	csinc	x8, x0, xzr, ne
  407154: 1a9f17e9     	cset	w9, eq
  407158: a900d268     	stp	x8, x20, [x19, #0x8]
  40715c: f9000269     	str	x9, [x19]
  407160: a9424ff4     	ldp	x20, x19, [sp, #0x20]
  407164: a8c35ffe     	ldp	x30, x23, [sp], #0x30
  407168: d65f03c0     	ret

000000000040716c <_ZN5alloc7raw_vec12handle_error17h68e405fe7d2eef04E>:
  40716c: b5000040     	cbnz	x0, 0x407174 <_ZN5alloc7raw_vec12handle_error17h68e405fe7d2eef04E+0x8>
  407170: 9400029d     	bl	0x407be4 <_ZN4core9panicking5panic17h629f58d3f16909bdE>
  407174: 97ffff63     	bl	0x406f00 <_ZN12cohesix_root10lang_items11alloc_error17hc9d76ef5e243e316E>

0000000000407178 <_ZN4core3fmt3num3imp54_$LT$impl$u20$core..fmt..Display$u20$for$u20$usize$GT$3fmt17h3b552058fef45ba7E>:
  407178: d100c3ff     	sub	sp, sp, #0x30
  40717c: f90013fe     	str	x30, [sp, #0x20]
  407180: f9400009     	ldr	x9, [x0]
  407184: d503201f     	nop
  407188: 30020c68     	adr	x8, 0x40b315 <_ZN4core7unicode12unicode_data11white_space14WHITESPACE_MAP17hb21770c3c413f814E+0x102>
  40718c: f10fa13f     	cmp	x9, #0x3e8
  407190: 54000463     	b.lo	0x40721c <_ZN4core3fmt3num3imp54_$LT$impl$u20$core..fmt..Display$u20$for$u20$usize$GT$3fmt17h3b552058fef45ba7E+0xa4>
  407194: d28b296c     	mov	x12, #0x594b            // =22859
  407198: 910033ea     	add	x10, sp, #0xc
  40719c: 5292cff1     	mov	w17, #0x967f            // =38527
  4071a0: f2a710cc     	movk	x12, #0x3886, lsl #16
  4071a4: 9280026b     	mov	x11, #-0x14             // =-20
  4071a8: 5284e20d     	mov	w13, #0x2710            // =10000
  4071ac: f2d8bacc     	movk	x12, #0xc5d6, lsl #32
  4071b0: 52828f6e     	mov	w14, #0x147b            // =5243
  4071b4: 91004d4f     	add	x15, x10, #0x13
  4071b8: f2e68dac     	movk	x12, #0x346d, lsl #48
  4071bc: 52800c90     	mov	w16, #0x64              // =100
  4071c0: 72a01311     	movk	w17, #0x98, lsl #16
  4071c4: aa0903ea     	mov	x10, x9
  4071c8: aa0a03f2     	mov	x18, x10
  4071cc: 9bcc7d4a     	umulh	x10, x10, x12
  4071d0: 9100116b     	add	x11, x11, #0x4
  4071d4: eb11025f     	cmp	x18, x17
  4071d8: d34bfd4a     	lsr	x10, x10, #11
  4071dc: 1b0dc940     	msub	w0, w10, w13, w18
  4071e0: 53023c02     	ubfx	w2, w0, #2, #14
  4071e4: 1b0e7c42     	mul	w2, w2, w14
  4071e8: 53117c42     	lsr	w2, w2, #17
  4071ec: 1b108040     	msub	w0, w2, w16, w0
  4071f0: 78625902     	ldrh	w2, [x8, w2, uxtw #1]
  4071f4: 781fd1e2     	sturh	w2, [x15, #-0x3]
  4071f8: 92403c00     	and	x0, x0, #0xffff
  4071fc: 78607900     	ldrh	w0, [x8, x0, lsl #1]
  407200: 781ff1e0     	sturh	w0, [x15, #-0x1]
  407204: d10011ef     	sub	x15, x15, #0x4
  407208: 54fffe08     	b.hi	0x4071c8 <_ZN4core3fmt3num3imp54_$LT$impl$u20$core..fmt..Display$u20$for$u20$usize$GT$3fmt17h3b552058fef45ba7E+0x50>
  40720c: cb0b03eb     	neg	x11, x11
  407210: f100255f     	cmp	x10, #0x9
  407214: 540000c8     	b.hi	0x40722c <_ZN4core3fmt3num3imp54_$LT$impl$u20$core..fmt..Display$u20$for$u20$usize$GT$3fmt17h3b552058fef45ba7E+0xb4>
  407218: 14000011     	b	0x40725c <_ZN4core3fmt3num3imp54_$LT$impl$u20$core..fmt..Display$u20$for$u20$usize$GT$3fmt17h3b552058fef45ba7E+0xe4>
  40721c: 5280028b     	mov	w11, #0x14              // =20
  407220: aa0903ea     	mov	x10, x9
  407224: f100253f     	cmp	x9, #0x9
  407228: 540001a9     	b.ls	0x40725c <_ZN4core3fmt3num3imp54_$LT$impl$u20$core..fmt..Display$u20$for$u20$usize$GT$3fmt17h3b552058fef45ba7E+0xe4>
  40722c: 53023d4c     	ubfx	w12, w10, #2, #14
  407230: 52828f6d     	mov	w13, #0x147b            // =5243
  407234: d100096b     	sub	x11, x11, #0x2
  407238: 1b0d7d8c     	mul	w12, w12, w13
  40723c: 52800c8d     	mov	w13, #0x64              // =100
  407240: 53117d8c     	lsr	w12, w12, #17
  407244: 1b0da98a     	msub	w10, w12, w13, w10
  407248: 910033ed     	add	x13, sp, #0xc
  40724c: 92403d4a     	and	x10, x10, #0xffff
  407250: 786a790a     	ldrh	w10, [x8, x10, lsl #1]
  407254: 782b69aa     	strh	w10, [x13, x11]
  407258: aa0c03ea     	mov	x10, x12
  40725c: b4000049     	cbz	x9, 0x407264 <_ZN4core3fmt3num3imp54_$LT$impl$u20$core..fmt..Display$u20$for$u20$usize$GT$3fmt17h3b552058fef45ba7E+0xec>
  407260: b40000ea     	cbz	x10, 0x40727c <_ZN4core3fmt3num3imp54_$LT$impl$u20$core..fmt..Display$u20$for$u20$usize$GT$3fmt17h3b552058fef45ba7E+0x104>
  407264: d37f0d49     	ubfiz	x9, x10, #1, #4
  407268: d100056b     	sub	x11, x11, #0x1
  40726c: 8b090108     	add	x8, x8, x9
  407270: 910033e9     	add	x9, sp, #0xc
  407274: 39400508     	ldrb	w8, [x8, #0x1]
  407278: 382b6928     	strb	w8, [x9, x11]
  40727c: 52800288     	mov	w8, #0x14               // =20
  407280: aa0103e0     	mov	x0, x1
  407284: 52800021     	mov	w1, #0x1                // =1
  407288: cb0b0104     	sub	x4, x8, x11
  40728c: 910033e8     	add	x8, sp, #0xc
  407290: aa1f03e2     	mov	x2, xzr
  407294: 8b0b0103     	add	x3, x8, x11
  407298: 94000005     	bl	0x4072ac <_ZN4core3fmt9Formatter12pad_integral17h3323e701c7d72f43E>
  40729c: f94013fe     	ldr	x30, [sp, #0x20]
  4072a0: 9100c3ff     	add	sp, sp, #0x30
  4072a4: d65f03c0     	ret

00000000004072a8 <_ZN4core9panicking9panic_fmt17h7d27c6f13468728dE>:
  4072a8: 97ffec03     	bl	0x4022b4 <_RNvCs9km79j5joxb_7___rustc17rust_begin_unwind>

00000000004072ac <_ZN4core3fmt9Formatter12pad_integral17h3323e701c7d72f43E>:
  4072ac: a9ba7bfd     	stp	x29, x30, [sp, #-0x60]!
  4072b0: a9016ffc     	stp	x28, x27, [sp, #0x10]
  4072b4: a90267fa     	stp	x26, x25, [sp, #0x20]
  4072b8: a9035ff8     	stp	x24, x23, [sp, #0x30]
  4072bc: a90457f6     	stp	x22, x21, [sp, #0x40]
  4072c0: a9054ff4     	stp	x20, x19, [sp, #0x50]
  4072c4: b940101a     	ldr	w26, [x0, #0x10]
  4072c8: 52800568     	mov	w8, #0x2b               // =43
  4072cc: 52a0022a     	mov	w10, #0x110000          // =1114112
  4072d0: aa0403f3     	mov	x19, x4
  4072d4: aa0303f4     	mov	x20, x3
  4072d8: aa0203f5     	mov	x21, x2
  4072dc: 926b0349     	and	x9, x26, #0x200000
  4072e0: 7100013f     	cmp	w9, #0x0
  4072e4: 8b49549b     	add	x27, x4, x9, lsr #21
  4072e8: 1a880157     	csel	w23, w10, w8, eq
  4072ec: 37b8031a     	tbnz	w26, #0x17, 0x40734c <_ZN4core3fmt9Formatter12pad_integral17h3323e701c7d72f43E+0xa0>
  4072f0: aa1f03f6     	mov	x22, xzr
  4072f4: 7940281d     	ldrh	w29, [x0, #0x14]
  4072f8: eb1d037f     	cmp	x27, x29
  4072fc: 54000443     	b.lo	0x407384 <_ZN4core3fmt9Formatter12pad_integral17h3323e701c7d72f43E+0xd8>
  407300: a9406418     	ldp	x24, x25, [x0]
  407304: 2a1703e2     	mov	w2, w23
  407308: aa1603e3     	mov	x3, x22
  40730c: aa1503e4     	mov	x4, x21
  407310: aa1803e0     	mov	x0, x24
  407314: aa1903e1     	mov	x1, x25
  407318: 94000084     	bl	0x407528 <_ZN4core3fmt9Formatter12pad_integral12write_prefix17hc6062f680228d9e5E>
  40731c: 37000d60     	tbnz	w0, #0x0, 0x4074c8 <_ZN4core3fmt9Formatter12pad_integral17h3323e701c7d72f43E+0x21c>
  407320: f9400f23     	ldr	x3, [x25, #0x18]
  407324: aa1803e0     	mov	x0, x24
  407328: aa1403e1     	mov	x1, x20
  40732c: aa1303e2     	mov	x2, x19
  407330: a9454ff4     	ldp	x20, x19, [sp, #0x50]
  407334: a94457f6     	ldp	x22, x21, [sp, #0x40]
  407338: a9435ff8     	ldp	x24, x23, [sp, #0x30]
  40733c: a94267fa     	ldp	x26, x25, [sp, #0x20]
  407340: a9416ffc     	ldp	x28, x27, [sp, #0x10]
  407344: a8c67bfd     	ldp	x29, x30, [sp], #0x60
  407348: d61f0060     	br	x3
  40734c: aa0103f6     	mov	x22, x1
  407350: b4000635     	cbz	x21, 0x407414 <_ZN4core3fmt9Formatter12pad_integral17h3323e701c7d72f43E+0x168>
  407354: 39c002c8     	ldrsb	w8, [x22]
  407358: 3101051f     	cmn	w8, #0x41
  40735c: 1a9fd7e8     	cset	w8, gt
  407360: f10006bf     	cmp	x21, #0x1
  407364: 54000080     	b.eq	0x407374 <_ZN4core3fmt9Formatter12pad_integral17h3323e701c7d72f43E+0xc8>
  407368: 39c006c9     	ldrsb	w9, [x22, #0x1]
  40736c: 3101053f     	cmn	w9, #0x41
  407370: 9a88d508     	cinc	x8, x8, gt
  407374: 8b1b011b     	add	x27, x8, x27
  407378: 7940281d     	ldrh	w29, [x0, #0x14]
  40737c: eb1d037f     	cmp	x27, x29
  407380: 54fffc02     	b.hs	0x407300 <_ZN4core3fmt9Formatter12pad_integral17h3323e701c7d72f43E+0x54>
  407384: 37c0011a     	tbnz	w26, #0x18, 0x4073a4 <_ZN4core3fmt9Formatter12pad_integral17h3323e701c7d72f43E+0xf8>
  407388: 531d7b48     	ubfx	w8, w26, #29, #2
  40738c: 4b1b03bb     	sub	w27, w29, w27
  407390: 7100051f     	cmp	w8, #0x1
  407394: 540004ac     	b.gt	0x407428 <_ZN4core3fmt9Formatter12pad_integral17h3323e701c7d72f43E+0x17c>
  407398: 35000648     	cbnz	w8, 0x407460 <_ZN4core3fmt9Formatter12pad_integral17h3323e701c7d72f43E+0x1b4>
  40739c: 2a1f03fc     	mov	w28, wzr
  4073a0: 14000031     	b	0x407464 <_ZN4core3fmt9Formatter12pad_integral17h3323e701c7d72f43E+0x1b8>
  4073a4: a940e819     	ldp	x25, x26, [x0, #0x8]
  4073a8: 52b3fc08     	mov	w8, #-0x60200000        // =-1612709888
  4073ac: 52800609     	mov	w9, #0x30               // =48
  4073b0: f9400018     	ldr	x24, [x0]
  4073b4: aa0003fc     	mov	x28, x0
  4073b8: 72a40009     	movk	w9, #0x2000, lsl #16
  4073bc: 2a1703e2     	mov	w2, w23
  4073c0: aa1603e3     	mov	x3, x22
  4073c4: 0a080348     	and	w8, w26, w8
  4073c8: aa1903e1     	mov	x1, x25
  4073cc: aa1503e4     	mov	x4, x21
  4073d0: 2a090108     	orr	w8, w8, w9
  4073d4: b9001008     	str	w8, [x0, #0x10]
  4073d8: aa1803e0     	mov	x0, x24
  4073dc: 94000053     	bl	0x407528 <_ZN4core3fmt9Formatter12pad_integral12write_prefix17hc6062f680228d9e5E>
  4073e0: 37000740     	tbnz	w0, #0x0, 0x4074c8 <_ZN4core3fmt9Formatter12pad_integral17h3323e701c7d72f43E+0x21c>
  4073e4: 2a1f03f5     	mov	w21, wzr
  4073e8: 4b1b03b6     	sub	w22, w29, w27
  4073ec: 12003ea8     	and	w8, w21, #0xffff
  4073f0: 6b36211f     	cmp	w8, w22, uxth
  4073f4: 54000242     	b.hs	0x40743c <_ZN4core3fmt9Formatter12pad_integral17h3323e701c7d72f43E+0x190>
  4073f8: f9401328     	ldr	x8, [x25, #0x20]
  4073fc: aa1803e0     	mov	x0, x24
  407400: 52800601     	mov	w1, #0x30               // =48
  407404: 110006b5     	add	w21, w21, #0x1
  407408: d63f0100     	blr	x8
  40740c: 3607ff00     	tbz	w0, #0x0, 0x4073ec <_ZN4core3fmt9Formatter12pad_integral17h3323e701c7d72f43E+0x140>
  407410: 1400002e     	b	0x4074c8 <_ZN4core3fmt9Formatter12pad_integral17h3323e701c7d72f43E+0x21c>
  407414: 8b1b03fb     	add	x27, xzr, x27
  407418: 7940281d     	ldrh	w29, [x0, #0x14]
  40741c: eb1d037f     	cmp	x27, x29
  407420: 54fff702     	b.hs	0x407300 <_ZN4core3fmt9Formatter12pad_integral17h3323e701c7d72f43E+0x54>
  407424: 17ffffd8     	b	0x407384 <_ZN4core3fmt9Formatter12pad_integral17h3323e701c7d72f43E+0xd8>
  407428: 7100091f     	cmp	w8, #0x2
  40742c: 2a1b03fc     	mov	w28, w27
  407430: 540001a1     	b.ne	0x407464 <_ZN4core3fmt9Formatter12pad_integral17h3323e701c7d72f43E+0x1b8>
  407434: 53013f7c     	ubfx	w28, w27, #1, #15
  407438: 1400000b     	b	0x407464 <_ZN4core3fmt9Formatter12pad_integral17h3323e701c7d72f43E+0x1b8>
  40743c: f9400f28     	ldr	x8, [x25, #0x18]
  407440: aa1803e0     	mov	x0, x24
  407444: aa1403e1     	mov	x1, x20
  407448: aa1303e2     	mov	x2, x19
  40744c: d63f0100     	blr	x8
  407450: 370003c0     	tbnz	w0, #0x0, 0x4074c8 <_ZN4core3fmt9Formatter12pad_integral17h3323e701c7d72f43E+0x21c>
  407454: 2a1f03e0     	mov	w0, wzr
  407458: f9000b9a     	str	x26, [x28, #0x10]
  40745c: 1400001c     	b	0x4074cc <_ZN4core3fmt9Formatter12pad_integral17h3323e701c7d72f43E+0x220>
  407460: 2a1b03fc     	mov	w28, w27
  407464: a9406418     	ldp	x24, x25, [x0]
  407468: 2a1f03fd     	mov	w29, wzr
  40746c: 12003fa8     	and	w8, w29, #0xffff
  407470: 6b3c211f     	cmp	w8, w28, uxth
  407474: 54000102     	b.hs	0x407494 <_ZN4core3fmt9Formatter12pad_integral17h3323e701c7d72f43E+0x1e8>
  407478: f9401328     	ldr	x8, [x25, #0x20]
  40747c: 12005341     	and	w1, w26, #0x1fffff
  407480: aa1803e0     	mov	x0, x24
  407484: 110007bd     	add	w29, w29, #0x1
  407488: d63f0100     	blr	x8
  40748c: 3607ff00     	tbz	w0, #0x0, 0x40746c <_ZN4core3fmt9Formatter12pad_integral17h3323e701c7d72f43E+0x1c0>
  407490: 1400000e     	b	0x4074c8 <_ZN4core3fmt9Formatter12pad_integral17h3323e701c7d72f43E+0x21c>
  407494: aa1803e0     	mov	x0, x24
  407498: aa1903e1     	mov	x1, x25
  40749c: 2a1703e2     	mov	w2, w23
  4074a0: aa1603e3     	mov	x3, x22
  4074a4: aa1503e4     	mov	x4, x21
  4074a8: 94000020     	bl	0x407528 <_ZN4core3fmt9Formatter12pad_integral12write_prefix17hc6062f680228d9e5E>
  4074ac: 370000e0     	tbnz	w0, #0x0, 0x4074c8 <_ZN4core3fmt9Formatter12pad_integral17h3323e701c7d72f43E+0x21c>
  4074b0: f9400f28     	ldr	x8, [x25, #0x18]
  4074b4: aa1803e0     	mov	x0, x24
  4074b8: aa1403e1     	mov	x1, x20
  4074bc: aa1303e2     	mov	x2, x19
  4074c0: d63f0100     	blr	x8
  4074c4: 36000120     	tbz	w0, #0x0, 0x4074e8 <_ZN4core3fmt9Formatter12pad_integral17h3323e701c7d72f43E+0x23c>
  4074c8: 52800020     	mov	w0, #0x1                // =1
  4074cc: a9454ff4     	ldp	x20, x19, [sp, #0x50]
  4074d0: a94457f6     	ldp	x22, x21, [sp, #0x40]
  4074d4: a9435ff8     	ldp	x24, x23, [sp, #0x30]
  4074d8: a94267fa     	ldp	x26, x25, [sp, #0x20]
  4074dc: a9416ffc     	ldp	x28, x27, [sp, #0x10]
  4074e0: a8c67bfd     	ldp	x29, x30, [sp], #0x60
  4074e4: d65f03c0     	ret
  4074e8: 2a1f03f3     	mov	w19, wzr
  4074ec: 4b1c0374     	sub	w20, w27, w28
  4074f0: 12003e68     	and	w8, w19, #0xffff
  4074f4: 6b34211f     	cmp	w8, w20, uxth
  4074f8: 54000142     	b.hs	0x407520 <_ZN4core3fmt9Formatter12pad_integral17h3323e701c7d72f43E+0x274>
  4074fc: f9401328     	ldr	x8, [x25, #0x20]
  407500: 12005341     	and	w1, w26, #0x1fffff
  407504: aa1803e0     	mov	x0, x24
  407508: 11000673     	add	w19, w19, #0x1
  40750c: d63f0100     	blr	x8
  407510: 2a0003e8     	mov	w8, w0
  407514: 52800020     	mov	w0, #0x1                // =1
  407518: 3607fec8     	tbz	w8, #0x0, 0x4074f0 <_ZN4core3fmt9Formatter12pad_integral17h3323e701c7d72f43E+0x244>
  40751c: 17ffffec     	b	0x4074cc <_ZN4core3fmt9Formatter12pad_integral17h3323e701c7d72f43E+0x220>
  407520: 2a1f03e0     	mov	w0, wzr
  407524: 17ffffea     	b	0x4074cc <_ZN4core3fmt9Formatter12pad_integral17h3323e701c7d72f43E+0x220>

0000000000407528 <_ZN4core3fmt9Formatter12pad_integral12write_prefix17hc6062f680228d9e5E>:
  407528: f81d0ffe     	str	x30, [sp, #-0x30]!
  40752c: a90157f6     	stp	x22, x21, [sp, #0x10]
  407530: a9024ff4     	stp	x20, x19, [sp, #0x20]
  407534: aa0403f3     	mov	x19, x4
  407538: aa0303f4     	mov	x20, x3
  40753c: aa0103f5     	mov	x21, x1
  407540: 7144405f     	cmp	w2, #0x110, lsl #12     // =0x110000
  407544: 540001a0     	b.eq	0x407578 <_ZN4core3fmt9Formatter12pad_integral12write_prefix17hc6062f680228d9e5E+0x50>
  407548: f94012a8     	ldr	x8, [x21, #0x20]
  40754c: 2a0203e1     	mov	w1, w2
  407550: aa0003f6     	mov	x22, x0
  407554: d63f0100     	blr	x8
  407558: 2a0003e8     	mov	w8, w0
  40755c: aa1603e0     	mov	x0, x22
  407560: 360000c8     	tbz	w8, #0x0, 0x407578 <_ZN4core3fmt9Formatter12pad_integral12write_prefix17hc6062f680228d9e5E+0x50>
  407564: 52800020     	mov	w0, #0x1                // =1
  407568: a9424ff4     	ldp	x20, x19, [sp, #0x20]
  40756c: a94157f6     	ldp	x22, x21, [sp, #0x10]
  407570: f84307fe     	ldr	x30, [sp], #0x30
  407574: d65f03c0     	ret
  407578: b4000114     	cbz	x20, 0x407598 <_ZN4core3fmt9Formatter12pad_integral12write_prefix17hc6062f680228d9e5E+0x70>
  40757c: f9400ea3     	ldr	x3, [x21, #0x18]
  407580: aa1403e1     	mov	x1, x20
  407584: aa1303e2     	mov	x2, x19
  407588: a9424ff4     	ldp	x20, x19, [sp, #0x20]
  40758c: a94157f6     	ldp	x22, x21, [sp, #0x10]
  407590: f84307fe     	ldr	x30, [sp], #0x30
  407594: d61f0060     	br	x3
  407598: 2a1f03e0     	mov	w0, wzr
  40759c: a9424ff4     	ldp	x20, x19, [sp, #0x20]
  4075a0: a94157f6     	ldp	x22, x21, [sp, #0x10]
  4075a4: f84307fe     	ldr	x30, [sp], #0x30
  4075a8: d65f03c0     	ret

00000000004075ac <_ZN4core5slice5index24slice_end_index_len_fail17h6e690d15dace2bc9E>:
  4075ac: 97ffff3f     	bl	0x4072a8 <_ZN4core9panicking9panic_fmt17h7d27c6f13468728dE>

00000000004075b0 <_ZN4core3fmt9Formatter3pad17h17fff84df6397ea3E>:
  4075b0: f81b0ffe     	str	x30, [sp, #-0x50]!
  4075b4: a90167fa     	stp	x26, x25, [sp, #0x10]
  4075b8: a9025ff8     	stp	x24, x23, [sp, #0x20]
  4075bc: a90357f6     	stp	x22, x21, [sp, #0x30]
  4075c0: a9044ff4     	stp	x20, x19, [sp, #0x40]
  4075c4: b9401016     	ldr	w22, [x0, #0x10]
  4075c8: aa0203f4     	mov	x20, x2
  4075cc: aa0103f3     	mov	x19, x1
  4075d0: 720506df     	tst	w22, #0x18000000
  4075d4: 54002980     	b.eq	0x407b04 <_ZN4core3fmt9Formatter3pad17h17fff84df6397ea3E+0x554>
  4075d8: 37e00136     	tbnz	w22, #0x1c, 0x4075fc <_ZN4core3fmt9Formatter3pad17h17fff84df6397ea3E+0x4c>
  4075dc: f100829f     	cmp	x20, #0x20
  4075e0: 54000482     	b.hs	0x407670 <_ZN4core3fmt9Formatter3pad17h17fff84df6397ea3E+0xc0>
  4075e4: b4000b54     	cbz	x20, 0x40774c <_ZN4core3fmt9Formatter3pad17h17fff84df6397ea3E+0x19c>
  4075e8: f100229f     	cmp	x20, #0x8
  4075ec: 54001e42     	b.hs	0x4079b4 <_ZN4core3fmt9Formatter3pad17h17fff84df6397ea3E+0x404>
  4075f0: aa1f03e8     	mov	x8, xzr
  4075f4: aa1f03e9     	mov	x9, xzr
  4075f8: 14000132     	b	0x407ac0 <_ZN4core3fmt9Formatter3pad17h17fff84df6397ea3E+0x510>
  4075fc: 79402c08     	ldrh	w8, [x0, #0x16]
  407600: b4000a08     	cbz	x8, 0x407740 <_ZN4core3fmt9Formatter3pad17h17fff84df6397ea3E+0x190>
  407604: 8b14026a     	add	x10, x19, x20
  407608: aa1303eb     	mov	x11, x19
  40760c: aa0803e9     	mov	x9, x8
  407610: aa1f03f4     	mov	x20, xzr
  407614: 14000007     	b	0x407630 <_ZN4core3fmt9Formatter3pad17h17fff84df6397ea3E+0x80>
  407618: 9100096c     	add	x12, x11, #0x2
  40761c: cb0b018b     	sub	x11, x12, x11
  407620: f1000529     	subs	x9, x9, #0x1
  407624: 8b140174     	add	x20, x11, x20
  407628: aa0c03eb     	mov	x11, x12
  40762c: 540001e0     	b.eq	0x407668 <_ZN4core3fmt9Formatter3pad17h17fff84df6397ea3E+0xb8>
  407630: eb0a017f     	cmp	x11, x10
  407634: 540001a0     	b.eq	0x407668 <_ZN4core3fmt9Formatter3pad17h17fff84df6397ea3E+0xb8>
  407638: aa0b03ec     	mov	x12, x11
  40763c: 38c0158d     	ldrsb	w13, [x12], #0x1
  407640: 36fffeed     	tbz	w13, #0x1f, 0x40761c <_ZN4core3fmt9Formatter3pad17h17fff84df6397ea3E+0x6c>
  407644: 12001dac     	and	w12, w13, #0xff
  407648: 7103819f     	cmp	w12, #0xe0
  40764c: 54fffe63     	b.lo	0x407618 <_ZN4core3fmt9Formatter3pad17h17fff84df6397ea3E+0x68>
  407650: 7103c19f     	cmp	w12, #0xf0
  407654: 54000063     	b.lo	0x407660 <_ZN4core3fmt9Formatter3pad17h17fff84df6397ea3E+0xb0>
  407658: 9100116c     	add	x12, x11, #0x4
  40765c: 17fffff0     	b	0x40761c <_ZN4core3fmt9Formatter3pad17h17fff84df6397ea3E+0x6c>
  407660: 91000d6c     	add	x12, x11, #0x3
  407664: 17ffffee     	b	0x40761c <_ZN4core3fmt9Formatter3pad17h17fff84df6397ea3E+0x6c>
  407668: cb090108     	sub	x8, x8, x9
  40766c: 1400011b     	b	0x407ad8 <_ZN4core3fmt9Formatter3pad17h17fff84df6397ea3E+0x528>
  407670: 91001e68     	add	x8, x19, #0x7
  407674: 927df10e     	and	x14, x8, #0xfffffffffffffff8
  407678: aa1f03e8     	mov	x8, xzr
  40767c: cb0e0269     	sub	x9, x19, x14
  407680: eb1301df     	cmp	x14, x19
  407684: 8b09028b     	add	x11, x20, x9
  407688: 9240096a     	and	x10, x11, #0x7
  40768c: 540000e0     	b.eq	0x4076a8 <_ZN4core3fmt9Formatter3pad17h17fff84df6397ea3E+0xf8>
  407690: aa1303ec     	mov	x12, x19
  407694: 38c0158d     	ldrsb	w13, [x12], #0x1
  407698: 310105bf     	cmn	w13, #0x41
  40769c: 9a88d508     	cinc	x8, x8, gt
  4076a0: b1000529     	adds	x9, x9, #0x1
  4076a4: 54ffff83     	b.lo	0x407694 <_ZN4core3fmt9Formatter3pad17h17fff84df6397ea3E+0xe4>
  4076a8: d343fd69     	lsr	x9, x11, #3
  4076ac: b400054a     	cbz	x10, 0x407754 <_ZN4core3fmt9Formatter3pad17h17fff84df6397ea3E+0x1a4>
  4076b0: 927df16b     	and	x11, x11, #0xfffffffffffffff8
  4076b4: 8b0b01cc     	add	x12, x14, x11
  4076b8: 39c0018b     	ldrsb	w11, [x12]
  4076bc: 3101057f     	cmn	w11, #0x41
  4076c0: 1a9fd7eb     	cset	w11, gt
  4076c4: f100055f     	cmp	x10, #0x1
  4076c8: 54000480     	b.eq	0x407758 <_ZN4core3fmt9Formatter3pad17h17fff84df6397ea3E+0x1a8>
  4076cc: 39c0058d     	ldrsb	w13, [x12, #0x1]
  4076d0: 310105bf     	cmn	w13, #0x41
  4076d4: 9a8bd56b     	cinc	x11, x11, gt
  4076d8: f100095f     	cmp	x10, #0x2
  4076dc: 540003e0     	b.eq	0x407758 <_ZN4core3fmt9Formatter3pad17h17fff84df6397ea3E+0x1a8>
  4076e0: 39c0098d     	ldrsb	w13, [x12, #0x2]
  4076e4: 310105bf     	cmn	w13, #0x41
  4076e8: 9a8bd56b     	cinc	x11, x11, gt
  4076ec: f1000d5f     	cmp	x10, #0x3
  4076f0: 54000340     	b.eq	0x407758 <_ZN4core3fmt9Formatter3pad17h17fff84df6397ea3E+0x1a8>
  4076f4: 39c00d8d     	ldrsb	w13, [x12, #0x3]
  4076f8: 310105bf     	cmn	w13, #0x41
  4076fc: 9a8bd56b     	cinc	x11, x11, gt
  407700: f100115f     	cmp	x10, #0x4
  407704: 540002a0     	b.eq	0x407758 <_ZN4core3fmt9Formatter3pad17h17fff84df6397ea3E+0x1a8>
  407708: 39c0118d     	ldrsb	w13, [x12, #0x4]
  40770c: 310105bf     	cmn	w13, #0x41
  407710: 9a8bd56b     	cinc	x11, x11, gt
  407714: f100155f     	cmp	x10, #0x5
  407718: 54000200     	b.eq	0x407758 <_ZN4core3fmt9Formatter3pad17h17fff84df6397ea3E+0x1a8>
  40771c: 39c0158d     	ldrsb	w13, [x12, #0x5]
  407720: 310105bf     	cmn	w13, #0x41
  407724: 9a8bd56b     	cinc	x11, x11, gt
  407728: f100195f     	cmp	x10, #0x6
  40772c: 54000160     	b.eq	0x407758 <_ZN4core3fmt9Formatter3pad17h17fff84df6397ea3E+0x1a8>
  407730: 39c0198a     	ldrsb	w10, [x12, #0x6]
  407734: 3101055f     	cmn	w10, #0x41
  407738: 9a8bd56b     	cinc	x11, x11, gt
  40773c: 14000007     	b	0x407758 <_ZN4core3fmt9Formatter3pad17h17fff84df6397ea3E+0x1a8>
  407740: aa1f03f4     	mov	x20, xzr
  407744: cb1f0108     	sub	x8, x8, xzr
  407748: 140000e4     	b	0x407ad8 <_ZN4core3fmt9Formatter3pad17h17fff84df6397ea3E+0x528>
  40774c: aa1f03e8     	mov	x8, xzr
  407750: 140000e2     	b	0x407ad8 <_ZN4core3fmt9Formatter3pad17h17fff84df6397ea3E+0x528>
  407754: aa1f03eb     	mov	x11, xzr
  407758: 4f00e420     	movi	v0.16b, #0x1
  40775c: 8b080168     	add	x8, x11, x8
  407760: 5280180a     	mov	w10, #0xc0              // =192
  407764: b20083eb     	mov	x11, #0x1000100010001   // =281479271743489
  407768: 1400000c     	b	0x407798 <_ZN4core3fmt9Formatter3pad17h17fff84df6397ea3E+0x1e8>
  40776c: aa1f03f1     	mov	x17, xzr
  407770: d348fe2e     	lsr	x14, x17, #8
  407774: 92009e2f     	and	x15, x17, #0xff00ff00ff00ff
  407778: cb0d0129     	sub	x9, x9, x13
  40777c: 92009dce     	and	x14, x14, #0xff00ff00ff00ff
  407780: 8b0f01ce     	add	x14, x14, x15
  407784: 924005af     	and	x15, x13, #0x3
  407788: 9b0b7dd0     	mul	x16, x14, x11
  40778c: 8b0d0d8e     	add	x14, x12, x13, lsl #3
  407790: 8b50c108     	add	x8, x8, x16, lsr #48
  407794: b5000d2f     	cbnz	x15, 0x407938 <_ZN4core3fmt9Formatter3pad17h17fff84df6397ea3E+0x388>
  407798: b4001a09     	cbz	x9, 0x407ad8 <_ZN4core3fmt9Formatter3pad17h17fff84df6397ea3E+0x528>
  40779c: f103013f     	cmp	x9, #0xc0
  4077a0: aa0e03ec     	mov	x12, x14
  4077a4: 9a8a312d     	csel	x13, x9, x10, lo
  4077a8: f100113f     	cmp	x9, #0x4
  4077ac: 54fffe03     	b.lo	0x40776c <_ZN4core3fmt9Formatter3pad17h17fff84df6397ea3E+0x1bc>
  4077b0: d342fdaf     	lsr	x15, x13, #2
  4077b4: d10005ee     	sub	x14, x15, #0x1
  4077b8: 9240e9d0     	and	x16, x14, #0x7ffffffffffffff
  4077bc: 9100818e     	add	x14, x12, #0x20
  4077c0: f1000e1f     	cmp	x16, #0x3
  4077c4: 54000082     	b.hs	0x4077d4 <_ZN4core3fmt9Formatter3pad17h17fff84df6397ea3E+0x224>
  4077c8: aa1f03f1     	mov	x17, xzr
  4077cc: aa0c03f0     	mov	x16, x12
  4077d0: 14000045     	b	0x4078e4 <_ZN4core3fmt9Formatter3pad17h17fff84df6397ea3E+0x334>
  4077d4: 91000611     	add	x17, x16, #0x1
  4077d8: 6f00e401     	movi	v1.2d, #0000000000000000
  4077dc: 6f00e402     	movi	v2.2d, #0000000000000000
  4077e0: 927ee632     	and	x18, x17, #0xffffffffffffffc
  4077e4: d37bea41     	lsl	x1, x18, #5
  4077e8: aa1203e2     	mov	x2, x18
  4077ec: 8b010190     	add	x16, x12, x1
  4077f0: 8b0101ce     	add	x14, x14, x1
  4077f4: 91010181     	add	x1, x12, #0x40
  4077f8: d1010023     	sub	x3, x1, #0x40
  4077fc: 4c400c30     	ld4	{ v16.2d, v17.2d, v18.2d, v19.2d }, [x1]
  407800: f1001042     	subs	x2, x2, #0x4
  407804: 91020021     	add	x1, x1, #0x80
  407808: 4c400c63     	ld4	{ v3.2d, v4.2d, v5.2d, v6.2d }, [x3]
  40780c: 6e205a07     	mvn	v7.16b, v16.16b
  407810: 6e205a35     	mvn	v21.16b, v17.16b
  407814: 6e205a5a     	mvn	v26.16b, v18.16b
  407818: 6e205876     	mvn	v22.16b, v3.16b
  40781c: 6e205897     	mvn	v23.16b, v4.16b
  407820: 6e2058b8     	mvn	v24.16b, v5.16b
  407824: 6f7a0614     	ushr	v20.2d, v16.2d, #0x6
  407828: 6f7a0639     	ushr	v25.2d, v17.2d, #0x6
  40782c: 6f7a065b     	ushr	v27.2d, v18.2d, #0x6
  407830: 6f7a047c     	ushr	v28.2d, v3.2d, #0x6
  407834: 6f7a049d     	ushr	v29.2d, v4.2d, #0x6
  407838: 6f7a04be     	ushr	v30.2d, v5.2d, #0x6
  40783c: 6f7906d6     	ushr	v22.2d, v22.2d, #0x7
  407840: 6f7906f7     	ushr	v23.2d, v23.2d, #0x7
  407844: 6f790718     	ushr	v24.2d, v24.2d, #0x7
  407848: 6f7904e7     	ushr	v7.2d, v7.2d, #0x7
  40784c: 6f7906b5     	ushr	v21.2d, v21.2d, #0x7
  407850: 6f79075a     	ushr	v26.2d, v26.2d, #0x7
  407854: 6e205a7f     	mvn	v31.16b, v19.16b
  407858: 6f7a0670     	ushr	v16.2d, v19.2d, #0x6
  40785c: 6e2058d1     	mvn	v17.16b, v6.16b
  407860: 4ebc1ed2     	orr	v18.16b, v22.16b, v28.16b
  407864: 4ebd1ef3     	orr	v19.16b, v23.16b, v29.16b
  407868: 4ebe1f16     	orr	v22.16b, v24.16b, v30.16b
  40786c: 4eb41ce7     	orr	v7.16b, v7.16b, v20.16b
  407870: 4eb91eb4     	orr	v20.16b, v21.16b, v25.16b
  407874: 4ebb1f55     	orr	v21.16b, v26.16b, v27.16b
  407878: 6f7a04c3     	ushr	v3.2d, v6.2d, #0x6
  40787c: 6f7907e4     	ushr	v4.2d, v31.2d, #0x7
  407880: 6f790625     	ushr	v5.2d, v17.2d, #0x7
  407884: 4e201e46     	and	v6.16b, v18.16b, v0.16b
  407888: 4e201e71     	and	v17.16b, v19.16b, v0.16b
  40788c: 4e201ed2     	and	v18.16b, v22.16b, v0.16b
  407890: 4e201ce7     	and	v7.16b, v7.16b, v0.16b
  407894: 4e201e93     	and	v19.16b, v20.16b, v0.16b
  407898: 4e201eb4     	and	v20.16b, v21.16b, v0.16b
  40789c: 4eb01c84     	orr	v4.16b, v4.16b, v16.16b
  4078a0: 4ea31ca3     	orr	v3.16b, v5.16b, v3.16b
  4078a4: 4ee184c1     	add	v1.2d, v6.2d, v1.2d
  4078a8: 4ef18646     	add	v6.2d, v18.2d, v17.2d
  4078ac: 4ee284e2     	add	v2.2d, v7.2d, v2.2d
  4078b0: 4ef38685     	add	v5.2d, v20.2d, v19.2d
  4078b4: 4e201c63     	and	v3.16b, v3.16b, v0.16b
  4078b8: 4e201c84     	and	v4.16b, v4.16b, v0.16b
  4078bc: 4ee184c1     	add	v1.2d, v6.2d, v1.2d
  4078c0: 4ee284a2     	add	v2.2d, v5.2d, v2.2d
  4078c4: 4ee18461     	add	v1.2d, v3.2d, v1.2d
  4078c8: 4ee28482     	add	v2.2d, v4.2d, v2.2d
  4078cc: 54fff961     	b.ne	0x4077f8 <_ZN4core3fmt9Formatter3pad17h17fff84df6397ea3E+0x248>
  4078d0: 4ee18441     	add	v1.2d, v2.2d, v1.2d
  4078d4: eb12023f     	cmp	x17, x18
  4078d8: 5ef1b821     	addp	d1, v1.2d
  4078dc: 9e660031     	fmov	x17, d1
  4078e0: 54fff480     	b.eq	0x407770 <_ZN4core3fmt9Formatter3pad17h17fff84df6397ea3E+0x1c0>
  4078e4: 8b0f158f     	add	x15, x12, x15, lsl #5
  4078e8: ad400602     	ldp	q2, q1, [x16]
  4078ec: eb0f01df     	cmp	x14, x15
  4078f0: 6e205823     	mvn	v3.16b, v1.16b
  4078f4: 6e205844     	mvn	v4.16b, v2.16b
  4078f8: 6f7a0421     	ushr	v1.2d, v1.2d, #0x6
  4078fc: 6f7a0442     	ushr	v2.2d, v2.2d, #0x6
  407900: 6f790463     	ushr	v3.2d, v3.2d, #0x7
  407904: 6f790484     	ushr	v4.2d, v4.2d, #0x7
  407908: 4ea21c82     	orr	v2.16b, v4.16b, v2.16b
  40790c: 4ea11c61     	orr	v1.16b, v3.16b, v1.16b
  407910: 4e201c21     	and	v1.16b, v1.16b, v0.16b
  407914: 4e201c42     	and	v2.16b, v2.16b, v0.16b
  407918: 4ee18441     	add	v1.2d, v2.2d, v1.2d
  40791c: 5ef1b821     	addp	d1, v1.2d
  407920: 9e660030     	fmov	x16, d1
  407924: 8b110211     	add	x17, x16, x17
  407928: aa0e03f0     	mov	x16, x14
  40792c: 910081ce     	add	x14, x14, #0x20
  407930: 54fffdc1     	b.ne	0x4078e8 <_ZN4core3fmt9Formatter3pad17h17fff84df6397ea3E+0x338>
  407934: 17ffff8f     	b	0x407770 <_ZN4core3fmt9Formatter3pad17h17fff84df6397ea3E+0x1c0>
  407938: 927e15a9     	and	x9, x13, #0xfc
  40793c: f10005ff     	cmp	x15, #0x1
  407940: 8b090d8a     	add	x10, x12, x9, lsl #3
  407944: f9400149     	ldr	x9, [x10]
  407948: aa2903eb     	mvn	x11, x9
  40794c: d347fd6b     	lsr	x11, x11, #7
  407950: aa491969     	orr	x9, x11, x9, lsr #6
  407954: 9200c129     	and	x9, x9, #0x101010101010101
  407958: 540001e0     	b.eq	0x407994 <_ZN4core3fmt9Formatter3pad17h17fff84df6397ea3E+0x3e4>
  40795c: f940054b     	ldr	x11, [x10, #0x8]
  407960: f10009ff     	cmp	x15, #0x2
  407964: aa2b03ec     	mvn	x12, x11
  407968: d347fd8c     	lsr	x12, x12, #7
  40796c: aa4b198b     	orr	x11, x12, x11, lsr #6
  407970: 9200c16b     	and	x11, x11, #0x101010101010101
  407974: 8b090169     	add	x9, x11, x9
  407978: 540000e0     	b.eq	0x407994 <_ZN4core3fmt9Formatter3pad17h17fff84df6397ea3E+0x3e4>
  40797c: f940094a     	ldr	x10, [x10, #0x10]
  407980: aa2a03eb     	mvn	x11, x10
  407984: d347fd6b     	lsr	x11, x11, #7
  407988: aa4a196a     	orr	x10, x11, x10, lsr #6
  40798c: 9200c14a     	and	x10, x10, #0x101010101010101
  407990: 8b090149     	add	x9, x10, x9
  407994: d348fd2a     	lsr	x10, x9, #8
  407998: 92009d29     	and	x9, x9, #0xff00ff00ff00ff
  40799c: 92009d4a     	and	x10, x10, #0xff00ff00ff00ff
  4079a0: 8b090149     	add	x9, x10, x9
  4079a4: b20083ea     	mov	x10, #0x1000100010001   // =281479271743489
  4079a8: 9b0a7d29     	mul	x9, x9, x10
  4079ac: 8b49c108     	add	x8, x8, x9, lsr #48
  4079b0: 1400004a     	b	0x407ad8 <_ZN4core3fmt9Formatter3pad17h17fff84df6397ea3E+0x528>
  4079b4: 0f05e7e4     	movi	v4.8b, #0xbf
  4079b8: fd400260     	ldr	d0, [x19]
  4079bc: 52800028     	mov	w8, #0x1                // =1
  4079c0: 4e080d03     	dup	v3.2d, x8
  4079c4: 927d0689     	and	x9, x20, #0x18
  4079c8: f100213f     	cmp	x9, #0x8
  4079cc: 0e243400     	cmgt	v0.8b, v0.8b, v4.8b
  4079d0: 2f08a400     	ushll	v0.8h, v0.8b, #0x0
  4079d4: 6f10a401     	ushll2	v1.4s, v0.8h, #0x0
  4079d8: 2f10a400     	ushll	v0.4s, v0.4h, #0x0
  4079dc: 6f20a422     	ushll2	v2.2d, v1.4s, #0x0
  4079e0: 2f20a421     	ushll	v1.2d, v1.2s, #0x0
  4079e4: 6f20a405     	ushll2	v5.2d, v0.4s, #0x0
  4079e8: 2f20a406     	ushll	v6.2d, v0.2s, #0x0
  4079ec: 4e231c40     	and	v0.16b, v2.16b, v3.16b
  4079f0: 4e231c22     	and	v2.16b, v1.16b, v3.16b
  4079f4: 4e231ca1     	and	v1.16b, v5.16b, v3.16b
  4079f8: 4e231cc3     	and	v3.16b, v6.16b, v3.16b
  4079fc: 54000540     	b.eq	0x407aa4 <_ZN4core3fmt9Formatter3pad17h17fff84df6397ea3E+0x4f4>
  407a00: fd400665     	ldr	d5, [x19, #0x8]
  407a04: 52800028     	mov	w8, #0x1                // =1
  407a08: f100413f     	cmp	x9, #0x10
  407a0c: 4e080d06     	dup	v6.2d, x8
  407a10: 0e2434a4     	cmgt	v4.8b, v5.8b, v4.8b
  407a14: 2f08a484     	ushll	v4.8h, v4.8b, #0x0
  407a18: 6f10a485     	ushll2	v5.4s, v4.8h, #0x0
  407a1c: 2f10a484     	ushll	v4.4s, v4.4h, #0x0
  407a20: 6f20a4a7     	ushll2	v7.2d, v5.4s, #0x0
  407a24: 2f20a490     	ushll	v16.2d, v4.2s, #0x0
  407a28: 6f20a484     	ushll2	v4.2d, v4.4s, #0x0
  407a2c: 2f20a4a5     	ushll	v5.2d, v5.2s, #0x0
  407a30: 4e261ce7     	and	v7.16b, v7.16b, v6.16b
  407a34: 4e261e10     	and	v16.16b, v16.16b, v6.16b
  407a38: 4e261c84     	and	v4.16b, v4.16b, v6.16b
  407a3c: 4e261ca5     	and	v5.16b, v5.16b, v6.16b
  407a40: 4ee78400     	add	v0.2d, v0.2d, v7.2d
  407a44: 4ee48421     	add	v1.2d, v1.2d, v4.2d
  407a48: 4ef08463     	add	v3.2d, v3.2d, v16.2d
  407a4c: 4ee58442     	add	v2.2d, v2.2d, v5.2d
  407a50: 540002a0     	b.eq	0x407aa4 <_ZN4core3fmt9Formatter3pad17h17fff84df6397ea3E+0x4f4>
  407a54: 0f05e7e4     	movi	v4.8b, #0xbf
  407a58: fd400a65     	ldr	d5, [x19, #0x10]
  407a5c: 52800028     	mov	w8, #0x1                // =1
  407a60: 4e080d06     	dup	v6.2d, x8
  407a64: 0e2434a4     	cmgt	v4.8b, v5.8b, v4.8b
  407a68: 2f08a484     	ushll	v4.8h, v4.8b, #0x0
  407a6c: 6f10a485     	ushll2	v5.4s, v4.8h, #0x0
  407a70: 2f10a484     	ushll	v4.4s, v4.4h, #0x0
  407a74: 6f20a4a7     	ushll2	v7.2d, v5.4s, #0x0
  407a78: 2f20a490     	ushll	v16.2d, v4.2s, #0x0
  407a7c: 6f20a484     	ushll2	v4.2d, v4.4s, #0x0
  407a80: 2f20a4a5     	ushll	v5.2d, v5.2s, #0x0
  407a84: 4e261ce7     	and	v7.16b, v7.16b, v6.16b
  407a88: 4e261e10     	and	v16.16b, v16.16b, v6.16b
  407a8c: 4e261c84     	and	v4.16b, v4.16b, v6.16b
  407a90: 4e261ca5     	and	v5.16b, v5.16b, v6.16b
  407a94: 4ee78400     	add	v0.2d, v0.2d, v7.2d
  407a98: 4ee48421     	add	v1.2d, v1.2d, v4.2d
  407a9c: 4ef08463     	add	v3.2d, v3.2d, v16.2d
  407aa0: 4ee58442     	add	v2.2d, v2.2d, v5.2d
  407aa4: 4ee28462     	add	v2.2d, v3.2d, v2.2d
  407aa8: 4ee08420     	add	v0.2d, v1.2d, v0.2d
  407aac: eb09029f     	cmp	x20, x9
  407ab0: 4ee08440     	add	v0.2d, v2.2d, v0.2d
  407ab4: 5ef1b800     	addp	d0, v0.2d
  407ab8: 9e660008     	fmov	x8, d0
  407abc: 540000e0     	b.eq	0x407ad8 <_ZN4core3fmt9Formatter3pad17h17fff84df6397ea3E+0x528>
  407ac0: 38e96a6a     	ldrsb	w10, [x19, x9]
  407ac4: 91000529     	add	x9, x9, #0x1
  407ac8: 3101055f     	cmn	w10, #0x41
  407acc: 9a88d508     	cinc	x8, x8, gt
  407ad0: eb09029f     	cmp	x20, x9
  407ad4: 54ffff61     	b.ne	0x407ac0 <_ZN4core3fmt9Formatter3pad17h17fff84df6397ea3E+0x510>
  407ad8: 79402809     	ldrh	w9, [x0, #0x14]
  407adc: eb09011f     	cmp	x8, x9
  407ae0: 54000122     	b.hs	0x407b04 <_ZN4core3fmt9Formatter3pad17h17fff84df6397ea3E+0x554>
  407ae4: 531d7aca     	ubfx	w10, w22, #29, #2
  407ae8: 2a1f03f7     	mov	w23, wzr
  407aec: 4b080138     	sub	w24, w9, w8
  407af0: 7100055f     	cmp	w10, #0x1
  407af4: 540001cc     	b.gt	0x407b2c <_ZN4core3fmt9Formatter3pad17h17fff84df6397ea3E+0x57c>
  407af8: 3400020a     	cbz	w10, 0x407b38 <_ZN4core3fmt9Formatter3pad17h17fff84df6397ea3E+0x588>
  407afc: 2a1803f7     	mov	w23, w24
  407b00: 1400000e     	b	0x407b38 <_ZN4core3fmt9Formatter3pad17h17fff84df6397ea3E+0x588>
  407b04: a9402000     	ldp	x0, x8, [x0]
  407b08: aa1303e1     	mov	x1, x19
  407b0c: aa1403e2     	mov	x2, x20
  407b10: a9444ff4     	ldp	x20, x19, [sp, #0x40]
  407b14: a94357f6     	ldp	x22, x21, [sp, #0x30]
  407b18: a9425ff8     	ldp	x24, x23, [sp, #0x20]
  407b1c: f9400d03     	ldr	x3, [x8, #0x18]
  407b20: a94167fa     	ldp	x26, x25, [sp, #0x10]
  407b24: f84507fe     	ldr	x30, [sp], #0x50
  407b28: d61f0060     	br	x3
  407b2c: 7100095f     	cmp	w10, #0x2
  407b30: 54000041     	b.ne	0x407b38 <_ZN4core3fmt9Formatter3pad17h17fff84df6397ea3E+0x588>
  407b34: 53013f17     	ubfx	w23, w24, #1, #15
  407b38: a9406415     	ldp	x21, x25, [x0]
  407b3c: 2a1f03fa     	mov	w26, wzr
  407b40: 12003f48     	and	w8, w26, #0xffff
  407b44: 6b37211f     	cmp	w8, w23, uxth
  407b48: 54000102     	b.hs	0x407b68 <_ZN4core3fmt9Formatter3pad17h17fff84df6397ea3E+0x5b8>
  407b4c: f9401328     	ldr	x8, [x25, #0x20]
  407b50: 120052c1     	and	w1, w22, #0x1fffff
  407b54: aa1503e0     	mov	x0, x21
  407b58: 1100075a     	add	w26, w26, #0x1
  407b5c: d63f0100     	blr	x8
  407b60: 3607ff00     	tbz	w0, #0x0, 0x407b40 <_ZN4core3fmt9Formatter3pad17h17fff84df6397ea3E+0x590>
  407b64: 14000012     	b	0x407bac <_ZN4core3fmt9Formatter3pad17h17fff84df6397ea3E+0x5fc>
  407b68: f9400f28     	ldr	x8, [x25, #0x18]
  407b6c: aa1503e0     	mov	x0, x21
  407b70: aa1303e1     	mov	x1, x19
  407b74: aa1403e2     	mov	x2, x20
  407b78: d63f0100     	blr	x8
  407b7c: 37000180     	tbnz	w0, #0x0, 0x407bac <_ZN4core3fmt9Formatter3pad17h17fff84df6397ea3E+0x5fc>
  407b80: 2a1f03f3     	mov	w19, wzr
  407b84: 4b170314     	sub	w20, w24, w23
  407b88: 12003e68     	and	w8, w19, #0xffff
  407b8c: 6b34211f     	cmp	w8, w20, uxth
  407b90: 540001c2     	b.hs	0x407bc8 <_ZN4core3fmt9Formatter3pad17h17fff84df6397ea3E+0x618>
  407b94: f9401328     	ldr	x8, [x25, #0x20]
  407b98: 120052c1     	and	w1, w22, #0x1fffff
  407b9c: aa1503e0     	mov	x0, x21
  407ba0: 11000673     	add	w19, w19, #0x1
  407ba4: d63f0100     	blr	x8
  407ba8: 3607ff00     	tbz	w0, #0x0, 0x407b88 <_ZN4core3fmt9Formatter3pad17h17fff84df6397ea3E+0x5d8>
  407bac: 52800020     	mov	w0, #0x1                // =1
  407bb0: a9444ff4     	ldp	x20, x19, [sp, #0x40]
  407bb4: a94357f6     	ldp	x22, x21, [sp, #0x30]
  407bb8: a9425ff8     	ldp	x24, x23, [sp, #0x20]
  407bbc: a94167fa     	ldp	x26, x25, [sp, #0x10]
  407bc0: f84507fe     	ldr	x30, [sp], #0x50
  407bc4: d65f03c0     	ret
  407bc8: 2a1f03e0     	mov	w0, wzr
  407bcc: a9444ff4     	ldp	x20, x19, [sp, #0x40]
  407bd0: a94357f6     	ldp	x22, x21, [sp, #0x30]
  407bd4: a9425ff8     	ldp	x24, x23, [sp, #0x20]
  407bd8: a94167fa     	ldp	x26, x25, [sp, #0x10]
  407bdc: f84507fe     	ldr	x30, [sp], #0x50
  407be0: d65f03c0     	ret

0000000000407be4 <_ZN4core9panicking5panic17h629f58d3f16909bdE>:
  407be4: 97fffdb1     	bl	0x4072a8 <_ZN4core9panicking9panic_fmt17h7d27c6f13468728dE>

0000000000407be8 <_ZN4core3fmt5write17hf7092a74ebbf9db4E>:
  407be8: d101c3ff     	sub	sp, sp, #0x70
  407bec: a9026ffe     	stp	x30, x27, [sp, #0x20]
  407bf0: a90367fa     	stp	x26, x25, [sp, #0x30]
  407bf4: a9045ff8     	stp	x24, x23, [sp, #0x40]
  407bf8: a90557f6     	stp	x22, x21, [sp, #0x50]
  407bfc: a9064ff4     	stp	x20, x19, [sp, #0x60]
  407c00: 52800408     	mov	w8, #0x20               // =32
  407c04: f940103a     	ldr	x26, [x1, #0x20]
  407c08: aa0103f3     	mov	x19, x1
  407c0c: 72bc0008     	movk	w8, #0xe000, lsl #16
  407c10: f9000fe8     	str	x8, [sp, #0x18]
  407c14: d503201f     	nop
  407c18: 10012dc8     	adr	x8, 0x40a1d0 <rodata_check_str+0x1d0>
  407c1c: a900a3e0     	stp	x0, x8, [sp, #0x8]
  407c20: b40008ba     	cbz	x26, 0x407d34 <_ZN4core3fmt5write17hf7092a74ebbf9db4E+0x14c>
  407c24: f9401668     	ldr	x8, [x19, #0x28]
  407c28: b4000cc8     	cbz	x8, 0x407dc0 <_ZN4core3fmt5write17hf7092a74ebbf9db4E+0x1d8>
  407c2c: 52800609     	mov	w9, #0x30               // =48
  407c30: d100050a     	sub	x10, x8, #0x1
  407c34: f9400a77     	ldr	x23, [x19, #0x10]
  407c38: 9b096916     	madd	x22, x8, x9, x26
  407c3c: f9400269     	ldr	x9, [x19]
  407c40: 9240ed4a     	and	x10, x10, #0xfffffffffffffff
  407c44: aa1f03f5     	mov	x21, xzr
  407c48: 9100c348     	add	x8, x26, #0x30
  407c4c: 91000554     	add	x20, x10, #0x1
  407c50: 91002138     	add	x24, x9, #0x8
  407c54: 52800619     	mov	w25, #0x30              // =48
  407c58: f9400302     	ldr	x2, [x24]
  407c5c: aa0803fb     	mov	x27, x8
  407c60: b40000c2     	cbz	x2, 0x407c78 <_ZN4core3fmt5write17hf7092a74ebbf9db4E+0x90>
  407c64: a940a3e0     	ldp	x0, x8, [sp, #0x8]
  407c68: f85f8301     	ldur	x1, [x24, #-0x8]
  407c6c: f9400d08     	ldr	x8, [x8, #0x18]
  407c70: d63f0100     	blr	x8
  407c74: 37000bc0     	tbnz	w0, #0x0, 0x407dec <_ZN4core3fmt5write17hf7092a74ebbf9db4E+0x204>
  407c78: 79402348     	ldrh	w8, [x26, #0x10]
  407c7c: 340001e8     	cbz	w8, 0x407cb8 <_ZN4core3fmt5write17hf7092a74ebbf9db4E+0xd0>
  407c80: 7100051f     	cmp	w8, #0x1
  407c84: 54000261     	b.ne	0x407cd0 <_ZN4core3fmt5write17hf7092a74ebbf9db4E+0xe8>
  407c88: f9400f48     	ldr	x8, [x26, #0x18]
  407c8c: 8b0812e8     	add	x8, x23, x8, lsl #4
  407c90: 79401108     	ldrh	w8, [x8, #0x8]
  407c94: 79400349     	ldrh	w9, [x26]
  407c98: 7100093f     	cmp	w9, #0x2
  407c9c: 54000160     	b.eq	0x407cc8 <_ZN4core3fmt5write17hf7092a74ebbf9db4E+0xe0>
  407ca0: 7100053f     	cmp	w9, #0x1
  407ca4: 54000201     	b.ne	0x407ce4 <_ZN4core3fmt5write17hf7092a74ebbf9db4E+0xfc>
  407ca8: f9400749     	ldr	x9, [x26, #0x8]
  407cac: 8b0912e9     	add	x9, x23, x9, lsl #4
  407cb0: 79401129     	ldrh	w9, [x9, #0x8]
  407cb4: 1400000d     	b	0x407ce8 <_ZN4core3fmt5write17hf7092a74ebbf9db4E+0x100>
  407cb8: 79402748     	ldrh	w8, [x26, #0x12]
  407cbc: 79400349     	ldrh	w9, [x26]
  407cc0: 7100093f     	cmp	w9, #0x2
  407cc4: 54fffee1     	b.ne	0x407ca0 <_ZN4core3fmt5write17hf7092a74ebbf9db4E+0xb8>
  407cc8: 2a1f03e9     	mov	w9, wzr
  407ccc: 14000007     	b	0x407ce8 <_ZN4core3fmt5write17hf7092a74ebbf9db4E+0x100>
  407cd0: 2a1f03e8     	mov	w8, wzr
  407cd4: 79400349     	ldrh	w9, [x26]
  407cd8: 7100093f     	cmp	w9, #0x2
  407cdc: 54fffe21     	b.ne	0x407ca0 <_ZN4core3fmt5write17hf7092a74ebbf9db4E+0xb8>
  407ce0: 17fffffa     	b	0x407cc8 <_ZN4core3fmt5write17hf7092a74ebbf9db4E+0xe0>
  407ce4: 79400749     	ldrh	w9, [x26, #0x2]
  407ce8: f940134a     	ldr	x10, [x26, #0x20]
  407cec: 79003be8     	strh	w8, [sp, #0x1c]
  407cf0: 910023e1     	add	x1, sp, #0x8
  407cf4: b9402b4b     	ldr	w11, [x26, #0x28]
  407cf8: 79003fe9     	strh	w9, [sp, #0x1e]
  407cfc: 8b0a12ea     	add	x10, x23, x10, lsl #4
  407d00: b9001beb     	str	w11, [sp, #0x18]
  407d04: a9402140     	ldp	x0, x8, [x10]
  407d08: d63f0100     	blr	x8
  407d0c: 37000700     	tbnz	w0, #0x0, 0x407dec <_ZN4core3fmt5write17hf7092a74ebbf9db4E+0x204>
  407d10: eb16037f     	cmp	x27, x22
  407d14: 910006b5     	add	x21, x21, #0x1
  407d18: 91004318     	add	x24, x24, #0x10
  407d1c: 9a9903e8     	csel	x8, xzr, x25, eq
  407d20: eb15029f     	cmp	x20, x21
  407d24: aa1b03fa     	mov	x26, x27
  407d28: 8b080368     	add	x8, x27, x8
  407d2c: 54fff961     	b.ne	0x407c58 <_ZN4core3fmt5write17hf7092a74ebbf9db4E+0x70>
  407d30: 14000020     	b	0x407db0 <_ZN4core3fmt5write17hf7092a74ebbf9db4E+0x1c8>
  407d34: f9400e68     	ldr	x8, [x19, #0x18]
  407d38: b4000448     	cbz	x8, 0x407dc0 <_ZN4core3fmt5write17hf7092a74ebbf9db4E+0x1d8>
  407d3c: f9400a78     	ldr	x24, [x19, #0x10]
  407d40: f9400269     	ldr	x9, [x19]
  407d44: d100050a     	sub	x10, x8, #0x1
  407d48: 9240ed4a     	and	x10, x10, #0xfffffffffffffff
  407d4c: aa1f03f5     	mov	x21, xzr
  407d50: 8b081316     	add	x22, x24, x8, lsl #4
  407d54: 91004308     	add	x8, x24, #0x10
  407d58: 91000554     	add	x20, x10, #0x1
  407d5c: 91002137     	add	x23, x9, #0x8
  407d60: f94002e2     	ldr	x2, [x23]
  407d64: aa0803f9     	mov	x25, x8
  407d68: b40000c2     	cbz	x2, 0x407d80 <_ZN4core3fmt5write17hf7092a74ebbf9db4E+0x198>
  407d6c: a940a3e0     	ldp	x0, x8, [sp, #0x8]
  407d70: f85f82e1     	ldur	x1, [x23, #-0x8]
  407d74: f9400d08     	ldr	x8, [x8, #0x18]
  407d78: d63f0100     	blr	x8
  407d7c: 37000380     	tbnz	w0, #0x0, 0x407dec <_ZN4core3fmt5write17hf7092a74ebbf9db4E+0x204>
  407d80: a9402300     	ldp	x0, x8, [x24]
  407d84: 910023e1     	add	x1, sp, #0x8
  407d88: d63f0100     	blr	x8
  407d8c: 37000300     	tbnz	w0, #0x0, 0x407dec <_ZN4core3fmt5write17hf7092a74ebbf9db4E+0x204>
  407d90: eb16033f     	cmp	x25, x22
  407d94: 910006b5     	add	x21, x21, #0x1
  407d98: 910042f7     	add	x23, x23, #0x10
  407d9c: 1a9f07e8     	cset	w8, ne
  407da0: eb15029f     	cmp	x20, x21
  407da4: aa1903f8     	mov	x24, x25
  407da8: 8b285328     	add	x8, x25, w8, uxtw #4
  407dac: 54fffda1     	b.ne	0x407d60 <_ZN4core3fmt5write17hf7092a74ebbf9db4E+0x178>
  407db0: f9400668     	ldr	x8, [x19, #0x8]
  407db4: eb08029f     	cmp	x20, x8
  407db8: 540000c3     	b.lo	0x407dd0 <_ZN4core3fmt5write17hf7092a74ebbf9db4E+0x1e8>
  407dbc: 1400000e     	b	0x407df4 <_ZN4core3fmt5write17hf7092a74ebbf9db4E+0x20c>
  407dc0: aa1f03f4     	mov	x20, xzr
  407dc4: f9400668     	ldr	x8, [x19, #0x8]
  407dc8: eb0803ff     	cmp	xzr, x8
  407dcc: 54000142     	b.hs	0x407df4 <_ZN4core3fmt5write17hf7092a74ebbf9db4E+0x20c>
  407dd0: f9400268     	ldr	x8, [x19]
  407dd4: a940a7e0     	ldp	x0, x9, [sp, #0x8]
  407dd8: 8b141108     	add	x8, x8, x20, lsl #4
  407ddc: a9400901     	ldp	x1, x2, [x8]
  407de0: f9400d28     	ldr	x8, [x9, #0x18]
  407de4: d63f0100     	blr	x8
  407de8: 36000060     	tbz	w0, #0x0, 0x407df4 <_ZN4core3fmt5write17hf7092a74ebbf9db4E+0x20c>
  407dec: 52800020     	mov	w0, #0x1                // =1
  407df0: 14000002     	b	0x407df8 <_ZN4core3fmt5write17hf7092a74ebbf9db4E+0x210>
  407df4: 2a1f03e0     	mov	w0, wzr
  407df8: a9464ff4     	ldp	x20, x19, [sp, #0x60]
  407dfc: a94557f6     	ldp	x22, x21, [sp, #0x50]
  407e00: a9445ff8     	ldp	x24, x23, [sp, #0x40]
  407e04: a94367fa     	ldp	x26, x25, [sp, #0x30]
  407e08: a9426ffe     	ldp	x30, x27, [sp, #0x20]
  407e0c: 9101c3ff     	add	sp, sp, #0x70
  407e10: d65f03c0     	ret

0000000000407e14 <_ZN4core5slice5index22slice_index_order_fail17h65d5f108449d194bE>:
  407e14: 97fffd25     	bl	0x4072a8 <_ZN4core9panicking9panic_fmt17h7d27c6f13468728dE>

0000000000407e18 <_ZN4core6option13unwrap_failed17hea8c570cddc14751E>:
  407e18: 97ffff73     	bl	0x407be4 <_ZN4core9panicking5panic17h629f58d3f16909bdE>

0000000000407e1c <_ZN4core3fmt3num53_$LT$impl$u20$core..fmt..LowerHex$u20$for$u20$u16$GT$3fmt17h316f8e266a8ad23eE>:
  407e1c: d10243ff     	sub	sp, sp, #0x90
  407e20: f90043fe     	str	x30, [sp, #0x80]
  407e24: 7940000c     	ldrh	w12, [x0]
  407e28: aa0103e8     	mov	x8, x1
  407e2c: 52800feb     	mov	w11, #0x7f              // =127
  407e30: 910003e9     	mov	x9, sp
  407e34: 5280060d     	mov	w13, #0x30              // =48
  407e38: 12000d8a     	and	w10, w12, #0xf
  407e3c: 12003d8e     	and	w14, w12, #0xffff
  407e40: 33000d8d     	bfxil	w13, w12, #0, #4
  407e44: 11015d4f     	add	w15, w10, #0x57
  407e48: 7100295f     	cmp	w10, #0xa
  407e4c: 53043d8c     	ubfx	w12, w12, #4, #12
  407e50: aa0b03ea     	mov	x10, x11
  407e54: 1a8f31ab     	csel	w11, w13, w15, lo
  407e58: 71003ddf     	cmp	w14, #0xf
  407e5c: 382a692b     	strb	w11, [x9, x10]
  407e60: d100054b     	sub	x11, x10, #0x1
  407e64: 54fffe88     	b.hi	0x407e34 <_ZN4core3fmt3num53_$LT$impl$u20$core..fmt..LowerHex$u20$for$u20$u16$GT$3fmt17h316f8e266a8ad23eE+0x18>
  407e68: 91000549     	add	x9, x10, #0x1
  407e6c: 5280102b     	mov	w11, #0x81              // =129
  407e70: 910003ec     	mov	x12, sp
  407e74: cb090164     	sub	x4, x11, x9
  407e78: d503201f     	nop
  407e7c: 7001a4a1     	adr	x1, 0x40b313 <_ZN4core7unicode12unicode_data11white_space14WHITESPACE_MAP17hb21770c3c413f814E+0x100>
  407e80: 8b0a0183     	add	x3, x12, x10
  407e84: aa0803e0     	mov	x0, x8
  407e88: 52800042     	mov	w2, #0x2                // =2
  407e8c: 97fffd08     	bl	0x4072ac <_ZN4core3fmt9Formatter12pad_integral17h3323e701c7d72f43E>
  407e90: f94043fe     	ldr	x30, [sp, #0x80]
  407e94: 910243ff     	add	sp, sp, #0x90
  407e98: d65f03c0     	ret

0000000000407e9c <_ZN4core3str8converts9from_utf817h8a8c012533dc3c6dE>:
  407e9c: f1003c48     	subs	x8, x2, #0xf
  407ea0: 9a8833e9     	csel	x9, xzr, x8, lo
  407ea4: b4001022     	cbz	x2, 0x4080a8 <_ZN4core3str8converts9from_utf817h8a8c012533dc3c6dE+0x20c>
  407ea8: 91001c2a     	add	x10, x1, #0x7
  407eac: aa1f03e8     	mov	x8, xzr
  407eb0: d503201f     	nop
  407eb4: 3001a94b     	adr	x11, 0x40b3dd <_ZN4core7unicode12unicode_data11white_space14WHITESPACE_MAP17hb21770c3c413f814E+0x1ca>
  407eb8: 927df14a     	and	x10, x10, #0xfffffffffffffff8
  407ebc: cb01014a     	sub	x10, x10, x1
  407ec0: 14000004     	b	0x407ed0 <_ZN4core3str8converts9from_utf817h8a8c012533dc3c6dE+0x34>
  407ec4: 91000588     	add	x8, x12, #0x1
  407ec8: eb02011f     	cmp	x8, x2
  407ecc: 54000ee2     	b.hs	0x4080a8 <_ZN4core3str8converts9from_utf817h8a8c012533dc3c6dE+0x20c>
  407ed0: 38e8682c     	ldrsb	w12, [x1, x8]
  407ed4: 37f802cc     	tbnz	w12, #0x1f, 0x407f2c <_ZN4core3str8converts9from_utf817h8a8c012533dc3c6dE+0x90>
  407ed8: 4b08014c     	sub	w12, w10, w8
  407edc: f240099f     	tst	x12, #0x7
  407ee0: 54000080     	b.eq	0x407ef0 <_ZN4core3str8converts9from_utf817h8a8c012533dc3c6dE+0x54>
  407ee4: 91000508     	add	x8, x8, #0x1
  407ee8: 17fffff8     	b	0x407ec8 <_ZN4core3str8converts9from_utf817h8a8c012533dc3c6dE+0x2c>
  407eec: 91004108     	add	x8, x8, #0x10
  407ef0: eb09011f     	cmp	x8, x9
  407ef4: 540000c2     	b.hs	0x407f0c <_ZN4core3str8converts9from_utf817h8a8c012533dc3c6dE+0x70>
  407ef8: 8b08002c     	add	x12, x1, x8
  407efc: a940318d     	ldp	x13, x12, [x12]
  407f00: aa0d018c     	orr	x12, x12, x13
  407f04: f201c19f     	tst	x12, #0x8080808080808080
  407f08: 54ffff20     	b.eq	0x407eec <_ZN4core3str8converts9from_utf817h8a8c012533dc3c6dE+0x50>
  407f0c: eb02011f     	cmp	x8, x2
  407f10: 54fffdc2     	b.hs	0x407ec8 <_ZN4core3str8converts9from_utf817h8a8c012533dc3c6dE+0x2c>
  407f14: 38e8682c     	ldrsb	w12, [x1, x8]
  407f18: 37fffd8c     	tbnz	w12, #0x1f, 0x407ec8 <_ZN4core3str8converts9from_utf817h8a8c012533dc3c6dE+0x2c>
  407f1c: 91000508     	add	x8, x8, #0x1
  407f20: eb08005f     	cmp	x2, x8
  407f24: 54ffff81     	b.ne	0x407f14 <_ZN4core3str8converts9from_utf817h8a8c012533dc3c6dE+0x78>
  407f28: 14000060     	b	0x4080a8 <_ZN4core3str8converts9from_utf817h8a8c012533dc3c6dE+0x20c>
  407f2c: 92401d8d     	and	x13, x12, #0xff
  407f30: 12001d8c     	and	w12, w12, #0xff
  407f34: 386d696d     	ldrb	w13, [x11, x13]
  407f38: 710011bf     	cmp	w13, #0x4
  407f3c: 54000300     	b.eq	0x407f9c <_ZN4core3str8converts9from_utf817h8a8c012533dc3c6dE+0x100>
  407f40: 71000dbf     	cmp	w13, #0x3
  407f44: 54000140     	b.eq	0x407f6c <_ZN4core3str8converts9from_utf817h8a8c012533dc3c6dE+0xd0>
  407f48: 710009bf     	cmp	w13, #0x2
  407f4c: 54000c01     	b.ne	0x4080cc <_ZN4core3str8converts9from_utf817h8a8c012533dc3c6dE+0x230>
  407f50: 9100050c     	add	x12, x8, #0x1
  407f54: eb02019f     	cmp	x12, x2
  407f58: 54000ae2     	b.hs	0x4080b4 <_ZN4core3str8converts9from_utf817h8a8c012533dc3c6dE+0x218>
  407f5c: 38ec682d     	ldrsb	w13, [x1, x12]
  407f60: 310105bf     	cmn	w13, #0x41
  407f64: 54fffb0d     	b.le	0x407ec4 <_ZN4core3str8converts9from_utf817h8a8c012533dc3c6dE+0x28>
  407f68: 14000059     	b	0x4080cc <_ZN4core3str8converts9from_utf817h8a8c012533dc3c6dE+0x230>
  407f6c: 9100050d     	add	x13, x8, #0x1
  407f70: eb0201bf     	cmp	x13, x2
  407f74: 54000a02     	b.hs	0x4080b4 <_ZN4core3str8converts9from_utf817h8a8c012533dc3c6dE+0x218>
  407f78: 386d682d     	ldrb	w13, [x1, x13]
  407f7c: 7103819f     	cmp	w12, #0xe0
  407f80: 54000260     	b.eq	0x407fcc <_ZN4core3str8converts9from_utf817h8a8c012533dc3c6dE+0x130>
  407f84: 13001dad     	sxtb	w13, w13
  407f88: 7103b59f     	cmp	w12, #0xed
  407f8c: 54000301     	b.ne	0x407fec <_ZN4core3str8converts9from_utf817h8a8c012533dc3c6dE+0x150>
  407f90: 310185bf     	cmn	w13, #0x61
  407f94: 540006ed     	b.le	0x408070 <_ZN4core3str8converts9from_utf817h8a8c012533dc3c6dE+0x1d4>
  407f98: 1400004d     	b	0x4080cc <_ZN4core3str8converts9from_utf817h8a8c012533dc3c6dE+0x230>
  407f9c: 9100050d     	add	x13, x8, #0x1
  407fa0: eb0201bf     	cmp	x13, x2
  407fa4: 54000882     	b.hs	0x4080b4 <_ZN4core3str8converts9from_utf817h8a8c012533dc3c6dE+0x218>
  407fa8: 386d682d     	ldrb	w13, [x1, x13]
  407fac: 7103c19f     	cmp	w12, #0xf0
  407fb0: 54000160     	b.eq	0x407fdc <_ZN4core3str8converts9from_utf817h8a8c012533dc3c6dE+0x140>
  407fb4: 13001dad     	sxtb	w13, w13
  407fb8: 7103d19f     	cmp	w12, #0xf4
  407fbc: 54000241     	b.ne	0x408004 <_ZN4core3str8converts9from_utf817h8a8c012533dc3c6dE+0x168>
  407fc0: 3101c5bf     	cmn	w13, #0x71
  407fc4: 540002ed     	b.le	0x408020 <_ZN4core3str8converts9from_utf817h8a8c012533dc3c6dE+0x184>
  407fc8: 14000041     	b	0x4080cc <_ZN4core3str8converts9from_utf817h8a8c012533dc3c6dE+0x230>
  407fcc: 121b09ac     	and	w12, w13, #0xe0
  407fd0: 7102819f     	cmp	w12, #0xa0
  407fd4: 540004e0     	b.eq	0x408070 <_ZN4core3str8converts9from_utf817h8a8c012533dc3c6dE+0x1d4>
  407fd8: 1400003d     	b	0x4080cc <_ZN4core3str8converts9from_utf817h8a8c012533dc3c6dE+0x230>
  407fdc: 510241ac     	sub	w12, w13, #0x90
  407fe0: 7100c19f     	cmp	w12, #0x30
  407fe4: 540001e3     	b.lo	0x408020 <_ZN4core3str8converts9from_utf817h8a8c012533dc3c6dE+0x184>
  407fe8: 14000039     	b	0x4080cc <_ZN4core3str8converts9from_utf817h8a8c012533dc3c6dE+0x230>
  407fec: 5103858e     	sub	w14, w12, #0xe1
  407ff0: 710031df     	cmp	w14, #0xc
  407ff4: 54000302     	b.hs	0x408054 <_ZN4core3str8converts9from_utf817h8a8c012533dc3c6dE+0x1b8>
  407ff8: 310101bf     	cmn	w13, #0x40
  407ffc: 540003ab     	b.lt	0x408070 <_ZN4core3str8converts9from_utf817h8a8c012533dc3c6dE+0x1d4>
  408000: 14000033     	b	0x4080cc <_ZN4core3str8converts9from_utf817h8a8c012533dc3c6dE+0x230>
  408004: 5103c58c     	sub	w12, w12, #0xf1
  408008: 7100099f     	cmp	w12, #0x2
  40800c: 5280002c     	mov	w12, #0x1               // =1
  408010: 54000608     	b.hi	0x4080d0 <_ZN4core3str8converts9from_utf817h8a8c012533dc3c6dE+0x234>
  408014: 310101bf     	cmn	w13, #0x40
  408018: 5280002d     	mov	w13, #0x1               // =1
  40801c: 540003aa     	b.ge	0x408090 <_ZN4core3str8converts9from_utf817h8a8c012533dc3c6dE+0x1f4>
  408020: 9100090c     	add	x12, x8, #0x2
  408024: eb02019f     	cmp	x12, x2
  408028: 54000462     	b.hs	0x4080b4 <_ZN4core3str8converts9from_utf817h8a8c012533dc3c6dE+0x218>
  40802c: 38ec682c     	ldrsb	w12, [x1, x12]
  408030: 3101059f     	cmn	w12, #0x41
  408034: 540002ac     	b.gt	0x408088 <_ZN4core3str8converts9from_utf817h8a8c012533dc3c6dE+0x1ec>
  408038: 91000d0c     	add	x12, x8, #0x3
  40803c: eb02019f     	cmp	x12, x2
  408040: 540003a2     	b.hs	0x4080b4 <_ZN4core3str8converts9from_utf817h8a8c012533dc3c6dE+0x218>
  408044: 38ec682d     	ldrsb	w13, [x1, x12]
  408048: 310101bf     	cmn	w13, #0x40
  40804c: 54fff3cb     	b.lt	0x407ec4 <_ZN4core3str8converts9from_utf817h8a8c012533dc3c6dE+0x28>
  408050: 14000027     	b	0x4080ec <_ZN4core3str8converts9from_utf817h8a8c012533dc3c6dE+0x250>
  408054: 121f198c     	and	w12, w12, #0xfe
  408058: 7103b99f     	cmp	w12, #0xee
  40805c: 5280002c     	mov	w12, #0x1               // =1
  408060: 54000381     	b.ne	0x4080d0 <_ZN4core3str8converts9from_utf817h8a8c012533dc3c6dE+0x234>
  408064: 310101bf     	cmn	w13, #0x40
  408068: 5280002d     	mov	w13, #0x1               // =1
  40806c: 5400012a     	b.ge	0x408090 <_ZN4core3str8converts9from_utf817h8a8c012533dc3c6dE+0x1f4>
  408070: 9100090c     	add	x12, x8, #0x2
  408074: eb02019f     	cmp	x12, x2
  408078: 540001e2     	b.hs	0x4080b4 <_ZN4core3str8converts9from_utf817h8a8c012533dc3c6dE+0x218>
  40807c: 38ec682d     	ldrsb	w13, [x1, x12]
  408080: 310105bf     	cmn	w13, #0x41
  408084: 54fff20d     	b.le	0x407ec4 <_ZN4core3str8converts9from_utf817h8a8c012533dc3c6dE+0x28>
  408088: 5280002d     	mov	w13, #0x1               // =1
  40808c: 5280004c     	mov	w12, #0x2               // =2
  408090: f9000408     	str	x8, [x0, #0x8]
  408094: 52800028     	mov	w8, #0x1                // =1
  408098: 3900400d     	strb	w13, [x0, #0x10]
  40809c: 3900440c     	strb	w12, [x0, #0x11]
  4080a0: f9000008     	str	x8, [x0]
  4080a4: d65f03c0     	ret
  4080a8: a9008801     	stp	x1, x2, [x0, #0x8]
  4080ac: f900001f     	str	xzr, [x0]
  4080b0: d65f03c0     	ret
  4080b4: f9000408     	str	x8, [x0, #0x8]
  4080b8: 52800028     	mov	w8, #0x1                // =1
  4080bc: 3900401f     	strb	wzr, [x0, #0x10]
  4080c0: 3900440c     	strb	w12, [x0, #0x11]
  4080c4: f9000008     	str	x8, [x0]
  4080c8: d65f03c0     	ret
  4080cc: 5280002c     	mov	w12, #0x1               // =1
  4080d0: 5280002d     	mov	w13, #0x1               // =1
  4080d4: f9000408     	str	x8, [x0, #0x8]
  4080d8: 52800028     	mov	w8, #0x1                // =1
  4080dc: 3900400d     	strb	w13, [x0, #0x10]
  4080e0: 3900440c     	strb	w12, [x0, #0x11]
  4080e4: f9000008     	str	x8, [x0]
  4080e8: d65f03c0     	ret
  4080ec: 5280002d     	mov	w13, #0x1               // =1
  4080f0: 5280006c     	mov	w12, #0x3               // =3
  4080f4: f9000408     	str	x8, [x0, #0x8]
  4080f8: 52800028     	mov	w8, #0x1                // =1
  4080fc: 3900400d     	strb	w13, [x0, #0x10]
  408100: 3900440c     	strb	w12, [x0, #0x11]
  408104: f9000008     	str	x8, [x0]
  408108: d65f03c0     	ret

000000000040810c <_ZN4core3fmt3num3imp51_$LT$impl$u20$core..fmt..Display$u20$for$u20$u8$GT$3fmt17hf6f6bf2069801d97E>:
  40810c: f81f0ffe     	str	x30, [sp, #-0x10]!
  408110: 3940000a     	ldrb	w10, [x0]
  408114: d503201f     	nop
  408118: 30018fe9     	adr	x9, 0x40b315 <_ZN4core7unicode12unicode_data11white_space14WHITESPACE_MAP17hb21770c3c413f814E+0x102>
  40811c: 7100295f     	cmp	w10, #0xa
  408120: 54000183     	b.lo	0x408150 <_ZN4core3fmt3num3imp51_$LT$impl$u20$core..fmt..Display$u20$for$u20$u8$GT$3fmt17hf6f6bf2069801d97E+0x44>
  408124: 52800528     	mov	w8, #0x29               // =41
  408128: 1b087d48     	mul	w8, w10, w8
  40812c: 530c7d0b     	lsr	w11, w8, #12
  408130: 52800c88     	mov	w8, #0x64               // =100
  408134: 1b08a968     	msub	w8, w11, w8, w10
  408138: 92401d08     	and	x8, x8, #0xff
  40813c: 78687928     	ldrh	w8, [x9, x8, lsl #1]
  408140: 7800e3e8     	sturh	w8, [sp, #0xe]
  408144: 52800028     	mov	w8, #0x1                // =1
  408148: 350000aa     	cbnz	w10, 0x40815c <_ZN4core3fmt3num3imp51_$LT$impl$u20$core..fmt..Display$u20$for$u20$u8$GT$3fmt17hf6f6bf2069801d97E+0x50>
  40814c: 14000005     	b	0x408160 <_ZN4core3fmt3num3imp51_$LT$impl$u20$core..fmt..Display$u20$for$u20$u8$GT$3fmt17hf6f6bf2069801d97E+0x54>
  408150: 52800068     	mov	w8, #0x3                // =3
  408154: 2a0a03eb     	mov	w11, w10
  408158: 3400004a     	cbz	w10, 0x408160 <_ZN4core3fmt3num3imp51_$LT$impl$u20$core..fmt..Display$u20$for$u20$u8$GT$3fmt17hf6f6bf2069801d97E+0x54>
  40815c: 340000eb     	cbz	w11, 0x408178 <_ZN4core3fmt3num3imp51_$LT$impl$u20$core..fmt..Display$u20$for$u20$u8$GT$3fmt17hf6f6bf2069801d97E+0x6c>
  408160: d37f196a     	ubfiz	x10, x11, #1, #7
  408164: d1000508     	sub	x8, x8, #0x1
  408168: 8b0a0129     	add	x9, x9, x10
  40816c: 910037ea     	add	x10, sp, #0xd
  408170: 39400529     	ldrb	w9, [x9, #0x1]
  408174: 38286949     	strb	w9, [x10, x8]
  408178: 52800069     	mov	w9, #0x3                // =3
  40817c: aa0103e0     	mov	x0, x1
  408180: 52800021     	mov	w1, #0x1                // =1
  408184: cb080124     	sub	x4, x9, x8
  408188: 910037e9     	add	x9, sp, #0xd
  40818c: aa1f03e2     	mov	x2, xzr
  408190: 8b080123     	add	x3, x9, x8
  408194: 97fffc46     	bl	0x4072ac <_ZN4core3fmt9Formatter12pad_integral17h3323e701c7d72f43E>
  408198: f84107fe     	ldr	x30, [sp], #0x10
  40819c: d65f03c0     	ret

00000000004081a0 <_ZN4core3fmt3num3imp52_$LT$impl$u20$core..fmt..Display$u20$for$u20$u16$GT$3fmt17h3aaa28281444eae0E>:
  4081a0: f81f0ffe     	str	x30, [sp, #-0x10]!
  4081a4: 79400009     	ldrh	w9, [x0]
  4081a8: d503201f     	nop
  4081ac: 30018b48     	adr	x8, 0x40b315 <_ZN4core7unicode12unicode_data11white_space14WHITESPACE_MAP17hb21770c3c413f814E+0x102>
  4081b0: 710fa13f     	cmp	w9, #0x3e8
  4081b4: 540002a3     	b.lo	0x408208 <_ZN4core3fmt3num3imp52_$LT$impl$u20$core..fmt..Display$u20$for$u20$u16$GT$3fmt17h3aaa28281444eae0E+0x68>
  4081b8: 53047d2a     	lsr	w10, w9, #4
  4081bc: 528068eb     	mov	w11, #0x347             // =839
  4081c0: 52828f6d     	mov	w13, #0x147b            // =5243
  4081c4: 1b0b7d4a     	mul	w10, w10, w11
  4081c8: 53137d4b     	lsr	w11, w10, #19
  4081cc: 5284e20a     	mov	w10, #0x2710            // =10000
  4081d0: 1b0aa56a     	msub	w10, w11, w10, w9
  4081d4: 53023d4c     	ubfx	w12, w10, #2, #14
  4081d8: 1b0d7d8c     	mul	w12, w12, w13
  4081dc: 53117d8d     	lsr	w13, w12, #17
  4081e0: 52800c8c     	mov	w12, #0x64              // =100
  4081e4: 1b0ca9ac     	msub	w12, w13, w12, w10
  4081e8: 786d590a     	ldrh	w10, [x8, w13, uxtw #1]
  4081ec: 7800c3ea     	sturh	w10, [sp, #0xc]
  4081f0: 5280002a     	mov	w10, #0x1               // =1
  4081f4: 92403d8c     	and	x12, x12, #0xffff
  4081f8: 786c790c     	ldrh	w12, [x8, x12, lsl #1]
  4081fc: 7800e3ec     	sturh	w12, [sp, #0xe]
  408200: 35000269     	cbnz	w9, 0x40824c <_ZN4core3fmt3num3imp52_$LT$impl$u20$core..fmt..Display$u20$for$u20$u16$GT$3fmt17h3aaa28281444eae0E+0xac>
  408204: 14000013     	b	0x408250 <_ZN4core3fmt3num3imp52_$LT$impl$u20$core..fmt..Display$u20$for$u20$u16$GT$3fmt17h3aaa28281444eae0E+0xb0>
  408208: 7100293f     	cmp	w9, #0xa
  40820c: 540001a3     	b.lo	0x408240 <_ZN4core3fmt3num3imp52_$LT$impl$u20$core..fmt..Display$u20$for$u20$u16$GT$3fmt17h3aaa28281444eae0E+0xa0>
  408210: 53027d2a     	lsr	w10, w9, #2
  408214: 52828f6b     	mov	w11, #0x147b            // =5243
  408218: 1b0b7d4a     	mul	w10, w10, w11
  40821c: 53117d4b     	lsr	w11, w10, #17
  408220: 52800c8a     	mov	w10, #0x64              // =100
  408224: 1b0aa56c     	msub	w12, w11, w10, w9
  408228: 5280006a     	mov	w10, #0x3               // =3
  40822c: 92403d8c     	and	x12, x12, #0xffff
  408230: 786c790c     	ldrh	w12, [x8, x12, lsl #1]
  408234: 7800e3ec     	sturh	w12, [sp, #0xe]
  408238: 350000a9     	cbnz	w9, 0x40824c <_ZN4core3fmt3num3imp52_$LT$impl$u20$core..fmt..Display$u20$for$u20$u16$GT$3fmt17h3aaa28281444eae0E+0xac>
  40823c: 14000005     	b	0x408250 <_ZN4core3fmt3num3imp52_$LT$impl$u20$core..fmt..Display$u20$for$u20$u16$GT$3fmt17h3aaa28281444eae0E+0xb0>
  408240: 528000aa     	mov	w10, #0x5               // =5
  408244: 2a0903eb     	mov	w11, w9
  408248: 34000049     	cbz	w9, 0x408250 <_ZN4core3fmt3num3imp52_$LT$impl$u20$core..fmt..Display$u20$for$u20$u16$GT$3fmt17h3aaa28281444eae0E+0xb0>
  40824c: 340000eb     	cbz	w11, 0x408268 <_ZN4core3fmt3num3imp52_$LT$impl$u20$core..fmt..Display$u20$for$u20$u16$GT$3fmt17h3aaa28281444eae0E+0xc8>
  408250: 531f0d69     	ubfiz	w9, w11, #1, #4
  408254: d100054a     	sub	x10, x10, #0x1
  408258: 8b090108     	add	x8, x8, x9
  40825c: 91002fe9     	add	x9, sp, #0xb
  408260: 39400508     	ldrb	w8, [x8, #0x1]
  408264: 382a6928     	strb	w8, [x9, x10]
  408268: 528000a8     	mov	w8, #0x5                // =5
  40826c: aa0103e0     	mov	x0, x1
  408270: 52800021     	mov	w1, #0x1                // =1
  408274: cb0a0104     	sub	x4, x8, x10
  408278: 91002fe8     	add	x8, sp, #0xb
  40827c: aa1f03e2     	mov	x2, xzr
  408280: 8b0a0103     	add	x3, x8, x10
  408284: 97fffc0a     	bl	0x4072ac <_ZN4core3fmt9Formatter12pad_integral17h3323e701c7d72f43E>
  408288: f84107fe     	ldr	x30, [sp], #0x10
  40828c: d65f03c0     	ret

0000000000408290 <_ZN4core3str16slice_error_fail17h298ab1af74ec8f92E>:
  408290: 94000001     	bl	0x408294 <_ZN4core3str19slice_error_fail_rt17h255946817dbf7d14E>

0000000000408294 <_ZN4core3str19slice_error_fail_rt17h255946817dbf7d14E>:
  408294: f104043f     	cmp	x1, #0x101
  408298: 540001c3     	b.lo	0x4082d0 <_ZN4core3str19slice_error_fail_rt17h255946817dbf7d14E+0x3c>
  40829c: 39c40008     	ldrsb	w8, [x0, #0x100]
  4082a0: 3101051f     	cmn	w8, #0x41
  4082a4: 5400016c     	b.gt	0x4082d0 <_ZN4core3str19slice_error_fail_rt17h255946817dbf7d14E+0x3c>
  4082a8: 39c3fc08     	ldrsb	w8, [x0, #0xff]
  4082ac: 3101051f     	cmn	w8, #0x41
  4082b0: 5400010c     	b.gt	0x4082d0 <_ZN4core3str19slice_error_fail_rt17h255946817dbf7d14E+0x3c>
  4082b4: 39c3f808     	ldrsb	w8, [x0, #0xfe]
  4082b8: 3101051f     	cmn	w8, #0x41
  4082bc: 52801fa8     	mov	w8, #0xfd               // =253
  4082c0: 9a88d508     	cinc	x8, x8, gt
  4082c4: 38e86809     	ldrsb	w9, [x0, x8]
  4082c8: 3101053f     	cmn	w9, #0x41
  4082cc: 5400036d     	b.le	0x408338 <_ZN4core3str19slice_error_fail_rt17h255946817dbf7d14E+0xa4>
  4082d0: eb01005f     	cmp	x2, x1
  4082d4: 540000a8     	b.hi	0x4082e8 <_ZN4core3str19slice_error_fail_rt17h255946817dbf7d14E+0x54>
  4082d8: eb01007f     	cmp	x3, x1
  4082dc: 54000068     	b.hi	0x4082e8 <_ZN4core3str19slice_error_fail_rt17h255946817dbf7d14E+0x54>
  4082e0: eb03005f     	cmp	x2, x3
  4082e4: 54000049     	b.ls	0x4082ec <_ZN4core3str19slice_error_fail_rt17h255946817dbf7d14E+0x58>
  4082e8: 97fffbf0     	bl	0x4072a8 <_ZN4core9panicking9panic_fmt17h7d27c6f13468728dE>
  4082ec: b40000c2     	cbz	x2, 0x408304 <_ZN4core3str19slice_error_fail_rt17h255946817dbf7d14E+0x70>
  4082f0: eb01005f     	cmp	x2, x1
  4082f4: 54000082     	b.hs	0x408304 <_ZN4core3str19slice_error_fail_rt17h255946817dbf7d14E+0x70>
  4082f8: 38e26808     	ldrsb	w8, [x0, x2]
  4082fc: 3101051f     	cmn	w8, #0x41
  408300: 9a82c063     	csel	x3, x3, x2, gt
  408304: eb01007f     	cmp	x3, x1
  408308: aa0103e2     	mov	x2, x1
  40830c: 540003e2     	b.hs	0x408388 <_ZN4core3str19slice_error_fail_rt17h255946817dbf7d14E+0xf4>
  408310: f1000c68     	subs	x8, x3, #0x3
  408314: 91000469     	add	x9, x3, #0x1
  408318: 9a8833e8     	csel	x8, xzr, x8, lo
  40831c: eb08012a     	subs	x10, x9, x8
  408320: 54000723     	b.lo	0x408404 <_ZN4core3str19slice_error_fail_rt17h255946817dbf7d14E+0x170>
  408324: 38e3680b     	ldrsb	w11, [x0, x3]
  408328: 3101057f     	cmn	w11, #0x41
  40832c: 540000cd     	b.le	0x408344 <_ZN4core3str19slice_error_fail_rt17h255946817dbf7d14E+0xb0>
  408330: d1000549     	sub	x9, x10, #0x1
  408334: 14000014     	b	0x408384 <_ZN4core3str19slice_error_fail_rt17h255946817dbf7d14E+0xf0>
  408338: aa1f03e2     	mov	x2, xzr
  40833c: aa0803e3     	mov	x3, x8
  408340: 97ffffd4     	bl	0x408290 <_ZN4core3str16slice_error_fail17h298ab1af74ec8f92E>
  408344: 8b090009     	add	x9, x0, x9
  408348: 38dfe12b     	ldursb	w11, [x9, #-0x2]
  40834c: 3101057f     	cmn	w11, #0x41
  408350: 5400006d     	b.le	0x40835c <_ZN4core3str19slice_error_fail_rt17h255946817dbf7d14E+0xc8>
  408354: d1000949     	sub	x9, x10, #0x2
  408358: 1400000b     	b	0x408384 <_ZN4core3str19slice_error_fail_rt17h255946817dbf7d14E+0xf0>
  40835c: 38dfd12b     	ldursb	w11, [x9, #-0x3]
  408360: 3101057f     	cmn	w11, #0x41
  408364: 5400006d     	b.le	0x408370 <_ZN4core3str19slice_error_fail_rt17h255946817dbf7d14E+0xdc>
  408368: d1000d49     	sub	x9, x10, #0x3
  40836c: 14000006     	b	0x408384 <_ZN4core3str19slice_error_fail_rt17h255946817dbf7d14E+0xf0>
  408370: 38dfc129     	ldursb	w9, [x9, #-0x4]
  408374: 3101053f     	cmn	w9, #0x41
  408378: 92800089     	mov	x9, #-0x5               // =-5
  40837c: 9a89d529     	cinc	x9, x9, gt
  408380: 8b090149     	add	x9, x10, x9
  408384: 8b080122     	add	x2, x9, x8
  408388: b5000082     	cbnz	x2, 0x408398 <_ZN4core3str19slice_error_fail_rt17h255946817dbf7d14E+0x104>
  40838c: eb01005f     	cmp	x2, x1
  408390: 54000101     	b.ne	0x4083b0 <_ZN4core3str19slice_error_fail_rt17h255946817dbf7d14E+0x11c>
  408394: 97fffea1     	bl	0x407e18 <_ZN4core6option13unwrap_failed17hea8c570cddc14751E>
  408398: eb01005f     	cmp	x2, x1
  40839c: 540002e2     	b.hs	0x4083f8 <_ZN4core3str19slice_error_fail_rt17h255946817dbf7d14E+0x164>
  4083a0: 38e26808     	ldrsb	w8, [x0, x2]
  4083a4: 3101051f     	cmn	w8, #0x41
  4083a8: 54ffff2c     	b.gt	0x40838c <_ZN4core3str19slice_error_fail_rt17h255946817dbf7d14E+0xf8>
  4083ac: 14000014     	b	0x4083fc <_ZN4core3str19slice_error_fail_rt17h255946817dbf7d14E+0x168>
  4083b0: 8b020008     	add	x8, x0, x2
  4083b4: 39c00109     	ldrsb	w9, [x8]
  4083b8: 36fff989     	tbz	w9, #0x1f, 0x4082e8 <_ZN4core3str19slice_error_fail_rt17h255946817dbf7d14E+0x54>
  4083bc: 12001d29     	and	w9, w9, #0xff
  4083c0: 7103813f     	cmp	w9, #0xe0
  4083c4: 54fff923     	b.lo	0x4082e8 <_ZN4core3str19slice_error_fail_rt17h255946817dbf7d14E+0x54>
  4083c8: 7103c13f     	cmp	w9, #0xf0
  4083cc: 54fff8e3     	b.lo	0x4082e8 <_ZN4core3str19slice_error_fail_rt17h255946817dbf7d14E+0x54>
  4083d0: 3940090a     	ldrb	w10, [x8, #0x2]
  4083d4: 3940050b     	ldrb	w11, [x8, #0x1]
  4083d8: 39400d08     	ldrb	w8, [x8, #0x3]
  4083dc: 531a154a     	ubfiz	w10, w10, #6, #6
  4083e0: 3314156a     	bfi	w10, w11, #12, #6
  4083e4: 3300150a     	bfxil	w10, w8, #0, #6
  4083e8: 330e092a     	bfi	w10, w9, #18, #3
  4083ec: 7144415f     	cmp	w10, #0x110, lsl #12    // =0x110000
  4083f0: 54fff7c1     	b.ne	0x4082e8 <_ZN4core3str19slice_error_fail_rt17h255946817dbf7d14E+0x54>
  4083f4: 17ffffe8     	b	0x408394 <_ZN4core3str19slice_error_fail_rt17h255946817dbf7d14E+0x100>
  4083f8: 54fffca0     	b.eq	0x40838c <_ZN4core3str19slice_error_fail_rt17h255946817dbf7d14E+0xf8>
  4083fc: aa0103e3     	mov	x3, x1
  408400: 97ffffa4     	bl	0x408290 <_ZN4core3str16slice_error_fail17h298ab1af74ec8f92E>
  408404: aa0803e0     	mov	x0, x8
  408408: aa0903e1     	mov	x1, x9
  40840c: 97fffe82     	bl	0x407e14 <_ZN4core5slice5index22slice_index_order_fail17h65d5f108449d194bE>

0000000000408410 <_ZN4core3fmt3num55_$LT$impl$u20$core..fmt..LowerHex$u20$for$u20$usize$GT$3fmt17h5a890080aa137826E>:
  408410: d10243ff     	sub	sp, sp, #0x90
  408414: f90043fe     	str	x30, [sp, #0x80]
  408418: f940000b     	ldr	x11, [x0]
  40841c: aa0103e8     	mov	x8, x1
  408420: 52800fe9     	mov	w9, #0x7f               // =127
  408424: 910003ea     	mov	x10, sp
  408428: 5280060c     	mov	w12, #0x30              // =48
  40842c: 12000d6d     	and	w13, w11, #0xf
  408430: d344fd6e     	lsr	x14, x11, #4
  408434: 33000d6c     	bfxil	w12, w11, #0, #4
  408438: 11015daf     	add	w15, w13, #0x57
  40843c: 710029bf     	cmp	w13, #0xa
  408440: 1a8f318d     	csel	w13, w12, w15, lo
  408444: f1003d7f     	cmp	x11, #0xf
  408448: aa0903ec     	mov	x12, x9
  40844c: 3829694d     	strb	w13, [x10, x9]
  408450: d1000529     	sub	x9, x9, #0x1
  408454: aa0e03eb     	mov	x11, x14
  408458: 54fffe88     	b.hi	0x408428 <_ZN4core3fmt3num55_$LT$impl$u20$core..fmt..LowerHex$u20$for$u20$usize$GT$3fmt17h5a890080aa137826E+0x18>
  40845c: 91000589     	add	x9, x12, #0x1
  408460: 5280102a     	mov	w10, #0x81              // =129
  408464: 910003eb     	mov	x11, sp
  408468: cb090144     	sub	x4, x10, x9
  40846c: d503201f     	nop
  408470: 70017501     	adr	x1, 0x40b313 <_ZN4core7unicode12unicode_data11white_space14WHITESPACE_MAP17hb21770c3c413f814E+0x100>
  408474: 8b0c0163     	add	x3, x11, x12
  408478: aa0803e0     	mov	x0, x8
  40847c: 52800042     	mov	w2, #0x2                // =2
  408480: 97fffb8b     	bl	0x4072ac <_ZN4core3fmt9Formatter12pad_integral17h3323e701c7d72f43E>
  408484: f94043fe     	ldr	x30, [sp, #0x80]
  408488: 910243ff     	add	sp, sp, #0x90
  40848c: d65f03c0     	ret

0000000000408490 <_ZN4core5slice6memchr14memchr_aligned17hc7040b907c1fd3daE>:
  408490: 91001c28     	add	x8, x1, #0x7
  408494: 12001c0a     	and	w10, w0, #0xff
  408498: 927df108     	and	x8, x8, #0xfffffffffffffff8
  40849c: eb010109     	subs	x9, x8, x1
  4084a0: 540001a0     	b.eq	0x4084d4 <_ZN4core5slice6memchr14memchr_aligned17hc7040b907c1fd3daE+0x44>
  4084a4: aa1f03e8     	mov	x8, xzr
  4084a8: 52800020     	mov	w0, #0x1                // =1
  4084ac: 3868682b     	ldrb	w11, [x1, x8]
  4084b0: 6b0a017f     	cmp	w11, w10
  4084b4: 54000560     	b.eq	0x408560 <_ZN4core5slice6memchr14memchr_aligned17hc7040b907c1fd3daE+0xd0>
  4084b8: 91000508     	add	x8, x8, #0x1
  4084bc: eb08013f     	cmp	x9, x8
  4084c0: 54ffff61     	b.ne	0x4084ac <_ZN4core5slice6memchr14memchr_aligned17hc7040b907c1fd3daE+0x1c>
  4084c4: d1004048     	sub	x8, x2, #0x10
  4084c8: eb08013f     	cmp	x9, x8
  4084cc: 54000069     	b.ls	0x4084d8 <_ZN4core5slice6memchr14memchr_aligned17hc7040b907c1fd3daE+0x48>
  4084d0: 14000015     	b	0x408524 <_ZN4core5slice6memchr14memchr_aligned17hc7040b907c1fd3daE+0x94>
  4084d4: d1004048     	sub	x8, x2, #0x10
  4084d8: b200c3eb     	mov	x11, #0x101010101010101 // =72340172838076673
  4084dc: b200c3ec     	mov	x12, #0x101010101010101 // =72340172838076673
  4084e0: 9b0b7d4b     	mul	x11, x10, x11
  4084e4: f280200c     	movk	x12, #0x100
  4084e8: 4e080d81     	dup	v1.2d, x12
  4084ec: 4e080d60     	dup	v0.2d, x11
  4084f0: b201c3eb     	mov	x11, #-0x7f7f7f7f7f7f7f80 // =-9187201950435737472
  4084f4: 3ce96822     	ldr	q2, [x1, x9]
  4084f8: 6e201c42     	eor	v2.16b, v2.16b, v0.16b
  4084fc: 6ee28423     	sub	v3.2d, v1.2d, v2.2d
  408500: 4ea21c62     	orr	v2.16b, v3.16b, v2.16b
  408504: 4e183c4c     	mov	x12, v2.d[1]
  408508: 9e66004d     	fmov	x13, d2
  40850c: 8a0c01ac     	and	x12, x13, x12
  408510: ea2c017f     	bics	xzr, x11, x12
  408514: 54000081     	b.ne	0x408524 <_ZN4core5slice6memchr14memchr_aligned17hc7040b907c1fd3daE+0x94>
  408518: 91004129     	add	x9, x9, #0x10
  40851c: eb08013f     	cmp	x9, x8
  408520: 54fffea9     	b.ls	0x4084f4 <_ZN4core5slice6memchr14memchr_aligned17hc7040b907c1fd3daE+0x64>
  408524: eb090048     	subs	x8, x2, x9
  408528: 54000120     	b.eq	0x40854c <_ZN4core5slice6memchr14memchr_aligned17hc7040b907c1fd3daE+0xbc>
  40852c: aa1f03eb     	mov	x11, xzr
  408530: 8b09002c     	add	x12, x1, x9
  408534: 386b698d     	ldrb	w13, [x12, x11]
  408538: 6b0a01bf     	cmp	w13, w10
  40853c: 540000e0     	b.eq	0x408558 <_ZN4core5slice6memchr14memchr_aligned17hc7040b907c1fd3daE+0xc8>
  408540: 9100056b     	add	x11, x11, #0x1
  408544: eb0b011f     	cmp	x8, x11
  408548: 54ffff61     	b.ne	0x408534 <_ZN4core5slice6memchr14memchr_aligned17hc7040b907c1fd3daE+0xa4>
  40854c: aa1f03e0     	mov	x0, xzr
  408550: aa0803e1     	mov	x1, x8
  408554: d65f03c0     	ret
  408558: 8b090168     	add	x8, x11, x9
  40855c: 52800020     	mov	w0, #0x1                // =1
  408560: aa0803e1     	mov	x1, x8
  408564: d65f03c0     	ret
		...

0000000000408570 <seL4_InitBootInfo>:
  408570: d0000041     	adrp	x1, 0x412000 <bootinfo>
  408574: f9000020     	str	x0, [x1]
  408578: d65f03c0     	ret
  40857c: d503201f     	nop

0000000000408580 <seL4_GetBootInfo>:
  408580: d0000040     	adrp	x0, 0x412000 <bootinfo>
  408584: f9400000     	ldr	x0, [x0]
  408588: d65f03c0     	ret
