0000000000400000 T vectors_start
0000000000401000 T rust_entry
0000000000401008 T _start
0000000000401048 t _ZN44_$LT$$RF$T$u20$as$u20$core..fmt..Display$GT$3fmt17h0225e9d2868f7525E
0000000000401058 t _ZN44_$LT$$RF$T$u20$as$u20$core..fmt..Display$GT$3fmt17hbdbd3c126fff0f0fE
000000000040106c t _ZN4core3fmt5Write10write_char17ha028f57e5374a4ddE
000000000040115c t _ZN4core3fmt5Write9write_fmt17h544d50df0d238fc9E
0000000000401160 t _ZN5alloc7raw_vec11finish_grow17h9818bcc5fbb4e6d0E
0000000000401204 t _ZN5alloc7raw_vec20RawVecInner$LT$A$GT$7reserve21do_reserve_and_handle17h37f11679f064ca9eE
00000000004012d0 t _ZN75_$LT$$RF$mut$u20$W$u20$as$u20$core..fmt..Write..write_fmt..SpecWriteFmt$GT$14spec_write_fmt17he66d0195c1e003a7E
00000000004012d4 t _ZN81_$LT$core..str..pattern..CharSearcher$u20$as$u20$core..str..pattern..Searcher$GT$10next_match17hda9cd3eb9badb98eE
0000000000401690 t _ZN91_$LT$cohesix_root..allocator..BumpAllocator$u20$as$u20$core..alloc..global..GlobalAlloc$GT$5alloc17h80216a9fc3e7e772E
00000000004022b4 t _RNvCs9km79j5joxb_7___rustc17rust_begin_unwind
00000000004023bc t rust_eh_personality
00000000004023c0 T seL4_DebugPutChar
00000000004023d8 T seL4_Send
00000000004023f0 T seL4_Recv
0000000000402408 T seL4_Yield
0000000000402418 T seL4_DebugHalt
0000000000402428 T coh_open
0000000000402700 T coh_read
0000000000402784 T coh_close
00000000004027b0 T coh_write
00000000004027b8 T coh_exec
00000000004029f4 T coh_getenv
00000000004029fc T coh_setenv
0000000000402a04 T coh_bind
0000000000402a0c T memcpy
0000000000402a10 T memmove
0000000000402a14 T memset
0000000000402a18 T memcmp
0000000000402a40 T strlen
0000000000402a6c T rust_start
0000000000402a80 T handle_el1_sync
0000000000402ac0 T handle_el1_irq
0000000000402b00 T handle_el1_fiq
0000000000402b40 T handle_el1_serror
0000000000402b80 T handle_el1_sync_sp0
0000000000402bc0 T handle_el1_irq_sp0
0000000000402c00 T handle_el1_fiq_sp0
0000000000402c40 T handle_el1_serror_sp0
0000000000402c80 T handle_el0_sync
0000000000402cc0 T handle_el0_irq
0000000000402d00 T handle_el0_fiq
0000000000402d40 T handle_el0_serror
0000000000402d80 T handle_el0_32_sync
0000000000402dc0 T handle_el0_32_irq
0000000000402e00 T handle_el0_32_fiq
0000000000402e40 T handle_el0_32_serror
0000000000402e80 t _ZN60_$LT$cohesix_root..CohLogger$u20$as$u20$core..fmt..Write$GT$9write_str17h5097fa6b6c184c1cE
0000000000402ebc t _ZN12cohesix_root7put_hex17hd656e0d3ea11d44bE
0000000000403084 T boot_log_hex
0000000000403088 t _ZN12cohesix_root14check_heap_ptr17h4c577d0e8c5040d1E
000000000040350c t _ZN12cohesix_root5abort17h90b4a7b826ed41d7E
0000000000403544 t _ZN12cohesix_root7env_var17ha7631c37ca7e34a6E
00000000004037dc t _ZN12cohesix_root9exec_init17h196a9b9bf56b7cbcE
0000000000403ab8 T main
0000000000406df0 t _ZN12cohesix_root10lang_items11alloc_error17hf7bfcd2105c5f975E
0000000000406f58 t _ZN5alloc7raw_vec19RawVec$LT$T$C$A$GT$8grow_one17hc5df42463eb610caE
0000000000406fdc t _ZN5alloc7raw_vec11finish_grow17hc675c47098c16bc9E
000000000040705c t _ZN5alloc7raw_vec12handle_error17hf94b13915c8c8affE
0000000000407068 t _ZN4core3fmt3num3imp54_$LT$impl$u20$core..fmt..Display$u20$for$u20$usize$GT$3fmt17h11e938f4feeaf8f4E
0000000000407198 t _ZN4core9panicking9panic_fmt17h328e095a45f6d38cE
000000000040719c t _ZN4core3fmt9Formatter12pad_integral17h257e9bfc5fbb65e0E
0000000000407418 t _ZN4core3fmt9Formatter12pad_integral12write_prefix17h8fea3191477b827aE
000000000040749c t _ZN4core5slice5index24slice_end_index_len_fail17h4ac498bd7bc43fc1E
00000000004074a0 t _ZN4core3fmt9Formatter3pad17hf44d2b3e96a4f6ceE
0000000000407ad4 t _ZN4core9panicking5panic17h370514b49f40a9dfE
0000000000407ad8 t _ZN4core3fmt5write17h75f08f1eb4713164E
0000000000407d04 t _ZN4core5slice5index22slice_index_order_fail17hb75fbdc4ad8b229dE
0000000000407d08 t _ZN4core6option13unwrap_failed17h02155e6ea970e297E
0000000000407d0c t _ZN4core3str8converts9from_utf817hf2f079e5a5d7c384E
0000000000407f7c t _ZN4core3fmt3num3imp51_$LT$impl$u20$core..fmt..Display$u20$for$u20$u8$GT$3fmt17hbbd8d0579caee8d8E
0000000000408010 t _ZN4core3str16slice_error_fail17ha7c4d836ce864fe2E
0000000000408014 t _ZN4core3str19slice_error_fail_rt17hc67c21c5ef4e62b1E
0000000000408190 t _ZN4core3fmt3num55_$LT$impl$u20$core..fmt..LowerHex$u20$for$u20$usize$GT$3fmt17h66d8795d913e04b3E
0000000000408210 t _ZN4core5slice6memchr14memchr_aligned17h061e475d8decb434E
00000000004082f0 T seL4_InitBootInfo
0000000000408300 T seL4_GetBootInfo
000000000040830c T __text_end
000000000040a000 r rodata_check_str
000000000040ab00 r _ZN12cohesix_root17ROOTSERVER_ONLINE17ha24f99334daced9fE
000000000040b13b r _ZN4core7unicode12unicode_data11white_space14WHITESPACE_MAP17h5ad29fbd2e7eb397E
000000000040b405 R __rodata_end
000000000040c000 R __image_end
000000000040d000 d _ZN12cohesix_root3sys5FILES17h55b72cd17b381f54E
000000000040d060 D __data_end
000000000040f000 b _ZN12cohesix_root9allocator6OFFSET17hba104e6491043a22E
000000000040f000 B __bss_start
000000000040f008 B VALIDATOR_HANDLE
000000000040f010 B SRV_HANDLE
000000000040f018 B CUDA_HANDLE
000000000040f020 B bootinfo
000000000040f028 B __bss_end
0000000000411000 B __heap_start
0000000000491000 B __heap_end
0000000000492000 B __stack_start
00000000004a2000 B __stack_end
00000000004a3000 B __uart_start
00000000004a4000 b _ZN12cohesix_root3sys10UART_FRAME17h6132b0b728983fa5E
00000000004a4000 B __uart_end
