
workspace/target/sel4-aarch64/release/cohesix_root:	file format elf64-littleaarch64

Disassembly of section .text:

ffffff8040000000 <_start>:
ffffff8040000000: d503201f     	nop
ffffff8040000004: 104fffe0     	adr	x0, 0xffffff80400a0000 <__stack_end>
ffffff8040000008: 9100001f     	mov	sp, x0
ffffff804000000c: 910003fd     	mov	x29, sp
ffffff8040000010: d503201f     	nop
ffffff8040000014: 10067f60     	adr	x0, 0xffffff804000d000 <__bss_start>
ffffff8040000018: d503201f     	nop
ffffff804000001c: 10068061     	adr	x1, 0xffffff804000d028 <__bss_end>
ffffff8040000020: eb01001f     	cmp	x0, x1
ffffff8040000024: 5400006a     	b.ge	0xffffff8040000030 <_start+0x30>
ffffff8040000028: f800841f     	str	xzr, [x0], #0x8
ffffff804000002c: 17fffffd     	b	0xffffff8040000020 <_start+0x20>
ffffff8040000030: d5033f9f     	dsb	sy
ffffff8040000034: d5033fdf     	isb
ffffff8040000038: 94000864     	bl	0xffffff80400021c8 <main>
ffffff804000003c: 14000000     	b	0xffffff804000003c <_start+0x3c>

ffffff8040000040 <_ZN44_$LT$$RF$T$u20$as$u20$core..fmt..Display$GT$3fmt17h50325ece70802c7aE>:
ffffff8040000040: f9400009     	ldr	x9, [x0]
ffffff8040000044: aa0103e0     	mov	x0, x1
ffffff8040000048: a9400928     	ldp	x8, x2, [x9]
ffffff804000004c: aa0803e1     	mov	x1, x8
ffffff8040000050: 140015e5     	b	0xffffff80400057e4 <_ZN4core3fmt9Formatter3pad17h73535101b700531fE>

ffffff8040000054 <_ZN44_$LT$$RF$T$u20$as$u20$core..fmt..Display$GT$3fmt17hf3669e95f4c212f9E>:
ffffff8040000054: a9400808     	ldp	x8, x2, [x0]
ffffff8040000058: aa0103e0     	mov	x0, x1
ffffff804000005c: aa0803e1     	mov	x1, x8
ffffff8040000060: 140015e1     	b	0xffffff80400057e4 <_ZN4core3fmt9Formatter3pad17h73535101b700531fE>

ffffff8040000064 <_ZN4core3fmt5Write10write_char17h4b5322727e0e4147E>:
ffffff8040000064: d10043ff     	sub	sp, sp, #0x10
ffffff8040000068: 7102003f     	cmp	w1, #0x80
ffffff804000006c: 910033e8     	add	x8, sp, #0xc
ffffff8040000070: b9000fff     	str	wzr, [sp, #0xc]
ffffff8040000074: 54000082     	b.hs	0xffffff8040000084 <_ZN4core3fmt5Write10write_char17h4b5322727e0e4147E+0x20>
ffffff8040000078: b2400108     	orr	x8, x8, #0x1
ffffff804000007c: 390033e1     	strb	w1, [sp, #0xc]
ffffff8040000080: 14000025     	b	0xffffff8040000114 <_ZN4core3fmt5Write10write_char17h4b5322727e0e4147E+0xb0>
ffffff8040000084: 7120003f     	cmp	w1, #0x800
ffffff8040000088: 54000122     	b.hs	0xffffff80400000ac <_ZN4core3fmt5Write10write_char17h4b5322727e0e4147E+0x48>
ffffff804000008c: 53067c29     	lsr	w9, w1, #6
ffffff8040000090: 5280100a     	mov	w10, #0x80      // =128
ffffff8040000094: b27f0108     	orr	x8, x8, #0x2
ffffff8040000098: 3300142a     	bfxil	w10, w1, #0, #6
ffffff804000009c: 321a0529     	orr	w9, w9, #0xc0
ffffff80400000a0: 390033e9     	strb	w9, [sp, #0xc]
ffffff80400000a4: 390037ea     	strb	w10, [sp, #0xd]
ffffff80400000a8: 1400001b     	b	0xffffff8040000114 <_ZN4core3fmt5Write10write_char17h4b5322727e0e4147E+0xb0>
ffffff80400000ac: 7140403f     	cmp	w1, #0x10, lsl #12 // =0x10000
ffffff80400000b0: 54000182     	b.hs	0xffffff80400000e0 <_ZN4core3fmt5Write10write_char17h4b5322727e0e4147E+0x7c>
ffffff80400000b4: 530c7c29     	lsr	w9, w1, #12
ffffff80400000b8: 5280100a     	mov	w10, #0x80      // =128
ffffff80400000bc: 5280100b     	mov	w11, #0x80      // =128
ffffff80400000c0: 33062c2a     	bfxil	w10, w1, #6, #6
ffffff80400000c4: 3300142b     	bfxil	w11, w1, #0, #6
ffffff80400000c8: b2400508     	orr	x8, x8, #0x3
ffffff80400000cc: 321b0929     	orr	w9, w9, #0xe0
ffffff80400000d0: 390033e9     	strb	w9, [sp, #0xc]
ffffff80400000d4: 390037ea     	strb	w10, [sp, #0xd]
ffffff80400000d8: 39003beb     	strb	w11, [sp, #0xe]
ffffff80400000dc: 1400000e     	b	0xffffff8040000114 <_ZN4core3fmt5Write10write_char17h4b5322727e0e4147E+0xb0>
ffffff80400000e0: 53127c29     	lsr	w9, w1, #18
ffffff80400000e4: 5280100a     	mov	w10, #0x80      // =128
ffffff80400000e8: 5280100b     	mov	w11, #0x80      // =128
ffffff80400000ec: 5280100c     	mov	w12, #0x80      // =128
ffffff80400000f0: 330c442a     	bfxil	w10, w1, #12, #6
ffffff80400000f4: 33062c2b     	bfxil	w11, w1, #6, #6
ffffff80400000f8: 3300142c     	bfxil	w12, w1, #0, #6
ffffff80400000fc: 321c0d29     	orr	w9, w9, #0xf0
ffffff8040000100: 91001108     	add	x8, x8, #0x4
ffffff8040000104: 390033e9     	strb	w9, [sp, #0xc]
ffffff8040000108: 390037ea     	strb	w10, [sp, #0xd]
ffffff804000010c: 39003beb     	strb	w11, [sp, #0xe]
ffffff8040000110: 39003fec     	strb	w12, [sp, #0xf]
ffffff8040000114: 910033e9     	add	x9, sp, #0xc
ffffff8040000118: 52a1200a     	mov	w10, #0x9000000 // =150994944
ffffff804000011c: 3840152b     	ldrb	w11, [x9], #0x1
ffffff8040000120: eb08013f     	cmp	x9, x8
ffffff8040000124: 3900014b     	strb	w11, [x10]
ffffff8040000128: 54ffffa1     	b.ne	0xffffff804000011c <_ZN4core3fmt5Write10write_char17h4b5322727e0e4147E+0xb8>
ffffff804000012c: 52a12008     	mov	w8, #0x9000000  // =150994944
ffffff8040000130: 52800149     	mov	w9, #0xa        // =10
ffffff8040000134: 2a1f03e0     	mov	w0, wzr
ffffff8040000138: 39000109     	strb	w9, [x8]
ffffff804000013c: 910043ff     	add	sp, sp, #0x10
ffffff8040000140: d65f03c0     	ret

ffffff8040000144 <_ZN4core3fmt5Write9write_fmt17h7818e530996cc67eE>:
ffffff8040000144: 14001736     	b	0xffffff8040005e1c <_ZN4core3fmt5write17h8f7b88e4069053abE>

ffffff8040000148 <_ZN5alloc7raw_vec11finish_grow17hc7aa653f1cfbb20fE>:
ffffff8040000148: a9bd5ffe     	stp	x30, x23, [sp, #-0x30]!
ffffff804000014c: a90157f6     	stp	x22, x21, [sp, #0x10]
ffffff8040000150: a9024ff4     	stp	x20, x19, [sp, #0x20]
ffffff8040000154: f9400468     	ldr	x8, [x3, #0x8]
ffffff8040000158: aa0203f3     	mov	x19, x2
ffffff804000015c: aa0103f5     	mov	x21, x1
ffffff8040000160: aa0003f4     	mov	x20, x0
ffffff8040000164: b40001c8     	cbz	x8, 0xffffff804000019c <_ZN5alloc7raw_vec11finish_grow17hc7aa653f1cfbb20fE+0x54>
ffffff8040000168: f9400876     	ldr	x22, [x3, #0x10]
ffffff804000016c: b4000196     	cbz	x22, 0xffffff804000019c <_ZN5alloc7raw_vec11finish_grow17hc7aa653f1cfbb20fE+0x54>
ffffff8040000170: f9400077     	ldr	x23, [x3]
ffffff8040000174: aa1503e0     	mov	x0, x21
ffffff8040000178: aa1303e1     	mov	x1, x19
ffffff804000017c: 9400013f     	bl	0xffffff8040000678 <_ZN91_$LT$cohesix_root..allocator..BumpAllocator$u20$as$u20$core..alloc..global..GlobalAlloc$GT$5alloc17h68394e3a5be46895E>
ffffff8040000180: b4000280     	cbz	x0, 0xffffff80400001d0 <_ZN5alloc7raw_vec11finish_grow17hc7aa653f1cfbb20fE+0x88>
ffffff8040000184: aa1703e1     	mov	x1, x23
ffffff8040000188: aa1603e2     	mov	x2, x22
ffffff804000018c: aa0003f5     	mov	x21, x0
ffffff8040000190: 940005d6     	bl	0xffffff80400018e8 <memcpy>
ffffff8040000194: aa1503e0     	mov	x0, x21
ffffff8040000198: 14000006     	b	0xffffff80400001b0 <_ZN5alloc7raw_vec11finish_grow17hc7aa653f1cfbb20fE+0x68>
ffffff804000019c: b4000173     	cbz	x19, 0xffffff80400001c8 <_ZN5alloc7raw_vec11finish_grow17hc7aa653f1cfbb20fE+0x80>
ffffff80400001a0: aa1503e0     	mov	x0, x21
ffffff80400001a4: aa1303e1     	mov	x1, x19
ffffff80400001a8: 94000134     	bl	0xffffff8040000678 <_ZN91_$LT$cohesix_root..allocator..BumpAllocator$u20$as$u20$core..alloc..global..GlobalAlloc$GT$5alloc17h68394e3a5be46895E>
ffffff80400001ac: b4000120     	cbz	x0, 0xffffff80400001d0 <_ZN5alloc7raw_vec11finish_grow17hc7aa653f1cfbb20fE+0x88>
ffffff80400001b0: a900ce80     	stp	x0, x19, [x20, #0x8]
ffffff80400001b4: a94157f6     	ldp	x22, x21, [sp, #0x10]
ffffff80400001b8: f900029f     	str	xzr, [x20]
ffffff80400001bc: a9424ff4     	ldp	x20, x19, [sp, #0x20]
ffffff80400001c0: a8c35ffe     	ldp	x30, x23, [sp], #0x30
ffffff80400001c4: d65f03c0     	ret
ffffff80400001c8: aa1503e0     	mov	x0, x21
ffffff80400001cc: b5ffff35     	cbnz	x21, 0xffffff80400001b0 <_ZN5alloc7raw_vec11finish_grow17hc7aa653f1cfbb20fE+0x68>
ffffff80400001d0: 52800028     	mov	w8, #0x1        // =1
ffffff80400001d4: a900ce95     	stp	x21, x19, [x20, #0x8]
ffffff80400001d8: a94157f6     	ldp	x22, x21, [sp, #0x10]
ffffff80400001dc: f9000288     	str	x8, [x20]
ffffff80400001e0: a9424ff4     	ldp	x20, x19, [sp, #0x20]
ffffff80400001e4: a8c35ffe     	ldp	x30, x23, [sp], #0x30
ffffff80400001e8: d65f03c0     	ret

ffffff80400001ec <_ZN5alloc7raw_vec20RawVecInner$LT$A$GT$7reserve21do_reserve_and_handle17h6cf4fe444bcba26aE>:
ffffff80400001ec: d10143ff     	sub	sp, sp, #0x50
ffffff80400001f0: f9001bfe     	str	x30, [sp, #0x30]
ffffff80400001f4: a9044ff4     	stp	x20, x19, [sp, #0x40]
ffffff80400001f8: f9400009     	ldr	x9, [x0]
ffffff80400001fc: 8b01004c     	add	x12, x2, x1
ffffff8040000200: 5280008a     	mov	w10, #0x4       // =4
ffffff8040000204: cb0303ed     	neg	x13, x3
ffffff8040000208: aa0003f3     	mov	x19, x0
ffffff804000020c: aa1f03e0     	mov	x0, xzr
ffffff8040000210: d37ff92b     	lsl	x11, x9, #1
ffffff8040000214: eb0b019f     	cmp	x12, x11
ffffff8040000218: 9a8b818b     	csel	x11, x12, x11, hi
ffffff804000021c: f100049f     	cmp	x4, #0x1
ffffff8040000220: 5280010c     	mov	w12, #0x8       // =8
ffffff8040000224: 9a8a018a     	csel	x10, x12, x10, eq
ffffff8040000228: 8b04006c     	add	x12, x3, x4
ffffff804000022c: eb0a017f     	cmp	x11, x10
ffffff8040000230: d100058c     	sub	x12, x12, #0x1
ffffff8040000234: 9a8a8174     	csel	x20, x11, x10, hi
ffffff8040000238: 8a0d018a     	and	x10, x12, x13
ffffff804000023c: 9bd47d4b     	umulh	x11, x10, x20
ffffff8040000240: eb0b03ff     	cmp	xzr, x11
ffffff8040000244: 54000381     	b.ne	0xffffff80400002b4 <_ZN5alloc7raw_vec20RawVecInner$LT$A$GT$7reserve21do_reserve_and_handle17h6cf4fe444bcba26aE+0xc8>
ffffff8040000248: 9b147d42     	mul	x2, x10, x20
ffffff804000024c: d2f0000a     	mov	x10, #-0x8000000000000000 // =-9223372036854775808
ffffff8040000250: aa0303e8     	mov	x8, x3
ffffff8040000254: cb03014a     	sub	x10, x10, x3
ffffff8040000258: eb0a005f     	cmp	x2, x10
ffffff804000025c: 540002c8     	b.hi	0xffffff80400002b4 <_ZN5alloc7raw_vec20RawVecInner$LT$A$GT$7reserve21do_reserve_and_handle17h6cf4fe444bcba26aE+0xc8>
ffffff8040000260: b40000c9     	cbz	x9, 0xffffff8040000278 <_ZN5alloc7raw_vec20RawVecInner$LT$A$GT$7reserve21do_reserve_and_handle17h6cf4fe444bcba26aE+0x8c>
ffffff8040000264: 9b047d29     	mul	x9, x9, x4
ffffff8040000268: f940066a     	ldr	x10, [x19, #0x8]
ffffff804000026c: f9000fea     	str	x10, [sp, #0x18]
ffffff8040000270: f90017e9     	str	x9, [sp, #0x28]
ffffff8040000274: aa0803e9     	mov	x9, x8
ffffff8040000278: 910003e0     	mov	x0, sp
ffffff804000027c: 910063e3     	add	x3, sp, #0x18
ffffff8040000280: aa0803e1     	mov	x1, x8
ffffff8040000284: f90013e9     	str	x9, [sp, #0x20]
ffffff8040000288: 97ffffb0     	bl	0xffffff8040000148 <_ZN5alloc7raw_vec11finish_grow17hc7aa653f1cfbb20fE>
ffffff804000028c: b94003e8     	ldr	w8, [sp]
ffffff8040000290: 7100051f     	cmp	w8, #0x1
ffffff8040000294: 540000e0     	b.eq	0xffffff80400002b0 <_ZN5alloc7raw_vec20RawVecInner$LT$A$GT$7reserve21do_reserve_and_handle17h6cf4fe444bcba26aE+0xc4>
ffffff8040000298: f94007e8     	ldr	x8, [sp, #0x8]
ffffff804000029c: f9401bfe     	ldr	x30, [sp, #0x30]
ffffff80400002a0: a9002274     	stp	x20, x8, [x19]
ffffff80400002a4: a9444ff4     	ldp	x20, x19, [sp, #0x40]
ffffff80400002a8: 910143ff     	add	sp, sp, #0x50
ffffff80400002ac: d65f03c0     	ret
ffffff80400002b0: f94007e0     	ldr	x0, [sp, #0x8]
ffffff80400002b4: 9400143b     	bl	0xffffff80400053a0 <_ZN5alloc7raw_vec12handle_error17h1bb85de6207b500fE>

ffffff80400002b8 <_ZN75_$LT$$RF$mut$u20$W$u20$as$u20$core..fmt..Write..write_fmt..SpecWriteFmt$GT$14spec_write_fmt17h0d5c0cbe8e76cb85E>:
ffffff80400002b8: 140016d9     	b	0xffffff8040005e1c <_ZN4core3fmt5write17h8f7b88e4069053abE>

ffffff80400002bc <_ZN81_$LT$core..str..pattern..CharSearcher$u20$as$u20$core..str..pattern..Searcher$GT$10next_match17hda82234e2f19ab5dE>:
ffffff80400002bc: f81b0ffe     	str	x30, [sp, #-0x50]!
ffffff80400002c0: a90167fa     	stp	x26, x25, [sp, #0x10]
ffffff80400002c4: a9025ff8     	stp	x24, x23, [sp, #0x20]
ffffff80400002c8: a90357f6     	stp	x22, x21, [sp, #0x30]
ffffff80400002cc: a9044ff4     	stp	x20, x19, [sp, #0x40]
ffffff80400002d0: a9415835     	ldp	x21, x22, [x1, #0x10]
ffffff80400002d4: aa1f03ee     	mov	x14, xzr
ffffff80400002d8: eb1502df     	cmp	x22, x21
ffffff80400002dc: 54001c03     	b.lo	0xffffff804000065c <_ZN81_$LT$core..str..pattern..CharSearcher$u20$as$u20$core..str..pattern..Searcher$GT$10next_match17hda82234e2f19ab5dE+0x3a0>
ffffff80400002e0: f9400437     	ldr	x23, [x1, #0x8]
ffffff80400002e4: eb1702df     	cmp	x22, x23
ffffff80400002e8: 54001ba8     	b.hi	0xffffff804000065c <_ZN81_$LT$core..str..pattern..CharSearcher$u20$as$u20$core..str..pattern..Searcher$GT$10next_match17hda82234e2f19ab5dE+0x3a0>
ffffff80400002ec: 3940a033     	ldrb	w19, [x1, #0x28]
ffffff80400002f0: f9400038     	ldr	x24, [x1]
ffffff80400002f4: 7100167f     	cmp	w19, #0x5
ffffff80400002f8: 8b130028     	add	x8, x1, x19
ffffff80400002fc: 540015e2     	b.hs	0xffffff80400005b8 <_ZN81_$LT$core..str..pattern..CharSearcher$u20$as$u20$core..str..pattern..Searcher$GT$10next_match17hda82234e2f19ab5dE+0x2fc>
ffffff8040000300: 3841f108     	ldurb	w8, [x8, #0x1f]
ffffff8040000304: b200c3e9     	mov	x9, #0x101010101010101 // =72340172838076673
ffffff8040000308: 34000c73     	cbz	w19, 0xffffff8040000494 <_ZN81_$LT$core..str..pattern..CharSearcher$u20$as$u20$core..str..pattern..Searcher$GT$10next_match17hda82234e2f19ab5dE+0x1d8>
ffffff804000030c: 9b097d0a     	mul	x10, x8, x9
ffffff8040000310: b200c3eb     	mov	x11, #0x101010101010101 // =72340172838076673
ffffff8040000314: 39408029     	ldrb	w9, [x1, #0x20]
ffffff8040000318: f280200b     	movk	x11, #0x100
ffffff804000031c: 39408c2c     	ldrb	w12, [x1, #0x23]
ffffff8040000320: b201c3ed     	mov	x13, #-0x7f7f7f7f7f7f7f80 // =-9187201950435737472
ffffff8040000324: 4e080d61     	dup	v1.2d, x11
ffffff8040000328: 3940882b     	ldrb	w11, [x1, #0x22]
ffffff804000032c: 4e080d40     	dup	v0.2d, x10
ffffff8040000330: 3940842a     	ldrb	w10, [x1, #0x21]
ffffff8040000334: 14000004     	b	0xffffff8040000344 <_ZN81_$LT$core..str..pattern..CharSearcher$u20$as$u20$core..str..pattern..Searcher$GT$10next_match17hda82234e2f19ab5dE+0x88>
ffffff8040000338: eb1502df     	cmp	x22, x21
ffffff804000033c: aa1f03ee     	mov	x14, xzr
ffffff8040000340: 540018e3     	b.lo	0xffffff804000065c <_ZN81_$LT$core..str..pattern..CharSearcher$u20$as$u20$core..str..pattern..Searcher$GT$10next_match17hda82234e2f19ab5dE+0x3a0>
ffffff8040000344: cb1502cf     	sub	x15, x22, x21
ffffff8040000348: 8b15030e     	add	x14, x24, x21
ffffff804000034c: f1003dff     	cmp	x15, #0xf
ffffff8040000350: 54000168     	b.hi	0xffffff804000037c <_ZN81_$LT$core..str..pattern..CharSearcher$u20$as$u20$core..str..pattern..Searcher$GT$10next_match17hda82234e2f19ab5dE+0xc0>
ffffff8040000354: eb1502df     	cmp	x22, x21
ffffff8040000358: 540017e0     	b.eq	0xffffff8040000654 <_ZN81_$LT$core..str..pattern..CharSearcher$u20$as$u20$core..str..pattern..Searcher$GT$10next_match17hda82234e2f19ab5dE+0x398>
ffffff804000035c: aa1f03f2     	mov	x18, xzr
ffffff8040000360: 387269d0     	ldrb	w16, [x14, x18]
ffffff8040000364: 6b08021f     	cmp	w16, w8
ffffff8040000368: 54000600     	b.eq	0xffffff8040000428 <_ZN81_$LT$core..str..pattern..CharSearcher$u20$as$u20$core..str..pattern..Searcher$GT$10next_match17hda82234e2f19ab5dE+0x16c>
ffffff804000036c: 91000652     	add	x18, x18, #0x1
ffffff8040000370: eb1201ff     	cmp	x15, x18
ffffff8040000374: 54ffff61     	b.ne	0xffffff8040000360 <_ZN81_$LT$core..str..pattern..CharSearcher$u20$as$u20$core..str..pattern..Searcher$GT$10next_match17hda82234e2f19ab5dE+0xa4>
ffffff8040000378: 140000b7     	b	0xffffff8040000654 <_ZN81_$LT$core..str..pattern..CharSearcher$u20$as$u20$core..str..pattern..Searcher$GT$10next_match17hda82234e2f19ab5dE+0x398>
ffffff804000037c: 91001dd0     	add	x16, x14, #0x7
ffffff8040000380: 927df211     	and	x17, x16, #0xfffffffffffffff8
ffffff8040000384: eb0e0230     	subs	x16, x17, x14
ffffff8040000388: 54000180     	b.eq	0xffffff80400003b8 <_ZN81_$LT$core..str..pattern..CharSearcher$u20$as$u20$core..str..pattern..Searcher$GT$10next_match17hda82234e2f19ab5dE+0xfc>
ffffff804000038c: aa1f03f2     	mov	x18, xzr
ffffff8040000390: 387269c2     	ldrb	w2, [x14, x18]
ffffff8040000394: 6b08005f     	cmp	w2, w8
ffffff8040000398: 54000480     	b.eq	0xffffff8040000428 <_ZN81_$LT$core..str..pattern..CharSearcher$u20$as$u20$core..str..pattern..Searcher$GT$10next_match17hda82234e2f19ab5dE+0x16c>
ffffff804000039c: 91000652     	add	x18, x18, #0x1
ffffff80400003a0: eb12021f     	cmp	x16, x18
ffffff80400003a4: 54ffff61     	b.ne	0xffffff8040000390 <_ZN81_$LT$core..str..pattern..CharSearcher$u20$as$u20$core..str..pattern..Searcher$GT$10next_match17hda82234e2f19ab5dE+0xd4>
ffffff80400003a8: d10041f2     	sub	x18, x15, #0x10
ffffff80400003ac: eb12021f     	cmp	x16, x18
ffffff80400003b0: 54000069     	b.ls	0xffffff80400003bc <_ZN81_$LT$core..str..pattern..CharSearcher$u20$as$u20$core..str..pattern..Searcher$GT$10next_match17hda82234e2f19ab5dE+0x100>
ffffff80400003b4: 1400000f     	b	0xffffff80400003f0 <_ZN81_$LT$core..str..pattern..CharSearcher$u20$as$u20$core..str..pattern..Searcher$GT$10next_match17hda82234e2f19ab5dE+0x134>
ffffff80400003b8: d10041f2     	sub	x18, x15, #0x10
ffffff80400003bc: 3dc00222     	ldr	q2, [x17]
ffffff80400003c0: 6e201c42     	eor	v2.16b, v2.16b, v0.16b
ffffff80400003c4: 6ee28423     	sub	v3.2d, v1.2d, v2.2d
ffffff80400003c8: 4ea21c62     	orr	v2.16b, v3.16b, v2.16b
ffffff80400003cc: 4e183c42     	mov	x2, v2.d[1]
ffffff80400003d0: 9e660043     	fmov	x3, d2
ffffff80400003d4: 8a020062     	and	x2, x3, x2
ffffff80400003d8: ea2201bf     	bics	xzr, x13, x2
ffffff80400003dc: 540000a1     	b.ne	0xffffff80400003f0 <_ZN81_$LT$core..str..pattern..CharSearcher$u20$as$u20$core..str..pattern..Searcher$GT$10next_match17hda82234e2f19ab5dE+0x134>
ffffff80400003e0: 91004210     	add	x16, x16, #0x10
ffffff80400003e4: 91004231     	add	x17, x17, #0x10
ffffff80400003e8: eb12021f     	cmp	x16, x18
ffffff80400003ec: 54fffe89     	b.ls	0xffffff80400003bc <_ZN81_$LT$core..str..pattern..CharSearcher$u20$as$u20$core..str..pattern..Searcher$GT$10next_match17hda82234e2f19ab5dE+0x100>
ffffff80400003f0: eb1001ff     	cmp	x15, x16
ffffff80400003f4: 54001300     	b.eq	0xffffff8040000654 <_ZN81_$LT$core..str..pattern..CharSearcher$u20$as$u20$core..str..pattern..Searcher$GT$10next_match17hda82234e2f19ab5dE+0x398>
ffffff80400003f8: cb1002d1     	sub	x17, x22, x16
ffffff80400003fc: aa1f03ef     	mov	x15, xzr
ffffff8040000400: 8b1001ce     	add	x14, x14, x16
ffffff8040000404: cb150231     	sub	x17, x17, x21
ffffff8040000408: 386f69d2     	ldrb	w18, [x14, x15]
ffffff804000040c: 6b08025f     	cmp	w18, w8
ffffff8040000410: 540000a0     	b.eq	0xffffff8040000424 <_ZN81_$LT$core..str..pattern..CharSearcher$u20$as$u20$core..str..pattern..Searcher$GT$10next_match17hda82234e2f19ab5dE+0x168>
ffffff8040000414: 910005ef     	add	x15, x15, #0x1
ffffff8040000418: eb0f023f     	cmp	x17, x15
ffffff804000041c: 54ffff61     	b.ne	0xffffff8040000408 <_ZN81_$LT$core..str..pattern..CharSearcher$u20$as$u20$core..str..pattern..Searcher$GT$10next_match17hda82234e2f19ab5dE+0x14c>
ffffff8040000420: 1400008d     	b	0xffffff8040000654 <_ZN81_$LT$core..str..pattern..CharSearcher$u20$as$u20$core..str..pattern..Searcher$GT$10next_match17hda82234e2f19ab5dE+0x398>
ffffff8040000424: 8b1001f2     	add	x18, x15, x16
ffffff8040000428: 8b15024e     	add	x14, x18, x21
ffffff804000042c: 910005d5     	add	x21, x14, #0x1
ffffff8040000430: eb1302ae     	subs	x14, x21, x19
ffffff8040000434: f9000835     	str	x21, [x1, #0x10]
ffffff8040000438: 54fff803     	b.lo	0xffffff8040000338 <_ZN81_$LT$core..str..pattern..CharSearcher$u20$as$u20$core..str..pattern..Searcher$GT$10next_match17hda82234e2f19ab5dE+0x7c>
ffffff804000043c: eb1702bf     	cmp	x21, x23
ffffff8040000440: 54fff7c8     	b.hi	0xffffff8040000338 <_ZN81_$LT$core..str..pattern..CharSearcher$u20$as$u20$core..str..pattern..Searcher$GT$10next_match17hda82234e2f19ab5dE+0x7c>
ffffff8040000444: 8b0e030f     	add	x15, x24, x14
ffffff8040000448: 394001f0     	ldrb	w16, [x15]
ffffff804000044c: 6b09021f     	cmp	w16, w9
ffffff8040000450: 54fff741     	b.ne	0xffffff8040000338 <_ZN81_$LT$core..str..pattern..CharSearcher$u20$as$u20$core..str..pattern..Searcher$GT$10next_match17hda82234e2f19ab5dE+0x7c>
ffffff8040000454: 7100067f     	cmp	w19, #0x1
ffffff8040000458: 54000aa0     	b.eq	0xffffff80400005ac <_ZN81_$LT$core..str..pattern..CharSearcher$u20$as$u20$core..str..pattern..Searcher$GT$10next_match17hda82234e2f19ab5dE+0x2f0>
ffffff804000045c: 394005f0     	ldrb	w16, [x15, #0x1]
ffffff8040000460: 6b0a021f     	cmp	w16, w10
ffffff8040000464: 54fff6a1     	b.ne	0xffffff8040000338 <_ZN81_$LT$core..str..pattern..CharSearcher$u20$as$u20$core..str..pattern..Searcher$GT$10next_match17hda82234e2f19ab5dE+0x7c>
ffffff8040000468: 71000a7f     	cmp	w19, #0x2
ffffff804000046c: 54000a00     	b.eq	0xffffff80400005ac <_ZN81_$LT$core..str..pattern..CharSearcher$u20$as$u20$core..str..pattern..Searcher$GT$10next_match17hda82234e2f19ab5dE+0x2f0>
ffffff8040000470: 394009f0     	ldrb	w16, [x15, #0x2]
ffffff8040000474: 6b0b021f     	cmp	w16, w11
ffffff8040000478: 54fff601     	b.ne	0xffffff8040000338 <_ZN81_$LT$core..str..pattern..CharSearcher$u20$as$u20$core..str..pattern..Searcher$GT$10next_match17hda82234e2f19ab5dE+0x7c>
ffffff804000047c: 71000e7f     	cmp	w19, #0x3
ffffff8040000480: 54000960     	b.eq	0xffffff80400005ac <_ZN81_$LT$core..str..pattern..CharSearcher$u20$as$u20$core..str..pattern..Searcher$GT$10next_match17hda82234e2f19ab5dE+0x2f0>
ffffff8040000484: 39400def     	ldrb	w15, [x15, #0x3]
ffffff8040000488: 6b0c01ff     	cmp	w15, w12
ffffff804000048c: 54fff561     	b.ne	0xffffff8040000338 <_ZN81_$LT$core..str..pattern..CharSearcher$u20$as$u20$core..str..pattern..Searcher$GT$10next_match17hda82234e2f19ab5dE+0x7c>
ffffff8040000490: 14000047     	b	0xffffff80400005ac <_ZN81_$LT$core..str..pattern..CharSearcher$u20$as$u20$core..str..pattern..Searcher$GT$10next_match17hda82234e2f19ab5dE+0x2f0>
ffffff8040000494: 9b097d09     	mul	x9, x8, x9
ffffff8040000498: b200c3ea     	mov	x10, #0x101010101010101 // =72340172838076673
ffffff804000049c: f280200a     	movk	x10, #0x100
ffffff80400004a0: 4e080d41     	dup	v1.2d, x10
ffffff80400004a4: 4e080d20     	dup	v0.2d, x9
ffffff80400004a8: b201c3e9     	mov	x9, #-0x7f7f7f7f7f7f7f80 // =-9187201950435737472
ffffff80400004ac: cb1502cb     	sub	x11, x22, x21
ffffff80400004b0: 8b15030a     	add	x10, x24, x21
ffffff80400004b4: f100416d     	subs	x13, x11, #0x10
ffffff80400004b8: 54000162     	b.hs	0xffffff80400004e4 <_ZN81_$LT$core..str..pattern..CharSearcher$u20$as$u20$core..str..pattern..Searcher$GT$10next_match17hda82234e2f19ab5dE+0x228>
ffffff80400004bc: eb1502df     	cmp	x22, x21
ffffff80400004c0: 54000ca0     	b.eq	0xffffff8040000654 <_ZN81_$LT$core..str..pattern..CharSearcher$u20$as$u20$core..str..pattern..Searcher$GT$10next_match17hda82234e2f19ab5dE+0x398>
ffffff80400004c4: aa1f03ef     	mov	x15, xzr
ffffff80400004c8: 386f694c     	ldrb	w12, [x10, x15]
ffffff80400004cc: 6b08019f     	cmp	w12, w8
ffffff80400004d0: 540005a0     	b.eq	0xffffff8040000584 <_ZN81_$LT$core..str..pattern..CharSearcher$u20$as$u20$core..str..pattern..Searcher$GT$10next_match17hda82234e2f19ab5dE+0x2c8>
ffffff80400004d4: 910005ef     	add	x15, x15, #0x1
ffffff80400004d8: eb0f017f     	cmp	x11, x15
ffffff80400004dc: 54ffff61     	b.ne	0xffffff80400004c8 <_ZN81_$LT$core..str..pattern..CharSearcher$u20$as$u20$core..str..pattern..Searcher$GT$10next_match17hda82234e2f19ab5dE+0x20c>
ffffff80400004e0: 1400005d     	b	0xffffff8040000654 <_ZN81_$LT$core..str..pattern..CharSearcher$u20$as$u20$core..str..pattern..Searcher$GT$10next_match17hda82234e2f19ab5dE+0x398>
ffffff80400004e4: 91001d4c     	add	x12, x10, #0x7
ffffff80400004e8: 927df18e     	and	x14, x12, #0xfffffffffffffff8
ffffff80400004ec: eb0a01cc     	subs	x12, x14, x10
ffffff80400004f0: 54000140     	b.eq	0xffffff8040000518 <_ZN81_$LT$core..str..pattern..CharSearcher$u20$as$u20$core..str..pattern..Searcher$GT$10next_match17hda82234e2f19ab5dE+0x25c>
ffffff80400004f4: aa1f03ef     	mov	x15, xzr
ffffff80400004f8: 386f6950     	ldrb	w16, [x10, x15]
ffffff80400004fc: 6b08021f     	cmp	w16, w8
ffffff8040000500: 54000420     	b.eq	0xffffff8040000584 <_ZN81_$LT$core..str..pattern..CharSearcher$u20$as$u20$core..str..pattern..Searcher$GT$10next_match17hda82234e2f19ab5dE+0x2c8>
ffffff8040000504: 910005ef     	add	x15, x15, #0x1
ffffff8040000508: eb0f019f     	cmp	x12, x15
ffffff804000050c: 54ffff61     	b.ne	0xffffff80400004f8 <_ZN81_$LT$core..str..pattern..CharSearcher$u20$as$u20$core..str..pattern..Searcher$GT$10next_match17hda82234e2f19ab5dE+0x23c>
ffffff8040000510: eb0d019f     	cmp	x12, x13
ffffff8040000514: 540001c8     	b.hi	0xffffff804000054c <_ZN81_$LT$core..str..pattern..CharSearcher$u20$as$u20$core..str..pattern..Searcher$GT$10next_match17hda82234e2f19ab5dE+0x290>
ffffff8040000518: 3dc001c2     	ldr	q2, [x14]
ffffff804000051c: 6e201c42     	eor	v2.16b, v2.16b, v0.16b
ffffff8040000520: 6ee28423     	sub	v3.2d, v1.2d, v2.2d
ffffff8040000524: 4ea21c62     	orr	v2.16b, v3.16b, v2.16b
ffffff8040000528: 4e183c4f     	mov	x15, v2.d[1]
ffffff804000052c: 9e660050     	fmov	x16, d2
ffffff8040000530: 8a0f020f     	and	x15, x16, x15
ffffff8040000534: ea2f013f     	bics	xzr, x9, x15
ffffff8040000538: 540000a1     	b.ne	0xffffff804000054c <_ZN81_$LT$core..str..pattern..CharSearcher$u20$as$u20$core..str..pattern..Searcher$GT$10next_match17hda82234e2f19ab5dE+0x290>
ffffff804000053c: 9100418c     	add	x12, x12, #0x10
ffffff8040000540: 910041ce     	add	x14, x14, #0x10
ffffff8040000544: eb0d019f     	cmp	x12, x13
ffffff8040000548: 54fffe89     	b.ls	0xffffff8040000518 <_ZN81_$LT$core..str..pattern..CharSearcher$u20$as$u20$core..str..pattern..Searcher$GT$10next_match17hda82234e2f19ab5dE+0x25c>
ffffff804000054c: eb0c017f     	cmp	x11, x12
ffffff8040000550: 54000820     	b.eq	0xffffff8040000654 <_ZN81_$LT$core..str..pattern..CharSearcher$u20$as$u20$core..str..pattern..Searcher$GT$10next_match17hda82234e2f19ab5dE+0x398>
ffffff8040000554: cb0c02cd     	sub	x13, x22, x12
ffffff8040000558: aa1f03eb     	mov	x11, xzr
ffffff804000055c: 8b0c014a     	add	x10, x10, x12
ffffff8040000560: cb1501ad     	sub	x13, x13, x21
ffffff8040000564: 386b694e     	ldrb	w14, [x10, x11]
ffffff8040000568: 6b0801df     	cmp	w14, w8
ffffff804000056c: 540000a0     	b.eq	0xffffff8040000580 <_ZN81_$LT$core..str..pattern..CharSearcher$u20$as$u20$core..str..pattern..Searcher$GT$10next_match17hda82234e2f19ab5dE+0x2c4>
ffffff8040000570: 9100056b     	add	x11, x11, #0x1
ffffff8040000574: eb0b01bf     	cmp	x13, x11
ffffff8040000578: 54ffff61     	b.ne	0xffffff8040000564 <_ZN81_$LT$core..str..pattern..CharSearcher$u20$as$u20$core..str..pattern..Searcher$GT$10next_match17hda82234e2f19ab5dE+0x2a8>
ffffff804000057c: 14000036     	b	0xffffff8040000654 <_ZN81_$LT$core..str..pattern..CharSearcher$u20$as$u20$core..str..pattern..Searcher$GT$10next_match17hda82234e2f19ab5dE+0x398>
ffffff8040000580: 8b0c016f     	add	x15, x11, x12
ffffff8040000584: 8b1501ea     	add	x10, x15, x21
ffffff8040000588: 91000555     	add	x21, x10, #0x1
ffffff804000058c: eb1702bf     	cmp	x21, x23
ffffff8040000590: f9000835     	str	x21, [x1, #0x10]
ffffff8040000594: 540000a9     	b.ls	0xffffff80400005a8 <_ZN81_$LT$core..str..pattern..CharSearcher$u20$as$u20$core..str..pattern..Searcher$GT$10next_match17hda82234e2f19ab5dE+0x2ec>
ffffff8040000598: eb1502df     	cmp	x22, x21
ffffff804000059c: aa1f03ee     	mov	x14, xzr
ffffff80400005a0: 54fff862     	b.hs	0xffffff80400004ac <_ZN81_$LT$core..str..pattern..CharSearcher$u20$as$u20$core..str..pattern..Searcher$GT$10next_match17hda82234e2f19ab5dE+0x1f0>
ffffff80400005a4: 1400002e     	b	0xffffff804000065c <_ZN81_$LT$core..str..pattern..CharSearcher$u20$as$u20$core..str..pattern..Searcher$GT$10next_match17hda82234e2f19ab5dE+0x3a0>
ffffff80400005a8: cb1302ae     	sub	x14, x21, x19
ffffff80400005ac: a900d40e     	stp	x14, x21, [x0, #0x8]
ffffff80400005b0: 5280002e     	mov	w14, #0x1       // =1
ffffff80400005b4: 1400002a     	b	0xffffff804000065c <_ZN81_$LT$core..str..pattern..CharSearcher$u20$as$u20$core..str..pattern..Searcher$GT$10next_match17hda82234e2f19ab5dE+0x3a0>
ffffff80400005b8: 3841f114     	ldurb	w20, [x8, #0x1f]
ffffff80400005bc: 14000004     	b	0xffffff80400005cc <_ZN81_$LT$core..str..pattern..CharSearcher$u20$as$u20$core..str..pattern..Searcher$GT$10next_match17hda82234e2f19ab5dE+0x310>
ffffff80400005c0: eb1502df     	cmp	x22, x21
ffffff80400005c4: aa1f03ee     	mov	x14, xzr
ffffff80400005c8: 540004a3     	b.lo	0xffffff804000065c <_ZN81_$LT$core..str..pattern..CharSearcher$u20$as$u20$core..str..pattern..Searcher$GT$10next_match17hda82234e2f19ab5dE+0x3a0>
ffffff80400005cc: cb1502c2     	sub	x2, x22, x21
ffffff80400005d0: 8b150308     	add	x8, x24, x21
ffffff80400005d4: f100405f     	cmp	x2, #0x10
ffffff80400005d8: 54000162     	b.hs	0xffffff8040000604 <_ZN81_$LT$core..str..pattern..CharSearcher$u20$as$u20$core..str..pattern..Searcher$GT$10next_match17hda82234e2f19ab5dE+0x348>
ffffff80400005dc: eb1502df     	cmp	x22, x21
ffffff80400005e0: 540003a0     	b.eq	0xffffff8040000654 <_ZN81_$LT$core..str..pattern..CharSearcher$u20$as$u20$core..str..pattern..Searcher$GT$10next_match17hda82234e2f19ab5dE+0x398>
ffffff80400005e4: aa1f03e9     	mov	x9, xzr
ffffff80400005e8: 3869690a     	ldrb	w10, [x8, x9]
ffffff80400005ec: 6b14015f     	cmp	w10, w20
ffffff80400005f0: 540001e0     	b.eq	0xffffff804000062c <_ZN81_$LT$core..str..pattern..CharSearcher$u20$as$u20$core..str..pattern..Searcher$GT$10next_match17hda82234e2f19ab5dE+0x370>
ffffff80400005f4: 91000529     	add	x9, x9, #0x1
ffffff80400005f8: eb09005f     	cmp	x2, x9
ffffff80400005fc: 54ffff61     	b.ne	0xffffff80400005e8 <_ZN81_$LT$core..str..pattern..CharSearcher$u20$as$u20$core..str..pattern..Searcher$GT$10next_match17hda82234e2f19ab5dE+0x32c>
ffffff8040000600: 14000015     	b	0xffffff8040000654 <_ZN81_$LT$core..str..pattern..CharSearcher$u20$as$u20$core..str..pattern..Searcher$GT$10next_match17hda82234e2f19ab5dE+0x398>
ffffff8040000604: aa0003fa     	mov	x26, x0
ffffff8040000608: 2a1403e0     	mov	w0, w20
ffffff804000060c: aa0103f9     	mov	x25, x1
ffffff8040000610: aa0803e1     	mov	x1, x8
ffffff8040000614: 940017d0     	bl	0xffffff8040006554 <_ZN4core5slice6memchr14memchr_aligned17h3de89c52c9c70ecfE>
ffffff8040000618: aa0003e8     	mov	x8, x0
ffffff804000061c: aa1a03e0     	mov	x0, x26
ffffff8040000620: aa0103e9     	mov	x9, x1
ffffff8040000624: aa1903e1     	mov	x1, x25
ffffff8040000628: 36000168     	tbz	w8, #0x0, 0xffffff8040000654 <_ZN81_$LT$core..str..pattern..CharSearcher$u20$as$u20$core..str..pattern..Searcher$GT$10next_match17hda82234e2f19ab5dE+0x398>
ffffff804000062c: 8b150128     	add	x8, x9, x21
ffffff8040000630: 91000515     	add	x21, x8, #0x1
ffffff8040000634: eb1302bf     	cmp	x21, x19
ffffff8040000638: f9000835     	str	x21, [x1, #0x10]
ffffff804000063c: 54fffc23     	b.lo	0xffffff80400005c0 <_ZN81_$LT$core..str..pattern..CharSearcher$u20$as$u20$core..str..pattern..Searcher$GT$10next_match17hda82234e2f19ab5dE+0x304>
ffffff8040000640: eb1702bf     	cmp	x21, x23
ffffff8040000644: 54fffbe8     	b.hi	0xffffff80400005c0 <_ZN81_$LT$core..str..pattern..CharSearcher$u20$as$u20$core..str..pattern..Searcher$GT$10next_match17hda82234e2f19ab5dE+0x304>
ffffff8040000648: aa1303e0     	mov	x0, x19
ffffff804000064c: 52800081     	mov	w1, #0x4        // =4
ffffff8040000650: 94001464     	bl	0xffffff80400057e0 <_ZN4core5slice5index24slice_end_index_len_fail17hbc29399646d93e3bE>
ffffff8040000654: aa1f03ee     	mov	x14, xzr
ffffff8040000658: f9000836     	str	x22, [x1, #0x10]
ffffff804000065c: a9444ff4     	ldp	x20, x19, [sp, #0x40]
ffffff8040000660: f900000e     	str	x14, [x0]
ffffff8040000664: a94357f6     	ldp	x22, x21, [sp, #0x30]
ffffff8040000668: a9425ff8     	ldp	x24, x23, [sp, #0x20]
ffffff804000066c: a94167fa     	ldp	x26, x25, [sp, #0x10]
ffffff8040000670: f84507fe     	ldr	x30, [sp], #0x50
ffffff8040000674: d65f03c0     	ret

ffffff8040000678 <_ZN91_$LT$cohesix_root..allocator..BumpAllocator$u20$as$u20$core..alloc..global..GlobalAlloc$GT$5alloc17h68394e3a5be46895E>:
ffffff8040000678: d10203ff     	sub	sp, sp, #0x80
ffffff804000067c: a9027bfd     	stp	x29, x30, [sp, #0x20]
ffffff8040000680: a9036ffc     	stp	x28, x27, [sp, #0x30]
ffffff8040000684: a90467fa     	stp	x26, x25, [sp, #0x40]
ffffff8040000688: a9055ff8     	stp	x24, x23, [sp, #0x50]
ffffff804000068c: a90657f6     	stp	x22, x21, [sp, #0x60]
ffffff8040000690: a9074ff4     	stp	x20, x19, [sp, #0x70]
ffffff8040000694: 910003ef     	mov	x15, sp
ffffff8040000698: 52a12011     	mov	w17, #0x9000000 // =150994944
ffffff804000069c: 52800e4c     	mov	w12, #0x72      // =114
ffffff80400006a0: 52800cab     	mov	w11, #0x65      // =101
ffffff80400006a4: 52800cee     	mov	w14, #0x67      // =103
ffffff80400006a8: 52800bf2     	mov	w18, #0x5f      // =95
ffffff80400006ac: 52800e6a     	mov	w10, #0x73      // =115
ffffff80400006b0: 52800e0d     	mov	w13, #0x70      // =112
ffffff80400006b4: 52800149     	mov	w9, #0xa        // =10
ffffff80400006b8: aa1d03e2     	mov	x2, x29
ffffff80400006bc: 3900022c     	strb	w12, [x17]
ffffff80400006c0: d503201f     	nop
ffffff80400006c4: 50043fe8     	adr	x8, 0xffffff8040008ec2 <_ZN4core7unicode12unicode_data11white_space14WHITESPACE_MAP17h05932b8d89d4c975E+0x100>
ffffff80400006c8: 3900022b     	strb	w11, [x17]
ffffff80400006cc: 92400df0     	and	x16, x15, #0xf
ffffff80400006d0: 3900022e     	strb	w14, [x17]
ffffff80400006d4: d3441de4     	ubfx	x4, x15, #4, #4
ffffff80400006d8: d3482de5     	ubfx	x5, x15, #8, #4
ffffff80400006dc: 39000232     	strb	w18, [x17]
ffffff80400006e0: d3504de6     	ubfx	x6, x15, #16, #4
ffffff80400006e4: d3586df3     	ubfx	x19, x15, #24, #4
ffffff80400006e8: 3900022a     	strb	w10, [x17]
ffffff80400006ec: 531c7df4     	lsr	w20, w15, #28
ffffff80400006f0: d3608df5     	ubfx	x21, x15, #32, #4
ffffff80400006f4: 3900022d     	strb	w13, [x17]
ffffff80400006f8: d368adf7     	ubfx	x23, x15, #40, #4
ffffff80400006fc: d370cdf9     	ubfx	x25, x15, #48, #4
ffffff8040000700: 39000229     	strb	w9, [x17]
ffffff8040000704: d374ddfa     	ubfx	x26, x15, #52, #4
ffffff8040000708: d378edfb     	ubfx	x27, x15, #56, #4
ffffff804000070c: 38706903     	ldrb	w3, [x8, x16]
ffffff8040000710: d34c3df0     	ubfx	x16, x15, #12, #4
ffffff8040000714: 38646904     	ldrb	w4, [x8, x4]
ffffff8040000718: 38656905     	ldrb	w5, [x8, x5]
ffffff804000071c: 38666906     	ldrb	w6, [x8, x6]
ffffff8040000720: 38736913     	ldrb	w19, [x8, x19]
ffffff8040000724: 38706907     	ldrb	w7, [x8, x16]
ffffff8040000728: d3545df0     	ubfx	x16, x15, #20, #4
ffffff804000072c: 38746914     	ldrb	w20, [x8, x20]
ffffff8040000730: 38756915     	ldrb	w21, [x8, x21]
ffffff8040000734: 38776917     	ldrb	w23, [x8, x23]
ffffff8040000738: 38796919     	ldrb	w25, [x8, x25]
ffffff804000073c: 38706916     	ldrb	w22, [x8, x16]
ffffff8040000740: d3649df0     	ubfx	x16, x15, #36, #4
ffffff8040000744: 387a691a     	ldrb	w26, [x8, x26]
ffffff8040000748: 387b691b     	ldrb	w27, [x8, x27]
ffffff804000074c: 38706918     	ldrb	w24, [x8, x16]
ffffff8040000750: d36cbdf0     	ubfx	x16, x15, #44, #4
ffffff8040000754: 3870691c     	ldrb	w28, [x8, x16]
ffffff8040000758: d37cfdf0     	lsr	x16, x15, #60
ffffff804000075c: 5280060f     	mov	w15, #0x30      // =48
ffffff8040000760: 3870691d     	ldrb	w29, [x8, x16]
ffffff8040000764: 52800f10     	mov	w16, #0x78      // =120
ffffff8040000768: 3900022f     	strb	w15, [x17]
ffffff804000076c: 39000230     	strb	w16, [x17]
ffffff8040000770: 3900023d     	strb	w29, [x17]
ffffff8040000774: 3900023b     	strb	w27, [x17]
ffffff8040000778: d374dc5b     	ubfx	x27, x2, #52, #4
ffffff804000077c: 3900023a     	strb	w26, [x17]
ffffff8040000780: d370cc5a     	ubfx	x26, x2, #48, #4
ffffff8040000784: 39000239     	strb	w25, [x17]
ffffff8040000788: d36cbc59     	ubfx	x25, x2, #44, #4
ffffff804000078c: 3900023c     	strb	w28, [x17]
ffffff8040000790: d378ec5c     	ubfx	x28, x2, #56, #4
ffffff8040000794: 39000237     	strb	w23, [x17]
ffffff8040000798: d3649c57     	ubfx	x23, x2, #36, #4
ffffff804000079c: 39000238     	strb	w24, [x17]
ffffff80400007a0: d368ac58     	ubfx	x24, x2, #40, #4
ffffff80400007a4: 39000235     	strb	w21, [x17]
ffffff80400007a8: 531c7c55     	lsr	w21, w2, #28
ffffff80400007ac: 39000234     	strb	w20, [x17]
ffffff80400007b0: d3586c54     	ubfx	x20, x2, #24, #4
ffffff80400007b4: 39000233     	strb	w19, [x17]
ffffff80400007b8: d3545c53     	ubfx	x19, x2, #20, #4
ffffff80400007bc: 39000236     	strb	w22, [x17]
ffffff80400007c0: d3608c56     	ubfx	x22, x2, #32, #4
ffffff80400007c4: 39000226     	strb	w6, [x17]
ffffff80400007c8: d34c3c46     	ubfx	x6, x2, #12, #4
ffffff80400007cc: 39000227     	strb	w7, [x17]
ffffff80400007d0: d3504c47     	ubfx	x7, x2, #16, #4
ffffff80400007d4: 39000225     	strb	w5, [x17]
ffffff80400007d8: d3482c45     	ubfx	x5, x2, #8, #4
ffffff80400007dc: 39000224     	strb	w4, [x17]
ffffff80400007e0: 92400c44     	and	x4, x2, #0xf
ffffff80400007e4: 39000223     	strb	w3, [x17]
ffffff80400007e8: d3441c43     	ubfx	x3, x2, #4, #4
ffffff80400007ec: d37cfc42     	lsr	x2, x2, #60
ffffff80400007f0: 39000229     	strb	w9, [x17]
ffffff80400007f4: 3900022c     	strb	w12, [x17]
ffffff80400007f8: 3900022b     	strb	w11, [x17]
ffffff80400007fc: 3900022e     	strb	w14, [x17]
ffffff8040000800: b000006e     	adrp	x14, 0xffffff804000d000 <__bss_start>
ffffff8040000804: 39000232     	strb	w18, [x17]
ffffff8040000808: 52800cd2     	mov	w18, #0x66      // =102
ffffff804000080c: 39000232     	strb	w18, [x17]
ffffff8040000810: 3900022d     	strb	w13, [x17]
ffffff8040000814: 39000229     	strb	w9, [x17]
ffffff8040000818: 38646904     	ldrb	w4, [x8, x4]
ffffff804000081c: 38636903     	ldrb	w3, [x8, x3]
ffffff8040000820: 38656905     	ldrb	w5, [x8, x5]
ffffff8040000824: 38666906     	ldrb	w6, [x8, x6]
ffffff8040000828: 38676907     	ldrb	w7, [x8, x7]
ffffff804000082c: 38736913     	ldrb	w19, [x8, x19]
ffffff8040000830: 38746914     	ldrb	w20, [x8, x20]
ffffff8040000834: 38756915     	ldrb	w21, [x8, x21]
ffffff8040000838: 38766916     	ldrb	w22, [x8, x22]
ffffff804000083c: 38776917     	ldrb	w23, [x8, x23]
ffffff8040000840: 38786918     	ldrb	w24, [x8, x24]
ffffff8040000844: 38796919     	ldrb	w25, [x8, x25]
ffffff8040000848: 387a691a     	ldrb	w26, [x8, x26]
ffffff804000084c: 387b691b     	ldrb	w27, [x8, x27]
ffffff8040000850: 387c691c     	ldrb	w28, [x8, x28]
ffffff8040000854: 38626902     	ldrb	w2, [x8, x2]
ffffff8040000858: 3900022f     	strb	w15, [x17]
ffffff804000085c: 39000230     	strb	w16, [x17]
ffffff8040000860: 39000222     	strb	w2, [x17]
ffffff8040000864: 52800d82     	mov	w2, #0x6c       // =108
ffffff8040000868: 3900023c     	strb	w28, [x17]
ffffff804000086c: 3900023b     	strb	w27, [x17]
ffffff8040000870: 3900023a     	strb	w26, [x17]
ffffff8040000874: 39000239     	strb	w25, [x17]
ffffff8040000878: 39000238     	strb	w24, [x17]
ffffff804000087c: 39000237     	strb	w23, [x17]
ffffff8040000880: 39000236     	strb	w22, [x17]
ffffff8040000884: 39000235     	strb	w21, [x17]
ffffff8040000888: 39000234     	strb	w20, [x17]
ffffff804000088c: 39000233     	strb	w19, [x17]
ffffff8040000890: 39000227     	strb	w7, [x17]
ffffff8040000894: 39000226     	strb	w6, [x17]
ffffff8040000898: 52800c66     	mov	w6, #0x63       // =99
ffffff804000089c: 39000225     	strb	w5, [x17]
ffffff80400008a0: 52800405     	mov	w5, #0x20       // =32
ffffff80400008a4: 39000223     	strb	w3, [x17]
ffffff80400008a8: 52800de3     	mov	w3, #0x6f       // =111
ffffff80400008ac: 39000224     	strb	w4, [x17]
ffffff80400008b0: 52800c24     	mov	w4, #0x61       // =97
ffffff80400008b4: 39000229     	strb	w9, [x17]
ffffff80400008b8: 39000224     	strb	w4, [x17]
ffffff80400008bc: 39000222     	strb	w2, [x17]
ffffff80400008c0: 39000222     	strb	w2, [x17]
ffffff80400008c4: 39000223     	strb	w3, [x17]
ffffff80400008c8: 39000226     	strb	w6, [x17]
ffffff80400008cc: 39000225     	strb	w5, [x17]
ffffff80400008d0: 39000223     	strb	w3, [x17]
ffffff80400008d4: 39000232     	strb	w18, [x17]
ffffff80400008d8: 39000232     	strb	w18, [x17]
ffffff80400008dc: 3900022a     	strb	w10, [x17]
ffffff80400008e0: 52800e8a     	mov	w10, #0x74      // =116
ffffff80400008e4: 3900022b     	strb	w11, [x17]
ffffff80400008e8: 3900022a     	strb	w10, [x17]
ffffff80400008ec: 39000229     	strb	w9, [x17]
ffffff80400008f0: f94001ca     	ldr	x10, [x14]
ffffff80400008f4: d3441d47     	ubfx	x7, x10, #4, #4
ffffff80400008f8: 92400d53     	and	x19, x10, #0xf
ffffff80400008fc: d3482d54     	ubfx	x20, x10, #8, #4
ffffff8040000900: d34c3d55     	ubfx	x21, x10, #12, #4
ffffff8040000904: d3504d56     	ubfx	x22, x10, #16, #4
ffffff8040000908: d3545d57     	ubfx	x23, x10, #20, #4
ffffff804000090c: d3586d58     	ubfx	x24, x10, #24, #4
ffffff8040000910: 531c7d59     	lsr	w25, w10, #28
ffffff8040000914: d3608d5a     	ubfx	x26, x10, #32, #4
ffffff8040000918: d3649d5b     	ubfx	x27, x10, #36, #4
ffffff804000091c: d368ad5c     	ubfx	x28, x10, #40, #4
ffffff8040000920: d36cbd5d     	ubfx	x29, x10, #44, #4
ffffff8040000924: d370cd5e     	ubfx	x30, x10, #48, #4
ffffff8040000928: d374dd4c     	ubfx	x12, x10, #52, #4
ffffff804000092c: d378ed4d     	ubfx	x13, x10, #56, #4
ffffff8040000930: d37cfd4a     	lsr	x10, x10, #60
ffffff8040000934: 38736913     	ldrb	w19, [x8, x19]
ffffff8040000938: 38676907     	ldrb	w7, [x8, x7]
ffffff804000093c: 38746914     	ldrb	w20, [x8, x20]
ffffff8040000940: 38756915     	ldrb	w21, [x8, x21]
ffffff8040000944: 38766916     	ldrb	w22, [x8, x22]
ffffff8040000948: 38776917     	ldrb	w23, [x8, x23]
ffffff804000094c: 38786918     	ldrb	w24, [x8, x24]
ffffff8040000950: 38796919     	ldrb	w25, [x8, x25]
ffffff8040000954: 387a691a     	ldrb	w26, [x8, x26]
ffffff8040000958: 387b691b     	ldrb	w27, [x8, x27]
ffffff804000095c: 387c691c     	ldrb	w28, [x8, x28]
ffffff8040000960: 387d691d     	ldrb	w29, [x8, x29]
ffffff8040000964: 387e691e     	ldrb	w30, [x8, x30]
ffffff8040000968: 386c690c     	ldrb	w12, [x8, x12]
ffffff804000096c: 386d690d     	ldrb	w13, [x8, x13]
ffffff8040000970: 386a690a     	ldrb	w10, [x8, x10]
ffffff8040000974: 3900022f     	strb	w15, [x17]
ffffff8040000978: 39000230     	strb	w16, [x17]
ffffff804000097c: 3900022a     	strb	w10, [x17]
ffffff8040000980: 3900022d     	strb	w13, [x17]
ffffff8040000984: 3900022c     	strb	w12, [x17]
ffffff8040000988: 3900023e     	strb	w30, [x17]
ffffff804000098c: 3900023d     	strb	w29, [x17]
ffffff8040000990: 3900023c     	strb	w28, [x17]
ffffff8040000994: 3900023b     	strb	w27, [x17]
ffffff8040000998: 3900023a     	strb	w26, [x17]
ffffff804000099c: 39000239     	strb	w25, [x17]
ffffff80400009a0: 39000238     	strb	w24, [x17]
ffffff80400009a4: 39000237     	strb	w23, [x17]
ffffff80400009a8: 39000236     	strb	w22, [x17]
ffffff80400009ac: 39000235     	strb	w21, [x17]
ffffff80400009b0: 39000234     	strb	w20, [x17]
ffffff80400009b4: 39000227     	strb	w7, [x17]
ffffff80400009b8: d1000407     	sub	x7, x0, #0x1
ffffff80400009bc: 39000233     	strb	w19, [x17]
ffffff80400009c0: 39000229     	strb	w9, [x17]
ffffff80400009c4: f94001d1     	ldr	x17, [x14]
ffffff80400009c8: ab07023f     	cmn	x17, x7
ffffff80400009cc: 540048e2     	b.hs	0xffffff80400012e8 <_ZN91_$LT$cohesix_root..allocator..BumpAllocator$u20$as$u20$core..alloc..global..GlobalAlloc$GT$5alloc17h68394e3a5be46895E+0xc70>
ffffff80400009d0: 52a1200a     	mov	w10, #0x9000000 // =150994944
ffffff80400009d4: 52800d2c     	mov	w12, #0x69      // =105
ffffff80400009d8: cb0003ee     	neg	x14, x0
ffffff80400009dc: 39000144     	strb	w4, [x10]
ffffff80400009e0: 52800c8d     	mov	w13, #0x64      // =100
ffffff80400009e4: 39000142     	strb	w2, [x10]
ffffff80400009e8: 39000142     	strb	w2, [x10]
ffffff80400009ec: 39000143     	strb	w3, [x10]
ffffff80400009f0: 39000146     	strb	w6, [x10]
ffffff80400009f4: 39000145     	strb	w5, [x10]
ffffff80400009f8: 39000144     	strb	w4, [x10]
ffffff80400009fc: 39000142     	strb	w2, [x10]
ffffff8040000a00: 3900014c     	strb	w12, [x10]
ffffff8040000a04: 52800cec     	mov	w12, #0x67      // =103
ffffff8040000a08: 3900014c     	strb	w12, [x10]
ffffff8040000a0c: 52800dcc     	mov	w12, #0x6e      // =110
ffffff8040000a10: 3900014c     	strb	w12, [x10]
ffffff8040000a14: 3900014b     	strb	w11, [x10]
ffffff8040000a18: 8b07022b     	add	x11, x17, x7
ffffff8040000a1c: 8a0e016b     	and	x11, x11, x14
ffffff8040000a20: 3900014d     	strb	w13, [x10]
ffffff8040000a24: d3441d6e     	ubfx	x14, x11, #4, #4
ffffff8040000a28: d3482d72     	ubfx	x18, x11, #8, #4
ffffff8040000a2c: d34c3d60     	ubfx	x0, x11, #12, #4
ffffff8040000a30: d3504d62     	ubfx	x2, x11, #16, #4
ffffff8040000a34: d3545d63     	ubfx	x3, x11, #20, #4
ffffff8040000a38: d3586d64     	ubfx	x4, x11, #24, #4
ffffff8040000a3c: 531c7d65     	lsr	w5, w11, #28
ffffff8040000a40: d3608d66     	ubfx	x6, x11, #32, #4
ffffff8040000a44: d3649d67     	ubfx	x7, x11, #36, #4
ffffff8040000a48: d368ad73     	ubfx	x19, x11, #40, #4
ffffff8040000a4c: d36cbd74     	ubfx	x20, x11, #44, #4
ffffff8040000a50: d370cd75     	ubfx	x21, x11, #48, #4
ffffff8040000a54: d374dd76     	ubfx	x22, x11, #52, #4
ffffff8040000a58: d378ed77     	ubfx	x23, x11, #56, #4
ffffff8040000a5c: d37cfd78     	lsr	x24, x11, #60
ffffff8040000a60: 39000149     	strb	w9, [x10]
ffffff8040000a64: 92400d71     	and	x17, x11, #0xf
ffffff8040000a68: 386e690e     	ldrb	w14, [x8, x14]
ffffff8040000a6c: 38726912     	ldrb	w18, [x8, x18]
ffffff8040000a70: 38606900     	ldrb	w0, [x8, x0]
ffffff8040000a74: 38626902     	ldrb	w2, [x8, x2]
ffffff8040000a78: 38636903     	ldrb	w3, [x8, x3]
ffffff8040000a7c: 38646904     	ldrb	w4, [x8, x4]
ffffff8040000a80: 38656905     	ldrb	w5, [x8, x5]
ffffff8040000a84: 38666906     	ldrb	w6, [x8, x6]
ffffff8040000a88: 38676907     	ldrb	w7, [x8, x7]
ffffff8040000a8c: 38736913     	ldrb	w19, [x8, x19]
ffffff8040000a90: 38746914     	ldrb	w20, [x8, x20]
ffffff8040000a94: 38756915     	ldrb	w21, [x8, x21]
ffffff8040000a98: 38766916     	ldrb	w22, [x8, x22]
ffffff8040000a9c: 38776917     	ldrb	w23, [x8, x23]
ffffff8040000aa0: 38786918     	ldrb	w24, [x8, x24]
ffffff8040000aa4: 38716911     	ldrb	w17, [x8, x17]
ffffff8040000aa8: 3900014f     	strb	w15, [x10]
ffffff8040000aac: 39000150     	strb	w16, [x10]
ffffff8040000ab0: 39000158     	strb	w24, [x10]
ffffff8040000ab4: 39000157     	strb	w23, [x10]
ffffff8040000ab8: 39000156     	strb	w22, [x10]
ffffff8040000abc: 39000155     	strb	w21, [x10]
ffffff8040000ac0: 39000154     	strb	w20, [x10]
ffffff8040000ac4: 39000153     	strb	w19, [x10]
ffffff8040000ac8: 39000147     	strb	w7, [x10]
ffffff8040000acc: 39000146     	strb	w6, [x10]
ffffff8040000ad0: 39000145     	strb	w5, [x10]
ffffff8040000ad4: 39000144     	strb	w4, [x10]
ffffff8040000ad8: 39000143     	strb	w3, [x10]
ffffff8040000adc: 39000142     	strb	w2, [x10]
ffffff8040000ae0: 39000140     	strb	w0, [x10]
ffffff8040000ae4: 39000152     	strb	w18, [x10]
ffffff8040000ae8: 3900014e     	strb	w14, [x10]
ffffff8040000aec: d503201f     	nop
ffffff8040000af0: 1007288e     	adr	x14, 0xffffff804000f000 <__heap_start>
ffffff8040000af4: ab0e017f     	cmn	x11, x14
ffffff8040000af8: 39000151     	strb	w17, [x10]
ffffff8040000afc: 39000149     	strb	w9, [x10]
ffffff8040000b00: 540039c2     	b.hs	0xffffff8040001238 <_ZN91_$LT$cohesix_root..allocator..BumpAllocator$u20$as$u20$core..alloc..global..GlobalAlloc$GT$5alloc17h68394e3a5be46895E+0xbc0>
ffffff8040000b04: 8b0e0173     	add	x19, x11, x14
ffffff8040000b08: ab01027f     	cmn	x19, x1
ffffff8040000b0c: 54003962     	b.hs	0xffffff8040001238 <_ZN91_$LT$cohesix_root..allocator..BumpAllocator$u20$as$u20$core..alloc..global..GlobalAlloc$GT$5alloc17h68394e3a5be46895E+0xbc0>
ffffff8040000b10: 52a12019     	mov	w25, #0x9000000 // =150994944
ffffff8040000b14: 52800c29     	mov	w9, #0x61       // =97
ffffff8040000b18: 52800d90     	mov	w16, #0x6c      // =108
ffffff8040000b1c: 39000329     	strb	w9, [x25]
ffffff8040000b20: 52800df1     	mov	w17, #0x6f      // =111
ffffff8040000b24: 52800c7a     	mov	w26, #0x63      // =99
ffffff8040000b28: 52800409     	mov	w9, #0x20       // =32
ffffff8040000b2c: 39000330     	strb	w16, [x25]
ffffff8040000b30: 52800ca2     	mov	w2, #0x65       // =101
ffffff8040000b34: 39000330     	strb	w16, [x25]
ffffff8040000b38: 52800e47     	mov	w7, #0x72       // =114
ffffff8040000b3c: 52800146     	mov	w6, #0xa        // =10
ffffff8040000b40: 39000331     	strb	w17, [x25]
ffffff8040000b44: d503201f     	nop
ffffff8040000b48: 104725c3     	adr	x3, 0xffffff804008f000 <__heap_end>
ffffff8040000b4c: 3900033a     	strb	w26, [x25]
ffffff8040000b50: 39000329     	strb	w9, [x25]
ffffff8040000b54: 52800dc9     	mov	w9, #0x6e       // =110
ffffff8040000b58: 39000322     	strb	w2, [x25]
ffffff8040000b5c: 39000329     	strb	w9, [x25]
ffffff8040000b60: 52800c89     	mov	w9, #0x64       // =100
ffffff8040000b64: 39000329     	strb	w9, [x25]
ffffff8040000b68: 52800e09     	mov	w9, #0x70       // =112
ffffff8040000b6c: 39000329     	strb	w9, [x25]
ffffff8040000b70: 52800e89     	mov	w9, #0x74       // =116
ffffff8040000b74: 39000329     	strb	w9, [x25]
ffffff8040000b78: 8b010269     	add	x9, x19, x1
ffffff8040000b7c: 39000327     	strb	w7, [x25]
ffffff8040000b80: 92400d2a     	and	x10, x9, #0xf
ffffff8040000b84: d3586d20     	ubfx	x0, x9, #24, #4
ffffff8040000b88: 39000326     	strb	w6, [x25]
ffffff8040000b8c: 531c7d34     	lsr	w20, w9, #28
ffffff8040000b90: d3441d2d     	ubfx	x13, x9, #4, #4
ffffff8040000b94: 386a690c     	ldrb	w12, [x8, x10]
ffffff8040000b98: d34c3d2a     	ubfx	x10, x9, #12, #4
ffffff8040000b9c: 38606905     	ldrb	w5, [x8, x0]
ffffff8040000ba0: d368ad20     	ubfx	x0, x9, #40, #4
ffffff8040000ba4: d3482d2e     	ubfx	x14, x9, #8, #4
ffffff8040000ba8: d3504d32     	ubfx	x18, x9, #16, #4
ffffff8040000bac: 386a690f     	ldrb	w15, [x8, x10]
ffffff8040000bb0: d3545d2a     	ubfx	x10, x9, #20, #4
ffffff8040000bb4: d3608d36     	ubfx	x22, x9, #32, #4
ffffff8040000bb8: 38746915     	ldrb	w21, [x8, x20]
ffffff8040000bbc: d370cd34     	ubfx	x20, x9, #48, #4
ffffff8040000bc0: 38606918     	ldrb	w24, [x8, x0]
ffffff8040000bc4: 386a6904     	ldrb	w4, [x8, x10]
ffffff8040000bc8: d3649d2a     	ubfx	x10, x9, #36, #4
ffffff8040000bcc: d374dd20     	ubfx	x0, x9, #52, #4
ffffff8040000bd0: d378ed3e     	ubfx	x30, x9, #56, #4
ffffff8040000bd4: 386d690d     	ldrb	w13, [x8, x13]
ffffff8040000bd8: 386e690e     	ldrb	w14, [x8, x14]
ffffff8040000bdc: 386a6917     	ldrb	w23, [x8, x10]
ffffff8040000be0: d36cbd2a     	ubfx	x10, x9, #44, #4
ffffff8040000be4: 38726912     	ldrb	w18, [x8, x18]
ffffff8040000be8: 38766916     	ldrb	w22, [x8, x22]
ffffff8040000bec: 3874691c     	ldrb	w28, [x8, x20]
ffffff8040000bf0: 3860691d     	ldrb	w29, [x8, x0]
ffffff8040000bf4: 386a691b     	ldrb	w27, [x8, x10]
ffffff8040000bf8: d37cfd2a     	lsr	x10, x9, #60
ffffff8040000bfc: 387e691e     	ldrb	w30, [x8, x30]
ffffff8040000c00: 52800614     	mov	w20, #0x30      // =48
ffffff8040000c04: 52800f00     	mov	w0, #0x78       // =120
ffffff8040000c08: eb03013f     	cmp	x9, x3
ffffff8040000c0c: 386a690a     	ldrb	w10, [x8, x10]
ffffff8040000c10: 39000334     	strb	w20, [x25]
ffffff8040000c14: 39000320     	strb	w0, [x25]
ffffff8040000c18: 3900032a     	strb	w10, [x25]
ffffff8040000c1c: 3900033e     	strb	w30, [x25]
ffffff8040000c20: 3900033d     	strb	w29, [x25]
ffffff8040000c24: 3900033c     	strb	w28, [x25]
ffffff8040000c28: 3900033b     	strb	w27, [x25]
ffffff8040000c2c: 39000338     	strb	w24, [x25]
ffffff8040000c30: 39000337     	strb	w23, [x25]
ffffff8040000c34: 39000336     	strb	w22, [x25]
ffffff8040000c38: 39000335     	strb	w21, [x25]
ffffff8040000c3c: 39000325     	strb	w5, [x25]
ffffff8040000c40: 39000324     	strb	w4, [x25]
ffffff8040000c44: 39000332     	strb	w18, [x25]
ffffff8040000c48: 3900032f     	strb	w15, [x25]
ffffff8040000c4c: 3900032e     	strb	w14, [x25]
ffffff8040000c50: 3900032d     	strb	w13, [x25]
ffffff8040000c54: 3900032c     	strb	w12, [x25]
ffffff8040000c58: 39000326     	strb	w6, [x25]
ffffff8040000c5c: 54000769     	b.ls	0xffffff8040000d48 <_ZN91_$LT$cohesix_root..allocator..BumpAllocator$u20$as$u20$core..alloc..global..GlobalAlloc$GT$5alloc17h68394e3a5be46895E+0x6d0>
ffffff8040000c60: 52a12008     	mov	w8, #0x9000000  // =150994944
ffffff8040000c64: 52800c23     	mov	w3, #0x61       // =97
ffffff8040000c68: 52800413     	mov	w19, #0x20      // =32
ffffff8040000c6c: 52800ec9     	mov	w9, #0x76       // =118
ffffff8040000c70: 52800ccb     	mov	w11, #0x66      // =102
ffffff8040000c74: 52800ee1     	mov	w1, #0x77       // =119
ffffff8040000c78: 39000103     	strb	w3, [x8]
ffffff8040000c7c: 39000110     	strb	w16, [x8]
ffffff8040000c80: 39000110     	strb	w16, [x8]
ffffff8040000c84: 39000111     	strb	w17, [x8]
ffffff8040000c88: 3900011a     	strb	w26, [x8]
ffffff8040000c8c: 39000113     	strb	w19, [x8]
ffffff8040000c90: 39000111     	strb	w17, [x8]
ffffff8040000c94: 39000109     	strb	w9, [x8]
ffffff8040000c98: 39000102     	strb	w2, [x8]
ffffff8040000c9c: 39000107     	strb	w7, [x8]
ffffff8040000ca0: 3900010b     	strb	w11, [x8]
ffffff8040000ca4: 39000110     	strb	w16, [x8]
ffffff8040000ca8: 39000111     	strb	w17, [x8]
ffffff8040000cac: 39000101     	strb	w1, [x8]
ffffff8040000cb0: 39000106     	strb	w6, [x8]
ffffff8040000cb4: 39000114     	strb	w20, [x8]
ffffff8040000cb8: 39000100     	strb	w0, [x8]
ffffff8040000cbc: 3900010a     	strb	w10, [x8]
ffffff8040000cc0: 52800d0a     	mov	w10, #0x68      // =104
ffffff8040000cc4: 3900011e     	strb	w30, [x8]
ffffff8040000cc8: 3900011d     	strb	w29, [x8]
ffffff8040000ccc: 3900011c     	strb	w28, [x8]
ffffff8040000cd0: 3900011b     	strb	w27, [x8]
ffffff8040000cd4: 39000118     	strb	w24, [x8]
ffffff8040000cd8: 39000117     	strb	w23, [x8]
ffffff8040000cdc: 39000116     	strb	w22, [x8]
ffffff8040000ce0: 39000115     	strb	w21, [x8]
ffffff8040000ce4: 39000105     	strb	w5, [x8]
ffffff8040000ce8: 39000104     	strb	w4, [x8]
ffffff8040000cec: 39000112     	strb	w18, [x8]
ffffff8040000cf0: 3900010f     	strb	w15, [x8]
ffffff8040000cf4: 3900010e     	strb	w14, [x8]
ffffff8040000cf8: 3900010d     	strb	w13, [x8]
ffffff8040000cfc: 3900010c     	strb	w12, [x8]
ffffff8040000d00: 39000106     	strb	w6, [x8]
ffffff8040000d04: 3900010a     	strb	w10, [x8]
ffffff8040000d08: 52800e0a     	mov	w10, #0x70      // =112
ffffff8040000d0c: 39000102     	strb	w2, [x8]
ffffff8040000d10: 39000103     	strb	w3, [x8]
ffffff8040000d14: 3900010a     	strb	w10, [x8]
ffffff8040000d18: 39000113     	strb	w19, [x8]
ffffff8040000d1c: 39000111     	strb	w17, [x8]
ffffff8040000d20: 39000109     	strb	w9, [x8]
ffffff8040000d24: 39000102     	strb	w2, [x8]
ffffff8040000d28: 39000107     	strb	w7, [x8]
ffffff8040000d2c: 3900010b     	strb	w11, [x8]
ffffff8040000d30: 39000110     	strb	w16, [x8]
ffffff8040000d34: 39000111     	strb	w17, [x8]
ffffff8040000d38: 39000101     	strb	w1, [x8]
ffffff8040000d3c: 39000106     	strb	w6, [x8]
ffffff8040000d40: d5033fdf     	isb
ffffff8040000d44: 17ffffff     	b	0xffffff8040000d40 <_ZN91_$LT$cohesix_root..allocator..BumpAllocator$u20$as$u20$core..alloc..global..GlobalAlloc$GT$5alloc17h68394e3a5be46895E+0x6c8>
ffffff8040000d48: d503201f     	nop
ffffff8040000d4c: 104f95b4     	adr	x20, 0xffffff80400a0000 <__stack_end>
ffffff8040000d50: eb14013f     	cmp	x9, x20
ffffff8040000d54: 54001089     	b.ls	0xffffff8040000f64 <_ZN91_$LT$cohesix_root..allocator..BumpAllocator$u20$as$u20$core..alloc..global..GlobalAlloc$GT$5alloc17h68394e3a5be46895E+0x8ec>
ffffff8040000d58: 52a12009     	mov	w9, #0x9000000  // =150994944
ffffff8040000d5c: 52800c30     	mov	w16, #0x61      // =97
ffffff8040000d60: 52800d83     	mov	w3, #0x6c       // =108
ffffff8040000d64: 52800deb     	mov	w11, #0x6f      // =111
ffffff8040000d68: 52800c71     	mov	w17, #0x63      // =99
ffffff8040000d6c: 39000130     	strb	w16, [x9]
ffffff8040000d70: 39000123     	strb	w3, [x9]
ffffff8040000d74: 52800e00     	mov	w0, #0x70       // =112
ffffff8040000d78: 52800e61     	mov	w1, #0x73       // =115
ffffff8040000d7c: 39000123     	strb	w3, [x9]
ffffff8040000d80: 52800be2     	mov	w2, #0x5f       // =95
ffffff8040000d84: 52800606     	mov	w6, #0x30       // =48
ffffff8040000d88: 3900012b     	strb	w11, [x9]
ffffff8040000d8c: 52800f07     	mov	w7, #0x78       // =120
ffffff8040000d90: d3608e93     	ubfx	x19, x20, #32, #4
ffffff8040000d94: 39000131     	strb	w17, [x9]
ffffff8040000d98: 52800411     	mov	w17, #0x20      // =32
ffffff8040000d9c: d374de99     	ubfx	x25, x20, #52, #4
ffffff8040000da0: 39000131     	strb	w17, [x9]
ffffff8040000da4: d378ee9a     	ubfx	x26, x20, #56, #4
ffffff8040000da8: 39000120     	strb	w0, [x9]
ffffff8040000dac: 39000130     	strb	w16, [x9]
ffffff8040000db0: 39000121     	strb	w1, [x9]
ffffff8040000db4: 52800e81     	mov	w1, #0x74       // =116
ffffff8040000db8: 39000121     	strb	w1, [x9]
ffffff8040000dbc: 52800d21     	mov	w1, #0x69       // =105
ffffff8040000dc0: 39000131     	strb	w17, [x9]
ffffff8040000dc4: 39000121     	strb	w1, [x9]
ffffff8040000dc8: 52800da1     	mov	w1, #0x6d       // =109
ffffff8040000dcc: 39000121     	strb	w1, [x9]
ffffff8040000dd0: 52800ce1     	mov	w1, #0x67       // =103
ffffff8040000dd4: 39000130     	strb	w16, [x9]
ffffff8040000dd8: 39000121     	strb	w1, [x9]
ffffff8040000ddc: 52800ca1     	mov	w1, #0x65       // =101
ffffff8040000de0: 39000121     	strb	w1, [x9]
ffffff8040000de4: 39000122     	strb	w2, [x9]
ffffff8040000de8: 52800dc2     	mov	w2, #0x6e       // =110
ffffff8040000dec: 39000121     	strb	w1, [x9]
ffffff8040000df0: 39000122     	strb	w2, [x9]
ffffff8040000df4: 52800c82     	mov	w2, #0x64       // =100
ffffff8040000df8: 39000122     	strb	w2, [x9]
ffffff8040000dfc: 52800142     	mov	w2, #0xa        // =10
ffffff8040000e00: 39000122     	strb	w2, [x9]
ffffff8040000e04: 39000126     	strb	w6, [x9]
ffffff8040000e08: 39000127     	strb	w7, [x9]
ffffff8040000e0c: 3900012a     	strb	w10, [x9]
ffffff8040000e10: d3441e8a     	ubfx	x10, x20, #4, #4
ffffff8040000e14: 3900013e     	strb	w30, [x9]
ffffff8040000e18: 3900013d     	strb	w29, [x9]
ffffff8040000e1c: 3900013c     	strb	w28, [x9]
ffffff8040000e20: 3900013b     	strb	w27, [x9]
ffffff8040000e24: 39000138     	strb	w24, [x9]
ffffff8040000e28: d370ce98     	ubfx	x24, x20, #48, #4
ffffff8040000e2c: 39000137     	strb	w23, [x9]
ffffff8040000e30: d36cbe97     	ubfx	x23, x20, #44, #4
ffffff8040000e34: 39000136     	strb	w22, [x9]
ffffff8040000e38: d368ae96     	ubfx	x22, x20, #40, #4
ffffff8040000e3c: 39000135     	strb	w21, [x9]
ffffff8040000e40: d3649e95     	ubfx	x21, x20, #36, #4
ffffff8040000e44: 39000125     	strb	w5, [x9]
ffffff8040000e48: 531c7e85     	lsr	w5, w20, #28
ffffff8040000e4c: 39000124     	strb	w4, [x9]
ffffff8040000e50: d3586e84     	ubfx	x4, x20, #24, #4
ffffff8040000e54: 39000132     	strb	w18, [x9]
ffffff8040000e58: d3545e92     	ubfx	x18, x20, #20, #4
ffffff8040000e5c: 3900012f     	strb	w15, [x9]
ffffff8040000e60: d3504e8f     	ubfx	x15, x20, #16, #4
ffffff8040000e64: 3900012e     	strb	w14, [x9]
ffffff8040000e68: d34c3e8e     	ubfx	x14, x20, #12, #4
ffffff8040000e6c: 3900012d     	strb	w13, [x9]
ffffff8040000e70: d3482e8d     	ubfx	x13, x20, #8, #4
ffffff8040000e74: 3900012c     	strb	w12, [x9]
ffffff8040000e78: 92400e8c     	and	x12, x20, #0xf
ffffff8040000e7c: d37cfe94     	lsr	x20, x20, #60
ffffff8040000e80: 39000122     	strb	w2, [x9]
ffffff8040000e84: 386c690c     	ldrb	w12, [x8, x12]
ffffff8040000e88: 386a690a     	ldrb	w10, [x8, x10]
ffffff8040000e8c: 386d690d     	ldrb	w13, [x8, x13]
ffffff8040000e90: 386e690e     	ldrb	w14, [x8, x14]
ffffff8040000e94: 386f690f     	ldrb	w15, [x8, x15]
ffffff8040000e98: 38726912     	ldrb	w18, [x8, x18]
ffffff8040000e9c: 38646904     	ldrb	w4, [x8, x4]
ffffff8040000ea0: 38656905     	ldrb	w5, [x8, x5]
ffffff8040000ea4: 38736913     	ldrb	w19, [x8, x19]
ffffff8040000ea8: 38756915     	ldrb	w21, [x8, x21]
ffffff8040000eac: 38766916     	ldrb	w22, [x8, x22]
ffffff8040000eb0: 38776917     	ldrb	w23, [x8, x23]
ffffff8040000eb4: 38786918     	ldrb	w24, [x8, x24]
ffffff8040000eb8: 38796919     	ldrb	w25, [x8, x25]
ffffff8040000ebc: 387a691a     	ldrb	w26, [x8, x26]
ffffff8040000ec0: 38746908     	ldrb	w8, [x8, x20]
ffffff8040000ec4: 39000126     	strb	w6, [x9]
ffffff8040000ec8: 39000127     	strb	w7, [x9]
ffffff8040000ecc: 39000128     	strb	w8, [x9]
ffffff8040000ed0: 52800d08     	mov	w8, #0x68       // =104
ffffff8040000ed4: 3900013a     	strb	w26, [x9]
ffffff8040000ed8: 39000139     	strb	w25, [x9]
ffffff8040000edc: 39000138     	strb	w24, [x9]
ffffff8040000ee0: 39000137     	strb	w23, [x9]
ffffff8040000ee4: 39000136     	strb	w22, [x9]
ffffff8040000ee8: 39000135     	strb	w21, [x9]
ffffff8040000eec: 39000133     	strb	w19, [x9]
ffffff8040000ef0: 39000125     	strb	w5, [x9]
ffffff8040000ef4: 39000124     	strb	w4, [x9]
ffffff8040000ef8: 39000132     	strb	w18, [x9]
ffffff8040000efc: 3900012f     	strb	w15, [x9]
ffffff8040000f00: 3900012e     	strb	w14, [x9]
ffffff8040000f04: 3900012d     	strb	w13, [x9]
ffffff8040000f08: 3900012a     	strb	w10, [x9]
ffffff8040000f0c: 3900012c     	strb	w12, [x9]
ffffff8040000f10: 39000122     	strb	w2, [x9]
ffffff8040000f14: 39000128     	strb	w8, [x9]
ffffff8040000f18: 52800ec8     	mov	w8, #0x76       // =118
ffffff8040000f1c: 39000121     	strb	w1, [x9]
ffffff8040000f20: 39000130     	strb	w16, [x9]
ffffff8040000f24: 39000120     	strb	w0, [x9]
ffffff8040000f28: 39000131     	strb	w17, [x9]
ffffff8040000f2c: 3900012b     	strb	w11, [x9]
ffffff8040000f30: 39000128     	strb	w8, [x9]
ffffff8040000f34: 52800e48     	mov	w8, #0x72       // =114
ffffff8040000f38: 39000121     	strb	w1, [x9]
ffffff8040000f3c: 39000128     	strb	w8, [x9]
ffffff8040000f40: 52800cc8     	mov	w8, #0x66       // =102
ffffff8040000f44: 39000128     	strb	w8, [x9]
ffffff8040000f48: 52800ee8     	mov	w8, #0x77       // =119
ffffff8040000f4c: 39000123     	strb	w3, [x9]
ffffff8040000f50: 3900012b     	strb	w11, [x9]
ffffff8040000f54: 39000128     	strb	w8, [x9]
ffffff8040000f58: 39000122     	strb	w2, [x9]
ffffff8040000f5c: d5033fdf     	isb
ffffff8040000f60: 17ffffff     	b	0xffffff8040000f5c <_ZN91_$LT$cohesix_root..allocator..BumpAllocator$u20$as$u20$core..alloc..global..GlobalAlloc$GT$5alloc17h68394e3a5be46895E+0x8e4>
ffffff8040000f64: 8b01016b     	add	x11, x11, x1
ffffff8040000f68: b000006c     	adrp	x12, 0xffffff804000d000 <__bss_start>
ffffff8040000f6c: 52a1200a     	mov	w10, #0x9000000 // =150994944
ffffff8040000f70: 52800c2d     	mov	w13, #0x61      // =97
ffffff8040000f74: f900018b     	str	x11, [x12]
ffffff8040000f78: 52800d8b     	mov	w11, #0x6c      // =108
ffffff8040000f7c: 3900014d     	strb	w13, [x10]
ffffff8040000f80: 5280014f     	mov	w15, #0xa       // =10
ffffff8040000f84: d3441e6c     	ubfx	x12, x19, #4, #4
ffffff8040000f88: 3900014b     	strb	w11, [x10]
ffffff8040000f8c: d3482e6d     	ubfx	x13, x19, #8, #4
ffffff8040000f90: d3608e6e     	ubfx	x14, x19, #32, #4
ffffff8040000f94: 3900014b     	strb	w11, [x10]
ffffff8040000f98: 52800deb     	mov	w11, #0x6f      // =111
ffffff8040000f9c: 3900014b     	strb	w11, [x10]
ffffff8040000fa0: 52800c6b     	mov	w11, #0x63      // =99
ffffff8040000fa4: 3900014b     	strb	w11, [x10]
ffffff8040000fa8: 5280040b     	mov	w11, #0x20      // =32
ffffff8040000fac: 3900014b     	strb	w11, [x10]
ffffff8040000fb0: 52800e0b     	mov	w11, #0x70      // =112
ffffff8040000fb4: 3900014b     	strb	w11, [x10]
ffffff8040000fb8: 52800e8b     	mov	w11, #0x74      // =116
ffffff8040000fbc: 3900014b     	strb	w11, [x10]
ffffff8040000fc0: 52800e4b     	mov	w11, #0x72      // =114
ffffff8040000fc4: 3900014b     	strb	w11, [x10]
ffffff8040000fc8: 92400e6b     	and	x11, x19, #0xf
ffffff8040000fcc: 3900014f     	strb	w15, [x10]
ffffff8040000fd0: 386b6910     	ldrb	w16, [x8, x11]
ffffff8040000fd4: d34c3e6b     	ubfx	x11, x19, #12, #4
ffffff8040000fd8: 386c6911     	ldrb	w17, [x8, x12]
ffffff8040000fdc: d3504e6c     	ubfx	x12, x19, #16, #4
ffffff8040000fe0: 386d6912     	ldrb	w18, [x8, x13]
ffffff8040000fe4: d3586e6d     	ubfx	x13, x19, #24, #4
ffffff8040000fe8: 386b6900     	ldrb	w0, [x8, x11]
ffffff8040000fec: d3545e6b     	ubfx	x11, x19, #20, #4
ffffff8040000ff0: 386e691a     	ldrb	w26, [x8, x14]
ffffff8040000ff4: 386c6901     	ldrb	w1, [x8, x12]
ffffff8040000ff8: 531c7e6c     	lsr	w12, w19, #28
ffffff8040000ffc: 386d6903     	ldrb	w3, [x8, x13]
ffffff8040001000: 386b6902     	ldrb	w2, [x8, x11]
ffffff8040001004: d3649e6b     	ubfx	x11, x19, #36, #4
ffffff8040001008: d370ce6d     	ubfx	x13, x19, #48, #4
ffffff804000100c: 386c691b     	ldrb	w27, [x8, x12]
ffffff8040001010: d368ae6c     	ubfx	x12, x19, #40, #4
ffffff8040001014: d378ee6e     	ubfx	x14, x19, #56, #4
ffffff8040001018: 386b691d     	ldrb	w29, [x8, x11]
ffffff804000101c: d36cbe6b     	ubfx	x11, x19, #44, #4
ffffff8040001020: 386d6918     	ldrb	w24, [x8, x13]
ffffff8040001024: 386c6915     	ldrb	w21, [x8, x12]
ffffff8040001028: d374de6c     	ubfx	x12, x19, #52, #4
ffffff804000102c: 386e691c     	ldrb	w28, [x8, x14]
ffffff8040001030: 386b6916     	ldrb	w22, [x8, x11]
ffffff8040001034: d37cfe6b     	lsr	x11, x19, #60
ffffff8040001038: 386c6919     	ldrb	w25, [x8, x12]
ffffff804000103c: 5280060c     	mov	w12, #0x30      // =48
ffffff8040001040: 386b6917     	ldrb	w23, [x8, x11]
ffffff8040001044: 52800f08     	mov	w8, #0x78       // =120
ffffff8040001048: 3900014c     	strb	w12, [x10]
ffffff804000104c: 39000148     	strb	w8, [x10]
ffffff8040001050: 39000157     	strb	w23, [x10]
ffffff8040001054: 3900015c     	strb	w28, [x10]
ffffff8040001058: 39000159     	strb	w25, [x10]
ffffff804000105c: 39000158     	strb	w24, [x10]
ffffff8040001060: 39000156     	strb	w22, [x10]
ffffff8040001064: 39000155     	strb	w21, [x10]
ffffff8040001068: 3900015d     	strb	w29, [x10]
ffffff804000106c: 3900015a     	strb	w26, [x10]
ffffff8040001070: 3900015b     	strb	w27, [x10]
ffffff8040001074: 29008be3     	stp	w3, w2, [sp, #0x4]
ffffff8040001078: 39000143     	strb	w3, [x10]
ffffff804000107c: 39000142     	strb	w2, [x10]
ffffff8040001080: 290183e1     	stp	w1, w0, [sp, #0xc]
ffffff8040001084: 39000141     	strb	w1, [x10]
ffffff8040001088: 39000140     	strb	w0, [x10]
ffffff804000108c: d1000520     	sub	x0, x9, #0x1
ffffff8040001090: 2902c7f2     	stp	w18, w17, [sp, #0x14]
ffffff8040001094: 39000152     	strb	w18, [x10]
ffffff8040001098: 39000151     	strb	w17, [x10]
ffffff804000109c: b9001ff0     	str	w16, [sp, #0x1c]
ffffff80400010a0: 39000150     	strb	w16, [x10]
ffffff80400010a4: 3900014f     	strb	w15, [x10]
ffffff80400010a8: 9400026d     	bl	0xffffff8040001a5c <_ZN12cohesix_root14check_heap_ptr17h93fb7f28d30052b2E>
ffffff80400010ac: aa1303e0     	mov	x0, x19
ffffff80400010b0: 9400026b     	bl	0xffffff8040001a5c <_ZN12cohesix_root14check_heap_ptr17h93fb7f28d30052b2E>
ffffff80400010b4: f150027f     	cmp	x19, #0x400, lsl #12 // =0x400000
ffffff80400010b8: 54000183     	b.lo	0xffffff80400010e8 <_ZN91_$LT$cohesix_root..allocator..BumpAllocator$u20$as$u20$core..alloc..global..GlobalAlloc$GT$5alloc17h68394e3a5be46895E+0xa70>
ffffff80400010bc: eb14027f     	cmp	x19, x20
ffffff80400010c0: 54000142     	b.hs	0xffffff80400010e8 <_ZN91_$LT$cohesix_root..allocator..BumpAllocator$u20$as$u20$core..alloc..global..GlobalAlloc$GT$5alloc17h68394e3a5be46895E+0xa70>
ffffff80400010c4: aa1303e0     	mov	x0, x19
ffffff80400010c8: a9474ff4     	ldp	x20, x19, [sp, #0x70]
ffffff80400010cc: a94657f6     	ldp	x22, x21, [sp, #0x60]
ffffff80400010d0: a9455ff8     	ldp	x24, x23, [sp, #0x50]
ffffff80400010d4: a94467fa     	ldp	x26, x25, [sp, #0x40]
ffffff80400010d8: a9436ffc     	ldp	x28, x27, [sp, #0x30]
ffffff80400010dc: a9427bfd     	ldp	x29, x30, [sp, #0x20]
ffffff80400010e0: 910203ff     	add	sp, sp, #0x80
ffffff80400010e4: d65f03c0     	ret
ffffff80400010e8: 52a12008     	mov	w8, #0x9000000  // =150994944
ffffff80400010ec: 52800a09     	mov	w9, #0x50       // =80
ffffff80400010f0: 52800a8a     	mov	w10, #0x54      // =84
ffffff80400010f4: 39000109     	strb	w9, [x8]
ffffff80400010f8: 52800a49     	mov	w9, #0x52       // =82
ffffff80400010fc: 5280040d     	mov	w13, #0x20      // =32
ffffff8040001100: 528009eb     	mov	w11, #0x4f      // =79
ffffff8040001104: 52800aac     	mov	w12, #0x55      // =85
ffffff8040001108: 3900010a     	strb	w10, [x8]
ffffff804000110c: 39000109     	strb	w9, [x8]
ffffff8040001110: 3900010d     	strb	w13, [x8]
ffffff8040001114: 3900010b     	strb	w11, [x8]
ffffff8040001118: 3900010c     	strb	w12, [x8]
ffffff804000111c: 5280014c     	mov	w12, #0xa       // =10
ffffff8040001120: 3900010a     	strb	w10, [x8]
ffffff8040001124: 528008ca     	mov	w10, #0x46      // =70
ffffff8040001128: 3900010d     	strb	w13, [x8]
ffffff804000112c: 3900010b     	strb	w11, [x8]
ffffff8040001130: 52800ecb     	mov	w11, #0x76      // =118
ffffff8040001134: 3900010a     	strb	w10, [x8]
ffffff8040001138: 3900010d     	strb	w13, [x8]
ffffff804000113c: 39000109     	strb	w9, [x8]
ffffff8040001140: 52800829     	mov	w9, #0x41       // =65
ffffff8040001144: 39000109     	strb	w9, [x8]
ffffff8040001148: 528009c9     	mov	w9, #0x4e       // =78
ffffff804000114c: 39000109     	strb	w9, [x8]
ffffff8040001150: 528008e9     	mov	w9, #0x47       // =71
ffffff8040001154: 39000109     	strb	w9, [x8]
ffffff8040001158: 528008a9     	mov	w9, #0x45       // =69
ffffff804000115c: 39000109     	strb	w9, [x8]
ffffff8040001160: 52800609     	mov	w9, #0x30       // =48
ffffff8040001164: 3900010c     	strb	w12, [x8]
ffffff8040001168: 39000109     	strb	w9, [x8]
ffffff804000116c: 52800f09     	mov	w9, #0x78       // =120
ffffff8040001170: 39000109     	strb	w9, [x8]
ffffff8040001174: 39000117     	strb	w23, [x8]
ffffff8040001178: 3900011c     	strb	w28, [x8]
ffffff804000117c: 39000119     	strb	w25, [x8]
ffffff8040001180: 39000118     	strb	w24, [x8]
ffffff8040001184: 39000116     	strb	w22, [x8]
ffffff8040001188: 39000115     	strb	w21, [x8]
ffffff804000118c: 3900011d     	strb	w29, [x8]
ffffff8040001190: 3900011a     	strb	w26, [x8]
ffffff8040001194: 3900011b     	strb	w27, [x8]
ffffff8040001198: 2940a7ea     	ldp	w10, w9, [sp, #0x4]
ffffff804000119c: 3900010a     	strb	w10, [x8]
ffffff80400011a0: 39000109     	strb	w9, [x8]
ffffff80400011a4: 2941a7ea     	ldp	w10, w9, [sp, #0xc]
ffffff80400011a8: 3900010a     	strb	w10, [x8]
ffffff80400011ac: 39000109     	strb	w9, [x8]
ffffff80400011b0: 2942a7ea     	ldp	w10, w9, [sp, #0x14]
ffffff80400011b4: 3900010a     	strb	w10, [x8]
ffffff80400011b8: 52800dca     	mov	w10, #0x6e      // =110
ffffff80400011bc: 39000109     	strb	w9, [x8]
ffffff80400011c0: b9401fe9     	ldr	w9, [sp, #0x1c]
ffffff80400011c4: 39000109     	strb	w9, [x8]
ffffff80400011c8: 52800d29     	mov	w9, #0x69       // =105
ffffff80400011cc: 3900010c     	strb	w12, [x8]
ffffff80400011d0: 39000109     	strb	w9, [x8]
ffffff80400011d4: 3900010a     	strb	w10, [x8]
ffffff80400011d8: 3900010b     	strb	w11, [x8]
ffffff80400011dc: 52800c2b     	mov	w11, #0x61      // =97
ffffff80400011e0: 3900010b     	strb	w11, [x8]
ffffff80400011e4: 52800d8b     	mov	w11, #0x6c      // =108
ffffff80400011e8: 3900010b     	strb	w11, [x8]
ffffff80400011ec: 52800c8b     	mov	w11, #0x64      // =100
ffffff80400011f0: 39000109     	strb	w9, [x8]
ffffff80400011f4: 3900010b     	strb	w11, [x8]
ffffff80400011f8: 52800e0b     	mov	w11, #0x70      // =112
ffffff80400011fc: 3900010d     	strb	w13, [x8]
ffffff8040001200: 3900010b     	strb	w11, [x8]
ffffff8040001204: 52800deb     	mov	w11, #0x6f      // =111
ffffff8040001208: 3900010b     	strb	w11, [x8]
ffffff804000120c: 39000109     	strb	w9, [x8]
ffffff8040001210: 52800e89     	mov	w9, #0x74       // =116
ffffff8040001214: 3900010a     	strb	w10, [x8]
ffffff8040001218: 39000109     	strb	w9, [x8]
ffffff804000121c: 52800ca9     	mov	w9, #0x65       // =101
ffffff8040001220: 39000109     	strb	w9, [x8]
ffffff8040001224: 52800e49     	mov	w9, #0x72       // =114
ffffff8040001228: 39000109     	strb	w9, [x8]
ffffff804000122c: 3900010c     	strb	w12, [x8]
ffffff8040001230: d5033fdf     	isb
ffffff8040001234: 17ffffff     	b	0xffffff8040001230 <_ZN91_$LT$cohesix_root..allocator..BumpAllocator$u20$as$u20$core..alloc..global..GlobalAlloc$GT$5alloc17h68394e3a5be46895E+0xbb8>
ffffff8040001238: 52a12008     	mov	w8, #0x9000000  // =150994944
ffffff804000123c: 52800c29     	mov	w9, #0x61       // =97
ffffff8040001240: 52800d8a     	mov	w10, #0x6c      // =108
ffffff8040001244: 52800deb     	mov	w11, #0x6f      // =111
ffffff8040001248: 52800c6e     	mov	w14, #0x63      // =99
ffffff804000124c: 39000109     	strb	w9, [x8]
ffffff8040001250: 3900010a     	strb	w10, [x8]
ffffff8040001254: 52800caf     	mov	w15, #0x65      // =101
ffffff8040001258: 52800150     	mov	w16, #0xa       // =10
ffffff804000125c: 3900010a     	strb	w10, [x8]
ffffff8040001260: 52800d11     	mov	w17, #0x68      // =104
ffffff8040001264: 3900010b     	strb	w11, [x8]
ffffff8040001268: 3900010e     	strb	w14, [x8]
ffffff804000126c: 5280040e     	mov	w14, #0x20      // =32
ffffff8040001270: 3900010e     	strb	w14, [x8]
ffffff8040001274: 3900010f     	strb	w15, [x8]
ffffff8040001278: 3900010c     	strb	w12, [x8]
ffffff804000127c: 52800ecc     	mov	w12, #0x76      // =118
ffffff8040001280: 3900010d     	strb	w13, [x8]
ffffff8040001284: 52800ccd     	mov	w13, #0x66      // =102
ffffff8040001288: 3900010e     	strb	w14, [x8]
ffffff804000128c: 3900010b     	strb	w11, [x8]
ffffff8040001290: 3900010c     	strb	w12, [x8]
ffffff8040001294: 3900010d     	strb	w13, [x8]
ffffff8040001298: 39000110     	strb	w16, [x8]
ffffff804000129c: 39000111     	strb	w17, [x8]
ffffff80400012a0: 3900010f     	strb	w15, [x8]
ffffff80400012a4: 39000109     	strb	w9, [x8]
ffffff80400012a8: 52800e09     	mov	w9, #0x70       // =112
ffffff80400012ac: 39000109     	strb	w9, [x8]
ffffff80400012b0: 52800e49     	mov	w9, #0x72       // =114
ffffff80400012b4: 3900010e     	strb	w14, [x8]
ffffff80400012b8: 3900010b     	strb	w11, [x8]
ffffff80400012bc: 3900010c     	strb	w12, [x8]
ffffff80400012c0: 3900010f     	strb	w15, [x8]
ffffff80400012c4: 39000109     	strb	w9, [x8]
ffffff80400012c8: 52800ee9     	mov	w9, #0x77       // =119
ffffff80400012cc: 3900010d     	strb	w13, [x8]
ffffff80400012d0: 3900010a     	strb	w10, [x8]
ffffff80400012d4: 3900010b     	strb	w11, [x8]
ffffff80400012d8: 39000109     	strb	w9, [x8]
ffffff80400012dc: 39000110     	strb	w16, [x8]
ffffff80400012e0: d5033fdf     	isb
ffffff80400012e4: 17ffffff     	b	0xffffff80400012e0 <_ZN91_$LT$cohesix_root..allocator..BumpAllocator$u20$as$u20$core..alloc..global..GlobalAlloc$GT$5alloc17h68394e3a5be46895E+0xc68>
ffffff80400012e8: 52a12008     	mov	w8, #0x9000000  // =150994944
ffffff80400012ec: 52800eca     	mov	w10, #0x76      // =118
ffffff80400012f0: 52800d0c     	mov	w12, #0x68      // =104
ffffff80400012f4: 39000104     	strb	w4, [x8]
ffffff80400012f8: 39000102     	strb	w2, [x8]
ffffff80400012fc: 39000102     	strb	w2, [x8]
ffffff8040001300: 39000103     	strb	w3, [x8]
ffffff8040001304: 39000106     	strb	w6, [x8]
ffffff8040001308: 39000105     	strb	w5, [x8]
ffffff804000130c: 39000103     	strb	w3, [x8]
ffffff8040001310: 39000112     	strb	w18, [x8]
ffffff8040001314: 39000112     	strb	w18, [x8]
ffffff8040001318: 39000105     	strb	w5, [x8]
ffffff804000131c: 39000103     	strb	w3, [x8]
ffffff8040001320: 3900010a     	strb	w10, [x8]
ffffff8040001324: 39000112     	strb	w18, [x8]
ffffff8040001328: 39000109     	strb	w9, [x8]
ffffff804000132c: 3900010c     	strb	w12, [x8]
ffffff8040001330: 52800e0c     	mov	w12, #0x70      // =112
ffffff8040001334: 3900010b     	strb	w11, [x8]
ffffff8040001338: 39000104     	strb	w4, [x8]
ffffff804000133c: 3900010c     	strb	w12, [x8]
ffffff8040001340: 39000105     	strb	w5, [x8]
ffffff8040001344: 39000103     	strb	w3, [x8]
ffffff8040001348: 3900010a     	strb	w10, [x8]
ffffff804000134c: 52800e4a     	mov	w10, #0x72      // =114
ffffff8040001350: 3900010b     	strb	w11, [x8]
ffffff8040001354: 3900010a     	strb	w10, [x8]
ffffff8040001358: 52800eea     	mov	w10, #0x77      // =119
ffffff804000135c: 39000112     	strb	w18, [x8]
ffffff8040001360: 39000102     	strb	w2, [x8]
ffffff8040001364: 39000103     	strb	w3, [x8]
ffffff8040001368: 3900010a     	strb	w10, [x8]
ffffff804000136c: 39000109     	strb	w9, [x8]
ffffff8040001370: d5033fdf     	isb
ffffff8040001374: 17ffffff     	b	0xffffff8040001370 <_ZN91_$LT$cohesix_root..allocator..BumpAllocator$u20$as$u20$core..alloc..global..GlobalAlloc$GT$5alloc17h68394e3a5be46895E+0xcf8>

ffffff8040001378 <_RNvCs9km79j5joxb_7___rustc17rust_begin_unwind>:
ffffff8040001378: 52a12008     	mov	w8, #0x9000000  // =150994944
ffffff804000137c: 52800b69     	mov	w9, #0x5b       // =91
ffffff8040001380: 39000109     	strb	w9, [x8]
ffffff8040001384: 52800e49     	mov	w9, #0x72       // =114
ffffff8040001388: 39000109     	strb	w9, [x8]
ffffff804000138c: 52800de9     	mov	w9, #0x6f       // =111
ffffff8040001390: 39000109     	strb	w9, [x8]
ffffff8040001394: 39000109     	strb	w9, [x8]
ffffff8040001398: 52800e89     	mov	w9, #0x74       // =116
ffffff804000139c: 39000109     	strb	w9, [x8]
ffffff80400013a0: 52800ba9     	mov	w9, #0x5d       // =93
ffffff80400013a4: 39000109     	strb	w9, [x8]
ffffff80400013a8: 52800409     	mov	w9, #0x20       // =32
ffffff80400013ac: 39000109     	strb	w9, [x8]
ffffff80400013b0: 52800e09     	mov	w9, #0x70       // =112
ffffff80400013b4: 39000109     	strb	w9, [x8]
ffffff80400013b8: 52800c29     	mov	w9, #0x61       // =97
ffffff80400013bc: 39000109     	strb	w9, [x8]
ffffff80400013c0: 52800dc9     	mov	w9, #0x6e       // =110
ffffff80400013c4: 39000109     	strb	w9, [x8]
ffffff80400013c8: 52800d29     	mov	w9, #0x69       // =105
ffffff80400013cc: 39000109     	strb	w9, [x8]
ffffff80400013d0: 52800c69     	mov	w9, #0x63       // =99
ffffff80400013d4: 39000109     	strb	w9, [x8]
ffffff80400013d8: 52800149     	mov	w9, #0xa        // =10
ffffff80400013dc: 39000109     	strb	w9, [x8]
ffffff80400013e0: d5033fdf     	isb
ffffff80400013e4: 17ffffff     	b	0xffffff80400013e0 <_RNvCs9km79j5joxb_7___rustc17rust_begin_unwind+0x68>

ffffff80400013e8 <rust_eh_personality>:
ffffff80400013e8: d65f03c0     	ret

ffffff80400013ec <seL4_DebugPutChar>:
ffffff80400013ec: 52a12008     	mov	w8, #0x9000000  // =150994944
ffffff80400013f0: 39000100     	strb	w0, [x8]
ffffff80400013f4: d65f03c0     	ret

ffffff80400013f8 <seL4_Send>:
ffffff80400013f8: aa0003e0     	mov	x0, x0
ffffff80400013fc: aa0103e1     	mov	x1, x1
ffffff8040001400: d2800030     	mov	x16, #0x1       // =1
ffffff8040001404: d4000001     	svc	#0
ffffff8040001408: d65f03c0     	ret

ffffff804000140c <seL4_Recv>:
ffffff804000140c: aa0003e0     	mov	x0, x0
ffffff8040001410: aa0103e1     	mov	x1, x1
ffffff8040001414: d2800110     	mov	x16, #0x8       // =8
ffffff8040001418: d4000001     	svc	#0
ffffff804000141c: d65f03c0     	ret

ffffff8040001420 <seL4_Yield>:
ffffff8040001420: d28000d0     	mov	x16, #0x6       // =6
ffffff8040001424: d4000001     	svc	#0
ffffff8040001428: d65f03c0     	ret

ffffff804000142c <coh_open>:
ffffff804000142c: b4000640     	cbz	x0, 0xffffff80400014f4 <coh_open+0xc8>
ffffff8040001430: 3940000a     	ldrb	w10, [x0]
ffffff8040001434: 3400160a     	cbz	w10, 0xffffff80400016f4 <coh_open+0x2c8>
ffffff8040001438: 91000408     	add	x8, x0, #0x1
ffffff804000143c: 92800009     	mov	x9, #-0x1       // =-1
ffffff8040001440: 3840150b     	ldrb	w11, [x8], #0x1
ffffff8040001444: 91000529     	add	x9, x9, #0x1
ffffff8040001448: 35ffffcb     	cbnz	w11, 0xffffff8040001440 <coh_open+0x14>
ffffff804000144c: f1002d3f     	cmp	x9, #0xb
ffffff8040001450: 12800028     	mov	w8, #-0x2       // =-2
ffffff8040001454: 5400054c     	b.gt	0xffffff80400014fc <coh_open+0xd0>
ffffff8040001458: f100213f     	cmp	x9, #0x8
ffffff804000145c: 54000c40     	b.eq	0xffffff80400015e4 <coh_open+0x1b8>
ffffff8040001460: f1002d3f     	cmp	x9, #0xb
ffffff8040001464: 540014c1     	b.ne	0xffffff80400016fc <coh_open+0x2d0>
ffffff8040001468: 7100bd5f     	cmp	w10, #0x2f
ffffff804000146c: 54001481     	b.ne	0xffffff80400016fc <coh_open+0x2d0>
ffffff8040001470: 39400408     	ldrb	w8, [x0, #0x1]
ffffff8040001474: 7101cd1f     	cmp	w8, #0x73
ffffff8040001478: 540013e1     	b.ne	0xffffff80400016f4 <coh_open+0x2c8>
ffffff804000147c: 39400808     	ldrb	w8, [x0, #0x2]
ffffff8040001480: 7101c91f     	cmp	w8, #0x72
ffffff8040001484: 54001381     	b.ne	0xffffff80400016f4 <coh_open+0x2c8>
ffffff8040001488: 39400c08     	ldrb	w8, [x0, #0x3]
ffffff804000148c: 7101d91f     	cmp	w8, #0x76
ffffff8040001490: 54001321     	b.ne	0xffffff80400016f4 <coh_open+0x2c8>
ffffff8040001494: 39401008     	ldrb	w8, [x0, #0x4]
ffffff8040001498: 7100bd1f     	cmp	w8, #0x2f
ffffff804000149c: 540012c1     	b.ne	0xffffff80400016f4 <coh_open+0x2c8>
ffffff80400014a0: 39401408     	ldrb	w8, [x0, #0x5]
ffffff80400014a4: 71018d1f     	cmp	w8, #0x63
ffffff80400014a8: 54001261     	b.ne	0xffffff80400016f4 <coh_open+0x2c8>
ffffff80400014ac: 39401808     	ldrb	w8, [x0, #0x6]
ffffff80400014b0: 7101bd1f     	cmp	w8, #0x6f
ffffff80400014b4: 54001201     	b.ne	0xffffff80400016f4 <coh_open+0x2c8>
ffffff80400014b8: 39401c08     	ldrb	w8, [x0, #0x7]
ffffff80400014bc: 7101a11f     	cmp	w8, #0x68
ffffff80400014c0: 540011a1     	b.ne	0xffffff80400016f4 <coh_open+0x2c8>
ffffff80400014c4: 39402008     	ldrb	w8, [x0, #0x8]
ffffff80400014c8: 7101c91f     	cmp	w8, #0x72
ffffff80400014cc: 54001141     	b.ne	0xffffff80400016f4 <coh_open+0x2c8>
ffffff80400014d0: 39402408     	ldrb	w8, [x0, #0x9]
ffffff80400014d4: 7101bd1f     	cmp	w8, #0x6f
ffffff80400014d8: 540010e1     	b.ne	0xffffff80400016f4 <coh_open+0x2c8>
ffffff80400014dc: 39402808     	ldrb	w8, [x0, #0xa]
ffffff80400014e0: 7101b11f     	cmp	w8, #0x6c
ffffff80400014e4: 54001081     	b.ne	0xffffff80400016f4 <coh_open+0x2c8>
ffffff80400014e8: 52800068     	mov	w8, #0x3        // =3
ffffff80400014ec: 52800caa     	mov	w10, #0x65      // =101
ffffff80400014f0: 14000056     	b	0xffffff8040001648 <coh_open+0x21c>
ffffff80400014f4: 128002a0     	mov	w0, #-0x16      // =-22
ffffff80400014f8: d65f03c0     	ret
ffffff80400014fc: f100313f     	cmp	x9, #0xc
ffffff8040001500: 54000ae0     	b.eq	0xffffff804000165c <coh_open+0x230>
ffffff8040001504: f100453f     	cmp	x9, #0x11
ffffff8040001508: 54000fa1     	b.ne	0xffffff80400016fc <coh_open+0x2d0>
ffffff804000150c: 7100bd5f     	cmp	w10, #0x2f
ffffff8040001510: 54000f61     	b.ne	0xffffff80400016fc <coh_open+0x2d0>
ffffff8040001514: 39400408     	ldrb	w8, [x0, #0x1]
ffffff8040001518: 7101891f     	cmp	w8, #0x62
ffffff804000151c: 54000ec1     	b.ne	0xffffff80400016f4 <coh_open+0x2c8>
ffffff8040001520: 39400808     	ldrb	w8, [x0, #0x2]
ffffff8040001524: 7101bd1f     	cmp	w8, #0x6f
ffffff8040001528: 12800028     	mov	w8, #-0x2       // =-2
ffffff804000152c: 54000e81     	b.ne	0xffffff80400016fc <coh_open+0x2d0>
ffffff8040001530: 39400c0a     	ldrb	w10, [x0, #0x3]
ffffff8040001534: 7101bd5f     	cmp	w10, #0x6f
ffffff8040001538: 54000e21     	b.ne	0xffffff80400016fc <coh_open+0x2d0>
ffffff804000153c: 39401008     	ldrb	w8, [x0, #0x4]
ffffff8040001540: 7101d11f     	cmp	w8, #0x74
ffffff8040001544: 54000d81     	b.ne	0xffffff80400016f4 <coh_open+0x2c8>
ffffff8040001548: 39401408     	ldrb	w8, [x0, #0x5]
ffffff804000154c: 7100bd1f     	cmp	w8, #0x2f
ffffff8040001550: 54000d21     	b.ne	0xffffff80400016f4 <coh_open+0x2c8>
ffffff8040001554: 39401808     	ldrb	w8, [x0, #0x6]
ffffff8040001558: 7101891f     	cmp	w8, #0x62
ffffff804000155c: 54000cc1     	b.ne	0xffffff80400016f4 <coh_open+0x2c8>
ffffff8040001560: 39401c08     	ldrb	w8, [x0, #0x7]
ffffff8040001564: 7101bd1f     	cmp	w8, #0x6f
ffffff8040001568: 12800028     	mov	w8, #-0x2       // =-2
ffffff804000156c: 54000c81     	b.ne	0xffffff80400016fc <coh_open+0x2d0>
ffffff8040001570: 3940200a     	ldrb	w10, [x0, #0x8]
ffffff8040001574: 7101bd5f     	cmp	w10, #0x6f
ffffff8040001578: 54000c21     	b.ne	0xffffff80400016fc <coh_open+0x2d0>
ffffff804000157c: 39402408     	ldrb	w8, [x0, #0x9]
ffffff8040001580: 7101d11f     	cmp	w8, #0x74
ffffff8040001584: 54000b81     	b.ne	0xffffff80400016f4 <coh_open+0x2c8>
ffffff8040001588: 39402808     	ldrb	w8, [x0, #0xa]
ffffff804000158c: 7101851f     	cmp	w8, #0x61
ffffff8040001590: 54000b21     	b.ne	0xffffff80400016f4 <coh_open+0x2c8>
ffffff8040001594: 39402c08     	ldrb	w8, [x0, #0xb]
ffffff8040001598: 7101c91f     	cmp	w8, #0x72
ffffff804000159c: 54000ac1     	b.ne	0xffffff80400016f4 <coh_open+0x2c8>
ffffff80400015a0: 39403008     	ldrb	w8, [x0, #0xc]
ffffff80400015a4: 71019d1f     	cmp	w8, #0x67
ffffff80400015a8: 54000a61     	b.ne	0xffffff80400016f4 <coh_open+0x2c8>
ffffff80400015ac: 39403408     	ldrb	w8, [x0, #0xd]
ffffff80400015b0: 7101cd1f     	cmp	w8, #0x73
ffffff80400015b4: 54000a01     	b.ne	0xffffff80400016f4 <coh_open+0x2c8>
ffffff80400015b8: 39403808     	ldrb	w8, [x0, #0xe]
ffffff80400015bc: 7100b91f     	cmp	w8, #0x2e
ffffff80400015c0: 540009a1     	b.ne	0xffffff80400016f4 <coh_open+0x2c8>
ffffff80400015c4: 39403c08     	ldrb	w8, [x0, #0xf]
ffffff80400015c8: 7101d11f     	cmp	w8, #0x74
ffffff80400015cc: 54000941     	b.ne	0xffffff80400016f4 <coh_open+0x2c8>
ffffff80400015d0: 39404008     	ldrb	w8, [x0, #0x10]
ffffff80400015d4: 7101e11f     	cmp	w8, #0x78
ffffff80400015d8: 540008e1     	b.ne	0xffffff80400016f4 <coh_open+0x2c8>
ffffff80400015dc: 52800048     	mov	w8, #0x2        // =2
ffffff80400015e0: 14000019     	b	0xffffff8040001644 <coh_open+0x218>
ffffff80400015e4: 7100bd5f     	cmp	w10, #0x2f
ffffff80400015e8: 540008a1     	b.ne	0xffffff80400016fc <coh_open+0x2d0>
ffffff80400015ec: 39400408     	ldrb	w8, [x0, #0x1]
ffffff80400015f0: 7101891f     	cmp	w8, #0x62
ffffff80400015f4: 54000801     	b.ne	0xffffff80400016f4 <coh_open+0x2c8>
ffffff80400015f8: 39400808     	ldrb	w8, [x0, #0x2]
ffffff80400015fc: 7101a51f     	cmp	w8, #0x69
ffffff8040001600: 540007a1     	b.ne	0xffffff80400016f4 <coh_open+0x2c8>
ffffff8040001604: 39400c08     	ldrb	w8, [x0, #0x3]
ffffff8040001608: 7101b91f     	cmp	w8, #0x6e
ffffff804000160c: 54000741     	b.ne	0xffffff80400016f4 <coh_open+0x2c8>
ffffff8040001610: 39401008     	ldrb	w8, [x0, #0x4]
ffffff8040001614: 7100bd1f     	cmp	w8, #0x2f
ffffff8040001618: 540006e1     	b.ne	0xffffff80400016f4 <coh_open+0x2c8>
ffffff804000161c: 39401408     	ldrb	w8, [x0, #0x5]
ffffff8040001620: 7101a51f     	cmp	w8, #0x69
ffffff8040001624: 54000681     	b.ne	0xffffff80400016f4 <coh_open+0x2c8>
ffffff8040001628: 39401808     	ldrb	w8, [x0, #0x6]
ffffff804000162c: 7101b91f     	cmp	w8, #0x6e
ffffff8040001630: 54000621     	b.ne	0xffffff80400016f4 <coh_open+0x2c8>
ffffff8040001634: 39401c08     	ldrb	w8, [x0, #0x7]
ffffff8040001638: 7101a51f     	cmp	w8, #0x69
ffffff804000163c: 540005c1     	b.ne	0xffffff80400016f4 <coh_open+0x2c8>
ffffff8040001640: 2a1f03e8     	mov	w8, wzr
ffffff8040001644: 52800e8a     	mov	w10, #0x74      // =116
ffffff8040001648: 38696809     	ldrb	w9, [x0, x9]
ffffff804000164c: 6b0a013f     	cmp	w9, w10
ffffff8040001650: 12800029     	mov	w9, #-0x2       // =-2
ffffff8040001654: 1a890108     	csel	w8, w8, w9, eq
ffffff8040001658: 14000029     	b	0xffffff80400016fc <coh_open+0x2d0>
ffffff804000165c: 7100bd5f     	cmp	w10, #0x2f
ffffff8040001660: 540004e1     	b.ne	0xffffff80400016fc <coh_open+0x2d0>
ffffff8040001664: 39400408     	ldrb	w8, [x0, #0x1]
ffffff8040001668: 7101951f     	cmp	w8, #0x65
ffffff804000166c: 54000441     	b.ne	0xffffff80400016f4 <coh_open+0x2c8>
ffffff8040001670: 39400808     	ldrb	w8, [x0, #0x2]
ffffff8040001674: 7101d11f     	cmp	w8, #0x74
ffffff8040001678: 540003e1     	b.ne	0xffffff80400016f4 <coh_open+0x2c8>
ffffff804000167c: 39400c08     	ldrb	w8, [x0, #0x3]
ffffff8040001680: 71018d1f     	cmp	w8, #0x63
ffffff8040001684: 54000381     	b.ne	0xffffff80400016f4 <coh_open+0x2c8>
ffffff8040001688: 39401008     	ldrb	w8, [x0, #0x4]
ffffff804000168c: 7100bd1f     	cmp	w8, #0x2f
ffffff8040001690: 54000321     	b.ne	0xffffff80400016f4 <coh_open+0x2c8>
ffffff8040001694: 39401408     	ldrb	w8, [x0, #0x5]
ffffff8040001698: 7101c11f     	cmp	w8, #0x70
ffffff804000169c: 540002c1     	b.ne	0xffffff80400016f4 <coh_open+0x2c8>
ffffff80400016a0: 39401808     	ldrb	w8, [x0, #0x6]
ffffff80400016a4: 7101b11f     	cmp	w8, #0x6c
ffffff80400016a8: 54000261     	b.ne	0xffffff80400016f4 <coh_open+0x2c8>
ffffff80400016ac: 39401c08     	ldrb	w8, [x0, #0x7]
ffffff80400016b0: 7101851f     	cmp	w8, #0x61
ffffff80400016b4: 54000201     	b.ne	0xffffff80400016f4 <coh_open+0x2c8>
ffffff80400016b8: 39402008     	ldrb	w8, [x0, #0x8]
ffffff80400016bc: 7101b91f     	cmp	w8, #0x6e
ffffff80400016c0: 540001a1     	b.ne	0xffffff80400016f4 <coh_open+0x2c8>
ffffff80400016c4: 39402408     	ldrb	w8, [x0, #0x9]
ffffff80400016c8: 7100e51f     	cmp	w8, #0x39
ffffff80400016cc: 54000141     	b.ne	0xffffff80400016f4 <coh_open+0x2c8>
ffffff80400016d0: 39402808     	ldrb	w8, [x0, #0xa]
ffffff80400016d4: 7100b91f     	cmp	w8, #0x2e
ffffff80400016d8: 540000e1     	b.ne	0xffffff80400016f4 <coh_open+0x2c8>
ffffff80400016dc: 39402c08     	ldrb	w8, [x0, #0xb]
ffffff80400016e0: 7101b91f     	cmp	w8, #0x6e
ffffff80400016e4: 54000081     	b.ne	0xffffff80400016f4 <coh_open+0x2c8>
ffffff80400016e8: 52800028     	mov	w8, #0x1        // =1
ffffff80400016ec: 52800e6a     	mov	w10, #0x73      // =115
ffffff80400016f0: 17ffffd6     	b	0xffffff8040001648 <coh_open+0x21c>
ffffff80400016f4: 12800020     	mov	w0, #-0x2       // =-2
ffffff80400016f8: d65f03c0     	ret
ffffff80400016fc: 2a0803e0     	mov	w0, w8
ffffff8040001700: d65f03c0     	ret

ffffff8040001704 <coh_read>:
ffffff8040001704: a9be57fe     	stp	x30, x21, [sp, #-0x20]!
ffffff8040001708: a9014ff4     	stp	x20, x19, [sp, #0x10]
ffffff804000170c: 71000c1f     	cmp	w0, #0x3
ffffff8040001710: 540000c9     	b.ls	0xffffff8040001728 <coh_read+0x24>
ffffff8040001714: 92800113     	mov	x19, #-0x9      // =-9
ffffff8040001718: aa1303e0     	mov	x0, x19
ffffff804000171c: a9414ff4     	ldp	x20, x19, [sp, #0x10]
ffffff8040001720: a8c257fe     	ldp	x30, x21, [sp], #0x20
ffffff8040001724: d65f03c0     	ret
ffffff8040001728: 52800309     	mov	w9, #0x18       // =24
ffffff804000172c: d503201f     	nop
ffffff8040001730: 1004c68a     	adr	x10, 0xffffff804000b000 <_ZN12cohesix_root3sys5FILES17h9b7646c59c1c6dadE>
ffffff8040001734: 9ba92815     	umaddl	x21, w0, w9, x10
ffffff8040001738: aa0103e8     	mov	x8, x1
ffffff804000173c: a940d2a1     	ldp	x1, x20, [x21, #0x8]
ffffff8040001740: eb140029     	subs	x9, x1, x20
ffffff8040001744: 540001e3     	b.lo	0xffffff8040001780 <coh_read+0x7c>
ffffff8040001748: eb02013f     	cmp	x9, x2
ffffff804000174c: 9a823133     	csel	x19, x9, x2, lo
ffffff8040001750: b4fffe53     	cbz	x19, 0xffffff8040001718 <coh_read+0x14>
ffffff8040001754: f94002a9     	ldr	x9, [x21]
ffffff8040001758: aa0803e0     	mov	x0, x8
ffffff804000175c: aa1303e2     	mov	x2, x19
ffffff8040001760: 8b140121     	add	x1, x9, x20
ffffff8040001764: 94000061     	bl	0xffffff80400018e8 <memcpy>
ffffff8040001768: 8b140268     	add	x8, x19, x20
ffffff804000176c: f9000aa8     	str	x8, [x21, #0x10]
ffffff8040001770: aa1303e0     	mov	x0, x19
ffffff8040001774: a9414ff4     	ldp	x20, x19, [sp, #0x10]
ffffff8040001778: a8c257fe     	ldp	x30, x21, [sp], #0x20
ffffff804000177c: d65f03c0     	ret
ffffff8040001780: aa1403e0     	mov	x0, x20
ffffff8040001784: 94001231     	bl	0xffffff8040006048 <_ZN4core5slice5index22slice_index_order_fail17h137a119cfdac7bceE>

ffffff8040001788 <coh_close>:
ffffff8040001788: 71000c1f     	cmp	w0, #0x3
ffffff804000178c: 54000069     	b.ls	0xffffff8040001798 <coh_close+0x10>
ffffff8040001790: 12800100     	mov	w0, #-0x9       // =-9
ffffff8040001794: d65f03c0     	ret
ffffff8040001798: 52800309     	mov	w9, #0x18       // =24
ffffff804000179c: d503201f     	nop
ffffff80400017a0: 1004c30a     	adr	x10, 0xffffff804000b000 <_ZN12cohesix_root3sys5FILES17h9b7646c59c1c6dadE>
ffffff80400017a4: 9ba92808     	umaddl	x8, w0, w9, x10
ffffff80400017a8: 2a1f03e0     	mov	w0, wzr
ffffff80400017ac: f900091f     	str	xzr, [x8, #0x10]
ffffff80400017b0: d65f03c0     	ret

ffffff80400017b4 <coh_write>:
ffffff80400017b4: aa0203e0     	mov	x0, x2
ffffff80400017b8: d65f03c0     	ret

ffffff80400017bc <coh_exec>:
ffffff80400017bc: b4000860     	cbz	x0, 0xffffff80400018c8 <coh_exec+0x10c>
ffffff80400017c0: 39400008     	ldrb	w8, [x0]
ffffff80400017c4: 340007e8     	cbz	w8, 0xffffff80400018c0 <coh_exec+0x104>
ffffff80400017c8: 52800028     	mov	w8, #0x1        // =1
ffffff80400017cc: 3868680a     	ldrb	w10, [x0, x8]
ffffff80400017d0: aa0803e9     	mov	x9, x8
ffffff80400017d4: 91000508     	add	x8, x8, #0x1
ffffff80400017d8: 35ffffaa     	cbnz	w10, 0xffffff80400017cc <coh_exec+0x10>
ffffff80400017dc: f100253f     	cmp	x9, #0x9
ffffff80400017e0: 54000701     	b.ne	0xffffff80400018c0 <coh_exec+0x104>
ffffff80400017e4: 39402008     	ldrb	w8, [x0, #0x8]
ffffff80400017e8: f9400009     	ldr	x9, [x0]
ffffff80400017ec: f101d11f     	cmp	x8, #0x74
ffffff80400017f0: d28c45e8     	mov	x8, #0x622f     // =25135
ffffff80400017f4: f2adcd28     	movk	x8, #0x6e69, lsl #16
ffffff80400017f8: f2cd25e8     	movk	x8, #0x692f, lsl #32
ffffff80400017fc: f2ed2dc8     	movk	x8, #0x696e, lsl #48
ffffff8040001800: fa480120     	ccmp	x9, x8, #0x0, eq
ffffff8040001804: 540005e1     	b.ne	0xffffff80400018c0 <coh_exec+0x104>
ffffff8040001808: 52a12008     	mov	w8, #0x9000000  // =150994944
ffffff804000180c: 52800869     	mov	w9, #0x43       // =67
ffffff8040001810: 528009ea     	mov	w10, #0x4f      // =79
ffffff8040001814: 39000109     	strb	w9, [x8]
ffffff8040001818: 52800909     	mov	w9, #0x48       // =72
ffffff804000181c: 52800a6b     	mov	w11, #0x53      // =83
ffffff8040001820: 3900010a     	strb	w10, [x8]
ffffff8040001824: 5280092c     	mov	w12, #0x49      // =73
ffffff8040001828: 52800aad     	mov	w13, #0x55      // =85
ffffff804000182c: 39000109     	strb	w9, [x8]
ffffff8040001830: 528008a9     	mov	w9, #0x45       // =69
ffffff8040001834: 2a1f03e0     	mov	w0, wzr
ffffff8040001838: 39000109     	strb	w9, [x8]
ffffff804000183c: 3900010b     	strb	w11, [x8]
ffffff8040001840: 3900010c     	strb	w12, [x8]
ffffff8040001844: 52800b0c     	mov	w12, #0x58      // =88
ffffff8040001848: 3900010c     	strb	w12, [x8]
ffffff804000184c: 52800bec     	mov	w12, #0x5f      // =95
ffffff8040001850: 3900010c     	strb	w12, [x8]
ffffff8040001854: 3900010d     	strb	w13, [x8]
ffffff8040001858: 3900010b     	strb	w11, [x8]
ffffff804000185c: 39000109     	strb	w9, [x8]
ffffff8040001860: 52800a49     	mov	w9, #0x52       // =82
ffffff8040001864: 39000109     	strb	w9, [x8]
ffffff8040001868: 52800989     	mov	w9, #0x4c       // =76
ffffff804000186c: 39000109     	strb	w9, [x8]
ffffff8040001870: 52800829     	mov	w9, #0x41       // =65
ffffff8040001874: 39000109     	strb	w9, [x8]
ffffff8040001878: 528009c9     	mov	w9, #0x4e       // =78
ffffff804000187c: 39000109     	strb	w9, [x8]
ffffff8040001880: 52800889     	mov	w9, #0x44       // =68
ffffff8040001884: 39000109     	strb	w9, [x8]
ffffff8040001888: 52800849     	mov	w9, #0x42       // =66
ffffff804000188c: 3900010c     	strb	w12, [x8]
ffffff8040001890: 39000109     	strb	w9, [x8]
ffffff8040001894: 52800a89     	mov	w9, #0x54       // =84
ffffff8040001898: 3900010a     	strb	w10, [x8]
ffffff804000189c: 3900010a     	strb	w10, [x8]
ffffff80400018a0: 39000109     	strb	w9, [x8]
ffffff80400018a4: 52800969     	mov	w9, #0x4b       // =75
ffffff80400018a8: 3900010c     	strb	w12, [x8]
ffffff80400018ac: 3900010a     	strb	w10, [x8]
ffffff80400018b0: 39000109     	strb	w9, [x8]
ffffff80400018b4: 52800149     	mov	w9, #0xa        // =10
ffffff80400018b8: 39000109     	strb	w9, [x8]
ffffff80400018bc: d65f03c0     	ret
ffffff80400018c0: 12800020     	mov	w0, #-0x2       // =-2
ffffff80400018c4: d65f03c0     	ret
ffffff80400018c8: 128002a0     	mov	w0, #-0x16      // =-22
ffffff80400018cc: d65f03c0     	ret

ffffff80400018d0 <coh_getenv>:
ffffff80400018d0: aa1f03e0     	mov	x0, xzr
ffffff80400018d4: d65f03c0     	ret

ffffff80400018d8 <coh_setenv>:
ffffff80400018d8: 128004a0     	mov	w0, #-0x26      // =-38
ffffff80400018dc: d65f03c0     	ret

ffffff80400018e0 <coh_bind>:
ffffff80400018e0: 2a1f03e0     	mov	w0, wzr
ffffff80400018e4: d65f03c0     	ret

ffffff80400018e8 <memcpy>:
ffffff80400018e8: 14000000     	b	0xffffff80400018e8 <memcpy>

ffffff80400018ec <memmove>:
ffffff80400018ec: 14000000     	b	0xffffff80400018ec <memmove>

ffffff80400018f0 <memset>:
ffffff80400018f0: 14000000     	b	0xffffff80400018f0 <memset>

ffffff80400018f4 <memcmp>:
ffffff80400018f4: b40000e2     	cbz	x2, 0xffffff8040001910 <memcmp+0x1c>
ffffff80400018f8: 38401408     	ldrb	w8, [x0], #0x1
ffffff80400018fc: 38401429     	ldrb	w9, [x1], #0x1
ffffff8040001900: 6b090108     	subs	w8, w8, w9
ffffff8040001904: 54000081     	b.ne	0xffffff8040001914 <memcmp+0x20>
ffffff8040001908: f1000442     	subs	x2, x2, #0x1
ffffff804000190c: 54ffff61     	b.ne	0xffffff80400018f8 <memcmp+0x4>
ffffff8040001910: 2a1f03e8     	mov	w8, wzr
ffffff8040001914: 2a0803e0     	mov	w0, w8
ffffff8040001918: d65f03c0     	ret

ffffff804000191c <strlen>:
ffffff804000191c: 39400008     	ldrb	w8, [x0]
ffffff8040001920: 34000108     	cbz	w8, 0xffffff8040001940 <strlen+0x24>
ffffff8040001924: aa1f03e9     	mov	x9, xzr
ffffff8040001928: 91000408     	add	x8, x0, #0x1
ffffff804000192c: 3869690a     	ldrb	w10, [x8, x9]
ffffff8040001930: 91000520     	add	x0, x9, #0x1
ffffff8040001934: aa0003e9     	mov	x9, x0
ffffff8040001938: 35ffffaa     	cbnz	w10, 0xffffff804000192c <strlen+0x10>
ffffff804000193c: d65f03c0     	ret
ffffff8040001940: aa1f03e0     	mov	x0, xzr
ffffff8040001944: d65f03c0     	ret

ffffff8040001948 <_ZN60_$LT$cohesix_root..CohLogger$u20$as$u20$core..fmt..Write$GT$9write_str17h7d45be367187cab7E>:
ffffff8040001948: b40000c2     	cbz	x2, 0xffffff8040001960 <_ZN60_$LT$cohesix_root..CohLogger$u20$as$u20$core..fmt..Write$GT$9write_str17h7d45be367187cab7E+0x18>
ffffff804000194c: 52a12008     	mov	w8, #0x9000000  // =150994944
ffffff8040001950: 38401429     	ldrb	w9, [x1], #0x1
ffffff8040001954: f1000442     	subs	x2, x2, #0x1
ffffff8040001958: 39000109     	strb	w9, [x8]
ffffff804000195c: 54ffffa1     	b.ne	0xffffff8040001950 <_ZN60_$LT$cohesix_root..CohLogger$u20$as$u20$core..fmt..Write$GT$9write_str17h7d45be367187cab7E+0x8>
ffffff8040001960: 52a12008     	mov	w8, #0x9000000  // =150994944
ffffff8040001964: 52800149     	mov	w9, #0xa        // =10
ffffff8040001968: 2a1f03e0     	mov	w0, wzr
ffffff804000196c: 39000109     	strb	w9, [x8]
ffffff8040001970: d65f03c0     	ret

ffffff8040001974 <boot_log_hex>:
ffffff8040001974: 92400c09     	and	x9, x0, #0xf
ffffff8040001978: d3441c0a     	ubfx	x10, x0, #4, #4
ffffff804000197c: d3482c0b     	ubfx	x11, x0, #8, #4
ffffff8040001980: d34c3c0c     	ubfx	x12, x0, #12, #4
ffffff8040001984: d3504c0d     	ubfx	x13, x0, #16, #4
ffffff8040001988: d3545c0e     	ubfx	x14, x0, #20, #4
ffffff804000198c: d3586c0f     	ubfx	x15, x0, #24, #4
ffffff8040001990: 531c7c10     	lsr	w16, w0, #28
ffffff8040001994: d3608c11     	ubfx	x17, x0, #32, #4
ffffff8040001998: d3649c12     	ubfx	x18, x0, #36, #4
ffffff804000199c: d368ac01     	ubfx	x1, x0, #40, #4
ffffff80400019a0: d36cbc02     	ubfx	x2, x0, #44, #4
ffffff80400019a4: d370cc03     	ubfx	x3, x0, #48, #4
ffffff80400019a8: d374dc04     	ubfx	x4, x0, #52, #4
ffffff80400019ac: d378ec05     	ubfx	x5, x0, #56, #4
ffffff80400019b0: d37cfc00     	lsr	x0, x0, #60
ffffff80400019b4: d503201f     	nop
ffffff80400019b8: 5003a848     	adr	x8, 0xffffff8040008ec2 <_ZN4core7unicode12unicode_data11white_space14WHITESPACE_MAP17h05932b8d89d4c975E+0x100>
ffffff80400019bc: 38696909     	ldrb	w9, [x8, x9]
ffffff80400019c0: 386a690a     	ldrb	w10, [x8, x10]
ffffff80400019c4: 386b690b     	ldrb	w11, [x8, x11]
ffffff80400019c8: 386c690c     	ldrb	w12, [x8, x12]
ffffff80400019cc: 386d690d     	ldrb	w13, [x8, x13]
ffffff80400019d0: 386e690e     	ldrb	w14, [x8, x14]
ffffff80400019d4: 386f690f     	ldrb	w15, [x8, x15]
ffffff80400019d8: 38706910     	ldrb	w16, [x8, x16]
ffffff80400019dc: 38716911     	ldrb	w17, [x8, x17]
ffffff80400019e0: 38726912     	ldrb	w18, [x8, x18]
ffffff80400019e4: 38616901     	ldrb	w1, [x8, x1]
ffffff80400019e8: 38626902     	ldrb	w2, [x8, x2]
ffffff80400019ec: 38636903     	ldrb	w3, [x8, x3]
ffffff80400019f0: 38646904     	ldrb	w4, [x8, x4]
ffffff80400019f4: 38656905     	ldrb	w5, [x8, x5]
ffffff80400019f8: 38606908     	ldrb	w8, [x8, x0]
ffffff80400019fc: 52a12006     	mov	w6, #0x9000000  // =150994944
ffffff8040001a00: 52800607     	mov	w7, #0x30       // =48
ffffff8040001a04: 52800f00     	mov	w0, #0x78       // =120
ffffff8040001a08: 390000c7     	strb	w7, [x6]
ffffff8040001a0c: 390000c0     	strb	w0, [x6]
ffffff8040001a10: 390000c8     	strb	w8, [x6]
ffffff8040001a14: 52800148     	mov	w8, #0xa        // =10
ffffff8040001a18: 390000c5     	strb	w5, [x6]
ffffff8040001a1c: 390000c4     	strb	w4, [x6]
ffffff8040001a20: 390000c3     	strb	w3, [x6]
ffffff8040001a24: 390000c2     	strb	w2, [x6]
ffffff8040001a28: 390000c1     	strb	w1, [x6]
ffffff8040001a2c: 390000d2     	strb	w18, [x6]
ffffff8040001a30: 390000d1     	strb	w17, [x6]
ffffff8040001a34: 390000d0     	strb	w16, [x6]
ffffff8040001a38: 390000cf     	strb	w15, [x6]
ffffff8040001a3c: 390000ce     	strb	w14, [x6]
ffffff8040001a40: 390000cd     	strb	w13, [x6]
ffffff8040001a44: 390000cc     	strb	w12, [x6]
ffffff8040001a48: 390000cb     	strb	w11, [x6]
ffffff8040001a4c: 390000ca     	strb	w10, [x6]
ffffff8040001a50: 390000c9     	strb	w9, [x6]
ffffff8040001a54: 390000c8     	strb	w8, [x6]
ffffff8040001a58: d65f03c0     	ret

ffffff8040001a5c <_ZN12cohesix_root14check_heap_ptr17h93fb7f28d30052b2E>:
ffffff8040001a5c: a9ba7bfd     	stp	x29, x30, [sp, #-0x60]!
ffffff8040001a60: a9016ffc     	stp	x28, x27, [sp, #0x10]
ffffff8040001a64: a90267fa     	stp	x26, x25, [sp, #0x20]
ffffff8040001a68: a9035ff8     	stp	x24, x23, [sp, #0x30]
ffffff8040001a6c: a90457f6     	stp	x22, x21, [sp, #0x40]
ffffff8040001a70: a9054ff4     	stp	x20, x19, [sp, #0x50]
ffffff8040001a74: 910003ed     	mov	x13, sp
ffffff8040001a78: 52a1200f     	mov	w15, #0x9000000 // =150994944
ffffff8040001a7c: 52800d8c     	mov	w12, #0x6c      // =108
ffffff8040001a80: 52800de9     	mov	w9, #0x6f       // =111
ffffff8040001a84: 52800ce8     	mov	w8, #0x67       // =103
ffffff8040001a88: 52800be1     	mov	w1, #0x5f       // =95
ffffff8040001a8c: 52800e6a     	mov	w10, #0x73      // =115
ffffff8040001a90: aa1d03f1     	mov	x17, x29
ffffff8040001a94: 390001ec     	strb	w12, [x15]
ffffff8040001a98: 390001e9     	strb	w9, [x15]
ffffff8040001a9c: 52800e0b     	mov	w11, #0x70      // =112
ffffff8040001aa0: d503201f     	nop
ffffff8040001aa4: 5003a0f0     	adr	x16, 0xffffff8040008ec2 <_ZN4core7unicode12unicode_data11white_space14WHITESPACE_MAP17h05932b8d89d4c975E+0x100>
ffffff8040001aa8: 390001e8     	strb	w8, [x15]
ffffff8040001aac: 92400dae     	and	x14, x13, #0xf
ffffff8040001ab0: 390001e1     	strb	w1, [x15]
ffffff8040001ab4: d3441da2     	ubfx	x2, x13, #4, #4
ffffff8040001ab8: d3482da3     	ubfx	x3, x13, #8, #4
ffffff8040001abc: 390001ea     	strb	w10, [x15]
ffffff8040001ac0: 5280014a     	mov	w10, #0xa       // =10
ffffff8040001ac4: d3504da4     	ubfx	x4, x13, #16, #4
ffffff8040001ac8: 390001eb     	strb	w11, [x15]
ffffff8040001acc: d3586da6     	ubfx	x6, x13, #24, #4
ffffff8040001ad0: 531c7da7     	lsr	w7, w13, #28
ffffff8040001ad4: 390001ea     	strb	w10, [x15]
ffffff8040001ad8: d3608db3     	ubfx	x19, x13, #32, #4
ffffff8040001adc: d368adb5     	ubfx	x21, x13, #40, #4
ffffff8040001ae0: 386e6a12     	ldrb	w18, [x16, x14]
ffffff8040001ae4: d34c3dae     	ubfx	x14, x13, #12, #4
ffffff8040001ae8: d370cdb7     	ubfx	x23, x13, #48, #4
ffffff8040001aec: d374ddb8     	ubfx	x24, x13, #52, #4
ffffff8040001af0: d378edb9     	ubfx	x25, x13, #56, #4
ffffff8040001af4: 38626a02     	ldrb	w2, [x16, x2]
ffffff8040001af8: 386e6a05     	ldrb	w5, [x16, x14]
ffffff8040001afc: d3545dae     	ubfx	x14, x13, #20, #4
ffffff8040001b00: 38636a03     	ldrb	w3, [x16, x3]
ffffff8040001b04: 38646a04     	ldrb	w4, [x16, x4]
ffffff8040001b08: 38666a06     	ldrb	w6, [x16, x6]
ffffff8040001b0c: 38676a07     	ldrb	w7, [x16, x7]
ffffff8040001b10: 386e6a14     	ldrb	w20, [x16, x14]
ffffff8040001b14: d3649dae     	ubfx	x14, x13, #36, #4
ffffff8040001b18: 38736a13     	ldrb	w19, [x16, x19]
ffffff8040001b1c: 38756a15     	ldrb	w21, [x16, x21]
ffffff8040001b20: 38776a17     	ldrb	w23, [x16, x23]
ffffff8040001b24: 38786a18     	ldrb	w24, [x16, x24]
ffffff8040001b28: 386e6a16     	ldrb	w22, [x16, x14]
ffffff8040001b2c: d36cbdae     	ubfx	x14, x13, #44, #4
ffffff8040001b30: 38796a19     	ldrb	w25, [x16, x25]
ffffff8040001b34: d374dc1c     	ubfx	x28, x0, #52, #4
ffffff8040001b38: d378ec1d     	ubfx	x29, x0, #56, #4
ffffff8040001b3c: d37cfc1e     	lsr	x30, x0, #60
ffffff8040001b40: 386e6a1a     	ldrb	w26, [x16, x14]
ffffff8040001b44: d37cfdae     	lsr	x14, x13, #60
ffffff8040001b48: 5280060d     	mov	w13, #0x30      // =48
ffffff8040001b4c: f150001f     	cmp	x0, #0x400, lsl #12 // =0x400000
ffffff8040001b50: 386e6a1b     	ldrb	w27, [x16, x14]
ffffff8040001b54: 52800f0e     	mov	w14, #0x78      // =120
ffffff8040001b58: 390001ed     	strb	w13, [x15]
ffffff8040001b5c: 390001ee     	strb	w14, [x15]
ffffff8040001b60: 390001fb     	strb	w27, [x15]
ffffff8040001b64: d370cc1b     	ubfx	x27, x0, #48, #4
ffffff8040001b68: 390001f9     	strb	w25, [x15]
ffffff8040001b6c: d374de39     	ubfx	x25, x17, #52, #4
ffffff8040001b70: 390001f8     	strb	w24, [x15]
ffffff8040001b74: d370ce38     	ubfx	x24, x17, #48, #4
ffffff8040001b78: 390001f7     	strb	w23, [x15]
ffffff8040001b7c: d36cbe37     	ubfx	x23, x17, #44, #4
ffffff8040001b80: 390001fa     	strb	w26, [x15]
ffffff8040001b84: d378ee3a     	ubfx	x26, x17, #56, #4
ffffff8040001b88: 390001f5     	strb	w21, [x15]
ffffff8040001b8c: d3649e35     	ubfx	x21, x17, #36, #4
ffffff8040001b90: 390001f6     	strb	w22, [x15]
ffffff8040001b94: d368ae36     	ubfx	x22, x17, #40, #4
ffffff8040001b98: 390001f3     	strb	w19, [x15]
ffffff8040001b9c: 531c7e33     	lsr	w19, w17, #28
ffffff8040001ba0: 390001e7     	strb	w7, [x15]
ffffff8040001ba4: d3586e27     	ubfx	x7, x17, #24, #4
ffffff8040001ba8: 390001e6     	strb	w6, [x15]
ffffff8040001bac: d3545e26     	ubfx	x6, x17, #20, #4
ffffff8040001bb0: 390001f4     	strb	w20, [x15]
ffffff8040001bb4: d3608e34     	ubfx	x20, x17, #32, #4
ffffff8040001bb8: 390001e4     	strb	w4, [x15]
ffffff8040001bbc: d34c3e24     	ubfx	x4, x17, #12, #4
ffffff8040001bc0: 390001e5     	strb	w5, [x15]
ffffff8040001bc4: d3504e25     	ubfx	x5, x17, #16, #4
ffffff8040001bc8: 390001e3     	strb	w3, [x15]
ffffff8040001bcc: d3482e23     	ubfx	x3, x17, #8, #4
ffffff8040001bd0: 390001e2     	strb	w2, [x15]
ffffff8040001bd4: 92400e22     	and	x2, x17, #0xf
ffffff8040001bd8: 390001f2     	strb	w18, [x15]
ffffff8040001bdc: d3441e32     	ubfx	x18, x17, #4, #4
ffffff8040001be0: d37cfe31     	lsr	x17, x17, #60
ffffff8040001be4: 390001ea     	strb	w10, [x15]
ffffff8040001be8: 390001ec     	strb	w12, [x15]
ffffff8040001bec: 390001e9     	strb	w9, [x15]
ffffff8040001bf0: 390001e8     	strb	w8, [x15]
ffffff8040001bf4: 52800cc8     	mov	w8, #0x66       // =102
ffffff8040001bf8: 390001e1     	strb	w1, [x15]
ffffff8040001bfc: 390001e8     	strb	w8, [x15]
ffffff8040001c00: 52800d08     	mov	w8, #0x68       // =104
ffffff8040001c04: 390001eb     	strb	w11, [x15]
ffffff8040001c08: 390001ea     	strb	w10, [x15]
ffffff8040001c0c: 38726a12     	ldrb	w18, [x16, x18]
ffffff8040001c10: 38636a03     	ldrb	w3, [x16, x3]
ffffff8040001c14: 38646a04     	ldrb	w4, [x16, x4]
ffffff8040001c18: 38656a05     	ldrb	w5, [x16, x5]
ffffff8040001c1c: 38666a06     	ldrb	w6, [x16, x6]
ffffff8040001c20: 38676a07     	ldrb	w7, [x16, x7]
ffffff8040001c24: 38736a13     	ldrb	w19, [x16, x19]
ffffff8040001c28: 38746a14     	ldrb	w20, [x16, x20]
ffffff8040001c2c: 38756a15     	ldrb	w21, [x16, x21]
ffffff8040001c30: 38766a16     	ldrb	w22, [x16, x22]
ffffff8040001c34: 38776a17     	ldrb	w23, [x16, x23]
ffffff8040001c38: 38786a18     	ldrb	w24, [x16, x24]
ffffff8040001c3c: 38796a19     	ldrb	w25, [x16, x25]
ffffff8040001c40: 387a6a1a     	ldrb	w26, [x16, x26]
ffffff8040001c44: 38716a11     	ldrb	w17, [x16, x17]
ffffff8040001c48: 38626a02     	ldrb	w2, [x16, x2]
ffffff8040001c4c: 390001ed     	strb	w13, [x15]
ffffff8040001c50: 390001ee     	strb	w14, [x15]
ffffff8040001c54: 390001f1     	strb	w17, [x15]
ffffff8040001c58: 52800cb1     	mov	w17, #0x65      // =101
ffffff8040001c5c: 390001fa     	strb	w26, [x15]
ffffff8040001c60: d36cbc1a     	ubfx	x26, x0, #44, #4
ffffff8040001c64: 390001f9     	strb	w25, [x15]
ffffff8040001c68: d368ac19     	ubfx	x25, x0, #40, #4
ffffff8040001c6c: 390001f8     	strb	w24, [x15]
ffffff8040001c70: d3649c18     	ubfx	x24, x0, #36, #4
ffffff8040001c74: 390001f7     	strb	w23, [x15]
ffffff8040001c78: d3608c17     	ubfx	x23, x0, #32, #4
ffffff8040001c7c: 390001f6     	strb	w22, [x15]
ffffff8040001c80: 531c7c16     	lsr	w22, w0, #28
ffffff8040001c84: 390001f5     	strb	w21, [x15]
ffffff8040001c88: d3586c15     	ubfx	x21, x0, #24, #4
ffffff8040001c8c: 390001f4     	strb	w20, [x15]
ffffff8040001c90: d3545c14     	ubfx	x20, x0, #20, #4
ffffff8040001c94: 390001f3     	strb	w19, [x15]
ffffff8040001c98: d3504c13     	ubfx	x19, x0, #16, #4
ffffff8040001c9c: 390001e7     	strb	w7, [x15]
ffffff8040001ca0: d34c3c07     	ubfx	x7, x0, #12, #4
ffffff8040001ca4: 390001e6     	strb	w6, [x15]
ffffff8040001ca8: d3482c06     	ubfx	x6, x0, #8, #4
ffffff8040001cac: 390001e5     	strb	w5, [x15]
ffffff8040001cb0: d3441c05     	ubfx	x5, x0, #4, #4
ffffff8040001cb4: 390001e4     	strb	w4, [x15]
ffffff8040001cb8: 92400c04     	and	x4, x0, #0xf
ffffff8040001cbc: 390001e3     	strb	w3, [x15]
ffffff8040001cc0: 390001f2     	strb	w18, [x15]
ffffff8040001cc4: 52800c72     	mov	w18, #0x63      // =99
ffffff8040001cc8: 390001e2     	strb	w2, [x15]
ffffff8040001ccc: 390001ea     	strb	w10, [x15]
ffffff8040001cd0: 390001f2     	strb	w18, [x15]
ffffff8040001cd4: 390001e8     	strb	w8, [x15]
ffffff8040001cd8: 390001f1     	strb	w17, [x15]
ffffff8040001cdc: 390001f2     	strb	w18, [x15]
ffffff8040001ce0: 52800d72     	mov	w18, #0x6b      // =107
ffffff8040001ce4: 390001f2     	strb	w18, [x15]
ffffff8040001ce8: 390001e1     	strb	w1, [x15]
ffffff8040001cec: 390001e8     	strb	w8, [x15]
ffffff8040001cf0: 52800c28     	mov	w8, #0x61       // =97
ffffff8040001cf4: 390001f1     	strb	w17, [x15]
ffffff8040001cf8: 390001e8     	strb	w8, [x15]
ffffff8040001cfc: 52800e88     	mov	w8, #0x74       // =116
ffffff8040001d00: 390001eb     	strb	w11, [x15]
ffffff8040001d04: 390001e1     	strb	w1, [x15]
ffffff8040001d08: 390001eb     	strb	w11, [x15]
ffffff8040001d0c: 390001e8     	strb	w8, [x15]
ffffff8040001d10: 52800e48     	mov	w8, #0x72       // =114
ffffff8040001d14: 390001e8     	strb	w8, [x15]
ffffff8040001d18: 390001ea     	strb	w10, [x15]
ffffff8040001d1c: 38646a04     	ldrb	w4, [x16, x4]
ffffff8040001d20: 38656a05     	ldrb	w5, [x16, x5]
ffffff8040001d24: 38666a06     	ldrb	w6, [x16, x6]
ffffff8040001d28: 38676a07     	ldrb	w7, [x16, x7]
ffffff8040001d2c: 38736a13     	ldrb	w19, [x16, x19]
ffffff8040001d30: 38746a14     	ldrb	w20, [x16, x20]
ffffff8040001d34: 38756a15     	ldrb	w21, [x16, x21]
ffffff8040001d38: 38766a16     	ldrb	w22, [x16, x22]
ffffff8040001d3c: 38776a17     	ldrb	w23, [x16, x23]
ffffff8040001d40: 38786a18     	ldrb	w24, [x16, x24]
ffffff8040001d44: 38796a19     	ldrb	w25, [x16, x25]
ffffff8040001d48: 387a6a1a     	ldrb	w26, [x16, x26]
ffffff8040001d4c: 387b6a1b     	ldrb	w27, [x16, x27]
ffffff8040001d50: 387c6a1c     	ldrb	w28, [x16, x28]
ffffff8040001d54: 387d6a1d     	ldrb	w29, [x16, x29]
ffffff8040001d58: 387e6a10     	ldrb	w16, [x16, x30]
ffffff8040001d5c: 390001ed     	strb	w13, [x15]
ffffff8040001d60: 390001ee     	strb	w14, [x15]
ffffff8040001d64: 390001f0     	strb	w16, [x15]
ffffff8040001d68: 390001fd     	strb	w29, [x15]
ffffff8040001d6c: 390001fc     	strb	w28, [x15]
ffffff8040001d70: 390001fb     	strb	w27, [x15]
ffffff8040001d74: 390001fa     	strb	w26, [x15]
ffffff8040001d78: 390001f9     	strb	w25, [x15]
ffffff8040001d7c: 390001f8     	strb	w24, [x15]
ffffff8040001d80: 390001f7     	strb	w23, [x15]
ffffff8040001d84: 390001f6     	strb	w22, [x15]
ffffff8040001d88: 390001f5     	strb	w21, [x15]
ffffff8040001d8c: 390001f4     	strb	w20, [x15]
ffffff8040001d90: 390001f3     	strb	w19, [x15]
ffffff8040001d94: 390001e7     	strb	w7, [x15]
ffffff8040001d98: 390001e6     	strb	w6, [x15]
ffffff8040001d9c: 390001e5     	strb	w5, [x15]
ffffff8040001da0: 390001e4     	strb	w4, [x15]
ffffff8040001da4: 390001ea     	strb	w10, [x15]
ffffff8040001da8: 54000283     	b.lo	0xffffff8040001df8 <_ZN12cohesix_root14check_heap_ptr17h93fb7f28d30052b2E+0x39c>
ffffff8040001dac: d503201f     	nop
ffffff8040001db0: 104f128f     	adr	x15, 0xffffff80400a0000 <__stack_end>
ffffff8040001db4: eb0f001f     	cmp	x0, x15
ffffff8040001db8: 54000202     	b.hs	0xffffff8040001df8 <_ZN12cohesix_root14check_heap_ptr17h93fb7f28d30052b2E+0x39c>
ffffff8040001dbc: d503201f     	nop
ffffff8040001dc0: 1006920f     	adr	x15, 0xffffff804000f000 <__heap_start>
ffffff8040001dc4: eb0f001f     	cmp	x0, x15
ffffff8040001dc8: 54000183     	b.lo	0xffffff8040001df8 <_ZN12cohesix_root14check_heap_ptr17h93fb7f28d30052b2E+0x39c>
ffffff8040001dcc: d503201f     	nop
ffffff8040001dd0: 1046918f     	adr	x15, 0xffffff804008f000 <__heap_end>
ffffff8040001dd4: eb0f001f     	cmp	x0, x15
ffffff8040001dd8: 54000102     	b.hs	0xffffff8040001df8 <_ZN12cohesix_root14check_heap_ptr17h93fb7f28d30052b2E+0x39c>
ffffff8040001ddc: a9454ff4     	ldp	x20, x19, [sp, #0x50]
ffffff8040001de0: a94457f6     	ldp	x22, x21, [sp, #0x40]
ffffff8040001de4: a9435ff8     	ldp	x24, x23, [sp, #0x30]
ffffff8040001de8: a94267fa     	ldp	x26, x25, [sp, #0x20]
ffffff8040001dec: a9416ffc     	ldp	x28, x27, [sp, #0x10]
ffffff8040001df0: a8c67bfd     	ldp	x29, x30, [sp], #0x60
ffffff8040001df4: d65f03c0     	ret
ffffff8040001df8: 52a1200f     	mov	w15, #0x9000000 // =150994944
ffffff8040001dfc: 52800900     	mov	w0, #0x48       // =72
ffffff8040001e00: 528008be     	mov	w30, #0x45      // =69
ffffff8040001e04: 390001e0     	strb	w0, [x15]
ffffff8040001e08: 5280082c     	mov	w12, #0x41      // =65
ffffff8040001e0c: 52800a08     	mov	w8, #0x50       // =80
ffffff8040001e10: 52800400     	mov	w0, #0x20       // =32
ffffff8040001e14: 390001fe     	strb	w30, [x15]
ffffff8040001e18: 52800929     	mov	w9, #0x49       // =73
ffffff8040001e1c: 390001ec     	strb	w12, [x15]
ffffff8040001e20: 52800a92     	mov	w18, #0x54      // =84
ffffff8040001e24: 52800a41     	mov	w1, #0x52       // =82
ffffff8040001e28: 390001e8     	strb	w8, [x15]
ffffff8040001e2c: 52800aa2     	mov	w2, #0x55       // =85
ffffff8040001e30: 52800f0b     	mov	w11, #0x78      // =120
ffffff8040001e34: 390001e0     	strb	w0, [x15]
ffffff8040001e38: 5280060e     	mov	w14, #0x30      // =48
ffffff8040001e3c: 52800e03     	mov	w3, #0x70       // =112
ffffff8040001e40: 390001e8     	strb	w8, [x15]
ffffff8040001e44: 528009e8     	mov	w8, #0x4f       // =79
ffffff8040001e48: 52800ded     	mov	w13, #0x6f      // =111
ffffff8040001e4c: 390001e8     	strb	w8, [x15]
ffffff8040001e50: 390001e9     	strb	w9, [x15]
ffffff8040001e54: 528009c9     	mov	w9, #0x4e       // =78
ffffff8040001e58: 390001e9     	strb	w9, [x15]
ffffff8040001e5c: 390001f2     	strb	w18, [x15]
ffffff8040001e60: 390001fe     	strb	w30, [x15]
ffffff8040001e64: 390001e1     	strb	w1, [x15]
ffffff8040001e68: 390001e0     	strb	w0, [x15]
ffffff8040001e6c: 390001e8     	strb	w8, [x15]
ffffff8040001e70: 390001e2     	strb	w2, [x15]
ffffff8040001e74: 390001f2     	strb	w18, [x15]
ffffff8040001e78: 390001e0     	strb	w0, [x15]
ffffff8040001e7c: 390001e8     	strb	w8, [x15]
ffffff8040001e80: 528008c8     	mov	w8, #0x46       // =70
ffffff8040001e84: 390001e8     	strb	w8, [x15]
ffffff8040001e88: 528008e8     	mov	w8, #0x47       // =71
ffffff8040001e8c: 390001e0     	strb	w0, [x15]
ffffff8040001e90: 390001e1     	strb	w1, [x15]
ffffff8040001e94: 390001ec     	strb	w12, [x15]
ffffff8040001e98: 52800e4c     	mov	w12, #0x72      // =114
ffffff8040001e9c: 390001e9     	strb	w9, [x15]
ffffff8040001ea0: 52800ea9     	mov	w9, #0x75       // =117
ffffff8040001ea4: 390001e8     	strb	w8, [x15]
ffffff8040001ea8: 52800d08     	mov	w8, #0x68       // =104
ffffff8040001eac: 390001fe     	strb	w30, [x15]
ffffff8040001eb0: 390001ea     	strb	w10, [x15]
ffffff8040001eb4: 390001ee     	strb	w14, [x15]
ffffff8040001eb8: 52800e8e     	mov	w14, #0x74      // =116
ffffff8040001ebc: 390001eb     	strb	w11, [x15]
ffffff8040001ec0: 52800c2b     	mov	w11, #0x61      // =97
ffffff8040001ec4: 390001f0     	strb	w16, [x15]
ffffff8040001ec8: 390001fd     	strb	w29, [x15]
ffffff8040001ecc: 390001fc     	strb	w28, [x15]
ffffff8040001ed0: 390001fb     	strb	w27, [x15]
ffffff8040001ed4: 390001fa     	strb	w26, [x15]
ffffff8040001ed8: 390001f9     	strb	w25, [x15]
ffffff8040001edc: 390001f8     	strb	w24, [x15]
ffffff8040001ee0: 390001f7     	strb	w23, [x15]
ffffff8040001ee4: 390001f6     	strb	w22, [x15]
ffffff8040001ee8: 390001f5     	strb	w21, [x15]
ffffff8040001eec: 390001f4     	strb	w20, [x15]
ffffff8040001ef0: 390001f3     	strb	w19, [x15]
ffffff8040001ef4: 390001e7     	strb	w7, [x15]
ffffff8040001ef8: 390001e6     	strb	w6, [x15]
ffffff8040001efc: 390001e5     	strb	w5, [x15]
ffffff8040001f00: 390001e4     	strb	w4, [x15]
ffffff8040001f04: 390001ea     	strb	w10, [x15]
ffffff8040001f08: 390001e8     	strb	w8, [x15]
ffffff8040001f0c: 52800d28     	mov	w8, #0x69       // =105
ffffff8040001f10: 390001f1     	strb	w17, [x15]
ffffff8040001f14: 390001eb     	strb	w11, [x15]
ffffff8040001f18: 390001e3     	strb	w3, [x15]
ffffff8040001f1c: 390001e0     	strb	w0, [x15]
ffffff8040001f20: 390001e3     	strb	w3, [x15]
ffffff8040001f24: 390001ed     	strb	w13, [x15]
ffffff8040001f28: 390001e8     	strb	w8, [x15]
ffffff8040001f2c: 52800dc8     	mov	w8, #0x6e       // =110
ffffff8040001f30: 390001e8     	strb	w8, [x15]
ffffff8040001f34: 390001ee     	strb	w14, [x15]
ffffff8040001f38: 390001f1     	strb	w17, [x15]
ffffff8040001f3c: 390001ec     	strb	w12, [x15]
ffffff8040001f40: 390001e0     	strb	w0, [x15]
ffffff8040001f44: 390001ed     	strb	w13, [x15]
ffffff8040001f48: 390001e9     	strb	w9, [x15]
ffffff8040001f4c: 52800cc9     	mov	w9, #0x66       // =102
ffffff8040001f50: 390001ee     	strb	w14, [x15]
ffffff8040001f54: 390001e0     	strb	w0, [x15]
ffffff8040001f58: 390001ed     	strb	w13, [x15]
ffffff8040001f5c: 390001e9     	strb	w9, [x15]
ffffff8040001f60: 390001e0     	strb	w0, [x15]
ffffff8040001f64: 390001ec     	strb	w12, [x15]
ffffff8040001f68: 390001eb     	strb	w11, [x15]
ffffff8040001f6c: 390001e8     	strb	w8, [x15]
ffffff8040001f70: 52800ce8     	mov	w8, #0x67       // =103
ffffff8040001f74: 390001e8     	strb	w8, [x15]
ffffff8040001f78: 390001f1     	strb	w17, [x15]
ffffff8040001f7c: 390001ea     	strb	w10, [x15]
ffffff8040001f80: d5033fdf     	isb
ffffff8040001f84: 17ffffff     	b	0xffffff8040001f80 <_ZN12cohesix_root14check_heap_ptr17h93fb7f28d30052b2E+0x524>

ffffff8040001f88 <_ZN12cohesix_root7env_var17hc246d34d209395d7E>:
ffffff8040001f88: d10103ff     	sub	sp, sp, #0x40
ffffff8040001f8c: a90257fe     	stp	x30, x21, [sp, #0x20]
ffffff8040001f90: a9034ff4     	stp	x20, x19, [sp, #0x30]
ffffff8040001f94: aa0003f4     	mov	x20, x0
ffffff8040001f98: 52800020     	mov	w0, #0x1        // =1
ffffff8040001f9c: aa0103f3     	mov	x19, x1
ffffff8040001fa0: 97fff9b6     	bl	0xffffff8040000678 <_ZN91_$LT$cohesix_root..allocator..BumpAllocator$u20$as$u20$core..alloc..global..GlobalAlloc$GT$5alloc17h68394e3a5be46895E>
ffffff8040001fa4: b4000780     	cbz	x0, 0xffffff8040002094 <_ZN12cohesix_root7env_var17hc246d34d209395d7E+0x10c>
ffffff8040001fa8: aa1403e1     	mov	x1, x20
ffffff8040001fac: aa1303e2     	mov	x2, x19
ffffff8040001fb0: aa0003f5     	mov	x21, x0
ffffff8040001fb4: 97fffe4d     	bl	0xffffff80400018e8 <memcpy>
ffffff8040001fb8: 910023e0     	add	x0, sp, #0x8
ffffff8040001fbc: a900d7f3     	stp	x19, x21, [sp, #0x8]
ffffff8040001fc0: f9000ff3     	str	x19, [sp, #0x18]
ffffff8040001fc4: 94000cb6     	bl	0xffffff804000529c <_ZN5alloc7raw_vec19RawVec$LT$T$C$A$GT$8grow_one17h2608cff5e48c703fE>
ffffff8040001fc8: f9400be8     	ldr	x8, [sp, #0x10]
ffffff8040001fcc: 52a12009     	mov	w9, #0x9000000  // =150994944
ffffff8040001fd0: 52800cea     	mov	w10, #0x67      // =103
ffffff8040001fd4: 52800dcb     	mov	w11, #0x6e      // =110
ffffff8040001fd8: 52800ecc     	mov	w12, #0x76      // =118
ffffff8040001fdc: 3833691f     	strb	wzr, [x8, x19]
ffffff8040001fe0: 52800ca8     	mov	w8, #0x65       // =101
ffffff8040001fe4: 3900012a     	strb	w10, [x9]
ffffff8040001fe8: 52800e8a     	mov	w10, #0x74      // =116
ffffff8040001fec: 39000128     	strb	w8, [x9]
ffffff8040001ff0: 3900012a     	strb	w10, [x9]
ffffff8040001ff4: 39000128     	strb	w8, [x9]
ffffff8040001ff8: 3900012b     	strb	w11, [x9]
ffffff8040001ffc: 3900012c     	strb	w12, [x9]
ffffff8040002000: 5280040c     	mov	w12, #0x20      // =32
ffffff8040002004: 3900012c     	strb	w12, [x9]
ffffff8040002008: 52800e4c     	mov	w12, #0x72      // =114
ffffff804000200c: 3900012c     	strb	w12, [x9]
ffffff8040002010: 39000128     	strb	w8, [x9]
ffffff8040002014: 52800ea8     	mov	w8, #0x75       // =117
ffffff8040002018: 3900012a     	strb	w10, [x9]
ffffff804000201c: 5280060a     	mov	w10, #0x30      // =48
ffffff8040002020: 39000128     	strb	w8, [x9]
ffffff8040002024: 52800148     	mov	w8, #0xa        // =10
ffffff8040002028: 3900012c     	strb	w12, [x9]
ffffff804000202c: 3900012b     	strb	w11, [x9]
ffffff8040002030: 52800f0b     	mov	w11, #0x78      // =120
ffffff8040002034: 39000128     	strb	w8, [x9]
ffffff8040002038: 3900012a     	strb	w10, [x9]
ffffff804000203c: 3900012b     	strb	w11, [x9]
ffffff8040002040: 3900012a     	strb	w10, [x9]
ffffff8040002044: 3900012a     	strb	w10, [x9]
ffffff8040002048: 3900012a     	strb	w10, [x9]
ffffff804000204c: 3900012a     	strb	w10, [x9]
ffffff8040002050: 3900012a     	strb	w10, [x9]
ffffff8040002054: 3900012a     	strb	w10, [x9]
ffffff8040002058: 3900012a     	strb	w10, [x9]
ffffff804000205c: 3900012a     	strb	w10, [x9]
ffffff8040002060: 3900012a     	strb	w10, [x9]
ffffff8040002064: 3900012a     	strb	w10, [x9]
ffffff8040002068: 3900012a     	strb	w10, [x9]
ffffff804000206c: 3900012a     	strb	w10, [x9]
ffffff8040002070: 3900012a     	strb	w10, [x9]
ffffff8040002074: 3900012a     	strb	w10, [x9]
ffffff8040002078: 3900012a     	strb	w10, [x9]
ffffff804000207c: 3900012a     	strb	w10, [x9]
ffffff8040002080: 39000128     	strb	w8, [x9]
ffffff8040002084: a9434ff4     	ldp	x20, x19, [sp, #0x30]
ffffff8040002088: a94257fe     	ldp	x30, x21, [sp, #0x20]
ffffff804000208c: 910103ff     	add	sp, sp, #0x40
ffffff8040002090: d65f03c0     	ret
ffffff8040002094: 94000c60     	bl	0xffffff8040005214 <_ZN12cohesix_root10lang_items11alloc_error17h7e7cf23b18851024E>

ffffff8040002098 <_ZN12cohesix_root9exec_init17hcbe852ae1af70748E>:
ffffff8040002098: 52a12008     	mov	w8, #0x9000000  // =150994944
ffffff804000209c: 52800869     	mov	w9, #0x43       // =67
ffffff80400020a0: 528009ea     	mov	w10, #0x4f      // =79
ffffff80400020a4: 39000109     	strb	w9, [x8]
ffffff80400020a8: 52800909     	mov	w9, #0x48       // =72
ffffff80400020ac: 52800a6b     	mov	w11, #0x53      // =83
ffffff80400020b0: 3900010a     	strb	w10, [x8]
ffffff80400020b4: 5280092c     	mov	w12, #0x49      // =73
ffffff80400020b8: 52800aad     	mov	w13, #0x55      // =85
ffffff80400020bc: 39000109     	strb	w9, [x8]
ffffff80400020c0: 528008a9     	mov	w9, #0x45       // =69
ffffff80400020c4: 5280074e     	mov	w14, #0x3a      // =58
ffffff80400020c8: 39000109     	strb	w9, [x8]
ffffff80400020cc: 5280040f     	mov	w15, #0x20      // =32
ffffff80400020d0: 52800cb0     	mov	w16, #0x65      // =101
ffffff80400020d4: 3900010b     	strb	w11, [x8]
ffffff80400020d8: 52800f11     	mov	w17, #0x78      // =120
ffffff80400020dc: 52800c72     	mov	w18, #0x63      // =99
ffffff80400020e0: 3900010c     	strb	w12, [x8]
ffffff80400020e4: 52800b0c     	mov	w12, #0x58      // =88
ffffff80400020e8: 52800d20     	mov	w0, #0x69       // =105
ffffff80400020ec: 3900010c     	strb	w12, [x8]
ffffff80400020f0: 52800bec     	mov	w12, #0x5f      // =95
ffffff80400020f4: 52800c81     	mov	w1, #0x64       // =100
ffffff80400020f8: 3900010c     	strb	w12, [x8]
ffffff80400020fc: 3900010d     	strb	w13, [x8]
ffffff8040002100: 52800d8d     	mov	w13, #0x6c      // =108
ffffff8040002104: 3900010b     	strb	w11, [x8]
ffffff8040002108: 5280096b     	mov	w11, #0x4b      // =75
ffffff804000210c: 39000109     	strb	w9, [x8]
ffffff8040002110: 52800a49     	mov	w9, #0x52       // =82
ffffff8040002114: 39000109     	strb	w9, [x8]
ffffff8040002118: 52800989     	mov	w9, #0x4c       // =76
ffffff804000211c: 39000109     	strb	w9, [x8]
ffffff8040002120: 52800829     	mov	w9, #0x41       // =65
ffffff8040002124: 39000109     	strb	w9, [x8]
ffffff8040002128: 528009c9     	mov	w9, #0x4e       // =78
ffffff804000212c: 39000109     	strb	w9, [x8]
ffffff8040002130: 52800889     	mov	w9, #0x44       // =68
ffffff8040002134: 39000109     	strb	w9, [x8]
ffffff8040002138: 52800849     	mov	w9, #0x42       // =66
ffffff804000213c: 3900010c     	strb	w12, [x8]
ffffff8040002140: 39000109     	strb	w9, [x8]
ffffff8040002144: 52800a89     	mov	w9, #0x54       // =84
ffffff8040002148: 3900010a     	strb	w10, [x8]
ffffff804000214c: 3900010a     	strb	w10, [x8]
ffffff8040002150: 39000109     	strb	w9, [x8]
ffffff8040002154: 52800149     	mov	w9, #0xa        // =10
ffffff8040002158: 3900010c     	strb	w12, [x8]
ffffff804000215c: 52800e8c     	mov	w12, #0x74      // =116
ffffff8040002160: 3900010a     	strb	w10, [x8]
ffffff8040002164: 52800cca     	mov	w10, #0x66      // =102
ffffff8040002168: 3900010b     	strb	w11, [x8]
ffffff804000216c: 52800c2b     	mov	w11, #0x61      // =97
ffffff8040002170: 39000109     	strb	w9, [x8]
ffffff8040002174: 3900010a     	strb	w10, [x8]
ffffff8040002178: 3900010b     	strb	w11, [x8]
ffffff804000217c: 3900010c     	strb	w12, [x8]
ffffff8040002180: 3900010b     	strb	w11, [x8]
ffffff8040002184: 3900010d     	strb	w13, [x8]
ffffff8040002188: 3900010e     	strb	w14, [x8]
ffffff804000218c: 3900010f     	strb	w15, [x8]
ffffff8040002190: 39000110     	strb	w16, [x8]
ffffff8040002194: 39000111     	strb	w17, [x8]
ffffff8040002198: 39000110     	strb	w16, [x8]
ffffff804000219c: 39000112     	strb	w18, [x8]
ffffff80400021a0: 3900010f     	strb	w15, [x8]
ffffff80400021a4: 3900010a     	strb	w10, [x8]
ffffff80400021a8: 3900010b     	strb	w11, [x8]
ffffff80400021ac: 39000100     	strb	w0, [x8]
ffffff80400021b0: 3900010d     	strb	w13, [x8]
ffffff80400021b4: 39000110     	strb	w16, [x8]
ffffff80400021b8: 39000101     	strb	w1, [x8]
ffffff80400021bc: 39000109     	strb	w9, [x8]
ffffff80400021c0: d5033fdf     	isb
ffffff80400021c4: 17ffffec     	b	0xffffff8040002174 <_ZN12cohesix_root9exec_init17hcbe852ae1af70748E+0xdc>

ffffff80400021c8 <main>:
ffffff80400021c8: fc190fe8     	str	d8, [sp, #-0x70]!
ffffff80400021cc: a9017bfd     	stp	x29, x30, [sp, #0x10]
ffffff80400021d0: a9026ffc     	stp	x28, x27, [sp, #0x20]
ffffff80400021d4: a90367fa     	stp	x26, x25, [sp, #0x30]
ffffff80400021d8: a9045ff8     	stp	x24, x23, [sp, #0x40]
ffffff80400021dc: a90557f6     	stp	x22, x21, [sp, #0x50]
ffffff80400021e0: a9064ff4     	stp	x20, x19, [sp, #0x60]
ffffff80400021e4: d10743ff     	sub	sp, sp, #0x1d0
ffffff80400021e8: 52a12008     	mov	w8, #0x9000000  // =150994944
ffffff80400021ec: 52800a49     	mov	w9, #0x52       // =82
ffffff80400021f0: 528009ea     	mov	w10, #0x4f      // =79
ffffff80400021f4: 52800a8b     	mov	w11, #0x54      // =84
ffffff80400021f8: 39000109     	strb	w9, [x8]
ffffff80400021fc: 52800acc     	mov	w12, #0x56      // =86
ffffff8040002200: 3900010a     	strb	w10, [x8]
ffffff8040002204: d503201f     	nop
ffffff8040002208: 10057117     	adr	x23, 0xffffff804000d028 <__bss_end>
ffffff804000220c: 3900010a     	strb	w10, [x8]
ffffff8040002210: d503201f     	nop
ffffff8040002214: 10056f6e     	adr	x14, 0xffffff804000d000 <__bss_start>
ffffff8040002218: 3900010b     	strb	w11, [x8]
ffffff804000221c: 52800a6b     	mov	w11, #0x53      // =83
ffffff8040002220: eb1701df     	cmp	x14, x23
ffffff8040002224: 3900010b     	strb	w11, [x8]
ffffff8040002228: 528008ab     	mov	w11, #0x45      // =69
ffffff804000222c: 3900010b     	strb	w11, [x8]
ffffff8040002230: 39000109     	strb	w9, [x8]
ffffff8040002234: 3900010c     	strb	w12, [x8]
ffffff8040002238: 3900010b     	strb	w11, [x8]
ffffff804000223c: 39000109     	strb	w9, [x8]
ffffff8040002240: 52800409     	mov	w9, #0x20       // =32
ffffff8040002244: 39000109     	strb	w9, [x8]
ffffff8040002248: 528009c9     	mov	w9, #0x4e       // =78
ffffff804000224c: 3900010a     	strb	w10, [x8]
ffffff8040002250: 5280098a     	mov	w10, #0x4c      // =76
ffffff8040002254: 39000109     	strb	w9, [x8]
ffffff8040002258: 3900010a     	strb	w10, [x8]
ffffff804000225c: 5280092a     	mov	w10, #0x49      // =73
ffffff8040002260: 3900010a     	strb	w10, [x8]
ffffff8040002264: 5280014a     	mov	w10, #0xa       // =10
ffffff8040002268: 39000109     	strb	w9, [x8]
ffffff804000226c: 3900010b     	strb	w11, [x8]
ffffff8040002270: 3900010a     	strb	w10, [x8]
ffffff8040002274: 54000522     	b.hs	0xffffff8040002318 <main+0x150>
ffffff8040002278: d503201f     	nop
ffffff804000227c: 10056c2a     	adr	x10, 0xffffff804000d000 <__bss_start>
ffffff8040002280: aa1f03e8     	mov	x8, xzr
ffffff8040002284: aa1f03e9     	mov	x9, xzr
ffffff8040002288: aa0a03eb     	mov	x11, x10
ffffff804000228c: 3840156c     	ldrb	w12, [x11], #0x1
ffffff8040002290: f100011f     	cmp	x8, #0x0
ffffff8040002294: 1a9f17ed     	cset	w13, eq
ffffff8040002298: 7100019f     	cmp	w12, #0x0
ffffff804000229c: 1a9f07ec     	cset	w12, ne
ffffff80400022a0: 9a880508     	cinc	x8, x8, ne
ffffff80400022a4: 6a0d019f     	tst	w12, w13
ffffff80400022a8: 9a891149     	csel	x9, x10, x9, ne
ffffff80400022ac: 9100054a     	add	x10, x10, #0x1
ffffff80400022b0: eb0a02ff     	cmp	x23, x10
ffffff80400022b4: 54fffec1     	b.ne	0xffffff804000228c <main+0xc4>
ffffff80400022b8: f9005be8     	str	x8, [sp, #0xb0]
ffffff80400022bc: f9001be9     	str	x9, [sp, #0x30]
ffffff80400022c0: b4000308     	cbz	x8, 0xffffff8040002320 <main+0x158>
ffffff80400022c4: 9100c3e8     	add	x8, sp, #0x30
ffffff80400022c8: d503201f     	nop
ffffff80400022cc: 10021049     	adr	x9, 0xffffff80400064d4 <_ZN4core3fmt3num55_$LT$impl$u20$core..fmt..LowerHex$u20$for$u20$usize$GT$3fmt17h27b1b024639decafE>
ffffff80400022d0: a904a7e8     	stp	x8, x9, [sp, #0x48]
ffffff80400022d4: 9102c3e8     	add	x8, sp, #0xb0
ffffff80400022d8: d503201f     	nop
ffffff80400022dc: 10018689     	adr	x9, 0xffffff80400053ac <_ZN4core3fmt3num3imp54_$LT$impl$u20$core..fmt..Display$u20$for$u20$usize$GT$3fmt17h54cfc045c1880294E>
ffffff80400022e0: a905a7e8     	stp	x8, x9, [sp, #0x58]
ffffff80400022e4: d503201f     	nop
ffffff80400022e8: 10033908     	adr	x8, 0xffffff8040008a08 <_ZN12cohesix_root17ROOTSERVER_ONLINE17hccde821890211dbaE+0x1f0>
ffffff80400022ec: 52800049     	mov	w9, #0x2        // =2
ffffff80400022f0: a90d27e8     	stp	x8, x9, [sp, #0xd0]
ffffff80400022f4: d503201f     	nop
ffffff80400022f8: 10033988     	adr	x8, 0xffffff8040008a28 <_ZN12cohesix_root17ROOTSERVER_ONLINE17hccde821890211dbaE+0x210>
ffffff80400022fc: a90f27e8     	stp	x8, x9, [sp, #0xf0]
ffffff8040002300: 910123e8     	add	x8, sp, #0x48
ffffff8040002304: a90e27e8     	stp	x8, x9, [sp, #0xe0]
ffffff8040002308: 91077fe0     	add	x0, sp, #0x1df
ffffff804000230c: 910343e1     	add	x1, sp, #0xd0
ffffff8040002310: 97fff7ea     	bl	0xffffff80400002b8 <_ZN75_$LT$$RF$mut$u20$W$u20$as$u20$core..fmt..Write..write_fmt..SpecWriteFmt$GT$14spec_write_fmt17h0d5c0cbe8e76cb85E>
ffffff8040002314: 94000c72     	bl	0xffffff80400054dc <_ZN4core9panicking9panic_fmt17hc6333e93bd8c6355E>
ffffff8040002318: f9005bff     	str	xzr, [sp, #0xb0]
ffffff804000231c: f9001bff     	str	xzr, [sp, #0x30]
ffffff8040002320: 52a12008     	mov	w8, #0x9000000  // =150994944
ffffff8040002324: 52800c49     	mov	w9, #0x62       // =98
ffffff8040002328: 52800e6a     	mov	w10, #0x73      // =115
ffffff804000232c: 39000109     	strb	w9, [x8]
ffffff8040002330: 52800be9     	mov	w9, #0x5f       // =95
ffffff8040002334: d503201f     	nop
ffffff8040002338: 10020cf4     	adr	x20, 0xffffff80400064d4 <_ZN4core3fmt3num55_$LT$impl$u20$core..fmt..LowerHex$u20$for$u20$usize$GT$3fmt17h27b1b024639decafE>
ffffff804000233c: 3900010a     	strb	w10, [x8]
ffffff8040002340: d503201f     	nop
ffffff8040002344: 100665fa     	adr	x26, 0xffffff804000f000 <__heap_start>
ffffff8040002348: 3900010a     	strb	w10, [x8]
ffffff804000234c: 52800f4a     	mov	w10, #0x7a      // =122
ffffff8040002350: 39000109     	strb	w9, [x8]
ffffff8040002354: d503201f     	nop
ffffff8040002358: 1046655b     	adr	x27, 0xffffff804008f000 <__heap_end>
ffffff804000235c: 3900010a     	strb	w10, [x8]
ffffff8040002360: 52800caa     	mov	w10, #0x65      // =101
ffffff8040002364: d503201f     	nop
ffffff8040002368: 104ee4d8     	adr	x24, 0xffffff80400a0000 <__stack_end>
ffffff804000236c: 3900010a     	strb	w10, [x8]
ffffff8040002370: 52800e4a     	mov	w10, #0x72      // =114
ffffff8040002374: 3900010a     	strb	w10, [x8]
ffffff8040002378: 52800dea     	mov	w10, #0x6f      // =111
ffffff804000237c: 9100c3f3     	add	x19, sp, #0x30
ffffff8040002380: 3900010a     	strb	w10, [x8]
ffffff8040002384: 9102c3f5     	add	x21, sp, #0xb0
ffffff8040002388: 910343f9     	add	x25, sp, #0xd0
ffffff804000238c: 39000109     	strb	w9, [x8]
ffffff8040002390: 52800d69     	mov	w9, #0x6b       // =107
ffffff8040002394: 91077fe0     	add	x0, sp, #0x1df
ffffff8040002398: 3900010a     	strb	w10, [x8]
ffffff804000239c: 910123e1     	add	x1, sp, #0x48
ffffff80400023a0: 39000109     	strb	w9, [x8]
ffffff80400023a4: 52800149     	mov	w9, #0xa        // =10
ffffff80400023a8: 39000109     	strb	w9, [x8]
ffffff80400023ac: d503201f     	nop
ffffff80400023b0: 1046e288     	adr	x8, 0xffffff8040090000 <__stack_start>
ffffff80400023b4: a902a3ee     	stp	x14, x8, [sp, #0x28]
ffffff80400023b8: 9100a3e8     	add	x8, sp, #0x28
ffffff80400023bc: 528000c9     	mov	w9, #0x6        // =6
ffffff80400023c0: a90d53e8     	stp	x8, x20, [sp, #0xd0]
ffffff80400023c4: 910283e8     	add	x8, sp, #0xa0
ffffff80400023c8: a90e53e8     	stp	x8, x20, [sp, #0xe0]
ffffff80400023cc: 9102a3e8     	add	x8, sp, #0xa8
ffffff80400023d0: a90f53e8     	stp	x8, x20, [sp, #0xf0]
ffffff80400023d4: 910243e8     	add	x8, sp, #0x90
ffffff80400023d8: a91053e8     	stp	x8, x20, [sp, #0x100]
ffffff80400023dc: d503201f     	nop
ffffff80400023e0: 10032448     	adr	x8, 0xffffff8040008868 <_ZN12cohesix_root17ROOTSERVER_ONLINE17hccde821890211dbaE+0x50>
ffffff80400023e4: a904a7e8     	stp	x8, x9, [sp, #0x48]
ffffff80400023e8: d503201f     	nop
ffffff80400023ec: 100326e8     	adr	x8, 0xffffff80400088c8 <_ZN12cohesix_root17ROOTSERVER_ONLINE17hccde821890211dbaE+0xb0>
ffffff80400023f0: a90a6bf7     	stp	x23, x26, [sp, #0xa0]
ffffff80400023f4: f9004bfb     	str	x27, [sp, #0x90]
ffffff80400023f8: f9005bf8     	str	x24, [sp, #0xb0]
ffffff80400023fc: a91153f3     	stp	x19, x20, [sp, #0x110]
ffffff8040002400: a91253f5     	stp	x21, x20, [sp, #0x120]
ffffff8040002404: a906a7e8     	stp	x8, x9, [sp, #0x68]
ffffff8040002408: a905a7f9     	stp	x25, x9, [sp, #0x58]
ffffff804000240c: 94000e84     	bl	0xffffff8040005e1c <_ZN4core3fmt5write17h8f7b88e4069053abE>
ffffff8040002410: d503201f     	nop
ffffff8040002414: 10055f68     	adr	x8, 0xffffff804000d000 <__bss_start>
ffffff8040002418: 52800069     	mov	w9, #0x3        // =3
ffffff804000241c: f9005be8     	str	x8, [sp, #0xb0]
ffffff8040002420: 910043e8     	add	x8, sp, #0x10
ffffff8040002424: d503201f     	nop
ffffff8040002428: 10033a16     	adr	x22, 0xffffff8040008b68 <_ZN12cohesix_root17ROOTSERVER_ONLINE17hccde821890211dbaE+0x350>
ffffff804000242c: a90d53e8     	stp	x8, x20, [sp, #0xd0]
ffffff8040002430: 910063e8     	add	x8, sp, #0x18
ffffff8040002434: a90e53e8     	stp	x8, x20, [sp, #0xe0]
ffffff8040002438: d503201f     	nop
ffffff804000243c: 100345e8     	adr	x8, 0xffffff8040008cf8 <_ZN12cohesix_root17ROOTSERVER_ONLINE17hccde821890211dbaE+0x4e0>
ffffff8040002440: 91077fe0     	add	x0, sp, #0x1df
ffffff8040002444: 910123e1     	add	x1, sp, #0x48
ffffff8040002448: a9016ffa     	stp	x26, x27, [sp, #0x10]
ffffff804000244c: a90f53f5     	stp	x21, x20, [sp, #0xf0]
ffffff8040002450: a904a7e8     	stp	x8, x9, [sp, #0x48]
ffffff8040002454: a906a7f6     	stp	x22, x9, [sp, #0x68]
ffffff8040002458: a905a7f9     	stp	x25, x9, [sp, #0x58]
ffffff804000245c: 910123f9     	add	x25, sp, #0x48
ffffff8040002460: 94000e6f     	bl	0xffffff8040005e1c <_ZN4core3fmt5write17h8f7b88e4069053abE>
ffffff8040002464: eb1b035f     	cmp	x26, x27
ffffff8040002468: f9001bfa     	str	x26, [sp, #0x30]
ffffff804000246c: f9005bfb     	str	x27, [sp, #0xb0]
ffffff8040002470: 5400e9a2     	b.hs	0xffffff80400041a4 <main+0x1fdc>
ffffff8040002474: f0000048     	adrp	x8, 0xffffff804000d000 <__bss_start>
ffffff8040002478: f0000049     	adrp	x9, 0xffffff804000d000 <__bss_start>
ffffff804000247c: f000004a     	adrp	x10, 0xffffff804000d000 <__bss_start>
ffffff8040002480: f9400508     	ldr	x8, [x8, #0x8]
ffffff8040002484: f9400929     	ldr	x9, [x9, #0x10]
ffffff8040002488: f9400d4a     	ldr	x10, [x10, #0x18]
ffffff804000248c: b500e648     	cbnz	x8, 0xffffff8040004154 <main+0x1f8c>
ffffff8040002490: b500e629     	cbnz	x9, 0xffffff8040004154 <main+0x1f8c>
ffffff8040002494: b500e60a     	cbnz	x10, 0xffffff8040004154 <main+0x1f8c>
ffffff8040002498: 52a1201c     	mov	w28, #0x9000000 // =150994944
ffffff804000249c: 52800c48     	mov	w8, #0x62       // =98
ffffff80400024a0: 52800de9     	mov	w9, #0x6f       // =111
ffffff80400024a4: 52800e8a     	mov	w10, #0x74      // =116
ffffff80400024a8: 39000388     	strb	w8, [x28]
ffffff80400024ac: 52800e6b     	mov	w11, #0x73      // =115
ffffff80400024b0: 39000389     	strb	w9, [x28]
ffffff80400024b4: 52800d0c     	mov	w12, #0x68      // =104
ffffff80400024b8: 52800c2f     	mov	w15, #0x61      // =97
ffffff80400024bc: 39000389     	strb	w9, [x28]
ffffff80400024c0: 52800e10     	mov	w16, #0x70      // =112
ffffff80400024c4: 52800e6e     	mov	w14, #0x73      // =115
ffffff80400024c8: 3900038a     	strb	w10, [x28]
ffffff80400024cc: 52800bea     	mov	w10, #0x5f      // =95
ffffff80400024d0: 52800e8d     	mov	w13, #0x74      // =116
ffffff80400024d4: 3900038a     	strb	w10, [x28]
ffffff80400024d8: 52800d6a     	mov	w10, #0x6b      // =107
ffffff80400024dc: 5280015d     	mov	w29, #0xa       // =10
ffffff80400024e0: 39000389     	strb	w9, [x28]
ffffff80400024e4: 910243f3     	add	x19, sp, #0x90
ffffff80400024e8: 9100c3f6     	add	x22, sp, #0x30
ffffff80400024ec: 3900038a     	strb	w10, [x28]
ffffff80400024f0: 5280074a     	mov	w10, #0x3a      // =58
ffffff80400024f4: aa1a03f5     	mov	x21, x26
ffffff80400024f8: 3900038a     	strb	w10, [x28]
ffffff80400024fc: 5280040a     	mov	w10, #0x20      // =32
ffffff8040002500: 910343f9     	add	x25, sp, #0xd0
ffffff8040002504: 3900038a     	strb	w10, [x28]
ffffff8040002508: 91077fe0     	add	x0, sp, #0x1df
ffffff804000250c: 910123e1     	add	x1, sp, #0x48
ffffff8040002510: 39000388     	strb	w8, [x28]
ffffff8040002514: 3900038b     	strb	w11, [x28]
ffffff8040002518: 3900038b     	strb	w11, [x28]
ffffff804000251c: 5280058b     	mov	w11, #0x2c      // =44
ffffff8040002520: 3900038b     	strb	w11, [x28]
ffffff8040002524: 3900038a     	strb	w10, [x28]
ffffff8040002528: 3900038c     	strb	w12, [x28]
ffffff804000252c: 52800cac     	mov	w12, #0x65      // =101
ffffff8040002530: 3900038c     	strb	w12, [x28]
ffffff8040002534: 3900038f     	strb	w15, [x28]
ffffff8040002538: 39000390     	strb	w16, [x28]
ffffff804000253c: 3900038b     	strb	w11, [x28]
ffffff8040002540: 52800ceb     	mov	w11, #0x67      // =103
ffffff8040002544: 3900038a     	strb	w10, [x28]
ffffff8040002548: 3900038b     	strb	w11, [x28]
ffffff804000254c: 52800d8b     	mov	w11, #0x6c      // =108
ffffff8040002550: 3900038b     	strb	w11, [x28]
ffffff8040002554: 39000389     	strb	w9, [x28]
ffffff8040002558: aa1803e9     	mov	x9, x24
ffffff804000255c: f0000058     	adrp	x24, 0xffffff804000d000 <__bss_start>
ffffff8040002560: 39000388     	strb	w8, [x28]
ffffff8040002564: 52800ec8     	mov	w8, #0x76       // =118
ffffff8040002568: 3900038f     	strb	w15, [x28]
ffffff804000256c: 3900038b     	strb	w11, [x28]
ffffff8040002570: 3900038e     	strb	w14, [x28]
ffffff8040002574: 3900038a     	strb	w10, [x28]
ffffff8040002578: 39000388     	strb	w8, [x28]
ffffff804000257c: 52800d28     	mov	w8, #0x69       // =105
ffffff8040002580: 3900038f     	strb	w15, [x28]
ffffff8040002584: 3900038b     	strb	w11, [x28]
ffffff8040002588: 39000388     	strb	w8, [x28]
ffffff804000258c: 52800c88     	mov	w8, #0x64       // =100
ffffff8040002590: 39000388     	strb	w8, [x28]
ffffff8040002594: 3900038f     	strb	w15, [x28]
ffffff8040002598: 3900038d     	strb	w13, [x28]
ffffff804000259c: 3900038c     	strb	w12, [x28]
ffffff80400025a0: 39000388     	strb	w8, [x28]
ffffff80400025a4: 3900039d     	strb	w29, [x28]
ffffff80400025a8: f9400308     	ldr	x8, [x24]
ffffff80400025ac: a90aa7fa     	stp	x26, x9, [sp, #0xa8]
ffffff80400025b0: 52800089     	mov	w9, #0x4        // =4
ffffff80400025b4: 8b1a0108     	add	x8, x8, x26
ffffff80400025b8: f9001bfb     	str	x27, [sp, #0x30]
ffffff80400025bc: 9102a3fb     	add	x27, sp, #0xa8
ffffff80400025c0: f9004be8     	str	x8, [sp, #0x90]
ffffff80400025c4: d503201f     	nop
ffffff80400025c8: 1002dd08     	adr	x8, 0xffffff8040008168 <rodata_check_str+0x168>
ffffff80400025cc: 9102c3fa     	add	x26, sp, #0xb0
ffffff80400025d0: a904a7e8     	stp	x8, x9, [sp, #0x48]
ffffff80400025d4: d503201f     	nop
ffffff80400025d8: 1002de88     	adr	x8, 0xffffff80400081a8 <rodata_check_str+0x1a8>
ffffff80400025dc: a90d53fb     	stp	x27, x20, [sp, #0xd0]
ffffff80400025e0: a90e53f3     	stp	x19, x20, [sp, #0xe0]
ffffff80400025e4: a90f53f6     	stp	x22, x20, [sp, #0xf0]
ffffff80400025e8: a91053fa     	stp	x26, x20, [sp, #0x100]
ffffff80400025ec: a906a7e8     	stp	x8, x9, [sp, #0x68]
ffffff80400025f0: a905a7f9     	stp	x25, x9, [sp, #0x58]
ffffff80400025f4: 94000e0a     	bl	0xffffff8040005e1c <_ZN4core3fmt5write17h8f7b88e4069053abE>
ffffff80400025f8: 94001012     	bl	0xffffff8040006640 <seL4_GetBootInfo>
ffffff80400025fc: a949a80b     	ldp	x11, x10, [x0, #0x98]
ffffff8040002600: d503201f     	nop
ffffff8040002604: 10016d48     	adr	x8, 0xffffff80400053ac <_ZN4core3fmt3num3imp54_$LT$impl$u20$core..fmt..Display$u20$for$u20$usize$GT$3fmt17h54cfc045c1880294E>
ffffff8040002608: 91002009     	add	x9, x0, #0x8
ffffff804000260c: 910123e1     	add	x1, sp, #0x48
ffffff8040002610: a90e23fa     	stp	x26, x8, [sp, #0xe0]
ffffff8040002614: a90d23e9     	stp	x9, x8, [sp, #0xd0]
ffffff8040002618: cb0b0148     	sub	x8, x10, x11
ffffff804000261c: 9102c009     	add	x9, x0, #0xb0
ffffff8040002620: f9005be8     	str	x8, [sp, #0xb0]
ffffff8040002624: d503201f     	nop
ffffff8040002628: 1001e4c8     	adr	x8, 0xffffff80400062c0 <_ZN4core3fmt3num3imp51_$LT$impl$u20$core..fmt..Display$u20$for$u20$u8$GT$3fmt17hd66f5750f0151f15E>
ffffff804000262c: a90f23e9     	stp	x9, x8, [sp, #0xf0]
ffffff8040002630: d503201f     	nop
ffffff8040002634: 10030ce8     	adr	x8, 0xffffff80400087d0 <rodata_check_str+0x7d0>
ffffff8040002638: 52800069     	mov	w9, #0x3        // =3
ffffff804000263c: 91077fe0     	add	x0, sp, #0x1df
ffffff8040002640: f9002ff9     	str	x25, [sp, #0x58]
ffffff8040002644: a904a7e8     	stp	x8, x9, [sp, #0x48]
ffffff8040002648: a9067fe9     	stp	x9, xzr, [sp, #0x60]
ffffff804000264c: 94000df4     	bl	0xffffff8040005e1c <_ZN4core3fmt5write17h8f7b88e4069053abE>
ffffff8040002650: f9400be8     	ldr	x8, [sp, #0x10]
ffffff8040002654: f9400309     	ldr	x9, [x24]
ffffff8040002658: 91077fe0     	add	x0, sp, #0x1df
ffffff804000265c: 910123e1     	add	x1, sp, #0x48
ffffff8040002660: a90e53fb     	stp	x27, x20, [sp, #0xe0]
ffffff8040002664: f9004be8     	str	x8, [sp, #0x90]
ffffff8040002668: d503201f     	nop
ffffff804000266c: 10054ca8     	adr	x8, 0xffffff804000d000 <__bss_start>
ffffff8040002670: a90a5fe8     	stp	x8, x23, [sp, #0xa0]
ffffff8040002674: 8b150128     	add	x8, x9, x21
ffffff8040002678: 528000c9     	mov	w9, #0x6        // =6
ffffff804000267c: f9001be8     	str	x8, [sp, #0x30]
ffffff8040002680: f9400fe8     	ldr	x8, [sp, #0x18]
ffffff8040002684: a90f53f3     	stp	x19, x20, [sp, #0xf0]
ffffff8040002688: f9005be8     	str	x8, [sp, #0xb0]
ffffff804000268c: d503201f     	nop
ffffff8040002690: 104ecb88     	adr	x8, 0xffffff80400a0000 <__stack_end>
ffffff8040002694: f90013e8     	str	x8, [sp, #0x20]
ffffff8040002698: 910283e8     	add	x8, sp, #0xa0
ffffff804000269c: a90d53e8     	stp	x8, x20, [sp, #0xd0]
ffffff80400026a0: 910083e8     	add	x8, sp, #0x20
ffffff80400026a4: a91253e8     	stp	x8, x20, [sp, #0x120]
ffffff80400026a8: d503201f     	nop
ffffff80400026ac: 100334a8     	adr	x8, 0xffffff8040008d40 <_ZN12cohesix_root17ROOTSERVER_ONLINE17hccde821890211dbaE+0x528>
ffffff80400026b0: a904a7e8     	stp	x8, x9, [sp, #0x48]
ffffff80400026b4: d503201f     	nop
ffffff80400026b8: 10031088     	adr	x8, 0xffffff80400088c8 <_ZN12cohesix_root17ROOTSERVER_ONLINE17hccde821890211dbaE+0xb0>
ffffff80400026bc: a91053f6     	stp	x22, x20, [sp, #0x100]
ffffff80400026c0: a91153fa     	stp	x26, x20, [sp, #0x110]
ffffff80400026c4: a906a7e8     	stp	x8, x9, [sp, #0x68]
ffffff80400026c8: a905a7f9     	stp	x25, x9, [sp, #0x58]
ffffff80400026cc: 94000dd4     	bl	0xffffff8040005e1c <_ZN4core3fmt5write17h8f7b88e4069053abE>
ffffff80400026d0: 52800868     	mov	w8, #0x43       // =67
ffffff80400026d4: 528009e9     	mov	w9, #0x4f       // =79
ffffff80400026d8: 5280092b     	mov	w11, #0x49      // =73
ffffff80400026dc: 39000388     	strb	w8, [x28]
ffffff80400026e0: 52800908     	mov	w8, #0x48       // =72
ffffff80400026e4: 52800bec     	mov	w12, #0x5f      // =95
ffffff80400026e8: 39000389     	strb	w9, [x28]
ffffff80400026ec: 52800a0e     	mov	w14, #0x50      // =80
ffffff80400026f0: 52800bf5     	mov	w21, #0x5f      // =95
ffffff80400026f4: 39000388     	strb	w8, [x28]
ffffff80400026f8: 528008a8     	mov	w8, #0x45       // =69
ffffff80400026fc: aa1f03ea     	mov	x10, xzr
ffffff8040002700: 39000388     	strb	w8, [x28]
ffffff8040002704: 52800a68     	mov	w8, #0x53       // =83
ffffff8040002708: 39000388     	strb	w8, [x28]
ffffff804000270c: 3900038b     	strb	w11, [x28]
ffffff8040002710: 52800b0b     	mov	w11, #0x58      // =88
ffffff8040002714: 3900038b     	strb	w11, [x28]
ffffff8040002718: 5280084b     	mov	w11, #0x42      // =66
ffffff804000271c: 3900038c     	strb	w12, [x28]
ffffff8040002720: 3900038b     	strb	w11, [x28]
ffffff8040002724: 52800a8b     	mov	w11, #0x54      // =84
ffffff8040002728: 39000389     	strb	w9, [x28]
ffffff804000272c: 39000389     	strb	w9, [x28]
ffffff8040002730: 3900038b     	strb	w11, [x28]
ffffff8040002734: 3900038c     	strb	w12, [x28]
ffffff8040002738: 39000389     	strb	w9, [x28]
ffffff804000273c: 52800969     	mov	w9, #0x4b       // =75
ffffff8040002740: 39000389     	strb	w9, [x28]
ffffff8040002744: 3900039d     	strb	w29, [x28]
ffffff8040002748: 910003e9     	mov	x9, sp
ffffff804000274c: d3441d2c     	ubfx	x12, x9, #4, #4
ffffff8040002750: 92400d2b     	and	x11, x9, #0xf
ffffff8040002754: aa1d03ed     	mov	x13, x29
ffffff8040002758: 39000388     	strb	w8, [x28]
ffffff804000275c: d503201f     	nop
ffffff8040002760: 50033b08     	adr	x8, 0xffffff8040008ec2 <_ZN4core7unicode12unicode_data11white_space14WHITESPACE_MAP17h05932b8d89d4c975E+0x100>
ffffff8040002764: 3900038e     	strb	w14, [x28]
ffffff8040002768: d3482d30     	ubfx	x16, x9, #8, #4
ffffff804000276c: 3900039d     	strb	w29, [x28]
ffffff8040002770: d3586d20     	ubfx	x0, x9, #24, #4
ffffff8040002774: d3608d22     	ubfx	x2, x9, #32, #4
ffffff8040002778: 386b690f     	ldrb	w15, [x8, x11]
ffffff804000277c: d34c3d2b     	ubfx	x11, x9, #12, #4
ffffff8040002780: 386c6911     	ldrb	w17, [x8, x12]
ffffff8040002784: d3504d2c     	ubfx	x12, x9, #16, #4
ffffff8040002788: d370cd26     	ubfx	x6, x9, #48, #4
ffffff804000278c: d378ed33     	ubfx	x19, x9, #56, #4
ffffff8040002790: 386b6912     	ldrb	w18, [x8, x11]
ffffff8040002794: d3545d2b     	ubfx	x11, x9, #20, #4
ffffff8040002798: d37cfd36     	lsr	x22, x9, #60
ffffff804000279c: 386c6901     	ldrb	w1, [x8, x12]
ffffff80400027a0: 531c7d2c     	lsr	w12, w9, #28
ffffff80400027a4: 38706910     	ldrb	w16, [x8, x16]
ffffff80400027a8: 386b6903     	ldrb	w3, [x8, x11]
ffffff80400027ac: d3649d2b     	ubfx	x11, x9, #36, #4
ffffff80400027b0: 38606900     	ldrb	w0, [x8, x0]
ffffff80400027b4: 386c6904     	ldrb	w4, [x8, x12]
ffffff80400027b8: d368ad2c     	ubfx	x12, x9, #40, #4
ffffff80400027bc: 38626902     	ldrb	w2, [x8, x2]
ffffff80400027c0: 386b6905     	ldrb	w5, [x8, x11]
ffffff80400027c4: d36cbd2b     	ubfx	x11, x9, #44, #4
ffffff80400027c8: 38666906     	ldrb	w6, [x8, x6]
ffffff80400027cc: 386c6907     	ldrb	w7, [x8, x12]
ffffff80400027d0: d374dd2c     	ubfx	x12, x9, #52, #4
ffffff80400027d4: 38736913     	ldrb	w19, [x8, x19]
ffffff80400027d8: 386b6914     	ldrb	w20, [x8, x11]
ffffff80400027dc: 38766916     	ldrb	w22, [x8, x22]
ffffff80400027e0: 5280060b     	mov	w11, #0x30      // =48
ffffff80400027e4: 386c6919     	ldrb	w25, [x8, x12]
ffffff80400027e8: 52800f0c     	mov	w12, #0x78      // =120
ffffff80400027ec: 3900038b     	strb	w11, [x28]
ffffff80400027f0: 3900038c     	strb	w12, [x28]
ffffff80400027f4: 39000396     	strb	w22, [x28]
ffffff80400027f8: 39000393     	strb	w19, [x28]
ffffff80400027fc: d374ddb3     	ubfx	x19, x13, #52, #4
ffffff8040002800: 39000399     	strb	w25, [x28]
ffffff8040002804: 39000386     	strb	w6, [x28]
ffffff8040002808: d36cbda6     	ubfx	x6, x13, #44, #4
ffffff804000280c: 39000394     	strb	w20, [x28]
ffffff8040002810: d378edb4     	ubfx	x20, x13, #56, #4
ffffff8040002814: 39000387     	strb	w7, [x28]
ffffff8040002818: d370cda7     	ubfx	x7, x13, #48, #4
ffffff804000281c: 39000385     	strb	w5, [x28]
ffffff8040002820: d368ada5     	ubfx	x5, x13, #40, #4
ffffff8040002824: 39000382     	strb	w2, [x28]
ffffff8040002828: 531c7da2     	lsr	w2, w13, #28
ffffff804000282c: 39000384     	strb	w4, [x28]
ffffff8040002830: d3649da4     	ubfx	x4, x13, #36, #4
ffffff8040002834: 39000380     	strb	w0, [x28]
ffffff8040002838: d3545da0     	ubfx	x0, x13, #20, #4
ffffff804000283c: 39000383     	strb	w3, [x28]
ffffff8040002840: d3608da3     	ubfx	x3, x13, #32, #4
ffffff8040002844: 39000381     	strb	w1, [x28]
ffffff8040002848: d3586da1     	ubfx	x1, x13, #24, #4
ffffff804000284c: 39000392     	strb	w18, [x28]
ffffff8040002850: d3504db2     	ubfx	x18, x13, #16, #4
ffffff8040002854: 39000390     	strb	w16, [x28]
ffffff8040002858: d3482db0     	ubfx	x16, x13, #8, #4
ffffff804000285c: 39000391     	strb	w17, [x28]
ffffff8040002860: d34c3db1     	ubfx	x17, x13, #12, #4
ffffff8040002864: 3900038f     	strb	w15, [x28]
ffffff8040002868: 528008cf     	mov	w15, #0x46      // =70
ffffff804000286c: 3900039d     	strb	w29, [x28]
ffffff8040002870: 3900038f     	strb	w15, [x28]
ffffff8040002874: 92400daf     	and	x15, x13, #0xf
ffffff8040002878: 3900038e     	strb	w14, [x28]
ffffff804000287c: d3441dae     	ubfx	x14, x13, #4, #4
ffffff8040002880: d37cfdad     	lsr	x13, x13, #60
ffffff8040002884: 3900039d     	strb	w29, [x28]
ffffff8040002888: 386f690f     	ldrb	w15, [x8, x15]
ffffff804000288c: 386e690e     	ldrb	w14, [x8, x14]
ffffff8040002890: 38706910     	ldrb	w16, [x8, x16]
ffffff8040002894: 38716911     	ldrb	w17, [x8, x17]
ffffff8040002898: 38726912     	ldrb	w18, [x8, x18]
ffffff804000289c: 38606900     	ldrb	w0, [x8, x0]
ffffff80400028a0: 38616901     	ldrb	w1, [x8, x1]
ffffff80400028a4: 38626902     	ldrb	w2, [x8, x2]
ffffff80400028a8: 38636903     	ldrb	w3, [x8, x3]
ffffff80400028ac: 38646904     	ldrb	w4, [x8, x4]
ffffff80400028b0: 38656905     	ldrb	w5, [x8, x5]
ffffff80400028b4: 38666906     	ldrb	w6, [x8, x6]
ffffff80400028b8: 38676907     	ldrb	w7, [x8, x7]
ffffff80400028bc: 38736913     	ldrb	w19, [x8, x19]
ffffff80400028c0: 38746914     	ldrb	w20, [x8, x20]
ffffff80400028c4: 386d690d     	ldrb	w13, [x8, x13]
ffffff80400028c8: 3900038b     	strb	w11, [x28]
ffffff80400028cc: 3900038c     	strb	w12, [x28]
ffffff80400028d0: 3900038d     	strb	w13, [x28]
ffffff80400028d4: 52800c6d     	mov	w13, #0x63      // =99
ffffff80400028d8: 39000394     	strb	w20, [x28]
ffffff80400028dc: 39000393     	strb	w19, [x28]
ffffff80400028e0: 39000387     	strb	w7, [x28]
ffffff80400028e4: 39000386     	strb	w6, [x28]
ffffff80400028e8: 39000385     	strb	w5, [x28]
ffffff80400028ec: 39000384     	strb	w4, [x28]
ffffff80400028f0: 39000383     	strb	w3, [x28]
ffffff80400028f4: 39000382     	strb	w2, [x28]
ffffff80400028f8: 39000381     	strb	w1, [x28]
ffffff80400028fc: 39000380     	strb	w0, [x28]
ffffff8040002900: 39000392     	strb	w18, [x28]
ffffff8040002904: 39000391     	strb	w17, [x28]
ffffff8040002908: 39000390     	strb	w16, [x28]
ffffff804000290c: 52800c30     	mov	w16, #0x61      // =97
ffffff8040002910: 3900038e     	strb	w14, [x28]
ffffff8040002914: 52800e8e     	mov	w14, #0x74      // =116
ffffff8040002918: 3900038f     	strb	w15, [x28]
ffffff804000291c: 52800e6f     	mov	w15, #0x73      // =115
ffffff8040002920: 3900039d     	strb	w29, [x28]
ffffff8040002924: 3900038f     	strb	w15, [x28]
ffffff8040002928: 3900038e     	strb	w14, [x28]
ffffff804000292c: 39000390     	strb	w16, [x28]
ffffff8040002930: 3900038d     	strb	w13, [x28]
ffffff8040002934: 52800d6d     	mov	w13, #0x6b      // =107
ffffff8040002938: 3900038d     	strb	w13, [x28]
ffffff804000293c: 52800c8d     	mov	w13, #0x64      // =100
ffffff8040002940: 39000395     	strb	w21, [x28]
ffffff8040002944: 3900038d     	strb	w13, [x28]
ffffff8040002948: 52800ead     	mov	w13, #0x75      // =117
ffffff804000294c: 3900038d     	strb	w13, [x28]
ffffff8040002950: 52800dad     	mov	w13, #0x6d      // =109
ffffff8040002954: 3900038d     	strb	w13, [x28]
ffffff8040002958: 52800e0d     	mov	w13, #0x70      // =112
ffffff804000295c: 3900038d     	strb	w13, [x28]
ffffff8040002960: 52800e4d     	mov	w13, #0x72      // =114
ffffff8040002964: 39000395     	strb	w21, [x28]
ffffff8040002968: 3900038f     	strb	w15, [x28]
ffffff804000296c: 3900038e     	strb	w14, [x28]
ffffff8040002970: 39000390     	strb	w16, [x28]
ffffff8040002974: 3900038d     	strb	w13, [x28]
ffffff8040002978: 3900038e     	strb	w14, [x28]
ffffff804000297c: 3900039d     	strb	w29, [x28]
ffffff8040002980: 8b0a012d     	add	x13, x9, x10
ffffff8040002984: 9100214a     	add	x10, x10, #0x8
ffffff8040002988: d3441daf     	ubfx	x15, x13, #4, #4
ffffff804000298c: d3482db0     	ubfx	x16, x13, #8, #4
ffffff8040002990: d34c3db1     	ubfx	x17, x13, #12, #4
ffffff8040002994: d3504db2     	ubfx	x18, x13, #16, #4
ffffff8040002998: d3545da0     	ubfx	x0, x13, #20, #4
ffffff804000299c: d3586da1     	ubfx	x1, x13, #24, #4
ffffff80400029a0: 531c7da2     	lsr	w2, w13, #28
ffffff80400029a4: d3608da3     	ubfx	x3, x13, #32, #4
ffffff80400029a8: d3649da4     	ubfx	x4, x13, #36, #4
ffffff80400029ac: d368ada5     	ubfx	x5, x13, #40, #4
ffffff80400029b0: d36cbda6     	ubfx	x6, x13, #44, #4
ffffff80400029b4: d370cda7     	ubfx	x7, x13, #48, #4
ffffff80400029b8: d374ddb3     	ubfx	x19, x13, #52, #4
ffffff80400029bc: d378edb4     	ubfx	x20, x13, #56, #4
ffffff80400029c0: d37cfdb5     	lsr	x21, x13, #60
ffffff80400029c4: 92400dae     	and	x14, x13, #0xf
ffffff80400029c8: 386f690f     	ldrb	w15, [x8, x15]
ffffff80400029cc: 38706910     	ldrb	w16, [x8, x16]
ffffff80400029d0: 386e690e     	ldrb	w14, [x8, x14]
ffffff80400029d4: 38716911     	ldrb	w17, [x8, x17]
ffffff80400029d8: 38726912     	ldrb	w18, [x8, x18]
ffffff80400029dc: 38606900     	ldrb	w0, [x8, x0]
ffffff80400029e0: 38616901     	ldrb	w1, [x8, x1]
ffffff80400029e4: 38626902     	ldrb	w2, [x8, x2]
ffffff80400029e8: 38636903     	ldrb	w3, [x8, x3]
ffffff80400029ec: 38646904     	ldrb	w4, [x8, x4]
ffffff80400029f0: 38656905     	ldrb	w5, [x8, x5]
ffffff80400029f4: 38666906     	ldrb	w6, [x8, x6]
ffffff80400029f8: 38676907     	ldrb	w7, [x8, x7]
ffffff80400029fc: 38736913     	ldrb	w19, [x8, x19]
ffffff8040002a00: 38746914     	ldrb	w20, [x8, x20]
ffffff8040002a04: 38756915     	ldrb	w21, [x8, x21]
ffffff8040002a08: 3900038b     	strb	w11, [x28]
ffffff8040002a0c: 3900038c     	strb	w12, [x28]
ffffff8040002a10: f100815f     	cmp	x10, #0x20
ffffff8040002a14: 39000395     	strb	w21, [x28]
ffffff8040002a18: 39000394     	strb	w20, [x28]
ffffff8040002a1c: 39000393     	strb	w19, [x28]
ffffff8040002a20: 39000387     	strb	w7, [x28]
ffffff8040002a24: 39000386     	strb	w6, [x28]
ffffff8040002a28: 39000385     	strb	w5, [x28]
ffffff8040002a2c: 39000384     	strb	w4, [x28]
ffffff8040002a30: 39000383     	strb	w3, [x28]
ffffff8040002a34: 39000382     	strb	w2, [x28]
ffffff8040002a38: 39000381     	strb	w1, [x28]
ffffff8040002a3c: 39000380     	strb	w0, [x28]
ffffff8040002a40: 39000392     	strb	w18, [x28]
ffffff8040002a44: 39000391     	strb	w17, [x28]
ffffff8040002a48: 39000390     	strb	w16, [x28]
ffffff8040002a4c: 3900038f     	strb	w15, [x28]
ffffff8040002a50: 3900038e     	strb	w14, [x28]
ffffff8040002a54: 3900039d     	strb	w29, [x28]
ffffff8040002a58: f94001ad     	ldr	x13, [x13]
ffffff8040002a5c: d3441dae     	ubfx	x14, x13, #4, #4
ffffff8040002a60: 92400daf     	and	x15, x13, #0xf
ffffff8040002a64: d3482db0     	ubfx	x16, x13, #8, #4
ffffff8040002a68: d34c3db1     	ubfx	x17, x13, #12, #4
ffffff8040002a6c: d3504db2     	ubfx	x18, x13, #16, #4
ffffff8040002a70: d3545da0     	ubfx	x0, x13, #20, #4
ffffff8040002a74: d3586da1     	ubfx	x1, x13, #24, #4
ffffff8040002a78: 531c7da2     	lsr	w2, w13, #28
ffffff8040002a7c: d3608da3     	ubfx	x3, x13, #32, #4
ffffff8040002a80: d3649da4     	ubfx	x4, x13, #36, #4
ffffff8040002a84: d368ada5     	ubfx	x5, x13, #40, #4
ffffff8040002a88: d36cbda6     	ubfx	x6, x13, #44, #4
ffffff8040002a8c: d370cda7     	ubfx	x7, x13, #48, #4
ffffff8040002a90: d374ddb3     	ubfx	x19, x13, #52, #4
ffffff8040002a94: d378edb4     	ubfx	x20, x13, #56, #4
ffffff8040002a98: d37cfdad     	lsr	x13, x13, #60
ffffff8040002a9c: 386f690f     	ldrb	w15, [x8, x15]
ffffff8040002aa0: 386e690e     	ldrb	w14, [x8, x14]
ffffff8040002aa4: 38706910     	ldrb	w16, [x8, x16]
ffffff8040002aa8: 38716911     	ldrb	w17, [x8, x17]
ffffff8040002aac: 38726912     	ldrb	w18, [x8, x18]
ffffff8040002ab0: 38606900     	ldrb	w0, [x8, x0]
ffffff8040002ab4: 38616901     	ldrb	w1, [x8, x1]
ffffff8040002ab8: 38626902     	ldrb	w2, [x8, x2]
ffffff8040002abc: 38636903     	ldrb	w3, [x8, x3]
ffffff8040002ac0: 38646904     	ldrb	w4, [x8, x4]
ffffff8040002ac4: 38656905     	ldrb	w5, [x8, x5]
ffffff8040002ac8: 38666906     	ldrb	w6, [x8, x6]
ffffff8040002acc: 38676907     	ldrb	w7, [x8, x7]
ffffff8040002ad0: 38736913     	ldrb	w19, [x8, x19]
ffffff8040002ad4: 38746914     	ldrb	w20, [x8, x20]
ffffff8040002ad8: 386d690d     	ldrb	w13, [x8, x13]
ffffff8040002adc: 3900038b     	strb	w11, [x28]
ffffff8040002ae0: 3900038c     	strb	w12, [x28]
ffffff8040002ae4: 3900038d     	strb	w13, [x28]
ffffff8040002ae8: 39000394     	strb	w20, [x28]
ffffff8040002aec: 39000393     	strb	w19, [x28]
ffffff8040002af0: 39000387     	strb	w7, [x28]
ffffff8040002af4: 39000386     	strb	w6, [x28]
ffffff8040002af8: 39000385     	strb	w5, [x28]
ffffff8040002afc: 39000384     	strb	w4, [x28]
ffffff8040002b00: 39000383     	strb	w3, [x28]
ffffff8040002b04: 39000382     	strb	w2, [x28]
ffffff8040002b08: 39000381     	strb	w1, [x28]
ffffff8040002b0c: 39000380     	strb	w0, [x28]
ffffff8040002b10: 39000392     	strb	w18, [x28]
ffffff8040002b14: 39000391     	strb	w17, [x28]
ffffff8040002b18: 39000390     	strb	w16, [x28]
ffffff8040002b1c: 3900038e     	strb	w14, [x28]
ffffff8040002b20: 3900038f     	strb	w15, [x28]
ffffff8040002b24: 3900039d     	strb	w29, [x28]
ffffff8040002b28: 54fff2c1     	b.ne	0xffffff8040002980 <main+0x7b8>
ffffff8040002b2c: 52a12007     	mov	w7, #0x9000000  // =150994944
ffffff8040002b30: 52800e6a     	mov	w10, #0x73      // =115
ffffff8040002b34: 52800e80     	mov	w0, #0x74       // =116
ffffff8040002b38: 390000ea     	strb	w10, [x7]
ffffff8040002b3c: 52800c2e     	mov	w14, #0x61      // =97
ffffff8040002b40: 52800c6a     	mov	w10, #0x63      // =99
ffffff8040002b44: 390000e0     	strb	w0, [x7]
ffffff8040002b48: 52800bed     	mov	w13, #0x5f      // =95
ffffff8040002b4c: 52800c98     	mov	w24, #0x64      // =100
ffffff8040002b50: 390000ee     	strb	w14, [x7]
ffffff8040002b54: 52800eb3     	mov	w19, #0x75      // =117
ffffff8040002b58: 52800e01     	mov	w1, #0x70       // =112
ffffff8040002b5c: 390000ea     	strb	w10, [x7]
ffffff8040002b60: 52800d6a     	mov	w10, #0x6b      // =107
ffffff8040002b64: 52800ed4     	mov	w20, #0x76      // =118
ffffff8040002b68: 390000ea     	strb	w10, [x7]
ffffff8040002b6c: 52800daa     	mov	w10, #0x6d      // =109
ffffff8040002b70: 52800d8b     	mov	w11, #0x6c      // =108
ffffff8040002b74: 390000ed     	strb	w13, [x7]
ffffff8040002b78: 52800e42     	mov	w2, #0x72       // =114
ffffff8040002b7c: 390000f8     	strb	w24, [x7]
ffffff8040002b80: 390000f3     	strb	w19, [x7]
ffffff8040002b84: 390000ea     	strb	w10, [x7]
ffffff8040002b88: 52800caa     	mov	w10, #0x65      // =101
ffffff8040002b8c: 390000e1     	strb	w1, [x7]
ffffff8040002b90: 390000ed     	strb	w13, [x7]
ffffff8040002b94: 390000ea     	strb	w10, [x7]
ffffff8040002b98: 52800dca     	mov	w10, #0x6e      // =110
ffffff8040002b9c: 390000ea     	strb	w10, [x7]
ffffff8040002ba0: 5280014a     	mov	w10, #0xa       // =10
ffffff8040002ba4: 390000f8     	strb	w24, [x7]
ffffff8040002ba8: 390000ea     	strb	w10, [x7]
ffffff8040002bac: 390000f4     	strb	w20, [x7]
ffffff8040002bb0: 390000ee     	strb	w14, [x7]
ffffff8040002bb4: 390000eb     	strb	w11, [x7]
ffffff8040002bb8: 52800d2b     	mov	w11, #0x69      // =105
ffffff8040002bbc: 390000eb     	strb	w11, [x7]
ffffff8040002bc0: 52800deb     	mov	w11, #0x6f      // =111
ffffff8040002bc4: 390000f8     	strb	w24, [x7]
ffffff8040002bc8: 390000ee     	strb	w14, [x7]
ffffff8040002bcc: 390000e0     	strb	w0, [x7]
ffffff8040002bd0: 390000eb     	strb	w11, [x7]
ffffff8040002bd4: f000004b     	adrp	x11, 0xffffff804000d000 <__bss_start>
ffffff8040002bd8: 390000e2     	strb	w2, [x7]
ffffff8040002bdc: 390000ed     	strb	w13, [x7]
ffffff8040002be0: 390000e1     	strb	w1, [x7]
ffffff8040002be4: 390000e0     	strb	w0, [x7]
ffffff8040002be8: 390000e2     	strb	w2, [x7]
ffffff8040002bec: 390000ea     	strb	w10, [x7]
ffffff8040002bf0: f9400571     	ldr	x17, [x11, #0x8]
ffffff8040002bf4: 92400e32     	and	x18, x17, #0xf
ffffff8040002bf8: d3608e3e     	ubfx	x30, x17, #32, #4
ffffff8040002bfc: d368ae30     	ubfx	x16, x17, #40, #4
ffffff8040002c00: 38726915     	ldrb	w21, [x8, x18]
ffffff8040002c04: d34c3e32     	ubfx	x18, x17, #12, #4
ffffff8040002c08: d370ce26     	ubfx	x6, x17, #48, #4
ffffff8040002c0c: d374de2c     	ubfx	x12, x17, #52, #4
ffffff8040002c10: d378ee2f     	ubfx	x15, x17, #56, #4
ffffff8040002c14: d3441e36     	ubfx	x22, x17, #4, #4
ffffff8040002c18: 3872691b     	ldrb	w27, [x8, x18]
ffffff8040002c1c: d3545e32     	ubfx	x18, x17, #20, #4
ffffff8040002c20: d3482e39     	ubfx	x25, x17, #8, #4
ffffff8040002c24: d3504e3a     	ubfx	x26, x17, #16, #4
ffffff8040002c28: d3586e3c     	ubfx	x28, x17, #24, #4
ffffff8040002c2c: 531c7e3d     	lsr	w29, w17, #28
ffffff8040002c30: 38726903     	ldrb	w3, [x8, x18]
ffffff8040002c34: d3649e32     	ubfx	x18, x17, #36, #4
ffffff8040002c38: 387e691e     	ldrb	w30, [x8, x30]
ffffff8040002c3c: 38706910     	ldrb	w16, [x8, x16]
ffffff8040002c40: 38666906     	ldrb	w6, [x8, x6]
ffffff8040002c44: 386c690c     	ldrb	w12, [x8, x12]
ffffff8040002c48: 38726904     	ldrb	w4, [x8, x18]
ffffff8040002c4c: d36cbe32     	ubfx	x18, x17, #44, #4
ffffff8040002c50: 386f690f     	ldrb	w15, [x8, x15]
ffffff8040002c54: 38766916     	ldrb	w22, [x8, x22]
ffffff8040002c58: 38796919     	ldrb	w25, [x8, x25]
ffffff8040002c5c: 387a691a     	ldrb	w26, [x8, x26]
ffffff8040002c60: 38726905     	ldrb	w5, [x8, x18]
ffffff8040002c64: d37cfe32     	lsr	x18, x17, #60
ffffff8040002c68: 387c691c     	ldrb	w28, [x8, x28]
ffffff8040002c6c: 387d691d     	ldrb	w29, [x8, x29]
ffffff8040002c70: 52800611     	mov	w17, #0x30      // =48
ffffff8040002c74: 3872690b     	ldrb	w11, [x8, x18]
ffffff8040002c78: 52800f12     	mov	w18, #0x78      // =120
ffffff8040002c7c: 390000f1     	strb	w17, [x7]
ffffff8040002c80: 390000f2     	strb	w18, [x7]
ffffff8040002c84: 390000eb     	strb	w11, [x7]
ffffff8040002c88: f000004b     	adrp	x11, 0xffffff804000d000 <__bss_start>
ffffff8040002c8c: 390000ef     	strb	w15, [x7]
ffffff8040002c90: 390000ec     	strb	w12, [x7]
ffffff8040002c94: 390000e6     	strb	w6, [x7]
ffffff8040002c98: 390000e5     	strb	w5, [x7]
ffffff8040002c9c: 390000f0     	strb	w16, [x7]
ffffff8040002ca0: 390000e4     	strb	w4, [x7]
ffffff8040002ca4: 390000fe     	strb	w30, [x7]
ffffff8040002ca8: 52800e7e     	mov	w30, #0x73      // =115
ffffff8040002cac: 390000fd     	strb	w29, [x7]
ffffff8040002cb0: 390000fc     	strb	w28, [x7]
ffffff8040002cb4: 390000e3     	strb	w3, [x7]
ffffff8040002cb8: 390000fa     	strb	w26, [x7]
ffffff8040002cbc: 390000fb     	strb	w27, [x7]
ffffff8040002cc0: 390000f9     	strb	w25, [x7]
ffffff8040002cc4: 390000f6     	strb	w22, [x7]
ffffff8040002cc8: 390000f5     	strb	w21, [x7]
ffffff8040002ccc: 390000ea     	strb	w10, [x7]
ffffff8040002cd0: 390000fe     	strb	w30, [x7]
ffffff8040002cd4: 390000e2     	strb	w2, [x7]
ffffff8040002cd8: 390000f4     	strb	w20, [x7]
ffffff8040002cdc: 390000ed     	strb	w13, [x7]
ffffff8040002ce0: 390000e1     	strb	w1, [x7]
ffffff8040002ce4: 390000e0     	strb	w0, [x7]
ffffff8040002ce8: 390000e2     	strb	w2, [x7]
ffffff8040002cec: 390000ea     	strb	w10, [x7]
ffffff8040002cf0: f940096b     	ldr	x11, [x11, #0x10]
ffffff8040002cf4: d3441d6c     	ubfx	x12, x11, #4, #4
ffffff8040002cf8: 92400d6f     	and	x15, x11, #0xf
ffffff8040002cfc: d3482d70     	ubfx	x16, x11, #8, #4
ffffff8040002d00: d34c3d63     	ubfx	x3, x11, #12, #4
ffffff8040002d04: d3504d64     	ubfx	x4, x11, #16, #4
ffffff8040002d08: d3545d65     	ubfx	x5, x11, #20, #4
ffffff8040002d0c: d3586d66     	ubfx	x6, x11, #24, #4
ffffff8040002d10: 531c7d74     	lsr	w20, w11, #28
ffffff8040002d14: d3608d75     	ubfx	x21, x11, #32, #4
ffffff8040002d18: d3649d76     	ubfx	x22, x11, #36, #4
ffffff8040002d1c: d368ad79     	ubfx	x25, x11, #40, #4
ffffff8040002d20: d36cbd7a     	ubfx	x26, x11, #44, #4
ffffff8040002d24: d370cd7b     	ubfx	x27, x11, #48, #4
ffffff8040002d28: d374dd7c     	ubfx	x28, x11, #52, #4
ffffff8040002d2c: d378ed7d     	ubfx	x29, x11, #56, #4
ffffff8040002d30: d37cfd6b     	lsr	x11, x11, #60
ffffff8040002d34: 386f690f     	ldrb	w15, [x8, x15]
ffffff8040002d38: 386c690c     	ldrb	w12, [x8, x12]
ffffff8040002d3c: 38706910     	ldrb	w16, [x8, x16]
ffffff8040002d40: 38636903     	ldrb	w3, [x8, x3]
ffffff8040002d44: 38646904     	ldrb	w4, [x8, x4]
ffffff8040002d48: 386b690b     	ldrb	w11, [x8, x11]
ffffff8040002d4c: 38656905     	ldrb	w5, [x8, x5]
ffffff8040002d50: 38666906     	ldrb	w6, [x8, x6]
ffffff8040002d54: 38746914     	ldrb	w20, [x8, x20]
ffffff8040002d58: 38756915     	ldrb	w21, [x8, x21]
ffffff8040002d5c: 38766916     	ldrb	w22, [x8, x22]
ffffff8040002d60: 38796919     	ldrb	w25, [x8, x25]
ffffff8040002d64: 387a691a     	ldrb	w26, [x8, x26]
ffffff8040002d68: 387b691b     	ldrb	w27, [x8, x27]
ffffff8040002d6c: 387c691c     	ldrb	w28, [x8, x28]
ffffff8040002d70: 387d691d     	ldrb	w29, [x8, x29]
ffffff8040002d74: 390000f1     	strb	w17, [x7]
ffffff8040002d78: 390000f2     	strb	w18, [x7]
ffffff8040002d7c: 390000eb     	strb	w11, [x7]
ffffff8040002d80: 52800c6b     	mov	w11, #0x63      // =99
ffffff8040002d84: 390000fd     	strb	w29, [x7]
ffffff8040002d88: 390000fc     	strb	w28, [x7]
ffffff8040002d8c: 390000fb     	strb	w27, [x7]
ffffff8040002d90: 390000fa     	strb	w26, [x7]
ffffff8040002d94: 390000f9     	strb	w25, [x7]
ffffff8040002d98: 390000f6     	strb	w22, [x7]
ffffff8040002d9c: 390000f5     	strb	w21, [x7]
ffffff8040002da0: 390000f4     	strb	w20, [x7]
ffffff8040002da4: 390000e6     	strb	w6, [x7]
ffffff8040002da8: 390000e5     	strb	w5, [x7]
ffffff8040002dac: 390000e4     	strb	w4, [x7]
ffffff8040002db0: 390000e3     	strb	w3, [x7]
ffffff8040002db4: 390000f0     	strb	w16, [x7]
ffffff8040002db8: 390000ec     	strb	w12, [x7]
ffffff8040002dbc: 390000ef     	strb	w15, [x7]
ffffff8040002dc0: 390000ea     	strb	w10, [x7]
ffffff8040002dc4: 390000eb     	strb	w11, [x7]
ffffff8040002dc8: f000004b     	adrp	x11, 0xffffff804000d000 <__bss_start>
ffffff8040002dcc: 390000f3     	strb	w19, [x7]
ffffff8040002dd0: 390000f8     	strb	w24, [x7]
ffffff8040002dd4: d503201f     	nop
ffffff8040002dd8: 10051158     	adr	x24, 0xffffff804000d000 <__bss_start>
ffffff8040002ddc: 390000ee     	strb	w14, [x7]
ffffff8040002de0: 390000ed     	strb	w13, [x7]
ffffff8040002de4: 390000e1     	strb	w1, [x7]
ffffff8040002de8: 390000e0     	strb	w0, [x7]
ffffff8040002dec: 390000e2     	strb	w2, [x7]
ffffff8040002df0: 390000ea     	strb	w10, [x7]
ffffff8040002df4: f9400d6b     	ldr	x11, [x11, #0x18]
ffffff8040002df8: d3441d6c     	ubfx	x12, x11, #4, #4
ffffff8040002dfc: 92400d6f     	and	x15, x11, #0xf
ffffff8040002e00: d3482d70     	ubfx	x16, x11, #8, #4
ffffff8040002e04: d34c3d63     	ubfx	x3, x11, #12, #4
ffffff8040002e08: d3504d64     	ubfx	x4, x11, #16, #4
ffffff8040002e0c: d3545d65     	ubfx	x5, x11, #20, #4
ffffff8040002e10: d3586d66     	ubfx	x6, x11, #24, #4
ffffff8040002e14: 531c7d73     	lsr	w19, w11, #28
ffffff8040002e18: d3608d74     	ubfx	x20, x11, #32, #4
ffffff8040002e1c: d3649d75     	ubfx	x21, x11, #36, #4
ffffff8040002e20: d368ad76     	ubfx	x22, x11, #40, #4
ffffff8040002e24: d36cbd79     	ubfx	x25, x11, #44, #4
ffffff8040002e28: d370cd7a     	ubfx	x26, x11, #48, #4
ffffff8040002e2c: d374dd7b     	ubfx	x27, x11, #52, #4
ffffff8040002e30: d378ed7c     	ubfx	x28, x11, #56, #4
ffffff8040002e34: d37cfd6b     	lsr	x11, x11, #60
ffffff8040002e38: 386f690f     	ldrb	w15, [x8, x15]
ffffff8040002e3c: 386c690c     	ldrb	w12, [x8, x12]
ffffff8040002e40: 38706910     	ldrb	w16, [x8, x16]
ffffff8040002e44: 38636903     	ldrb	w3, [x8, x3]
ffffff8040002e48: 38646904     	ldrb	w4, [x8, x4]
ffffff8040002e4c: 386b690b     	ldrb	w11, [x8, x11]
ffffff8040002e50: 38656905     	ldrb	w5, [x8, x5]
ffffff8040002e54: 38666906     	ldrb	w6, [x8, x6]
ffffff8040002e58: 38736913     	ldrb	w19, [x8, x19]
ffffff8040002e5c: 38746914     	ldrb	w20, [x8, x20]
ffffff8040002e60: 38756915     	ldrb	w21, [x8, x21]
ffffff8040002e64: 38766916     	ldrb	w22, [x8, x22]
ffffff8040002e68: 38796919     	ldrb	w25, [x8, x25]
ffffff8040002e6c: 387a691a     	ldrb	w26, [x8, x26]
ffffff8040002e70: 387b691b     	ldrb	w27, [x8, x27]
ffffff8040002e74: 387c691c     	ldrb	w28, [x8, x28]
ffffff8040002e78: 390000f1     	strb	w17, [x7]
ffffff8040002e7c: 390000f2     	strb	w18, [x7]
ffffff8040002e80: 390000eb     	strb	w11, [x7]
ffffff8040002e84: 52800deb     	mov	w11, #0x6f      // =111
ffffff8040002e88: 390000fc     	strb	w28, [x7]
ffffff8040002e8c: 390000fb     	strb	w27, [x7]
ffffff8040002e90: d378ef1b     	ubfx	x27, x24, #56, #4
ffffff8040002e94: 390000fa     	strb	w26, [x7]
ffffff8040002e98: d374df1a     	ubfx	x26, x24, #52, #4
ffffff8040002e9c: 390000f9     	strb	w25, [x7]
ffffff8040002ea0: d370cf19     	ubfx	x25, x24, #48, #4
ffffff8040002ea4: 390000f6     	strb	w22, [x7]
ffffff8040002ea8: d36cbf16     	ubfx	x22, x24, #44, #4
ffffff8040002eac: 390000f5     	strb	w21, [x7]
ffffff8040002eb0: d368af15     	ubfx	x21, x24, #40, #4
ffffff8040002eb4: 390000f4     	strb	w20, [x7]
ffffff8040002eb8: d3649f14     	ubfx	x20, x24, #36, #4
ffffff8040002ebc: 390000f3     	strb	w19, [x7]
ffffff8040002ec0: d3608f13     	ubfx	x19, x24, #32, #4
ffffff8040002ec4: 390000e6     	strb	w6, [x7]
ffffff8040002ec8: 531c7f06     	lsr	w6, w24, #28
ffffff8040002ecc: 390000e5     	strb	w5, [x7]
ffffff8040002ed0: d3586f05     	ubfx	x5, x24, #24, #4
ffffff8040002ed4: 390000e4     	strb	w4, [x7]
ffffff8040002ed8: d3545f04     	ubfx	x4, x24, #20, #4
ffffff8040002edc: 390000e3     	strb	w3, [x7]
ffffff8040002ee0: d3504f03     	ubfx	x3, x24, #16, #4
ffffff8040002ee4: 390000f0     	strb	w16, [x7]
ffffff8040002ee8: d34c3f10     	ubfx	x16, x24, #12, #4
ffffff8040002eec: 390000ec     	strb	w12, [x7]
ffffff8040002ef0: 927d030c     	and	x12, x24, #0x8
ffffff8040002ef4: 390000ef     	strb	w15, [x7]
ffffff8040002ef8: d3482f0f     	ubfx	x15, x24, #8, #4
ffffff8040002efc: 390000ea     	strb	w10, [x7]
ffffff8040002f00: 390000eb     	strb	w11, [x7]
ffffff8040002f04: 52800ccb     	mov	w11, #0x66      // =102
ffffff8040002f08: 390000eb     	strb	w11, [x7]
ffffff8040002f0c: 390000eb     	strb	w11, [x7]
ffffff8040002f10: 52800cab     	mov	w11, #0x65      // =101
ffffff8040002f14: 390000fe     	strb	w30, [x7]
ffffff8040002f18: d503201f     	nop
ffffff8040002f1c: 1005073e     	adr	x30, 0xffffff804000d000 <__bss_start>
ffffff8040002f20: 390000eb     	strb	w11, [x7]
ffffff8040002f24: d3441f0b     	ubfx	x11, x24, #4, #4
ffffff8040002f28: d37cff18     	lsr	x24, x24, #60
ffffff8040002f2c: 390000e0     	strb	w0, [x7]
ffffff8040002f30: eb1703df     	cmp	x30, x23
ffffff8040002f34: 390000ed     	strb	w13, [x7]
ffffff8040002f38: 390000e1     	strb	w1, [x7]
ffffff8040002f3c: 390000e0     	strb	w0, [x7]
ffffff8040002f40: 390000e2     	strb	w2, [x7]
ffffff8040002f44: 390000ea     	strb	w10, [x7]
ffffff8040002f48: 386c690c     	ldrb	w12, [x8, x12]
ffffff8040002f4c: 386b690b     	ldrb	w11, [x8, x11]
ffffff8040002f50: 386f690f     	ldrb	w15, [x8, x15]
ffffff8040002f54: 38706910     	ldrb	w16, [x8, x16]
ffffff8040002f58: 38636903     	ldrb	w3, [x8, x3]
ffffff8040002f5c: 38646904     	ldrb	w4, [x8, x4]
ffffff8040002f60: 38656905     	ldrb	w5, [x8, x5]
ffffff8040002f64: 38666906     	ldrb	w6, [x8, x6]
ffffff8040002f68: 38736913     	ldrb	w19, [x8, x19]
ffffff8040002f6c: 38746914     	ldrb	w20, [x8, x20]
ffffff8040002f70: 38756915     	ldrb	w21, [x8, x21]
ffffff8040002f74: 38766916     	ldrb	w22, [x8, x22]
ffffff8040002f78: 38796919     	ldrb	w25, [x8, x25]
ffffff8040002f7c: 387a691a     	ldrb	w26, [x8, x26]
ffffff8040002f80: 387b691b     	ldrb	w27, [x8, x27]
ffffff8040002f84: 38786918     	ldrb	w24, [x8, x24]
ffffff8040002f88: 390000f1     	strb	w17, [x7]
ffffff8040002f8c: 390000f2     	strb	w18, [x7]
ffffff8040002f90: 390000f8     	strb	w24, [x7]
ffffff8040002f94: 390000fb     	strb	w27, [x7]
ffffff8040002f98: 390000fa     	strb	w26, [x7]
ffffff8040002f9c: 390000f9     	strb	w25, [x7]
ffffff8040002fa0: 390000f6     	strb	w22, [x7]
ffffff8040002fa4: 390000f5     	strb	w21, [x7]
ffffff8040002fa8: 390000f4     	strb	w20, [x7]
ffffff8040002fac: 390000f3     	strb	w19, [x7]
ffffff8040002fb0: 390000e6     	strb	w6, [x7]
ffffff8040002fb4: 390000e5     	strb	w5, [x7]
ffffff8040002fb8: 390000e4     	strb	w4, [x7]
ffffff8040002fbc: 390000e3     	strb	w3, [x7]
ffffff8040002fc0: 390000f0     	strb	w16, [x7]
ffffff8040002fc4: 390000ef     	strb	w15, [x7]
ffffff8040002fc8: 390000eb     	strb	w11, [x7]
ffffff8040002fcc: 52800d0b     	mov	w11, #0x68      // =104
ffffff8040002fd0: 390000ec     	strb	w12, [x7]
ffffff8040002fd4: 52800e6c     	mov	w12, #0x73      // =115
ffffff8040002fd8: 390000ea     	strb	w10, [x7]
ffffff8040002fdc: 390000e1     	strb	w1, [x7]
ffffff8040002fe0: 390000e0     	strb	w0, [x7]
ffffff8040002fe4: 390000e2     	strb	w2, [x7]
ffffff8040002fe8: 390000ed     	strb	w13, [x7]
ffffff8040002fec: 390000eb     	strb	w11, [x7]
ffffff8040002ff0: 390000ee     	strb	w14, [x7]
ffffff8040002ff4: 390000ec     	strb	w12, [x7]
ffffff8040002ff8: 390000eb     	strb	w11, [x7]
ffffff8040002ffc: 390000ea     	strb	w10, [x7]
ffffff8040003000: 390000f1     	strb	w17, [x7]
ffffff8040003004: 390000f2     	strb	w18, [x7]
ffffff8040003008: 390000f1     	strb	w17, [x7]
ffffff804000300c: 390000f1     	strb	w17, [x7]
ffffff8040003010: 390000f1     	strb	w17, [x7]
ffffff8040003014: 390000f1     	strb	w17, [x7]
ffffff8040003018: 390000f1     	strb	w17, [x7]
ffffff804000301c: 390000f1     	strb	w17, [x7]
ffffff8040003020: 390000f1     	strb	w17, [x7]
ffffff8040003024: 390000f1     	strb	w17, [x7]
ffffff8040003028: 390000f1     	strb	w17, [x7]
ffffff804000302c: 390000f1     	strb	w17, [x7]
ffffff8040003030: 390000f1     	strb	w17, [x7]
ffffff8040003034: 390000f1     	strb	w17, [x7]
ffffff8040003038: 390000f1     	strb	w17, [x7]
ffffff804000303c: 390000f1     	strb	w17, [x7]
ffffff8040003040: 390000f1     	strb	w17, [x7]
ffffff8040003044: 390000f1     	strb	w17, [x7]
ffffff8040003048: 390000ea     	strb	w10, [x7]
ffffff804000304c: 54008aa2     	b.hs	0xffffff80400041a0 <main+0x1fd8>
ffffff8040003050: 52a12007     	mov	w7, #0x9000000  // =150994944
ffffff8040003054: 52800c55     	mov	w21, #0x62      // =98
ffffff8040003058: 52800e6b     	mov	w11, #0x73      // =115
ffffff804000305c: 390000f5     	strb	w21, [x7]
ffffff8040003060: d3482fcf     	ubfx	x15, x30, #8, #4
ffffff8040003064: d34c3fd0     	ubfx	x16, x30, #12, #4
ffffff8040003068: 390000eb     	strb	w11, [x7]
ffffff804000306c: d3504fc3     	ubfx	x3, x30, #16, #4
ffffff8040003070: d3545fc4     	ubfx	x4, x30, #20, #4
ffffff8040003074: 390000eb     	strb	w11, [x7]
ffffff8040003078: d3586fc5     	ubfx	x5, x30, #24, #4
ffffff804000307c: 531c7fc6     	lsr	w6, w30, #28
ffffff8040003080: 390000ed     	strb	w13, [x7]
ffffff8040003084: d3608fd3     	ubfx	x19, x30, #32, #4
ffffff8040003088: d3649fd4     	ubfx	x20, x30, #36, #4
ffffff804000308c: 390000eb     	strb	w11, [x7]
ffffff8040003090: 52800c2b     	mov	w11, #0x61      // =97
ffffff8040003094: d368afd6     	ubfx	x22, x30, #40, #4
ffffff8040003098: 390000e0     	strb	w0, [x7]
ffffff804000309c: d36cbfd9     	ubfx	x25, x30, #44, #4
ffffff80400030a0: d370cfda     	ubfx	x26, x30, #48, #4
ffffff80400030a4: 390000eb     	strb	w11, [x7]
ffffff80400030a8: d3441fcb     	ubfx	x11, x30, #4, #4
ffffff80400030ac: d374dfdb     	ubfx	x27, x30, #52, #4
ffffff80400030b0: d378efdc     	ubfx	x28, x30, #56, #4
ffffff80400030b4: d37cffdd     	lsr	x29, x30, #60
ffffff80400030b8: 390000e2     	strb	w2, [x7]
ffffff80400030bc: 390000e0     	strb	w0, [x7]
ffffff80400030c0: 92400fcc     	and	x12, x30, #0xf
ffffff80400030c4: 52800de1     	mov	w1, #0x6f       // =111
ffffff80400030c8: 390000ea     	strb	w10, [x7]
ffffff80400030cc: 52800e78     	mov	w24, #0x73      // =115
ffffff80400030d0: 386b690b     	ldrb	w11, [x8, x11]
ffffff80400030d4: 386f690f     	ldrb	w15, [x8, x15]
ffffff80400030d8: 38706910     	ldrb	w16, [x8, x16]
ffffff80400030dc: 38636903     	ldrb	w3, [x8, x3]
ffffff80400030e0: 38646904     	ldrb	w4, [x8, x4]
ffffff80400030e4: 38656905     	ldrb	w5, [x8, x5]
ffffff80400030e8: 38666906     	ldrb	w6, [x8, x6]
ffffff80400030ec: 38736913     	ldrb	w19, [x8, x19]
ffffff80400030f0: 38746914     	ldrb	w20, [x8, x20]
ffffff80400030f4: 38766916     	ldrb	w22, [x8, x22]
ffffff80400030f8: 38796919     	ldrb	w25, [x8, x25]
ffffff80400030fc: 387a691a     	ldrb	w26, [x8, x26]
ffffff8040003100: 387b691b     	ldrb	w27, [x8, x27]
ffffff8040003104: 387c691c     	ldrb	w28, [x8, x28]
ffffff8040003108: 387d691d     	ldrb	w29, [x8, x29]
ffffff804000310c: 386c690c     	ldrb	w12, [x8, x12]
ffffff8040003110: 390000f1     	strb	w17, [x7]
ffffff8040003114: 390000f2     	strb	w18, [x7]
ffffff8040003118: 390000fd     	strb	w29, [x7]
ffffff804000311c: 52800c7d     	mov	w29, #0x63      // =99
ffffff8040003120: 390000fc     	strb	w28, [x7]
ffffff8040003124: d378eefc     	ubfx	x28, x23, #56, #4
ffffff8040003128: 390000fb     	strb	w27, [x7]
ffffff804000312c: d374defb     	ubfx	x27, x23, #52, #4
ffffff8040003130: 390000fa     	strb	w26, [x7]
ffffff8040003134: d370cefa     	ubfx	x26, x23, #48, #4
ffffff8040003138: 390000f9     	strb	w25, [x7]
ffffff804000313c: d36cbef9     	ubfx	x25, x23, #44, #4
ffffff8040003140: 390000f6     	strb	w22, [x7]
ffffff8040003144: d368aef6     	ubfx	x22, x23, #40, #4
ffffff8040003148: 390000f4     	strb	w20, [x7]
ffffff804000314c: d3649ef4     	ubfx	x20, x23, #36, #4
ffffff8040003150: 390000f3     	strb	w19, [x7]
ffffff8040003154: d3608ef3     	ubfx	x19, x23, #32, #4
ffffff8040003158: 390000e6     	strb	w6, [x7]
ffffff804000315c: 531c7ee6     	lsr	w6, w23, #28
ffffff8040003160: 390000e5     	strb	w5, [x7]
ffffff8040003164: d3586ee5     	ubfx	x5, x23, #24, #4
ffffff8040003168: 390000e4     	strb	w4, [x7]
ffffff804000316c: d3545ee4     	ubfx	x4, x23, #20, #4
ffffff8040003170: 390000e3     	strb	w3, [x7]
ffffff8040003174: d3504ee3     	ubfx	x3, x23, #16, #4
ffffff8040003178: 390000f0     	strb	w16, [x7]
ffffff804000317c: d34c3ef0     	ubfx	x16, x23, #12, #4
ffffff8040003180: 390000ef     	strb	w15, [x7]
ffffff8040003184: d3482eef     	ubfx	x15, x23, #8, #4
ffffff8040003188: 390000eb     	strb	w11, [x7]
ffffff804000318c: 52800e6b     	mov	w11, #0x73      // =115
ffffff8040003190: 390000ec     	strb	w12, [x7]
ffffff8040003194: 92400eec     	and	x12, x23, #0xf
ffffff8040003198: 390000ea     	strb	w10, [x7]
ffffff804000319c: 390000f5     	strb	w21, [x7]
ffffff80400031a0: 390000eb     	strb	w11, [x7]
ffffff80400031a4: 390000eb     	strb	w11, [x7]
ffffff80400031a8: 52800cab     	mov	w11, #0x65      // =101
ffffff80400031ac: 390000ed     	strb	w13, [x7]
ffffff80400031b0: 390000eb     	strb	w11, [x7]
ffffff80400031b4: 52800dcb     	mov	w11, #0x6e      // =110
ffffff80400031b8: 390000eb     	strb	w11, [x7]
ffffff80400031bc: 52800c8b     	mov	w11, #0x64      // =100
ffffff80400031c0: 390000eb     	strb	w11, [x7]
ffffff80400031c4: d3441eeb     	ubfx	x11, x23, #4, #4
ffffff80400031c8: d37cfef7     	lsr	x23, x23, #60
ffffff80400031cc: 390000ea     	strb	w10, [x7]
ffffff80400031d0: 386b690b     	ldrb	w11, [x8, x11]
ffffff80400031d4: 386f690f     	ldrb	w15, [x8, x15]
ffffff80400031d8: 38706910     	ldrb	w16, [x8, x16]
ffffff80400031dc: 38636903     	ldrb	w3, [x8, x3]
ffffff80400031e0: 38646904     	ldrb	w4, [x8, x4]
ffffff80400031e4: 38656905     	ldrb	w5, [x8, x5]
ffffff80400031e8: 38666906     	ldrb	w6, [x8, x6]
ffffff80400031ec: 38736913     	ldrb	w19, [x8, x19]
ffffff80400031f0: 38746914     	ldrb	w20, [x8, x20]
ffffff80400031f4: 38766916     	ldrb	w22, [x8, x22]
ffffff80400031f8: 38796919     	ldrb	w25, [x8, x25]
ffffff80400031fc: 387a691a     	ldrb	w26, [x8, x26]
ffffff8040003200: 387b691b     	ldrb	w27, [x8, x27]
ffffff8040003204: 387c691c     	ldrb	w28, [x8, x28]
ffffff8040003208: 38776917     	ldrb	w23, [x8, x23]
ffffff804000320c: 386c690c     	ldrb	w12, [x8, x12]
ffffff8040003210: 390000f1     	strb	w17, [x7]
ffffff8040003214: 390000f2     	strb	w18, [x7]
ffffff8040003218: 390000f7     	strb	w23, [x7]
ffffff804000321c: 390000fc     	strb	w28, [x7]
ffffff8040003220: 390000fb     	strb	w27, [x7]
ffffff8040003224: 390000fa     	strb	w26, [x7]
ffffff8040003228: 390000f9     	strb	w25, [x7]
ffffff804000322c: 390000f6     	strb	w22, [x7]
ffffff8040003230: 390000f4     	strb	w20, [x7]
ffffff8040003234: 390000f3     	strb	w19, [x7]
ffffff8040003238: 390000e6     	strb	w6, [x7]
ffffff804000323c: 390000e5     	strb	w5, [x7]
ffffff8040003240: 390000e4     	strb	w4, [x7]
ffffff8040003244: 390000e3     	strb	w3, [x7]
ffffff8040003248: 390000f0     	strb	w16, [x7]
ffffff804000324c: 390000ef     	strb	w15, [x7]
ffffff8040003250: 390000eb     	strb	w11, [x7]
ffffff8040003254: 52800ceb     	mov	w11, #0x67      // =103
ffffff8040003258: 390000ec     	strb	w12, [x7]
ffffff804000325c: 390000ea     	strb	w10, [x7]
ffffff8040003260: 390000f5     	strb	w21, [x7]
ffffff8040003264: 390000e1     	strb	w1, [x7]
ffffff8040003268: 390000e1     	strb	w1, [x7]
ffffff804000326c: 390000e0     	strb	w0, [x7]
ffffff8040003270: 390000ee     	strb	w14, [x7]
ffffff8040003274: 52800e0e     	mov	w14, #0x70      // =112
ffffff8040003278: 390000e2     	strb	w2, [x7]
ffffff804000327c: 390000eb     	strb	w11, [x7]
ffffff8040003280: 52800e0b     	mov	w11, #0x70      // =112
ffffff8040003284: 390000f8     	strb	w24, [x7]
ffffff8040003288: 52800f18     	mov	w24, #0x78      // =120
ffffff804000328c: 390000ed     	strb	w13, [x7]
ffffff8040003290: 390000eb     	strb	w11, [x7]
ffffff8040003294: d503201f     	nop
ffffff8040003298: 5002cc6b     	adr	x11, 0xffffff8040008c26 <_ZN12cohesix_root17ROOTSERVER_ONLINE17hccde821890211dbaE+0x40e>
ffffff804000329c: d3441d6c     	ubfx	x12, x11, #4, #4
ffffff80400032a0: 92400d6f     	and	x15, x11, #0xf
ffffff80400032a4: d3482d70     	ubfx	x16, x11, #8, #4
ffffff80400032a8: d34c3d63     	ubfx	x3, x11, #12, #4
ffffff80400032ac: d3504d64     	ubfx	x4, x11, #16, #4
ffffff80400032b0: d3545d65     	ubfx	x5, x11, #20, #4
ffffff80400032b4: d3586d66     	ubfx	x6, x11, #24, #4
ffffff80400032b8: 531c7d73     	lsr	w19, w11, #28
ffffff80400032bc: d3608d74     	ubfx	x20, x11, #32, #4
ffffff80400032c0: d3649d76     	ubfx	x22, x11, #36, #4
ffffff80400032c4: d368ad77     	ubfx	x23, x11, #40, #4
ffffff80400032c8: d36cbd79     	ubfx	x25, x11, #44, #4
ffffff80400032cc: d370cd7a     	ubfx	x26, x11, #48, #4
ffffff80400032d0: d374dd7b     	ubfx	x27, x11, #52, #4
ffffff80400032d4: d378ed7c     	ubfx	x28, x11, #56, #4
ffffff80400032d8: d37cfd6b     	lsr	x11, x11, #60
ffffff80400032dc: 390000e0     	strb	w0, [x7]
ffffff80400032e0: 390000e2     	strb	w2, [x7]
ffffff80400032e4: 390000ea     	strb	w10, [x7]
ffffff80400032e8: 386b690b     	ldrb	w11, [x8, x11]
ffffff80400032ec: 386f690f     	ldrb	w15, [x8, x15]
ffffff80400032f0: 386c690c     	ldrb	w12, [x8, x12]
ffffff80400032f4: 38706910     	ldrb	w16, [x8, x16]
ffffff80400032f8: 38636903     	ldrb	w3, [x8, x3]
ffffff80400032fc: 38646904     	ldrb	w4, [x8, x4]
ffffff8040003300: 38656905     	ldrb	w5, [x8, x5]
ffffff8040003304: 38666906     	ldrb	w6, [x8, x6]
ffffff8040003308: 38736913     	ldrb	w19, [x8, x19]
ffffff804000330c: 38746914     	ldrb	w20, [x8, x20]
ffffff8040003310: 38766916     	ldrb	w22, [x8, x22]
ffffff8040003314: 38776917     	ldrb	w23, [x8, x23]
ffffff8040003318: 38796919     	ldrb	w25, [x8, x25]
ffffff804000331c: 387a691a     	ldrb	w26, [x8, x26]
ffffff8040003320: 387b691b     	ldrb	w27, [x8, x27]
ffffff8040003324: 387c691c     	ldrb	w28, [x8, x28]
ffffff8040003328: 390000f1     	strb	w17, [x7]
ffffff804000332c: 390000f2     	strb	w18, [x7]
ffffff8040003330: 52800d92     	mov	w18, #0x6c      // =108
ffffff8040003334: 390000eb     	strb	w11, [x7]
ffffff8040003338: 52800d0b     	mov	w11, #0x68      // =104
ffffff804000333c: 390000fc     	strb	w28, [x7]
ffffff8040003340: 390000fb     	strb	w27, [x7]
ffffff8040003344: 390000fa     	strb	w26, [x7]
ffffff8040003348: 390000f9     	strb	w25, [x7]
ffffff804000334c: 390000f7     	strb	w23, [x7]
ffffff8040003350: 390000f6     	strb	w22, [x7]
ffffff8040003354: 390000f4     	strb	w20, [x7]
ffffff8040003358: 390000f3     	strb	w19, [x7]
ffffff804000335c: 390000e6     	strb	w6, [x7]
ffffff8040003360: 390000e5     	strb	w5, [x7]
ffffff8040003364: 390000e4     	strb	w4, [x7]
ffffff8040003368: 390000e3     	strb	w3, [x7]
ffffff804000336c: 390000f0     	strb	w16, [x7]
ffffff8040003370: 390000ec     	strb	w12, [x7]
ffffff8040003374: 390000ef     	strb	w15, [x7]
ffffff8040003378: 390000ea     	strb	w10, [x7]
ffffff804000337c: 390000fd     	strb	w29, [x7]
ffffff8040003380: 390000e1     	strb	w1, [x7]
ffffff8040003384: 390000eb     	strb	w11, [x7]
ffffff8040003388: 52800cab     	mov	w11, #0x65      // =101
ffffff804000338c: 390000e2     	strb	w2, [x7]
ffffff8040003390: 390000e1     	strb	w1, [x7]
ffffff8040003394: 390000f2     	strb	w18, [x7]
ffffff8040003398: 390000eb     	strb	w11, [x7]
ffffff804000339c: b000002b     	adrp	x11, 0xffffff8040008000 <rodata_check_str>
ffffff80400033a0: 91302d6b     	add	x11, x11, #0xc0b
ffffff80400033a4: d3441d6c     	ubfx	x12, x11, #4, #4
ffffff80400033a8: 92400d6f     	and	x15, x11, #0xf
ffffff80400033ac: d3482d70     	ubfx	x16, x11, #8, #4
ffffff80400033b0: d34c3d63     	ubfx	x3, x11, #12, #4
ffffff80400033b4: d3504d64     	ubfx	x4, x11, #16, #4
ffffff80400033b8: d3545d65     	ubfx	x5, x11, #20, #4
ffffff80400033bc: d3586d66     	ubfx	x6, x11, #24, #4
ffffff80400033c0: 531c7d73     	lsr	w19, w11, #28
ffffff80400033c4: d3608d74     	ubfx	x20, x11, #32, #4
ffffff80400033c8: d3649d76     	ubfx	x22, x11, #36, #4
ffffff80400033cc: d368ad77     	ubfx	x23, x11, #40, #4
ffffff80400033d0: d36cbd79     	ubfx	x25, x11, #44, #4
ffffff80400033d4: d370cd7a     	ubfx	x26, x11, #48, #4
ffffff80400033d8: d374dd7b     	ubfx	x27, x11, #52, #4
ffffff80400033dc: d378ed7c     	ubfx	x28, x11, #56, #4
ffffff80400033e0: d37cfd6b     	lsr	x11, x11, #60
ffffff80400033e4: 390000ed     	strb	w13, [x7]
ffffff80400033e8: 390000ee     	strb	w14, [x7]
ffffff80400033ec: 390000e0     	strb	w0, [x7]
ffffff80400033f0: 390000e2     	strb	w2, [x7]
ffffff80400033f4: 390000ea     	strb	w10, [x7]
ffffff80400033f8: 386c690c     	ldrb	w12, [x8, x12]
ffffff80400033fc: 38706910     	ldrb	w16, [x8, x16]
ffffff8040003400: 38636903     	ldrb	w3, [x8, x3]
ffffff8040003404: 38646904     	ldrb	w4, [x8, x4]
ffffff8040003408: 38656905     	ldrb	w5, [x8, x5]
ffffff804000340c: 38666906     	ldrb	w6, [x8, x6]
ffffff8040003410: 38736913     	ldrb	w19, [x8, x19]
ffffff8040003414: 38746914     	ldrb	w20, [x8, x20]
ffffff8040003418: 38766916     	ldrb	w22, [x8, x22]
ffffff804000341c: 38776917     	ldrb	w23, [x8, x23]
ffffff8040003420: 38796919     	ldrb	w25, [x8, x25]
ffffff8040003424: 387a691a     	ldrb	w26, [x8, x26]
ffffff8040003428: 387b691b     	ldrb	w27, [x8, x27]
ffffff804000342c: 387c691c     	ldrb	w28, [x8, x28]
ffffff8040003430: 386b690b     	ldrb	w11, [x8, x11]
ffffff8040003434: 386f690f     	ldrb	w15, [x8, x15]
ffffff8040003438: 390000f1     	strb	w17, [x7]
ffffff804000343c: 390000f8     	strb	w24, [x7]
ffffff8040003440: 390000eb     	strb	w11, [x7]
ffffff8040003444: 52800d2b     	mov	w11, #0x69      // =105
ffffff8040003448: 390000fc     	strb	w28, [x7]
ffffff804000344c: 52800ddc     	mov	w28, #0x6e      // =110
ffffff8040003450: 390000fb     	strb	w27, [x7]
ffffff8040003454: 390000fa     	strb	w26, [x7]
ffffff8040003458: 390000f9     	strb	w25, [x7]
ffffff804000345c: 390000f7     	strb	w23, [x7]
ffffff8040003460: 390000f6     	strb	w22, [x7]
ffffff8040003464: 390000f4     	strb	w20, [x7]
ffffff8040003468: 390000f3     	strb	w19, [x7]
ffffff804000346c: 390000e6     	strb	w6, [x7]
ffffff8040003470: 390000e5     	strb	w5, [x7]
ffffff8040003474: 390000e4     	strb	w4, [x7]
ffffff8040003478: 390000e3     	strb	w3, [x7]
ffffff804000347c: 390000f0     	strb	w16, [x7]
ffffff8040003480: 390000ec     	strb	w12, [x7]
ffffff8040003484: 52800dcc     	mov	w12, #0x6e      // =110
ffffff8040003488: 390000ef     	strb	w15, [x7]
ffffff804000348c: 390000ea     	strb	w10, [x7]
ffffff8040003490: 390000eb     	strb	w11, [x7]
ffffff8040003494: 390000ec     	strb	w12, [x7]
ffffff8040003498: 390000eb     	strb	w11, [x7]
ffffff804000349c: 390000e0     	strb	w0, [x7]
ffffff80400034a0: 390000ed     	strb	w13, [x7]
ffffff80400034a4: 390000f5     	strb	w21, [x7]
ffffff80400034a8: 390000eb     	strb	w11, [x7]
ffffff80400034ac: b000002b     	adrp	x11, 0xffffff8040008000 <rodata_check_str>
ffffff80400034b0: 9130056b     	add	x11, x11, #0xc01
ffffff80400034b4: 390000ec     	strb	w12, [x7]
ffffff80400034b8: d3441d6c     	ubfx	x12, x11, #4, #4
ffffff80400034bc: 92400d6f     	and	x15, x11, #0xf
ffffff80400034c0: d3482d70     	ubfx	x16, x11, #8, #4
ffffff80400034c4: d34c3d63     	ubfx	x3, x11, #12, #4
ffffff80400034c8: d3504d64     	ubfx	x4, x11, #16, #4
ffffff80400034cc: d3545d65     	ubfx	x5, x11, #20, #4
ffffff80400034d0: d3586d66     	ubfx	x6, x11, #24, #4
ffffff80400034d4: 531c7d73     	lsr	w19, w11, #28
ffffff80400034d8: d3608d74     	ubfx	x20, x11, #32, #4
ffffff80400034dc: d3649d75     	ubfx	x21, x11, #36, #4
ffffff80400034e0: d368ad76     	ubfx	x22, x11, #40, #4
ffffff80400034e4: d36cbd77     	ubfx	x23, x11, #44, #4
ffffff80400034e8: d370cd79     	ubfx	x25, x11, #48, #4
ffffff80400034ec: d374dd7a     	ubfx	x26, x11, #52, #4
ffffff80400034f0: d378ed7b     	ubfx	x27, x11, #56, #4
ffffff80400034f4: d37cfd6b     	lsr	x11, x11, #60
ffffff80400034f8: 390000ed     	strb	w13, [x7]
ffffff80400034fc: 390000ee     	strb	w14, [x7]
ffffff8040003500: 52800f0e     	mov	w14, #0x78      // =120
ffffff8040003504: 390000e0     	strb	w0, [x7]
ffffff8040003508: 390000e2     	strb	w2, [x7]
ffffff804000350c: 390000ea     	strb	w10, [x7]
ffffff8040003510: 386b690b     	ldrb	w11, [x8, x11]
ffffff8040003514: 386f690f     	ldrb	w15, [x8, x15]
ffffff8040003518: 386c690c     	ldrb	w12, [x8, x12]
ffffff804000351c: 38706910     	ldrb	w16, [x8, x16]
ffffff8040003520: 38636903     	ldrb	w3, [x8, x3]
ffffff8040003524: 38646904     	ldrb	w4, [x8, x4]
ffffff8040003528: 38656905     	ldrb	w5, [x8, x5]
ffffff804000352c: 38666906     	ldrb	w6, [x8, x6]
ffffff8040003530: 38736913     	ldrb	w19, [x8, x19]
ffffff8040003534: 38746914     	ldrb	w20, [x8, x20]
ffffff8040003538: 38756915     	ldrb	w21, [x8, x21]
ffffff804000353c: 38766916     	ldrb	w22, [x8, x22]
ffffff8040003540: 38776917     	ldrb	w23, [x8, x23]
ffffff8040003544: 38796919     	ldrb	w25, [x8, x25]
ffffff8040003548: 387a691a     	ldrb	w26, [x8, x26]
ffffff804000354c: 387b691b     	ldrb	w27, [x8, x27]
ffffff8040003550: 390000f1     	strb	w17, [x7]
ffffff8040003554: 390000ee     	strb	w14, [x7]
ffffff8040003558: 390000eb     	strb	w11, [x7]
ffffff804000355c: 52800c2b     	mov	w11, #0x61      // =97
ffffff8040003560: 390000fb     	strb	w27, [x7]
ffffff8040003564: 390000fa     	strb	w26, [x7]
ffffff8040003568: 390000f9     	strb	w25, [x7]
ffffff804000356c: 390000f7     	strb	w23, [x7]
ffffff8040003570: 390000f6     	strb	w22, [x7]
ffffff8040003574: 390000f5     	strb	w21, [x7]
ffffff8040003578: 390000f4     	strb	w20, [x7]
ffffff804000357c: 390000f3     	strb	w19, [x7]
ffffff8040003580: 390000e6     	strb	w6, [x7]
ffffff8040003584: 390000e5     	strb	w5, [x7]
ffffff8040003588: 390000e4     	strb	w4, [x7]
ffffff804000358c: 390000e3     	strb	w3, [x7]
ffffff8040003590: 390000f0     	strb	w16, [x7]
ffffff8040003594: 390000ec     	strb	w12, [x7]
ffffff8040003598: 390000ef     	strb	w15, [x7]
ffffff804000359c: 390000ea     	strb	w10, [x7]
ffffff80400035a0: 3900a3ff     	strb	wzr, [sp, #0x28]
ffffff80400035a4: 390000f2     	strb	w18, [x7]
ffffff80400035a8: 390000e1     	strb	w1, [x7]
ffffff80400035ac: 390000fd     	strb	w29, [x7]
ffffff80400035b0: 52800f1d     	mov	w29, #0x78      // =120
ffffff80400035b4: 390000eb     	strb	w11, [x7]
ffffff80400035b8: 9100a3eb     	add	x11, sp, #0x28
ffffff80400035bc: d3441d6c     	ubfx	x12, x11, #4, #4
ffffff80400035c0: 927e056f     	and	x15, x11, #0xc
ffffff80400035c4: d3482d70     	ubfx	x16, x11, #8, #4
ffffff80400035c8: d34c3d63     	ubfx	x3, x11, #12, #4
ffffff80400035cc: d3504d64     	ubfx	x4, x11, #16, #4
ffffff80400035d0: d3545d65     	ubfx	x5, x11, #20, #4
ffffff80400035d4: d3586d66     	ubfx	x6, x11, #24, #4
ffffff80400035d8: 531c7d73     	lsr	w19, w11, #28
ffffff80400035dc: d3608d74     	ubfx	x20, x11, #32, #4
ffffff80400035e0: d3649d75     	ubfx	x21, x11, #36, #4
ffffff80400035e4: d368ad76     	ubfx	x22, x11, #40, #4
ffffff80400035e8: d36cbd77     	ubfx	x23, x11, #44, #4
ffffff80400035ec: d370cd79     	ubfx	x25, x11, #48, #4
ffffff80400035f0: d374dd7a     	ubfx	x26, x11, #52, #4
ffffff80400035f4: d378ed7b     	ubfx	x27, x11, #56, #4
ffffff80400035f8: d37cfd6b     	lsr	x11, x11, #60
ffffff80400035fc: 390000f2     	strb	w18, [x7]
ffffff8040003600: 52800d12     	mov	w18, #0x68      // =104
ffffff8040003604: 390000ea     	strb	w10, [x7]
ffffff8040003608: 386f690f     	ldrb	w15, [x8, x15]
ffffff804000360c: 386c690c     	ldrb	w12, [x8, x12]
ffffff8040003610: 38706910     	ldrb	w16, [x8, x16]
ffffff8040003614: 38636903     	ldrb	w3, [x8, x3]
ffffff8040003618: 38646904     	ldrb	w4, [x8, x4]
ffffff804000361c: 38656905     	ldrb	w5, [x8, x5]
ffffff8040003620: 38666906     	ldrb	w6, [x8, x6]
ffffff8040003624: 38736913     	ldrb	w19, [x8, x19]
ffffff8040003628: 38746914     	ldrb	w20, [x8, x20]
ffffff804000362c: 38756915     	ldrb	w21, [x8, x21]
ffffff8040003630: 38766916     	ldrb	w22, [x8, x22]
ffffff8040003634: 38776917     	ldrb	w23, [x8, x23]
ffffff8040003638: 38796919     	ldrb	w25, [x8, x25]
ffffff804000363c: 387a691a     	ldrb	w26, [x8, x26]
ffffff8040003640: 387b691b     	ldrb	w27, [x8, x27]
ffffff8040003644: 386b690b     	ldrb	w11, [x8, x11]
ffffff8040003648: 390000f1     	strb	w17, [x7]
ffffff804000364c: 390000ee     	strb	w14, [x7]
ffffff8040003650: 52800e6e     	mov	w14, #0x73      // =115
ffffff8040003654: 390000eb     	strb	w11, [x7]
ffffff8040003658: 390000fb     	strb	w27, [x7]
ffffff804000365c: 390000fa     	strb	w26, [x7]
ffffff8040003660: 52800e1a     	mov	w26, #0x70      // =112
ffffff8040003664: 390000f9     	strb	w25, [x7]
ffffff8040003668: 390000f7     	strb	w23, [x7]
ffffff804000366c: 390000f6     	strb	w22, [x7]
ffffff8040003670: 390000f5     	strb	w21, [x7]
ffffff8040003674: 390000f4     	strb	w20, [x7]
ffffff8040003678: 390000f3     	strb	w19, [x7]
ffffff804000367c: 390000e6     	strb	w6, [x7]
ffffff8040003680: 390000e5     	strb	w5, [x7]
ffffff8040003684: 390000e4     	strb	w4, [x7]
ffffff8040003688: 390000e3     	strb	w3, [x7]
ffffff804000368c: 390000f0     	strb	w16, [x7]
ffffff8040003690: 390000ec     	strb	w12, [x7]
ffffff8040003694: 52800cac     	mov	w12, #0x65      // =101
ffffff8040003698: 390000ef     	strb	w15, [x7]
ffffff804000369c: 390000ea     	strb	w10, [x7]
ffffff80400036a0: a9410feb     	ldp	x11, x3, [sp, #0x10]
ffffff80400036a4: 390000f2     	strb	w18, [x7]
ffffff80400036a8: 390000ec     	strb	w12, [x7]
ffffff80400036ac: 52800c2c     	mov	w12, #0x61      // =97
ffffff80400036b0: 390000ec     	strb	w12, [x7]
ffffff80400036b4: 390000fa     	strb	w26, [x7]
ffffff80400036b8: 92400d6f     	and	x15, x11, #0xf
ffffff80400036bc: d3482d70     	ubfx	x16, x11, #8, #4
ffffff80400036c0: 390000ed     	strb	w13, [x7]
ffffff80400036c4: d3504d61     	ubfx	x1, x11, #16, #4
ffffff80400036c8: d3586d64     	ubfx	x4, x11, #24, #4
ffffff80400036cc: 390000ee     	strb	w14, [x7]
ffffff80400036d0: 531c7d65     	lsr	w5, w11, #28
ffffff80400036d4: d3608d66     	ubfx	x6, x11, #32, #4
ffffff80400036d8: 390000e0     	strb	w0, [x7]
ffffff80400036dc: d3649d73     	ubfx	x19, x11, #36, #4
ffffff80400036e0: d368ad74     	ubfx	x20, x11, #40, #4
ffffff80400036e4: 390000ec     	strb	w12, [x7]
ffffff80400036e8: d3441d6c     	ubfx	x12, x11, #4, #4
ffffff80400036ec: d36cbd75     	ubfx	x21, x11, #44, #4
ffffff80400036f0: 390000e2     	strb	w2, [x7]
ffffff80400036f4: d3545d62     	ubfx	x2, x11, #20, #4
ffffff80400036f8: d370cd76     	ubfx	x22, x11, #48, #4
ffffff80400036fc: 390000e0     	strb	w0, [x7]
ffffff8040003700: d34c3d60     	ubfx	x0, x11, #12, #4
ffffff8040003704: d374dd77     	ubfx	x23, x11, #52, #4
ffffff8040003708: d378ed79     	ubfx	x25, x11, #56, #4
ffffff804000370c: d37cfd6b     	lsr	x11, x11, #60
ffffff8040003710: 390000ea     	strb	w10, [x7]
ffffff8040003714: 386f690f     	ldrb	w15, [x8, x15]
ffffff8040003718: 386c690c     	ldrb	w12, [x8, x12]
ffffff804000371c: 38706910     	ldrb	w16, [x8, x16]
ffffff8040003720: 386b690b     	ldrb	w11, [x8, x11]
ffffff8040003724: 38606900     	ldrb	w0, [x8, x0]
ffffff8040003728: 38616901     	ldrb	w1, [x8, x1]
ffffff804000372c: 38626902     	ldrb	w2, [x8, x2]
ffffff8040003730: 38646904     	ldrb	w4, [x8, x4]
ffffff8040003734: 38656905     	ldrb	w5, [x8, x5]
ffffff8040003738: 38666906     	ldrb	w6, [x8, x6]
ffffff804000373c: 38736913     	ldrb	w19, [x8, x19]
ffffff8040003740: 38746914     	ldrb	w20, [x8, x20]
ffffff8040003744: 38756915     	ldrb	w21, [x8, x21]
ffffff8040003748: 38766916     	ldrb	w22, [x8, x22]
ffffff804000374c: 38776917     	ldrb	w23, [x8, x23]
ffffff8040003750: 38796919     	ldrb	w25, [x8, x25]
ffffff8040003754: 52800c2e     	mov	w14, #0x61      // =97
ffffff8040003758: 390000f1     	strb	w17, [x7]
ffffff804000375c: 390000fd     	strb	w29, [x7]
ffffff8040003760: 390000eb     	strb	w11, [x7]
ffffff8040003764: 52800cab     	mov	w11, #0x65      // =101
ffffff8040003768: 390000f9     	strb	w25, [x7]
ffffff804000376c: 390000f7     	strb	w23, [x7]
ffffff8040003770: 390000f6     	strb	w22, [x7]
ffffff8040003774: 390000f5     	strb	w21, [x7]
ffffff8040003778: d378ec75     	ubfx	x21, x3, #56, #4
ffffff804000377c: 390000f4     	strb	w20, [x7]
ffffff8040003780: d374dc74     	ubfx	x20, x3, #52, #4
ffffff8040003784: 390000f3     	strb	w19, [x7]
ffffff8040003788: d370cc73     	ubfx	x19, x3, #48, #4
ffffff804000378c: 390000e6     	strb	w6, [x7]
ffffff8040003790: d36cbc66     	ubfx	x6, x3, #44, #4
ffffff8040003794: 390000e5     	strb	w5, [x7]
ffffff8040003798: d368ac65     	ubfx	x5, x3, #40, #4
ffffff804000379c: 390000e4     	strb	w4, [x7]
ffffff80400037a0: d3649c64     	ubfx	x4, x3, #36, #4
ffffff80400037a4: 390000e2     	strb	w2, [x7]
ffffff80400037a8: d3608c62     	ubfx	x2, x3, #32, #4
ffffff80400037ac: 390000e1     	strb	w1, [x7]
ffffff80400037b0: 531c7c61     	lsr	w1, w3, #28
ffffff80400037b4: 390000e0     	strb	w0, [x7]
ffffff80400037b8: d3586c60     	ubfx	x0, x3, #24, #4
ffffff80400037bc: 390000f0     	strb	w16, [x7]
ffffff80400037c0: d3545c70     	ubfx	x16, x3, #20, #4
ffffff80400037c4: 390000ec     	strb	w12, [x7]
ffffff80400037c8: 92400c6c     	and	x12, x3, #0xf
ffffff80400037cc: 390000ef     	strb	w15, [x7]
ffffff80400037d0: d3504c6f     	ubfx	x15, x3, #16, #4
ffffff80400037d4: 390000ea     	strb	w10, [x7]
ffffff80400037d8: 390000f2     	strb	w18, [x7]
ffffff80400037dc: 390000eb     	strb	w11, [x7]
ffffff80400037e0: 390000ee     	strb	w14, [x7]
ffffff80400037e4: d34c3c6e     	ubfx	x14, x3, #12, #4
ffffff80400037e8: 390000fa     	strb	w26, [x7]
ffffff80400037ec: 390000ed     	strb	w13, [x7]
ffffff80400037f0: d3482c6d     	ubfx	x13, x3, #8, #4
ffffff80400037f4: 390000eb     	strb	w11, [x7]
ffffff80400037f8: 52800c8b     	mov	w11, #0x64      // =100
ffffff80400037fc: 390000fc     	strb	w28, [x7]
ffffff8040003800: 390000eb     	strb	w11, [x7]
ffffff8040003804: d3441c6b     	ubfx	x11, x3, #4, #4
ffffff8040003808: d37cfc63     	lsr	x3, x3, #60
ffffff804000380c: 390000ea     	strb	w10, [x7]
ffffff8040003810: 386c690c     	ldrb	w12, [x8, x12]
ffffff8040003814: 386b690b     	ldrb	w11, [x8, x11]
ffffff8040003818: 386d690d     	ldrb	w13, [x8, x13]
ffffff804000381c: 386e690e     	ldrb	w14, [x8, x14]
ffffff8040003820: 386f690f     	ldrb	w15, [x8, x15]
ffffff8040003824: 38706910     	ldrb	w16, [x8, x16]
ffffff8040003828: 38606900     	ldrb	w0, [x8, x0]
ffffff804000382c: 38616901     	ldrb	w1, [x8, x1]
ffffff8040003830: 38626902     	ldrb	w2, [x8, x2]
ffffff8040003834: 38646904     	ldrb	w4, [x8, x4]
ffffff8040003838: 38656905     	ldrb	w5, [x8, x5]
ffffff804000383c: 38666906     	ldrb	w6, [x8, x6]
ffffff8040003840: 38736913     	ldrb	w19, [x8, x19]
ffffff8040003844: 38746914     	ldrb	w20, [x8, x20]
ffffff8040003848: 38756915     	ldrb	w21, [x8, x21]
ffffff804000384c: 38636903     	ldrb	w3, [x8, x3]
ffffff8040003850: 390000f1     	strb	w17, [x7]
ffffff8040003854: 390000fd     	strb	w29, [x7]
ffffff8040003858: 390000e3     	strb	w3, [x7]
ffffff804000385c: 390000f5     	strb	w21, [x7]
ffffff8040003860: 390000f4     	strb	w20, [x7]
ffffff8040003864: 390000f3     	strb	w19, [x7]
ffffff8040003868: 390000e6     	strb	w6, [x7]
ffffff804000386c: 390000e5     	strb	w5, [x7]
ffffff8040003870: 390000e4     	strb	w4, [x7]
ffffff8040003874: 390000e2     	strb	w2, [x7]
ffffff8040003878: 390000e1     	strb	w1, [x7]
ffffff804000387c: 390000e0     	strb	w0, [x7]
ffffff8040003880: 390000f0     	strb	w16, [x7]
ffffff8040003884: 390000ef     	strb	w15, [x7]
ffffff8040003888: 390000ee     	strb	w14, [x7]
ffffff804000388c: 390000ed     	strb	w13, [x7]
ffffff8040003890: 390000eb     	strb	w11, [x7]
ffffff8040003894: d503201f     	nop
ffffff8040003898: 1005bb4b     	adr	x11, 0xffffff804000f000 <__heap_start>
ffffff804000389c: 390000ec     	strb	w12, [x7]
ffffff80400038a0: 390000ea     	strb	w10, [x7]
ffffff80400038a4: d000004a     	adrp	x10, 0xffffff804000d000 <__bss_start>
ffffff80400038a8: f940014a     	ldr	x10, [x10]
ffffff80400038ac: f94013f0     	ldr	x16, [sp, #0x20]
ffffff80400038b0: 8b0b014a     	add	x10, x10, x11
ffffff80400038b4: eb10015f     	cmp	x10, x16
ffffff80400038b8: 54004742     	b.hs	0xffffff80400041a0 <main+0x1fd8>
ffffff80400038bc: 52a1200f     	mov	w15, #0x9000000 // =150994944
ffffff80400038c0: 52800e6c     	mov	w12, #0x73      // =115
ffffff80400038c4: 52800e8b     	mov	w11, #0x74      // =116
ffffff80400038c8: 52800c2a     	mov	w10, #0x61      // =97
ffffff80400038cc: 52800c71     	mov	w17, #0x63      // =99
ffffff80400038d0: 52800d72     	mov	w18, #0x6b      // =107
ffffff80400038d4: 52800be0     	mov	w0, #0x5f       // =95
ffffff80400038d8: 52800e4d     	mov	w13, #0x72      // =114
ffffff80400038dc: d503201f     	nop
ffffff80400038e0: 1046390e     	adr	x14, 0xffffff8040090000 <__stack_start>
ffffff80400038e4: 390001ec     	strb	w12, [x15]
ffffff80400038e8: 390001eb     	strb	w11, [x15]
ffffff80400038ec: d3441dc2     	ubfx	x2, x14, #4, #4
ffffff80400038f0: 92400dc1     	and	x1, x14, #0xf
ffffff80400038f4: 390001ea     	strb	w10, [x15]
ffffff80400038f8: d3482dc4     	ubfx	x4, x14, #8, #4
ffffff80400038fc: d3586dc7     	ubfx	x7, x14, #24, #4
ffffff8040003900: 390001f1     	strb	w17, [x15]
ffffff8040003904: d3608dd4     	ubfx	x20, x14, #32, #4
ffffff8040003908: d370cdd8     	ubfx	x24, x14, #48, #4
ffffff804000390c: 390001f2     	strb	w18, [x15]
ffffff8040003910: d378edda     	ubfx	x26, x14, #56, #4
ffffff8040003914: d37cfddc     	lsr	x28, x14, #60
ffffff8040003918: 390001e0     	strb	w0, [x15]
ffffff804000391c: eb0e013f     	cmp	x9, x14
ffffff8040003920: 390001ec     	strb	w12, [x15]
ffffff8040003924: 390001eb     	strb	w11, [x15]
ffffff8040003928: 390001ea     	strb	w10, [x15]
ffffff804000392c: 390001ed     	strb	w13, [x15]
ffffff8040003930: 5280014d     	mov	w13, #0xa       // =10
ffffff8040003934: 390001eb     	strb	w11, [x15]
ffffff8040003938: 390001ed     	strb	w13, [x15]
ffffff804000393c: 38616903     	ldrb	w3, [x8, x1]
ffffff8040003940: d34c3dc1     	ubfx	x1, x14, #12, #4
ffffff8040003944: 38626905     	ldrb	w5, [x8, x2]
ffffff8040003948: d3504dc2     	ubfx	x2, x14, #16, #4
ffffff804000394c: 38646904     	ldrb	w4, [x8, x4]
ffffff8040003950: 38676907     	ldrb	w7, [x8, x7]
ffffff8040003954: 38616906     	ldrb	w6, [x8, x1]
ffffff8040003958: d3545dc1     	ubfx	x1, x14, #20, #4
ffffff804000395c: 38746914     	ldrb	w20, [x8, x20]
ffffff8040003960: 38626913     	ldrb	w19, [x8, x2]
ffffff8040003964: 531c7dc2     	lsr	w2, w14, #28
ffffff8040003968: 38786918     	ldrb	w24, [x8, x24]
ffffff804000396c: 38616915     	ldrb	w21, [x8, x1]
ffffff8040003970: d3649dc1     	ubfx	x1, x14, #36, #4
ffffff8040003974: 387a691a     	ldrb	w26, [x8, x26]
ffffff8040003978: 38626916     	ldrb	w22, [x8, x2]
ffffff804000397c: d368adc2     	ubfx	x2, x14, #40, #4
ffffff8040003980: 387c691c     	ldrb	w28, [x8, x28]
ffffff8040003984: 38616917     	ldrb	w23, [x8, x1]
ffffff8040003988: d36cbdc1     	ubfx	x1, x14, #44, #4
ffffff804000398c: 38626919     	ldrb	w25, [x8, x2]
ffffff8040003990: d374ddc2     	ubfx	x2, x14, #52, #4
ffffff8040003994: 3861691b     	ldrb	w27, [x8, x1]
ffffff8040003998: 52800601     	mov	w1, #0x30       // =48
ffffff804000399c: 3862691d     	ldrb	w29, [x8, x2]
ffffff80400039a0: 52800f02     	mov	w2, #0x78       // =120
ffffff80400039a4: 390001e1     	strb	w1, [x15]
ffffff80400039a8: 390001e2     	strb	w2, [x15]
ffffff80400039ac: 390001fc     	strb	w28, [x15]
ffffff80400039b0: 390001fa     	strb	w26, [x15]
ffffff80400039b4: d374de1a     	ubfx	x26, x16, #52, #4
ffffff80400039b8: 390001fd     	strb	w29, [x15]
ffffff80400039bc: 390001f8     	strb	w24, [x15]
ffffff80400039c0: d36cbe18     	ubfx	x24, x16, #44, #4
ffffff80400039c4: 390001fb     	strb	w27, [x15]
ffffff80400039c8: d378ee1b     	ubfx	x27, x16, #56, #4
ffffff80400039cc: 390001f9     	strb	w25, [x15]
ffffff80400039d0: d370ce19     	ubfx	x25, x16, #48, #4
ffffff80400039d4: 390001f7     	strb	w23, [x15]
ffffff80400039d8: d368ae17     	ubfx	x23, x16, #40, #4
ffffff80400039dc: 390001f4     	strb	w20, [x15]
ffffff80400039e0: 531c7e14     	lsr	w20, w16, #28
ffffff80400039e4: 390001f6     	strb	w22, [x15]
ffffff80400039e8: d3649e16     	ubfx	x22, x16, #36, #4
ffffff80400039ec: 390001e7     	strb	w7, [x15]
ffffff80400039f0: d3545e07     	ubfx	x7, x16, #20, #4
ffffff80400039f4: 390001f5     	strb	w21, [x15]
ffffff80400039f8: d3608e15     	ubfx	x21, x16, #32, #4
ffffff80400039fc: 390001f3     	strb	w19, [x15]
ffffff8040003a00: d3586e13     	ubfx	x19, x16, #24, #4
ffffff8040003a04: 390001e6     	strb	w6, [x15]
ffffff8040003a08: d3504e06     	ubfx	x6, x16, #16, #4
ffffff8040003a0c: 390001e4     	strb	w4, [x15]
ffffff8040003a10: d3482e04     	ubfx	x4, x16, #8, #4
ffffff8040003a14: 390001e5     	strb	w5, [x15]
ffffff8040003a18: d34c3e05     	ubfx	x5, x16, #12, #4
ffffff8040003a1c: 390001e3     	strb	w3, [x15]
ffffff8040003a20: 92400e03     	and	x3, x16, #0xf
ffffff8040003a24: 390001ed     	strb	w13, [x15]
ffffff8040003a28: 390001ec     	strb	w12, [x15]
ffffff8040003a2c: 390001eb     	strb	w11, [x15]
ffffff8040003a30: 390001ea     	strb	w10, [x15]
ffffff8040003a34: 390001f1     	strb	w17, [x15]
ffffff8040003a38: 52800cb1     	mov	w17, #0x65      // =101
ffffff8040003a3c: 390001f2     	strb	w18, [x15]
ffffff8040003a40: 52800dd2     	mov	w18, #0x6e      // =110
ffffff8040003a44: 390001e0     	strb	w0, [x15]
ffffff8040003a48: 52800c80     	mov	w0, #0x64       // =100
ffffff8040003a4c: 390001f1     	strb	w17, [x15]
ffffff8040003a50: 390001f2     	strb	w18, [x15]
ffffff8040003a54: 390001e0     	strb	w0, [x15]
ffffff8040003a58: d3441e00     	ubfx	x0, x16, #4, #4
ffffff8040003a5c: d37cfe10     	lsr	x16, x16, #60
ffffff8040003a60: 390001ed     	strb	w13, [x15]
ffffff8040003a64: 38636903     	ldrb	w3, [x8, x3]
ffffff8040003a68: 38606900     	ldrb	w0, [x8, x0]
ffffff8040003a6c: 38646904     	ldrb	w4, [x8, x4]
ffffff8040003a70: 38656905     	ldrb	w5, [x8, x5]
ffffff8040003a74: 38666906     	ldrb	w6, [x8, x6]
ffffff8040003a78: 38676907     	ldrb	w7, [x8, x7]
ffffff8040003a7c: 38736913     	ldrb	w19, [x8, x19]
ffffff8040003a80: 38746914     	ldrb	w20, [x8, x20]
ffffff8040003a84: 38756915     	ldrb	w21, [x8, x21]
ffffff8040003a88: 38766916     	ldrb	w22, [x8, x22]
ffffff8040003a8c: 38776917     	ldrb	w23, [x8, x23]
ffffff8040003a90: 38786918     	ldrb	w24, [x8, x24]
ffffff8040003a94: 38796919     	ldrb	w25, [x8, x25]
ffffff8040003a98: 387a691a     	ldrb	w26, [x8, x26]
ffffff8040003a9c: 387b691b     	ldrb	w27, [x8, x27]
ffffff8040003aa0: 38706910     	ldrb	w16, [x8, x16]
ffffff8040003aa4: 390001e1     	strb	w1, [x15]
ffffff8040003aa8: 390001e2     	strb	w2, [x15]
ffffff8040003aac: 390001f0     	strb	w16, [x15]
ffffff8040003ab0: 390001fb     	strb	w27, [x15]
ffffff8040003ab4: 390001fa     	strb	w26, [x15]
ffffff8040003ab8: 390001f9     	strb	w25, [x15]
ffffff8040003abc: 390001f8     	strb	w24, [x15]
ffffff8040003ac0: 390001f7     	strb	w23, [x15]
ffffff8040003ac4: 390001f6     	strb	w22, [x15]
ffffff8040003ac8: 390001f5     	strb	w21, [x15]
ffffff8040003acc: 390001f4     	strb	w20, [x15]
ffffff8040003ad0: 390001f3     	strb	w19, [x15]
ffffff8040003ad4: 390001e7     	strb	w7, [x15]
ffffff8040003ad8: 390001e6     	strb	w6, [x15]
ffffff8040003adc: 390001e5     	strb	w5, [x15]
ffffff8040003ae0: 390001e4     	strb	w4, [x15]
ffffff8040003ae4: 390001e0     	strb	w0, [x15]
ffffff8040003ae8: 390001e3     	strb	w3, [x15]
ffffff8040003aec: 390001ed     	strb	w13, [x15]
ffffff8040003af0: 540015e3     	b.lo	0xffffff8040003dac <main+0x1be4>
ffffff8040003af4: f94013ef     	ldr	x15, [sp, #0x20]
ffffff8040003af8: eb0f013f     	cmp	x9, x15
ffffff8040003afc: 54001588     	b.hi	0xffffff8040003dac <main+0x1be4>
ffffff8040003b00: 52a12016     	mov	w22, #0x9000000 // =150994944
ffffff8040003b04: 52800e49     	mov	w9, #0x72       // =114
ffffff8040003b08: 52800dea     	mov	w10, #0x6f      // =111
ffffff8040003b0c: 390002c9     	strb	w9, [x22]
ffffff8040003b10: 52800c8e     	mov	w14, #0x64      // =100
ffffff8040003b14: 52800c2b     	mov	w11, #0x61      // =97
ffffff8040003b18: 390002ca     	strb	w10, [x22]
ffffff8040003b1c: 52800e8a     	mov	w10, #0x74      // =116
ffffff8040003b20: 52800bec     	mov	w12, #0x5f      // =95
ffffff8040003b24: d503201f     	nop
ffffff8040003b28: 1002869a     	adr	x26, 0xffffff8040008bf8 <_ZN12cohesix_root17ROOTSERVER_ONLINE17hccde821890211dbaE+0x3e0>
ffffff8040003b2c: 390002ce     	strb	w14, [x22]
ffffff8040003b30: 390002cb     	strb	w11, [x22]
ffffff8040003b34: d3441f50     	ubfx	x16, x26, #4, #4
ffffff8040003b38: d3482f51     	ubfx	x17, x26, #8, #4
ffffff8040003b3c: 390002ca     	strb	w10, [x22]
ffffff8040003b40: d34c3f52     	ubfx	x18, x26, #12, #4
ffffff8040003b44: d3504f40     	ubfx	x0, x26, #16, #4
ffffff8040003b48: 390002cb     	strb	w11, [x22]
ffffff8040003b4c: d3545f41     	ubfx	x1, x26, #20, #4
ffffff8040003b50: d3586f42     	ubfx	x2, x26, #24, #4
ffffff8040003b54: 390002cc     	strb	w12, [x22]
ffffff8040003b58: 531c7f43     	lsr	w3, w26, #28
ffffff8040003b5c: d3608f44     	ubfx	x4, x26, #32, #4
ffffff8040003b60: 390002cb     	strb	w11, [x22]
ffffff8040003b64: d3649f45     	ubfx	x5, x26, #36, #4
ffffff8040003b68: d368af46     	ubfx	x6, x26, #40, #4
ffffff8040003b6c: 390002ce     	strb	w14, [x22]
ffffff8040003b70: d36cbf47     	ubfx	x7, x26, #44, #4
ffffff8040003b74: d370cf53     	ubfx	x19, x26, #48, #4
ffffff8040003b78: 390002ce     	strb	w14, [x22]
ffffff8040003b7c: d374df54     	ubfx	x20, x26, #52, #4
ffffff8040003b80: d378ef55     	ubfx	x21, x26, #56, #4
ffffff8040003b84: 390002c9     	strb	w9, [x22]
ffffff8040003b88: 52800149     	mov	w9, #0xa        // =10
ffffff8040003b8c: d37cff57     	lsr	x23, x26, #60
ffffff8040003b90: 390002c9     	strb	w9, [x22]
ffffff8040003b94: 92400f4f     	and	x15, x26, #0xf
ffffff8040003b98: 5280060a     	mov	w10, #0x30      // =48
ffffff8040003b9c: 386f690f     	ldrb	w15, [x8, x15]
ffffff8040003ba0: 38706910     	ldrb	w16, [x8, x16]
ffffff8040003ba4: 38716911     	ldrb	w17, [x8, x17]
ffffff8040003ba8: 38726912     	ldrb	w18, [x8, x18]
ffffff8040003bac: 38606900     	ldrb	w0, [x8, x0]
ffffff8040003bb0: 38616901     	ldrb	w1, [x8, x1]
ffffff8040003bb4: 38626902     	ldrb	w2, [x8, x2]
ffffff8040003bb8: 38636903     	ldrb	w3, [x8, x3]
ffffff8040003bbc: 38646904     	ldrb	w4, [x8, x4]
ffffff8040003bc0: 38656905     	ldrb	w5, [x8, x5]
ffffff8040003bc4: 38666906     	ldrb	w6, [x8, x6]
ffffff8040003bc8: 38676907     	ldrb	w7, [x8, x7]
ffffff8040003bcc: 38736913     	ldrb	w19, [x8, x19]
ffffff8040003bd0: 38746914     	ldrb	w20, [x8, x20]
ffffff8040003bd4: 38756915     	ldrb	w21, [x8, x21]
ffffff8040003bd8: 38776917     	ldrb	w23, [x8, x23]
ffffff8040003bdc: 52800f08     	mov	w8, #0x78       // =120
ffffff8040003be0: f150035f     	cmp	x26, #0x400, lsl #12 // =0x400000
ffffff8040003be4: 390002ca     	strb	w10, [x22]
ffffff8040003be8: 390002c8     	strb	w8, [x22]
ffffff8040003bec: 390002d7     	strb	w23, [x22]
ffffff8040003bf0: 390002d5     	strb	w21, [x22]
ffffff8040003bf4: 390002d4     	strb	w20, [x22]
ffffff8040003bf8: 390002d3     	strb	w19, [x22]
ffffff8040003bfc: 390002c7     	strb	w7, [x22]
ffffff8040003c00: 390002c6     	strb	w6, [x22]
ffffff8040003c04: 390002c5     	strb	w5, [x22]
ffffff8040003c08: 390002c4     	strb	w4, [x22]
ffffff8040003c0c: 390002c3     	strb	w3, [x22]
ffffff8040003c10: 390002c2     	strb	w2, [x22]
ffffff8040003c14: 390002c1     	strb	w1, [x22]
ffffff8040003c18: 390002c0     	strb	w0, [x22]
ffffff8040003c1c: 390002d2     	strb	w18, [x22]
ffffff8040003c20: 390002d1     	strb	w17, [x22]
ffffff8040003c24: 390002d0     	strb	w16, [x22]
ffffff8040003c28: 390002cf     	strb	w15, [x22]
ffffff8040003c2c: 390002c9     	strb	w9, [x22]
ffffff8040003c30: 540012a3     	b.lo	0xffffff8040003e84 <main+0x1cbc>
ffffff8040003c34: eb1e035f     	cmp	x26, x30
ffffff8040003c38: 54001262     	b.hs	0xffffff8040003e84 <main+0x1cbc>
ffffff8040003c3c: 52a12010     	mov	w16, #0x9000000 // =150994944
ffffff8040003c40: 52800e4b     	mov	w11, #0x72      // =114
ffffff8040003c44: 52800dec     	mov	w12, #0x6f      // =111
ffffff8040003c48: 52800c89     	mov	w9, #0x64       // =100
ffffff8040003c4c: 52800c28     	mov	w8, #0x61       // =97
ffffff8040003c50: 52800e8a     	mov	w10, #0x74      // =116
ffffff8040003c54: 52800bf1     	mov	w17, #0x5f      // =95
ffffff8040003c58: 52800ece     	mov	w14, #0x76      // =118
ffffff8040003c5c: 52800d8f     	mov	w15, #0x6c      // =108
ffffff8040003c60: 52800a52     	mov	w18, #0x52      // =82
ffffff8040003c64: 3900020b     	strb	w11, [x16]
ffffff8040003c68: 52800880     	mov	w0, #0x44       // =68
ffffff8040003c6c: 3900020c     	strb	w12, [x16]
ffffff8040003c70: 52800a81     	mov	w1, #0x54       // =84
ffffff8040003c74: 39000209     	strb	w9, [x16]
ffffff8040003c78: 39000208     	strb	w8, [x16]
ffffff8040003c7c: 3900020a     	strb	w10, [x16]
ffffff8040003c80: 39000208     	strb	w8, [x16]
ffffff8040003c84: 39000211     	strb	w17, [x16]
ffffff8040003c88: 3900020e     	strb	w14, [x16]
ffffff8040003c8c: 39000208     	strb	w8, [x16]
ffffff8040003c90: 3900020f     	strb	w15, [x16]
ffffff8040003c94: 3900020d     	strb	w13, [x16]
ffffff8040003c98: 39000212     	strb	w18, [x16]
ffffff8040003c9c: 528009f2     	mov	w18, #0x4f      // =79
ffffff8040003ca0: 39000212     	strb	w18, [x16]
ffffff8040003ca4: 39000200     	strb	w0, [x16]
ffffff8040003ca8: 52800820     	mov	w0, #0x41       // =65
ffffff8040003cac: 39000200     	strb	w0, [x16]
ffffff8040003cb0: 39000201     	strb	w1, [x16]
ffffff8040003cb4: 39000200     	strb	w0, [x16]
ffffff8040003cb8: 39000211     	strb	w17, [x16]
ffffff8040003cbc: 9100a3f1     	add	x17, sp, #0x28
ffffff8040003cc0: 39000212     	strb	w18, [x16]
ffffff8040003cc4: 52800972     	mov	w18, #0x4b      // =75
ffffff8040003cc8: 39000212     	strb	w18, [x16]
ffffff8040003ccc: d503201f     	nop
ffffff8040003cd0: 10461992     	adr	x18, 0xffffff8040090000 <__stack_start>
ffffff8040003cd4: eb12023f     	cmp	x17, x18
ffffff8040003cd8: 3900020d     	strb	w13, [x16]
ffffff8040003cdc: 54001a63     	b.lo	0xffffff8040004028 <main+0x1e60>
ffffff8040003ce0: f94013f0     	ldr	x16, [sp, #0x20]
ffffff8040003ce4: eb11021f     	cmp	x16, x17
ffffff8040003ce8: 54001a03     	b.lo	0xffffff8040004028 <main+0x1e60>
ffffff8040003cec: f9400be8     	ldr	x8, [sp, #0x10]
ffffff8040003cf0: d1500108     	sub	x8, x8, #0x400, lsl #12 // =0x400000
ffffff8040003cf4: f158cd1f     	cmp	x8, #0x633, lsl #12 // =0x633000
ffffff8040003cf8: 54001dc2     	b.hs	0xffffff80400040b0 <main+0x1ee8>
ffffff8040003cfc: d503201f     	nop
ffffff8040003d00: 10461808     	adr	x8, 0xffffff8040090000 <__stack_start>
ffffff8040003d04: eb080208     	subs	x8, x16, x8
ffffff8040003d08: 54000069     	b.ls	0xffffff8040003d14 <main+0x1b4c>
ffffff8040003d0c: f140411f     	cmp	x8, #0x10, lsl #12 // =0x10000
ffffff8040003d10: 54002660     	b.eq	0xffffff80400041dc <main+0x2014>
ffffff8040003d14: 52a12008     	mov	w8, #0x9000000  // =150994944
ffffff8040003d18: 52800e69     	mov	w9, #0x73       // =115
ffffff8040003d1c: 52800c2b     	mov	w11, #0x61      // =97
ffffff8040003d20: 39000109     	strb	w9, [x8]
ffffff8040003d24: 52800c4c     	mov	w12, #0x62      // =98
ffffff8040003d28: 52800c8d     	mov	w13, #0x64      // =100
ffffff8040003d2c: 3900010a     	strb	w10, [x8]
ffffff8040003d30: 52800c6a     	mov	w10, #0x63      // =99
ffffff8040003d34: 3900010b     	strb	w11, [x8]
ffffff8040003d38: 3900010a     	strb	w10, [x8]
ffffff8040003d3c: 52800d6a     	mov	w10, #0x6b      // =107
ffffff8040003d40: 3900010a     	strb	w10, [x8]
ffffff8040003d44: 5280040a     	mov	w10, #0x20      // =32
ffffff8040003d48: 3900010a     	strb	w10, [x8]
ffffff8040003d4c: 3900010c     	strb	w12, [x8]
ffffff8040003d50: 52800dec     	mov	w12, #0x6f      // =111
ffffff8040003d54: 3900010c     	strb	w12, [x8]
ffffff8040003d58: 52800eac     	mov	w12, #0x75      // =117
ffffff8040003d5c: 3900010c     	strb	w12, [x8]
ffffff8040003d60: 52800dcc     	mov	w12, #0x6e      // =110
ffffff8040003d64: 3900010c     	strb	w12, [x8]
ffffff8040003d68: 3900010d     	strb	w13, [x8]
ffffff8040003d6c: 39000109     	strb	w9, [x8]
ffffff8040003d70: 52800d29     	mov	w9, #0x69       // =105
ffffff8040003d74: 3900010a     	strb	w10, [x8]
ffffff8040003d78: 52800eca     	mov	w10, #0x76      // =118
ffffff8040003d7c: 39000109     	strb	w9, [x8]
ffffff8040003d80: 3900010c     	strb	w12, [x8]
ffffff8040003d84: 3900010a     	strb	w10, [x8]
ffffff8040003d88: 52800d8a     	mov	w10, #0x6c      // =108
ffffff8040003d8c: 3900010b     	strb	w11, [x8]
ffffff8040003d90: 3900010a     	strb	w10, [x8]
ffffff8040003d94: 39000109     	strb	w9, [x8]
ffffff8040003d98: 52800149     	mov	w9, #0xa        // =10
ffffff8040003d9c: 3900010d     	strb	w13, [x8]
ffffff8040003da0: 39000109     	strb	w9, [x8]
ffffff8040003da4: d5033fdf     	isb
ffffff8040003da8: 17ffffff     	b	0xffffff8040003da4 <main+0x1bdc>
ffffff8040003dac: 52a12008     	mov	w8, #0x9000000  // =150994944
ffffff8040003db0: 52800a69     	mov	w9, #0x53       // =83
ffffff8040003db4: 52800a8f     	mov	w15, #0x54      // =84
ffffff8040003db8: 39000109     	strb	w9, [x8]
ffffff8040003dbc: 52800829     	mov	w9, #0x41       // =65
ffffff8040003dc0: 52800970     	mov	w16, #0x4b      // =75
ffffff8040003dc4: 3900010f     	strb	w15, [x8]
ffffff8040003dc8: 52800a40     	mov	w0, #0x52       // =82
ffffff8040003dcc: 39000109     	strb	w9, [x8]
ffffff8040003dd0: 52800869     	mov	w9, #0x43       // =67
ffffff8040003dd4: 39000109     	strb	w9, [x8]
ffffff8040003dd8: 39000110     	strb	w16, [x8]
ffffff8040003ddc: 52800410     	mov	w16, #0x20      // =32
ffffff8040003de0: 39000110     	strb	w16, [x8]
ffffff8040003de4: 39000109     	strb	w9, [x8]
ffffff8040003de8: 528009e9     	mov	w9, #0x4f       // =79
ffffff8040003dec: 39000109     	strb	w9, [x8]
ffffff8040003df0: 39000100     	strb	w0, [x8]
ffffff8040003df4: 39000100     	strb	w0, [x8]
ffffff8040003df8: 52800aa0     	mov	w0, #0x55       // =85
ffffff8040003dfc: 39000100     	strb	w0, [x8]
ffffff8040003e00: 52800a00     	mov	w0, #0x50       // =80
ffffff8040003e04: 39000100     	strb	w0, [x8]
ffffff8040003e08: 3900010f     	strb	w15, [x8]
ffffff8040003e0c: 5280092f     	mov	w15, #0x49      // =73
ffffff8040003e10: 3900010f     	strb	w15, [x8]
ffffff8040003e14: 39000109     	strb	w9, [x8]
ffffff8040003e18: 528009c9     	mov	w9, #0x4e       // =78
ffffff8040003e1c: 39000109     	strb	w9, [x8]
ffffff8040003e20: 52800e09     	mov	w9, #0x70       // =112
ffffff8040003e24: 3900010d     	strb	w13, [x8]
ffffff8040003e28: 3900010c     	strb	w12, [x8]
ffffff8040003e2c: 52800eac     	mov	w12, #0x75      // =117
ffffff8040003e30: 39000109     	strb	w9, [x8]
ffffff8040003e34: 52800de9     	mov	w9, #0x6f       // =111
ffffff8040003e38: 39000110     	strb	w16, [x8]
ffffff8040003e3c: 39000109     	strb	w9, [x8]
ffffff8040003e40: 3900010c     	strb	w12, [x8]
ffffff8040003e44: 3900010b     	strb	w11, [x8]
ffffff8040003e48: 39000110     	strb	w16, [x8]
ffffff8040003e4c: 39000109     	strb	w9, [x8]
ffffff8040003e50: 52800cc9     	mov	w9, #0x66       // =102
ffffff8040003e54: 39000109     	strb	w9, [x8]
ffffff8040003e58: 52800e49     	mov	w9, #0x72       // =114
ffffff8040003e5c: 39000110     	strb	w16, [x8]
ffffff8040003e60: 39000109     	strb	w9, [x8]
ffffff8040003e64: 52800ce9     	mov	w9, #0x67       // =103
ffffff8040003e68: 3900010a     	strb	w10, [x8]
ffffff8040003e6c: 39000112     	strb	w18, [x8]
ffffff8040003e70: 39000109     	strb	w9, [x8]
ffffff8040003e74: 39000111     	strb	w17, [x8]
ffffff8040003e78: 3900010d     	strb	w13, [x8]
ffffff8040003e7c: d5033fdf     	isb
ffffff8040003e80: 17ffffff     	b	0xffffff8040003e7c <main+0x1cb4>
ffffff8040003e84: 52a12008     	mov	w8, #0x9000000  // =150994944
ffffff8040003e88: 52800a5a     	mov	w26, #0x52      // =82
ffffff8040003e8c: 528009fb     	mov	w27, #0x4f      // =79
ffffff8040003e90: 52800896     	mov	w22, #0x44      // =68
ffffff8040003e94: 3900011a     	strb	w26, [x8]
ffffff8040003e98: 5280083c     	mov	w28, #0x41      // =65
ffffff8040003e9c: 3900011b     	strb	w27, [x8]
ffffff8040003ea0: 52800a9d     	mov	w29, #0x54      // =84
ffffff8040003ea4: 52800a1e     	mov	w30, #0x50      // =80
ffffff8040003ea8: 39000116     	strb	w22, [x8]
ffffff8040003eac: 52800416     	mov	w22, #0x20      // =32
ffffff8040003eb0: 528008ad     	mov	w13, #0x45      // =69
ffffff8040003eb4: 3900011c     	strb	w28, [x8]
ffffff8040003eb8: 52800aaa     	mov	w10, #0x55      // =85
ffffff8040003ebc: 52800618     	mov	w24, #0x30      // =48
ffffff8040003ec0: 3900011d     	strb	w29, [x8]
ffffff8040003ec4: 52800e4c     	mov	w12, #0x72      // =114
ffffff8040003ec8: 52800de9     	mov	w9, #0x6f       // =111
ffffff8040003ecc: 3900011c     	strb	w28, [x8]
ffffff8040003ed0: 52800e99     	mov	w25, #0x74      // =116
ffffff8040003ed4: 39000116     	strb	w22, [x8]
ffffff8040003ed8: 3900011e     	strb	w30, [x8]
ffffff8040003edc: 5280093e     	mov	w30, #0x49      // =73
ffffff8040003ee0: 3900011b     	strb	w27, [x8]
ffffff8040003ee4: 3900011e     	strb	w30, [x8]
ffffff8040003ee8: 528009de     	mov	w30, #0x4e      // =78
ffffff8040003eec: 3900011e     	strb	w30, [x8]
ffffff8040003ef0: 3900011d     	strb	w29, [x8]
ffffff8040003ef4: 3900010d     	strb	w13, [x8]
ffffff8040003ef8: 3900011a     	strb	w26, [x8]
ffffff8040003efc: 39000116     	strb	w22, [x8]
ffffff8040003f00: 3900011b     	strb	w27, [x8]
ffffff8040003f04: 3900010a     	strb	w10, [x8]
ffffff8040003f08: 528008ca     	mov	w10, #0x46      // =70
ffffff8040003f0c: 3900011d     	strb	w29, [x8]
ffffff8040003f10: 39000116     	strb	w22, [x8]
ffffff8040003f14: 3900011b     	strb	w27, [x8]
ffffff8040003f18: 3900010a     	strb	w10, [x8]
ffffff8040003f1c: 528008ea     	mov	w10, #0x47      // =71
ffffff8040003f20: 39000116     	strb	w22, [x8]
ffffff8040003f24: 3900011a     	strb	w26, [x8]
ffffff8040003f28: 3900011c     	strb	w28, [x8]
ffffff8040003f2c: 3900011e     	strb	w30, [x8]
ffffff8040003f30: 3900010a     	strb	w10, [x8]
ffffff8040003f34: 5280014a     	mov	w10, #0xa       // =10
ffffff8040003f38: 3900010d     	strb	w13, [x8]
ffffff8040003f3c: 52800f0d     	mov	w13, #0x78      // =120
ffffff8040003f40: 3900010a     	strb	w10, [x8]
ffffff8040003f44: 39000118     	strb	w24, [x8]
ffffff8040003f48: 3900010d     	strb	w13, [x8]
ffffff8040003f4c: 52800cad     	mov	w13, #0x65      // =101
ffffff8040003f50: 39000117     	strb	w23, [x8]
ffffff8040003f54: 39000115     	strb	w21, [x8]
ffffff8040003f58: 39000114     	strb	w20, [x8]
ffffff8040003f5c: 39000113     	strb	w19, [x8]
ffffff8040003f60: 39000107     	strb	w7, [x8]
ffffff8040003f64: 39000106     	strb	w6, [x8]
ffffff8040003f68: 39000105     	strb	w5, [x8]
ffffff8040003f6c: 39000104     	strb	w4, [x8]
ffffff8040003f70: 39000103     	strb	w3, [x8]
ffffff8040003f74: 39000102     	strb	w2, [x8]
ffffff8040003f78: 39000101     	strb	w1, [x8]
ffffff8040003f7c: 39000100     	strb	w0, [x8]
ffffff8040003f80: 39000112     	strb	w18, [x8]
ffffff8040003f84: 39000111     	strb	w17, [x8]
ffffff8040003f88: 39000110     	strb	w16, [x8]
ffffff8040003f8c: 3900010f     	strb	w15, [x8]
ffffff8040003f90: 5280014f     	mov	w15, #0xa       // =10
ffffff8040003f94: 3900010a     	strb	w10, [x8]
ffffff8040003f98: 52800e0a     	mov	w10, #0x70      // =112
ffffff8040003f9c: 3900010c     	strb	w12, [x8]
ffffff8040003fa0: 39000109     	strb	w9, [x8]
ffffff8040003fa4: 3900010e     	strb	w14, [x8]
ffffff8040003fa8: 52800eae     	mov	w14, #0x75      // =117
ffffff8040003fac: 3900010b     	strb	w11, [x8]
ffffff8040003fb0: 39000119     	strb	w25, [x8]
ffffff8040003fb4: 3900010b     	strb	w11, [x8]
ffffff8040003fb8: 39000116     	strb	w22, [x8]
ffffff8040003fbc: 3900010a     	strb	w10, [x8]
ffffff8040003fc0: 52800d2a     	mov	w10, #0x69      // =105
ffffff8040003fc4: 39000109     	strb	w9, [x8]
ffffff8040003fc8: 3900010a     	strb	w10, [x8]
ffffff8040003fcc: 52800dca     	mov	w10, #0x6e      // =110
ffffff8040003fd0: 3900010a     	strb	w10, [x8]
ffffff8040003fd4: 39000119     	strb	w25, [x8]
ffffff8040003fd8: 3900010d     	strb	w13, [x8]
ffffff8040003fdc: 3900010c     	strb	w12, [x8]
ffffff8040003fe0: 39000116     	strb	w22, [x8]
ffffff8040003fe4: 39000109     	strb	w9, [x8]
ffffff8040003fe8: 3900010e     	strb	w14, [x8]
ffffff8040003fec: 52800cce     	mov	w14, #0x66      // =102
ffffff8040003ff0: 39000119     	strb	w25, [x8]
ffffff8040003ff4: 39000116     	strb	w22, [x8]
ffffff8040003ff8: 39000109     	strb	w9, [x8]
ffffff8040003ffc: 52800ce9     	mov	w9, #0x67       // =103
ffffff8040004000: 3900010e     	strb	w14, [x8]
ffffff8040004004: 39000116     	strb	w22, [x8]
ffffff8040004008: 3900010c     	strb	w12, [x8]
ffffff804000400c: 3900010b     	strb	w11, [x8]
ffffff8040004010: 3900010a     	strb	w10, [x8]
ffffff8040004014: 39000109     	strb	w9, [x8]
ffffff8040004018: 3900010d     	strb	w13, [x8]
ffffff804000401c: 3900010f     	strb	w15, [x8]
ffffff8040004020: d5033fdf     	isb
ffffff8040004024: 17ffffff     	b	0xffffff8040004020 <main+0x1e58>
ffffff8040004028: 52a12010     	mov	w16, #0x9000000 // =150994944
ffffff804000402c: 52800c71     	mov	w17, #0x63      // =99
ffffff8040004030: 3900020f     	strb	w15, [x16]
ffffff8040004034: 3900020c     	strb	w12, [x16]
ffffff8040004038: 39000211     	strb	w17, [x16]
ffffff804000403c: 39000208     	strb	w8, [x16]
ffffff8040004040: 3900020f     	strb	w15, [x16]
ffffff8040004044: 5280040f     	mov	w15, #0x20      // =32
ffffff8040004048: 3900020f     	strb	w15, [x16]
ffffff804000404c: 3900020e     	strb	w14, [x16]
ffffff8040004050: 39000208     	strb	w8, [x16]
ffffff8040004054: 3900020b     	strb	w11, [x16]
ffffff8040004058: 52800eab     	mov	w11, #0x75      // =117
ffffff804000405c: 3900020f     	strb	w15, [x16]
ffffff8040004060: 3900020c     	strb	w12, [x16]
ffffff8040004064: 52800d2c     	mov	w12, #0x69      // =105
ffffff8040004068: 3900020b     	strb	w11, [x16]
ffffff804000406c: 52800e6b     	mov	w11, #0x73      // =115
ffffff8040004070: 3900020a     	strb	w10, [x16]
ffffff8040004074: 3900020b     	strb	w11, [x16]
ffffff8040004078: 3900020c     	strb	w12, [x16]
ffffff804000407c: 39000209     	strb	w9, [x16]
ffffff8040004080: 52800ca9     	mov	w9, #0x65       // =101
ffffff8040004084: 39000209     	strb	w9, [x16]
ffffff8040004088: 3900020f     	strb	w15, [x16]
ffffff804000408c: 3900020b     	strb	w11, [x16]
ffffff8040004090: 3900020a     	strb	w10, [x16]
ffffff8040004094: 39000208     	strb	w8, [x16]
ffffff8040004098: 52800d68     	mov	w8, #0x6b       // =107
ffffff804000409c: 39000211     	strb	w17, [x16]
ffffff80400040a0: 39000208     	strb	w8, [x16]
ffffff80400040a4: 3900020d     	strb	w13, [x16]
ffffff80400040a8: d5033fdf     	isb
ffffff80400040ac: 17ffffff     	b	0xffffff80400040a8 <main+0x1ee0>
ffffff80400040b0: 52a12008     	mov	w8, #0x9000000  // =150994944
ffffff80400040b4: 52800d09     	mov	w9, #0x68       // =104
ffffff80400040b8: 52800caa     	mov	w10, #0x65      // =101
ffffff80400040bc: 39000109     	strb	w9, [x8]
ffffff80400040c0: 52800c29     	mov	w9, #0x61       // =97
ffffff80400040c4: 52800e0b     	mov	w11, #0x70      // =112
ffffff80400040c8: 3900010a     	strb	w10, [x8]
ffffff80400040cc: 52800e6c     	mov	w12, #0x73      // =115
ffffff80400040d0: 52800e4d     	mov	w13, #0x72      // =114
ffffff80400040d4: 39000109     	strb	w9, [x8]
ffffff80400040d8: 52800dee     	mov	w14, #0x6f      // =111
ffffff80400040dc: 52800eaf     	mov	w15, #0x75      // =117
ffffff80400040e0: 3900010b     	strb	w11, [x8]
ffffff80400040e4: 5280040b     	mov	w11, #0x20      // =32
ffffff80400040e8: 3900010b     	strb	w11, [x8]
ffffff80400040ec: 3900010c     	strb	w12, [x8]
ffffff80400040f0: 52800e8c     	mov	w12, #0x74      // =116
ffffff80400040f4: 3900010c     	strb	w12, [x8]
ffffff80400040f8: 39000109     	strb	w9, [x8]
ffffff80400040fc: 3900010d     	strb	w13, [x8]
ffffff8040004100: 3900010c     	strb	w12, [x8]
ffffff8040004104: 3900010b     	strb	w11, [x8]
ffffff8040004108: 3900010e     	strb	w14, [x8]
ffffff804000410c: 3900010f     	strb	w15, [x8]
ffffff8040004110: 3900010c     	strb	w12, [x8]
ffffff8040004114: 52800ccc     	mov	w12, #0x66      // =102
ffffff8040004118: 3900010b     	strb	w11, [x8]
ffffff804000411c: 3900010e     	strb	w14, [x8]
ffffff8040004120: 3900010c     	strb	w12, [x8]
ffffff8040004124: 3900010b     	strb	w11, [x8]
ffffff8040004128: 3900010d     	strb	w13, [x8]
ffffff804000412c: 39000109     	strb	w9, [x8]
ffffff8040004130: 52800dc9     	mov	w9, #0x6e       // =110
ffffff8040004134: 39000109     	strb	w9, [x8]
ffffff8040004138: 52800ce9     	mov	w9, #0x67       // =103
ffffff804000413c: 39000109     	strb	w9, [x8]
ffffff8040004140: 52800149     	mov	w9, #0xa        // =10
ffffff8040004144: 3900010a     	strb	w10, [x8]
ffffff8040004148: 39000109     	strb	w9, [x8]
ffffff804000414c: d5033fdf     	isb
ffffff8040004150: 17ffffff     	b	0xffffff804000414c <main+0x1f84>
ffffff8040004154: f9004be8     	str	x8, [sp, #0x90]
ffffff8040004158: 910243e8     	add	x8, sp, #0x90
ffffff804000415c: 91077fe0     	add	x0, sp, #0x1df
ffffff8040004160: a90d53e8     	stp	x8, x20, [sp, #0xd0]
ffffff8040004164: 9100c3e8     	add	x8, sp, #0x30
ffffff8040004168: 910123e1     	add	x1, sp, #0x48
ffffff804000416c: a90e53e8     	stp	x8, x20, [sp, #0xe0]
ffffff8040004170: 9102c3e8     	add	x8, sp, #0xb0
ffffff8040004174: f9001be9     	str	x9, [sp, #0x30]
ffffff8040004178: 52800069     	mov	w9, #0x3        // =3
ffffff804000417c: a90f53e8     	stp	x8, x20, [sp, #0xf0]
ffffff8040004180: d503201f     	nop
ffffff8040004184: 10024da8     	adr	x8, 0xffffff8040008b38 <_ZN12cohesix_root17ROOTSERVER_ONLINE17hccde821890211dbaE+0x320>
ffffff8040004188: a904a7e8     	stp	x8, x9, [sp, #0x48]
ffffff804000418c: 910343e8     	add	x8, sp, #0xd0
ffffff8040004190: f9005bea     	str	x10, [sp, #0xb0]
ffffff8040004194: a906a7f6     	stp	x22, x9, [sp, #0x68]
ffffff8040004198: a905a7e8     	stp	x8, x9, [sp, #0x58]
ffffff804000419c: 97fff047     	bl	0xffffff80400002b8 <_ZN75_$LT$$RF$mut$u20$W$u20$as$u20$core..fmt..Write..write_fmt..SpecWriteFmt$GT$14spec_write_fmt17h0d5c0cbe8e76cb85E>
ffffff80400041a0: 940004cf     	bl	0xffffff80400054dc <_ZN4core9panicking9panic_fmt17hc6333e93bd8c6355E>
ffffff80400041a4: d503201f     	nop
ffffff80400041a8: 100247c8     	adr	x8, 0xffffff8040008aa0 <_ZN12cohesix_root17ROOTSERVER_ONLINE17hccde821890211dbaE+0x288>
ffffff80400041ac: 52800049     	mov	w9, #0x2        // =2
ffffff80400041b0: a90d27e8     	stp	x8, x9, [sp, #0xd0]
ffffff80400041b4: d503201f     	nop
ffffff80400041b8: 10024848     	adr	x8, 0xffffff8040008ac0 <_ZN12cohesix_root17ROOTSERVER_ONLINE17hccde821890211dbaE+0x2a8>
ffffff80400041bc: a904d3f3     	stp	x19, x20, [sp, #0x48]
ffffff80400041c0: a905d3f5     	stp	x21, x20, [sp, #0x58]
ffffff80400041c4: a90f27e8     	stp	x8, x9, [sp, #0xf0]
ffffff80400041c8: a90e27f9     	stp	x25, x9, [sp, #0xe0]
ffffff80400041cc: 91077fe0     	add	x0, sp, #0x1df
ffffff80400041d0: 910343e1     	add	x1, sp, #0xd0
ffffff80400041d4: 97fff039     	bl	0xffffff80400002b8 <_ZN75_$LT$$RF$mut$u20$W$u20$as$u20$core..fmt..Write..write_fmt..SpecWriteFmt$GT$14spec_write_fmt17h0d5c0cbe8e76cb85E>
ffffff80400041d8: 940004c1     	bl	0xffffff80400054dc <_ZN4core9panicking9panic_fmt17hc6333e93bd8c6355E>
ffffff80400041dc: d503201f     	nop
ffffff80400041e0: 50025220     	adr	x0, 0xffffff8040008c26 <_ZN12cohesix_root17ROOTSERVER_ONLINE17hccde821890211dbaE+0x40e>
ffffff80400041e4: 97fff492     	bl	0xffffff804000142c <coh_open>
ffffff80400041e8: 37f80500     	tbnz	w0, #0x1f, 0xffffff8040004288 <main+0x20c0>
ffffff80400041ec: 52800308     	mov	w8, #0x18       // =24
ffffff80400041f0: d503201f     	nop
ffffff80400041f4: 10037074     	adr	x20, 0xffffff804000b000 <_ZN12cohesix_root3sys5FILES17h9b7646c59c1c6dadE>
ffffff80400041f8: 9ba85009     	umaddl	x9, w0, w8, x20
ffffff80400041fc: 6f00e400     	movi	v0.2d, #0000000000000000
ffffff8040004200: a940a121     	ldp	x1, x8, [x9, #0x8]
ffffff8040004204: ad0683e0     	stp	q0, q0, [sp, #0xd0]
ffffff8040004208: ad0783e0     	stp	q0, q0, [sp, #0xf0]
ffffff804000420c: eb08002a     	subs	x10, x1, x8
ffffff8040004210: ad0883e0     	stp	q0, q0, [sp, #0x110]
ffffff8040004214: ad0983e0     	stp	q0, q0, [sp, #0x130]
ffffff8040004218: ad0a83e0     	stp	q0, q0, [sp, #0x150]
ffffff804000421c: ad0b83e0     	stp	q0, q0, [sp, #0x170]
ffffff8040004220: ad0c83e0     	stp	q0, q0, [sp, #0x190]
ffffff8040004224: ad0d83e0     	stp	q0, q0, [sp, #0x1b0]
ffffff8040004228: 54007e63     	b.lo	0xffffff80400051f4 <main+0x302c>
ffffff804000422c: f104015f     	cmp	x10, #0x100
ffffff8040004230: 5280200b     	mov	w11, #0x100     // =256
ffffff8040004234: 2a0003f5     	mov	w21, w0
ffffff8040004238: 9a8b3153     	csel	x19, x10, x11, lo
ffffff804000423c: eb08003f     	cmp	x1, x8
ffffff8040004240: 540000c0     	b.eq	0xffffff8040004258 <main+0x2090>
ffffff8040004244: f9400129     	ldr	x9, [x9]
ffffff8040004248: 910343e0     	add	x0, sp, #0xd0
ffffff804000424c: aa1303e2     	mov	x2, x19
ffffff8040004250: 8b080121     	add	x1, x9, x8
ffffff8040004254: 97fff5a5     	bl	0xffffff80400018e8 <memcpy>
ffffff8040004258: 52800308     	mov	w8, #0x18       // =24
ffffff804000425c: 910123e0     	add	x0, sp, #0x48
ffffff8040004260: 910343e1     	add	x1, sp, #0xd0
ffffff8040004264: 9ba852a8     	umaddl	x8, w21, w8, x20
ffffff8040004268: aa1303e2     	mov	x2, x19
ffffff804000426c: f900091f     	str	xzr, [x8, #0x10]
ffffff8040004270: 94000778     	bl	0xffffff8040006050 <_ZN4core3str8converts9from_utf817h7cdaeb2009589786E>
ffffff8040004274: b9404be8     	ldr	w8, [sp, #0x48]
ffffff8040004278: 7100051f     	cmp	w8, #0x1
ffffff804000427c: 54000060     	b.eq	0xffffff8040004288 <main+0x20c0>
ffffff8040004280: f9402ff3     	ldr	x19, [sp, #0x58]
ffffff8040004284: b5001053     	cbnz	x19, 0xffffff804000448c <main+0x22c4>
ffffff8040004288: d503201f     	nop
ffffff804000428c: 100258a0     	adr	x0, 0xffffff8040008da0 <_ZN12cohesix_root17ROOTSERVER_ONLINE17hccde821890211dbaE+0x588>
ffffff8040004290: 528001a1     	mov	w1, #0xd        // =13
ffffff8040004294: 97fff73d     	bl	0xffffff8040001f88 <_ZN12cohesix_root7env_var17hc246d34d209395d7E>
ffffff8040004298: d503201f     	nop
ffffff804000429c: 30025880     	adr	x0, 0xffffff8040008dad <_ZN12cohesix_root17ROOTSERVER_ONLINE17hccde821890211dbaE+0x595>
ffffff80400042a0: 528001c1     	mov	w1, #0xe        // =14
ffffff80400042a4: 97fff739     	bl	0xffffff8040001f88 <_ZN12cohesix_root7env_var17hc246d34d209395d7E>
ffffff80400042a8: d503201f     	nop
ffffff80400042ac: 70025860     	adr	x0, 0xffffff8040008dbb <_ZN12cohesix_root17ROOTSERVER_ONLINE17hccde821890211dbaE+0x5a3>
ffffff80400042b0: 528000e1     	mov	w1, #0x7        // =7
ffffff80400042b4: 97fff735     	bl	0xffffff8040001f88 <_ZN12cohesix_root7env_var17hc246d34d209395d7E>
ffffff80400042b8: 52800020     	mov	w0, #0x1        // =1
ffffff80400042bc: 52800161     	mov	w1, #0xb        // =11
ffffff80400042c0: 97fff0ee     	bl	0xffffff8040000678 <_ZN91_$LT$cohesix_root..allocator..BumpAllocator$u20$as$u20$core..alloc..global..GlobalAlloc$GT$5alloc17h68394e3a5be46895E>
ffffff80400042c4: b5000040     	cbnz	x0, 0xffffff80400042cc <main+0x2104>
ffffff80400042c8: 940003d3     	bl	0xffffff8040005214 <_ZN12cohesix_root10lang_items11alloc_error17h7e7cf23b18851024E>
ffffff80400042cc: 528d6e48     	mov	w8, #0x6b72     // =27506
ffffff80400042d0: d503201f     	nop
ffffff80400042d4: 10024fe9     	adr	x9, 0xffffff8040008cd0 <_ZN12cohesix_root17ROOTSERVER_ONLINE17hccde821890211dbaE+0x4b8>
ffffff80400042d8: 72ae4ca8     	movk	w8, #0x7265, lsl #16
ffffff80400042dc: f9400129     	ldr	x9, [x9]
ffffff80400042e0: b8007008     	stur	w8, [x0, #0x7]
ffffff80400042e4: 52800168     	mov	w8, #0xb        // =11
ffffff80400042e8: f9000009     	str	x9, [x0]
ffffff80400042ec: a90d03e8     	stp	x8, x0, [sp, #0xd0]
ffffff80400042f0: 910343e0     	add	x0, sp, #0xd0
ffffff80400042f4: f90073e8     	str	x8, [sp, #0xe0]
ffffff80400042f8: 940003e9     	bl	0xffffff804000529c <_ZN5alloc7raw_vec19RawVec$LT$T$C$A$GT$8grow_one17h2608cff5e48c703fE>
ffffff80400042fc: f9406fe8     	ldr	x8, [sp, #0xd8]
ffffff8040004300: 90000020     	adrp	x0, 0xffffff8040008000 <rodata_check_str>
ffffff8040004304: 91302c00     	add	x0, x0, #0xc0b
ffffff8040004308: 39002d1f     	strb	wzr, [x8, #0xb]
ffffff804000430c: 97fff448     	bl	0xffffff804000142c <coh_open>
ffffff8040004310: 37f800c0     	tbnz	w0, #0x1f, 0xffffff8040004328 <main+0x2160>
ffffff8040004314: 52800308     	mov	w8, #0x18       // =24
ffffff8040004318: d503201f     	nop
ffffff804000431c: 10036729     	adr	x9, 0xffffff804000b000 <_ZN12cohesix_root3sys5FILES17h9b7646c59c1c6dadE>
ffffff8040004320: 9ba82408     	umaddl	x8, w0, w8, x9
ffffff8040004324: f900091f     	str	xzr, [x8, #0x10]
ffffff8040004328: 90000033     	adrp	x19, 0xffffff8040008000 <rodata_check_str>
ffffff804000432c: 91306273     	add	x19, x19, #0xc18
ffffff8040004330: aa1303e0     	mov	x0, x19
ffffff8040004334: 97fff43e     	bl	0xffffff804000142c <coh_open>
ffffff8040004338: 36f80360     	tbz	w0, #0x1f, 0xffffff80400043a4 <main+0x21dc>
ffffff804000433c: 528001c8     	mov	w8, #0xe        // =14
ffffff8040004340: 910123e9     	add	x9, sp, #0x48
ffffff8040004344: 91077fe0     	add	x0, sp, #0x1df
ffffff8040004348: a904a3f3     	stp	x19, x8, [sp, #0x48]
ffffff804000434c: d503201f     	nop
ffffff8040004350: 10fde828     	adr	x8, 0xffffff8040000054 <_ZN44_$LT$$RF$T$u20$as$u20$core..fmt..Display$GT$3fmt17hf3669e95f4c212f9E>
ffffff8040004354: a90b23e9     	stp	x9, x8, [sp, #0xb0]
ffffff8040004358: d503201f     	nop
ffffff804000435c: 10024768     	adr	x8, 0xffffff8040008c48 <_ZN12cohesix_root17ROOTSERVER_ONLINE17hccde821890211dbaE+0x430>
ffffff8040004360: 52800029     	mov	w9, #0x1        // =1
ffffff8040004364: 910343e1     	add	x1, sp, #0xd0
ffffff8040004368: a90d27e8     	stp	x8, x9, [sp, #0xd0]
ffffff804000436c: 9102c3e8     	add	x8, sp, #0xb0
ffffff8040004370: a90effe9     	stp	x9, xzr, [sp, #0xe8]
ffffff8040004374: f90073e8     	str	x8, [sp, #0xe0]
ffffff8040004378: 940006a9     	bl	0xffffff8040005e1c <_ZN4core3fmt5write17h8f7b88e4069053abE>
ffffff804000437c: 90000020     	adrp	x0, 0xffffff8040008000 <rodata_check_str>
ffffff8040004380: 91300400     	add	x0, x0, #0xc01
ffffff8040004384: 97fff42a     	bl	0xffffff804000142c <coh_open>
ffffff8040004388: 37f81680     	tbnz	w0, #0x1f, 0xffffff8040004658 <main+0x2490>
ffffff804000438c: 52800308     	mov	w8, #0x18       // =24
ffffff8040004390: d503201f     	nop
ffffff8040004394: 10036369     	adr	x9, 0xffffff804000b000 <_ZN12cohesix_root3sys5FILES17h9b7646c59c1c6dadE>
ffffff8040004398: 9ba82408     	umaddl	x8, w0, w8, x9
ffffff804000439c: f900091f     	str	xzr, [x8, #0x10]
ffffff80400043a0: 140000df     	b	0xffffff804000471c <main+0x2554>
ffffff80400043a4: 52800028     	mov	w8, #0x1        // =1
ffffff80400043a8: d503201f     	nop
ffffff80400043ac: 100362b6     	adr	x22, 0xffffff804000b000 <_ZN12cohesix_root3sys5FILES17h9b7646c59c1c6dadE>
ffffff80400043b0: a9057fe8     	stp	x8, xzr, [sp, #0x50]
ffffff80400043b4: 52800308     	mov	w8, #0x18       // =24
ffffff80400043b8: 6f00e400     	movi	v0.2d, #0000000000000000
ffffff80400043bc: 9ba85817     	umaddl	x23, w0, w8, x22
ffffff80400043c0: f90027ff     	str	xzr, [sp, #0x48]
ffffff80400043c4: a940d2e1     	ldp	x1, x20, [x23, #0x8]
ffffff80400043c8: ad0683e0     	stp	q0, q0, [sp, #0xd0]
ffffff80400043cc: ad0783e0     	stp	q0, q0, [sp, #0xf0]
ffffff80400043d0: ad0883e0     	stp	q0, q0, [sp, #0x110]
ffffff80400043d4: eb01029f     	cmp	x20, x1
ffffff80400043d8: ad0983e0     	stp	q0, q0, [sp, #0x130]
ffffff80400043dc: ad0a83e0     	stp	q0, q0, [sp, #0x150]
ffffff80400043e0: ad0b83e0     	stp	q0, q0, [sp, #0x170]
ffffff80400043e4: ad0c83e0     	stp	q0, q0, [sp, #0x190]
ffffff80400043e8: ad0d83e0     	stp	q0, q0, [sp, #0x1b0]
ffffff80400043ec: 540004c8     	b.hi	0xffffff8040004484 <main+0x22bc>
ffffff80400043f0: aa1f03f3     	mov	x19, xzr
ffffff80400043f4: 2a0003f8     	mov	w24, w0
ffffff80400043f8: 5280003a     	mov	w26, #0x1       // =1
ffffff80400043fc: 52802019     	mov	w25, #0x100     // =256
ffffff8040004400: eb140028     	subs	x8, x1, x20
ffffff8040004404: 540020e0     	b.eq	0xffffff8040004820 <main+0x2658>
ffffff8040004408: f104011f     	cmp	x8, #0x100
ffffff804000440c: f94002e9     	ldr	x9, [x23]
ffffff8040004410: 910343e0     	add	x0, sp, #0xd0
ffffff8040004414: 9a993115     	csel	x21, x8, x25, lo
ffffff8040004418: 8b140121     	add	x1, x9, x20
ffffff804000441c: aa1503e2     	mov	x2, x21
ffffff8040004420: 97fff532     	bl	0xffffff80400018e8 <memcpy>
ffffff8040004424: f94027e8     	ldr	x8, [sp, #0x48]
ffffff8040004428: 8b1402a9     	add	x9, x21, x20
ffffff804000442c: f9000ae9     	str	x9, [x23, #0x10]
ffffff8040004430: cb130108     	sub	x8, x8, x19
ffffff8040004434: eb0802bf     	cmp	x21, x8
ffffff8040004438: 54000168     	b.hi	0xffffff8040004464 <main+0x229c>
ffffff804000443c: 8b130340     	add	x0, x26, x19
ffffff8040004440: 910343e1     	add	x1, sp, #0xd0
ffffff8040004444: aa1503e2     	mov	x2, x21
ffffff8040004448: 97fff528     	bl	0xffffff80400018e8 <memcpy>
ffffff804000444c: a940d2e1     	ldp	x1, x20, [x23, #0x8]
ffffff8040004450: 8b150273     	add	x19, x19, x21
ffffff8040004454: f9002ff3     	str	x19, [sp, #0x58]
ffffff8040004458: eb01029f     	cmp	x20, x1
ffffff804000445c: 54fffd29     	b.ls	0xffffff8040004400 <main+0x2238>
ffffff8040004460: 14000009     	b	0xffffff8040004484 <main+0x22bc>
ffffff8040004464: 910123e0     	add	x0, sp, #0x48
ffffff8040004468: aa1303e1     	mov	x1, x19
ffffff804000446c: aa1503e2     	mov	x2, x21
ffffff8040004470: 52800023     	mov	w3, #0x1        // =1
ffffff8040004474: 52800024     	mov	w4, #0x1        // =1
ffffff8040004478: 97ffef5d     	bl	0xffffff80400001ec <_ZN5alloc7raw_vec20RawVecInner$LT$A$GT$7reserve21do_reserve_and_handle17h6cf4fe444bcba26aE>
ffffff804000447c: a9454ffa     	ldp	x26, x19, [sp, #0x50]
ffffff8040004480: 17ffffef     	b	0xffffff804000443c <main+0x2274>
ffffff8040004484: aa1403e0     	mov	x0, x20
ffffff8040004488: 940006f0     	bl	0xffffff8040006048 <_ZN4core5slice5index22slice_index_order_fail17h137a119cfdac7bceE>
ffffff804000448c: 0f0107a8     	movi	v8.2s, #0x3d
ffffff8040004490: f9402bfa     	ldr	x26, [sp, #0x50]
ffffff8040004494: d286c01c     	mov	x28, #0x3600    // =13824
ffffff8040004498: aa1f03e8     	mov	x8, xzr
ffffff804000449c: 5280003b     	mov	w27, #0x1       // =1
ffffff80400044a0: f2c0003c     	movk	x28, #0x1, lsl #32
ffffff80400044a4: 14000004     	b	0xffffff80400044b4 <main+0x22ec>
ffffff80400044a8: 91000508     	add	x8, x8, #0x1
ffffff80400044ac: eb13011f     	cmp	x8, x19
ffffff80400044b0: 54ffeec2     	b.hs	0xffffff8040004288 <main+0x20c0>
ffffff80400044b4: 38686b49     	ldrb	w9, [x26, x8]
ffffff80400044b8: 9ac9236a     	lsl	x10, x27, x9
ffffff80400044bc: 7100813f     	cmp	w9, #0x20
ffffff80400044c0: 8a1c0149     	and	x9, x10, x28
ffffff80400044c4: fa409924     	ccmp	x9, #0x0, #0x4, ls
ffffff80400044c8: 54ffff01     	b.ne	0xffffff80400044a8 <main+0x22e0>
ffffff80400044cc: eb13011f     	cmp	x8, x19
ffffff80400044d0: aa0803f4     	mov	x20, x8
ffffff80400044d4: 540001c2     	b.hs	0xffffff804000450c <main+0x2344>
ffffff80400044d8: 38746b49     	ldrb	w9, [x26, x20]
ffffff80400044dc: 9ac9236a     	lsl	x10, x27, x9
ffffff80400044e0: 7100813f     	cmp	w9, #0x20
ffffff80400044e4: 8a1c0149     	and	x9, x10, x28
ffffff80400044e8: fa409924     	ccmp	x9, #0x0, #0x4, ls
ffffff80400044ec: 540000a1     	b.ne	0xffffff8040004500 <main+0x2338>
ffffff80400044f0: 91000694     	add	x20, x20, #0x1
ffffff80400044f4: eb14027f     	cmp	x19, x20
ffffff80400044f8: 54ffff01     	b.ne	0xffffff80400044d8 <main+0x2310>
ffffff80400044fc: aa1303f4     	mov	x20, x19
ffffff8040004500: eb08029f     	cmp	x20, x8
ffffff8040004504: 54000062     	b.hs	0xffffff8040004510 <main+0x2348>
ffffff8040004508: 140000b7     	b	0xffffff80400047e4 <main+0x261c>
ffffff804000450c: aa0803f4     	mov	x20, x8
ffffff8040004510: eb13029f     	cmp	x20, x19
ffffff8040004514: 540016e8     	b.hi	0xffffff80400047f0 <main+0x2628>
ffffff8040004518: cb080282     	sub	x2, x20, x8
ffffff804000451c: 910123e0     	add	x0, sp, #0x48
ffffff8040004520: 8b080341     	add	x1, x26, x8
ffffff8040004524: 940006cb     	bl	0xffffff8040006050 <_ZN4core3str8converts9from_utf817h7cdaeb2009589786E>
ffffff8040004528: b9404be8     	ldr	w8, [sp, #0x48]
ffffff804000452c: 370008e8     	tbnz	w8, #0x0, 0xffffff8040004648 <main+0x2480>
ffffff8040004530: a94557f6     	ldp	x22, x21, [sp, #0x50]
ffffff8040004534: 9102c3e0     	add	x0, sp, #0xb0
ffffff8040004538: 910123e1     	add	x1, sp, #0x48
ffffff804000453c: 3901c3fb     	strb	w27, [sp, #0x70]
ffffff8040004540: fd0037e8     	str	d8, [sp, #0x68]
ffffff8040004544: a904d7f6     	stp	x22, x21, [sp, #0x48]
ffffff8040004548: a905d7ff     	stp	xzr, x21, [sp, #0x58]
ffffff804000454c: 97ffef5c     	bl	0xffffff80400002bc <_ZN81_$LT$core..str..pattern..CharSearcher$u20$as$u20$core..str..pattern..Searcher$GT$10next_match17hda82234e2f19ab5dE>
ffffff8040004550: b940b3e8     	ldr	w8, [sp, #0xb0]
ffffff8040004554: 7100051f     	cmp	w8, #0x1
ffffff8040004558: 54000781     	b.ne	0xffffff8040004648 <main+0x2480>
ffffff804000455c: f9405ff7     	ldr	x23, [sp, #0xb8]
ffffff8040004560: b4000117     	cbz	x23, 0xffffff8040004580 <main+0x23b8>
ffffff8040004564: eb1702bf     	cmp	x21, x23
ffffff8040004568: 540000a9     	b.ls	0xffffff804000457c <main+0x23b4>
ffffff804000456c: 38f76ac8     	ldrsb	w8, [x22, x23]
ffffff8040004570: 3101011f     	cmn	w8, #0x40
ffffff8040004574: 5400006a     	b.ge	0xffffff8040004580 <main+0x23b8>
ffffff8040004578: 14000322     	b	0xffffff8040005200 <main+0x3038>
ffffff804000457c: 54006421     	b.ne	0xffffff8040005200 <main+0x3038>
ffffff8040004580: cb1702a1     	sub	x1, x21, x23
ffffff8040004584: 8b1702d5     	add	x21, x22, x23
ffffff8040004588: f100083f     	cmp	x1, #0x2
ffffff804000458c: 540000a2     	b.hs	0xffffff80400045a0 <main+0x23d8>
ffffff8040004590: f100043f     	cmp	x1, #0x1
ffffff8040004594: 54001341     	b.ne	0xffffff80400047fc <main+0x2634>
ffffff8040004598: aa1f03f8     	mov	x24, xzr
ffffff804000459c: 14000005     	b	0xffffff80400045b0 <main+0x23e8>
ffffff80400045a0: 39c006a8     	ldrsb	w8, [x21, #0x1]
ffffff80400045a4: 3101051f     	cmn	w8, #0x41
ffffff80400045a8: 5400134d     	b.le	0xffffff8040004810 <main+0x2648>
ffffff80400045ac: d1000438     	sub	x24, x1, #0x1
ffffff80400045b0: b7f86277     	tbnz	x23, #0x3f, 0xffffff80400051fc <main+0x3034>
ffffff80400045b4: b40000f7     	cbz	x23, 0xffffff80400045d0 <main+0x2408>
ffffff80400045b8: 52800020     	mov	w0, #0x1        // =1
ffffff80400045bc: aa1703e1     	mov	x1, x23
ffffff80400045c0: 97fff02e     	bl	0xffffff8040000678 <_ZN91_$LT$cohesix_root..allocator..BumpAllocator$u20$as$u20$core..alloc..global..GlobalAlloc$GT$5alloc17h68394e3a5be46895E>
ffffff80400045c4: aa0003f9     	mov	x25, x0
ffffff80400045c8: b5000060     	cbnz	x0, 0xffffff80400045d4 <main+0x240c>
ffffff80400045cc: 17ffff3f     	b	0xffffff80400042c8 <main+0x2100>
ffffff80400045d0: 52800039     	mov	w25, #0x1       // =1
ffffff80400045d4: aa1903e0     	mov	x0, x25
ffffff80400045d8: aa1603e1     	mov	x1, x22
ffffff80400045dc: aa1703e2     	mov	x2, x23
ffffff80400045e0: 97fff4c2     	bl	0xffffff80400018e8 <memcpy>
ffffff80400045e4: 9102c3e0     	add	x0, sp, #0xb0
ffffff80400045e8: a90b67f7     	stp	x23, x25, [sp, #0xb0]
ffffff80400045ec: f90063f7     	str	x23, [sp, #0xc0]
ffffff80400045f0: 9400032b     	bl	0xffffff804000529c <_ZN5alloc7raw_vec19RawVec$LT$T$C$A$GT$8grow_one17h2608cff5e48c703fE>
ffffff80400045f4: f9405fe8     	ldr	x8, [sp, #0xb8]
ffffff80400045f8: 3837691f     	strb	wzr, [x8, x23]
ffffff80400045fc: b7f86018     	tbnz	x24, #0x3f, 0xffffff80400051fc <main+0x3034>
ffffff8040004600: b40000f8     	cbz	x24, 0xffffff804000461c <main+0x2454>
ffffff8040004604: 52800020     	mov	w0, #0x1        // =1
ffffff8040004608: aa1803e1     	mov	x1, x24
ffffff804000460c: 97fff01b     	bl	0xffffff8040000678 <_ZN91_$LT$cohesix_root..allocator..BumpAllocator$u20$as$u20$core..alloc..global..GlobalAlloc$GT$5alloc17h68394e3a5be46895E>
ffffff8040004610: aa0003f6     	mov	x22, x0
ffffff8040004614: b5000060     	cbnz	x0, 0xffffff8040004620 <main+0x2458>
ffffff8040004618: 17ffff2c     	b	0xffffff80400042c8 <main+0x2100>
ffffff804000461c: 52800036     	mov	w22, #0x1       // =1
ffffff8040004620: 910006a1     	add	x1, x21, #0x1
ffffff8040004624: aa1603e0     	mov	x0, x22
ffffff8040004628: aa1803e2     	mov	x2, x24
ffffff804000462c: 97fff4af     	bl	0xffffff80400018e8 <memcpy>
ffffff8040004630: 910123e0     	add	x0, sp, #0x48
ffffff8040004634: a904dbf8     	stp	x24, x22, [sp, #0x48]
ffffff8040004638: f9002ff8     	str	x24, [sp, #0x58]
ffffff804000463c: 94000318     	bl	0xffffff804000529c <_ZN5alloc7raw_vec19RawVec$LT$T$C$A$GT$8grow_one17h2608cff5e48c703fE>
ffffff8040004640: f9402be8     	ldr	x8, [sp, #0x50]
ffffff8040004644: 3838691f     	strb	wzr, [x8, x24]
ffffff8040004648: eb13029f     	cmp	x20, x19
ffffff804000464c: aa1403e8     	mov	x8, x20
ffffff8040004650: 54fff323     	b.lo	0xffffff80400044b4 <main+0x22ec>
ffffff8040004654: 17ffff0d     	b	0xffffff8040004288 <main+0x20c0>
ffffff8040004658: 52a12008     	mov	w8, #0x9000000  // =150994944
ffffff804000465c: 52800da9     	mov	w9, #0x6d       // =109
ffffff8040004660: 52800d2a     	mov	w10, #0x69      // =105
ffffff8040004664: 52800e6b     	mov	w11, #0x73      // =115
ffffff8040004668: 52800dcc     	mov	w12, #0x6e      // =110
ffffff804000466c: 52800ced     	mov	w13, #0x67      // =103
ffffff8040004670: 52800bee     	mov	w14, #0x5f      // =95
ffffff8040004674: 52800e8f     	mov	w15, #0x74      // =116
ffffff8040004678: 52800c50     	mov	w16, #0x62      // =98
ffffff804000467c: 39000109     	strb	w9, [x8]
ffffff8040004680: 52800cd1     	mov	w17, #0x66      // =102
ffffff8040004684: 3900010a     	strb	w10, [x8]
ffffff8040004688: 3900010b     	strb	w11, [x8]
ffffff804000468c: 3900010b     	strb	w11, [x8]
ffffff8040004690: 3900010a     	strb	w10, [x8]
ffffff8040004694: 3900010c     	strb	w12, [x8]
ffffff8040004698: 3900010d     	strb	w13, [x8]
ffffff804000469c: 3900010e     	strb	w14, [x8]
ffffff80400046a0: 3900010a     	strb	w10, [x8]
ffffff80400046a4: 3900010c     	strb	w12, [x8]
ffffff80400046a8: 3900010a     	strb	w10, [x8]
ffffff80400046ac: 3900010f     	strb	w15, [x8]
ffffff80400046b0: 3900010e     	strb	w14, [x8]
ffffff80400046b4: 39000110     	strb	w16, [x8]
ffffff80400046b8: 52800150     	mov	w16, #0xa       // =10
ffffff80400046bc: 3900010a     	strb	w10, [x8]
ffffff80400046c0: 3900010c     	strb	w12, [x8]
ffffff80400046c4: 39000110     	strb	w16, [x8]
ffffff80400046c8: 39000111     	strb	w17, [x8]
ffffff80400046cc: 52800c31     	mov	w17, #0x61      // =97
ffffff80400046d0: 39000111     	strb	w17, [x8]
ffffff80400046d4: 3900010f     	strb	w15, [x8]
ffffff80400046d8: 39000111     	strb	w17, [x8]
ffffff80400046dc: 52800d91     	mov	w17, #0x6c      // =108
ffffff80400046e0: 39000111     	strb	w17, [x8]
ffffff80400046e4: 3900010e     	strb	w14, [x8]
ffffff80400046e8: 39000109     	strb	w9, [x8]
ffffff80400046ec: 3900010a     	strb	w10, [x8]
ffffff80400046f0: 3900010b     	strb	w11, [x8]
ffffff80400046f4: 3900010b     	strb	w11, [x8]
ffffff80400046f8: 3900010a     	strb	w10, [x8]
ffffff80400046fc: 3900010c     	strb	w12, [x8]
ffffff8040004700: 3900010d     	strb	w13, [x8]
ffffff8040004704: 3900010e     	strb	w14, [x8]
ffffff8040004708: 3900010a     	strb	w10, [x8]
ffffff804000470c: 3900010c     	strb	w12, [x8]
ffffff8040004710: 3900010a     	strb	w10, [x8]
ffffff8040004714: 3900010f     	strb	w15, [x8]
ffffff8040004718: 39000110     	strb	w16, [x8]
ffffff804000471c: 52a12008     	mov	w8, #0x9000000  // =150994944
ffffff8040004720: 52800b69     	mov	w9, #0x5b       // =91
ffffff8040004724: 52800e4a     	mov	w10, #0x72      // =114
ffffff8040004728: 39000109     	strb	w9, [x8]
ffffff804000472c: 52800de9     	mov	w9, #0x6f       // =111
ffffff8040004730: 52800d8b     	mov	w11, #0x6c      // =108
ffffff8040004734: 3900010a     	strb	w10, [x8]
ffffff8040004738: 52800c2c     	mov	w12, #0x61      // =97
ffffff804000473c: 52800ead     	mov	w13, #0x75      // =117
ffffff8040004740: 39000109     	strb	w9, [x8]
ffffff8040004744: 52800dce     	mov	w14, #0x6e      // =110
ffffff8040004748: 52800c6f     	mov	w15, #0x63      // =99
ffffff804000474c: 39000109     	strb	w9, [x8]
ffffff8040004750: 52800e89     	mov	w9, #0x74       // =116
ffffff8040004754: 39000109     	strb	w9, [x8]
ffffff8040004758: 52800ba9     	mov	w9, #0x5d       // =93
ffffff804000475c: 39000109     	strb	w9, [x8]
ffffff8040004760: 52800409     	mov	w9, #0x20       // =32
ffffff8040004764: 39000109     	strb	w9, [x8]
ffffff8040004768: 3900010b     	strb	w11, [x8]
ffffff804000476c: 3900010c     	strb	w12, [x8]
ffffff8040004770: 3900010d     	strb	w13, [x8]
ffffff8040004774: 3900010e     	strb	w14, [x8]
ffffff8040004778: 3900010f     	strb	w15, [x8]
ffffff804000477c: 52800d0f     	mov	w15, #0x68      // =104
ffffff8040004780: 3900010f     	strb	w15, [x8]
ffffff8040004784: 52800d2f     	mov	w15, #0x69      // =105
ffffff8040004788: 3900010f     	strb	w15, [x8]
ffffff804000478c: 52800cef     	mov	w15, #0x67      // =103
ffffff8040004790: 3900010e     	strb	w14, [x8]
ffffff8040004794: 3900010f     	strb	w15, [x8]
ffffff8040004798: 39000109     	strb	w9, [x8]
ffffff804000479c: 52800e69     	mov	w9, #0x73       // =115
ffffff80400047a0: 3900010d     	strb	w13, [x8]
ffffff80400047a4: 39000109     	strb	w9, [x8]
ffffff80400047a8: 52800ca9     	mov	w9, #0x65       // =101
ffffff80400047ac: 39000109     	strb	w9, [x8]
ffffff80400047b0: 52800c89     	mov	w9, #0x64       // =100
ffffff80400047b4: 3900010a     	strb	w10, [x8]
ffffff80400047b8: 3900010b     	strb	w11, [x8]
ffffff80400047bc: 3900010c     	strb	w12, [x8]
ffffff80400047c0: 3900010e     	strb	w14, [x8]
ffffff80400047c4: 39000109     	strb	w9, [x8]
ffffff80400047c8: 528005c9     	mov	w9, #0x2e       // =46
ffffff80400047cc: 39000109     	strb	w9, [x8]
ffffff80400047d0: 39000109     	strb	w9, [x8]
ffffff80400047d4: 39000109     	strb	w9, [x8]
ffffff80400047d8: 52800149     	mov	w9, #0xa        // =10
ffffff80400047dc: 39000109     	strb	w9, [x8]
ffffff80400047e0: 97fff62e     	bl	0xffffff8040002098 <_ZN12cohesix_root9exec_init17hcbe852ae1af70748E>
ffffff80400047e4: aa0803e0     	mov	x0, x8
ffffff80400047e8: aa1403e1     	mov	x1, x20
ffffff80400047ec: 94000617     	bl	0xffffff8040006048 <_ZN4core5slice5index22slice_index_order_fail17h137a119cfdac7bceE>
ffffff80400047f0: aa1403e0     	mov	x0, x20
ffffff80400047f4: aa1303e1     	mov	x1, x19
ffffff80400047f8: 940003fa     	bl	0xffffff80400057e0 <_ZN4core5slice5index24slice_end_index_len_fail17hbc29399646d93e3bE>
ffffff80400047fc: aa1503e0     	mov	x0, x21
ffffff8040004800: aa1f03e1     	mov	x1, xzr
ffffff8040004804: 52800022     	mov	w2, #0x1        // =1
ffffff8040004808: aa1f03e3     	mov	x3, xzr
ffffff804000480c: 940006d2     	bl	0xffffff8040006354 <_ZN4core3str16slice_error_fail17h989e9dc2c72e1d49E>
ffffff8040004810: aa1503e0     	mov	x0, x21
ffffff8040004814: 52800022     	mov	w2, #0x1        // =1
ffffff8040004818: aa0103e3     	mov	x3, x1
ffffff804000481c: 940006ce     	bl	0xffffff8040006354 <_ZN4core3str16slice_error_fail17h989e9dc2c72e1d49E>
ffffff8040004820: 52800308     	mov	w8, #0x18       // =24
ffffff8040004824: f94027e9     	ldr	x9, [sp, #0x48]
ffffff8040004828: d2f0000a     	mov	x10, #-0x8000000000000000 // =-9223372036854775808
ffffff804000482c: 9ba85b08     	umaddl	x8, w24, w8, x22
ffffff8040004830: eb0a013f     	cmp	x9, x10
ffffff8040004834: f900091f     	str	xzr, [x8, #0x10]
ffffff8040004838: 54ffda20     	b.eq	0xffffff804000437c <main+0x21b4>
ffffff804000483c: f9402be1     	ldr	x1, [sp, #0x50]
ffffff8040004840: 9100c3e0     	add	x0, sp, #0x30
ffffff8040004844: aa1303e2     	mov	x2, x19
ffffff8040004848: 94000602     	bl	0xffffff8040006050 <_ZN4core3str8converts9from_utf817h7cdaeb2009589786E>
ffffff804000484c: b94033e8     	ldr	w8, [sp, #0x30]
ffffff8040004850: 7100051f     	cmp	w8, #0x1
ffffff8040004854: 54ffd940     	b.eq	0xffffff804000437c <main+0x21b4>
ffffff8040004858: 0f000540     	movi	v0.2s, #0xa
ffffff804000485c: 0f010468     	movi	v8.2s, #0x23
ffffff8040004860: d287c01c     	mov	x28, #0x3e00    // =15872
ffffff8040004864: a943a3e9     	ldp	x9, x8, [sp, #0x38]
ffffff8040004868: 52800037     	mov	w23, #0x1       // =1
ffffff804000486c: f2c0003c     	movk	x28, #0x1, lsl #32
ffffff8040004870: 390203f7     	strb	w23, [sp, #0x80]
ffffff8040004874: 790113ff     	strh	wzr, [sp, #0x88]
ffffff8040004878: a904a3ff     	stp	xzr, x8, [sp, #0x48]
ffffff804000487c: fd003fe0     	str	d0, [sp, #0x78]
ffffff8040004880: a905a3e9     	stp	x9, x8, [sp, #0x58]
ffffff8040004884: a906a3ff     	stp	xzr, x8, [sp, #0x68]
ffffff8040004888: 14000011     	b	0xffffff80400048cc <main+0x2704>
ffffff804000488c: 910243e8     	add	x8, sp, #0x90
ffffff8040004890: 91077fe0     	add	x0, sp, #0x1df
ffffff8040004894: 910343e1     	add	x1, sp, #0xd0
ffffff8040004898: f9005be8     	str	x8, [sp, #0xb0]
ffffff804000489c: d503201f     	nop
ffffff80400048a0: 10fdbda8     	adr	x8, 0xffffff8040000054 <_ZN44_$LT$$RF$T$u20$as$u20$core..fmt..Display$GT$3fmt17hf3669e95f4c212f9E>
ffffff80400048a4: f9005fe8     	str	x8, [sp, #0xb8]
ffffff80400048a8: d503201f     	nop
ffffff80400048ac: 100220a8     	adr	x8, 0xffffff8040008cc0 <_ZN12cohesix_root17ROOTSERVER_ONLINE17hccde821890211dbaE+0x4a8>
ffffff80400048b0: a90d5fe8     	stp	x8, x23, [sp, #0xd0]
ffffff80400048b4: 9102c3e8     	add	x8, sp, #0xb0
ffffff80400048b8: a90efff7     	stp	x23, xzr, [sp, #0xe8]
ffffff80400048bc: f90073e8     	str	x8, [sp, #0xe0]
ffffff80400048c0: 94000557     	bl	0xffffff8040005e1c <_ZN4core3fmt5write17h8f7b88e4069053abE>
ffffff80400048c4: 394227e8     	ldrb	w8, [sp, #0x89]
ffffff80400048c8: 3707d5a8     	tbnz	w8, #0x0, 0xffffff804000437c <main+0x21b4>
ffffff80400048cc: 910123e8     	add	x8, sp, #0x48
ffffff80400048d0: f9402ff3     	ldr	x19, [sp, #0x58]
ffffff80400048d4: 910343e0     	add	x0, sp, #0xd0
ffffff80400048d8: 91004101     	add	x1, x8, #0x10
ffffff80400048dc: 97ffee78     	bl	0xffffff80400002bc <_ZN81_$LT$core..str..pattern..CharSearcher$u20$as$u20$core..str..pattern..Searcher$GT$10next_match17hda82234e2f19ab5dE>
ffffff80400048e0: b940d3e8     	ldr	w8, [sp, #0xd0]
ffffff80400048e4: 7100051f     	cmp	w8, #0x1
ffffff80400048e8: 540000e1     	b.ne	0xffffff8040004904 <main+0x273c>
ffffff80400048ec: f94073e9     	ldr	x9, [sp, #0xe0]
ffffff80400048f0: f94027ea     	ldr	x10, [sp, #0x48]
ffffff80400048f4: cb0a0128     	sub	x8, x9, x10
ffffff80400048f8: 8b0a0273     	add	x19, x19, x10
ffffff80400048fc: f90027e9     	str	x9, [sp, #0x48]
ffffff8040004900: 1400000c     	b	0xffffff8040004930 <main+0x2768>
ffffff8040004904: 394227e8     	ldrb	w8, [sp, #0x89]
ffffff8040004908: 3707d3a8     	tbnz	w8, #0x0, 0xffffff804000437c <main+0x21b4>
ffffff804000490c: a944a3e9     	ldp	x9, x8, [sp, #0x48]
ffffff8040004910: 394223ea     	ldrb	w10, [sp, #0x88]
ffffff8040004914: 390227f7     	strb	w23, [sp, #0x89]
ffffff8040004918: 3700006a     	tbnz	w10, #0x0, 0xffffff8040004924 <main+0x275c>
ffffff804000491c: eb09011f     	cmp	x8, x9
ffffff8040004920: 54ffd2e0     	b.eq	0xffffff804000437c <main+0x21b4>
ffffff8040004924: f9402fea     	ldr	x10, [sp, #0x58]
ffffff8040004928: cb090108     	sub	x8, x8, x9
ffffff804000492c: 8b090153     	add	x19, x10, x9
ffffff8040004930: b40001e8     	cbz	x8, 0xffffff804000496c <main+0x27a4>
ffffff8040004934: d1000509     	sub	x9, x8, #0x1
ffffff8040004938: 38696a6a     	ldrb	w10, [x19, x9]
ffffff804000493c: 7100295f     	cmp	w10, #0xa
ffffff8040004940: 54000161     	b.ne	0xffffff804000496c <main+0x27a4>
ffffff8040004944: d1000908     	sub	x8, x8, #0x2
ffffff8040004948: b40000a9     	cbz	x9, 0xffffff804000495c <main+0x2794>
ffffff804000494c: 38686a6a     	ldrb	w10, [x19, x8]
ffffff8040004950: 7100355f     	cmp	w10, #0xd
ffffff8040004954: 9a9f026a     	csel	x10, x19, xzr, eq
ffffff8040004958: 14000002     	b	0xffffff8040004960 <main+0x2798>
ffffff804000495c: aa1f03ea     	mov	x10, xzr
ffffff8040004960: f100015f     	cmp	x10, #0x0
ffffff8040004964: 9a880128     	csel	x8, x9, x8, eq
ffffff8040004968: 9a8a0273     	csel	x19, x19, x10, eq
ffffff804000496c: b4ffd093     	cbz	x19, 0xffffff804000437c <main+0x21b4>
ffffff8040004970: a90d23ff     	stp	xzr, x8, [sp, #0xd0]
ffffff8040004974: 9102c3e0     	add	x0, sp, #0xb0
ffffff8040004978: a90e23f3     	stp	x19, x8, [sp, #0xe0]
ffffff804000497c: a90f23ff     	stp	xzr, x8, [sp, #0xf0]
ffffff8040004980: 910343e8     	add	x8, sp, #0xd0
ffffff8040004984: 91004101     	add	x1, x8, #0x10
ffffff8040004988: fd0083e8     	str	d8, [sp, #0x100]
ffffff804000498c: 390423f7     	strb	w23, [sp, #0x108]
ffffff8040004990: 790223f7     	strh	w23, [sp, #0x110]
ffffff8040004994: 97ffee4a     	bl	0xffffff80400002bc <_ZN81_$LT$core..str..pattern..CharSearcher$u20$as$u20$core..str..pattern..Searcher$GT$10next_match17hda82234e2f19ab5dE>
ffffff8040004998: b940b3e8     	ldr	w8, [sp, #0xb0]
ffffff804000499c: 7100051f     	cmp	w8, #0x1
ffffff80400049a0: 54000161     	b.ne	0xffffff80400049cc <main+0x2804>
ffffff80400049a4: a94babe8     	ldp	x8, x10, [sp, #0xb8]
ffffff80400049a8: f9406beb     	ldr	x11, [sp, #0xd0]
ffffff80400049ac: cb0b0109     	sub	x9, x8, x11
ffffff80400049b0: 8b0b0268     	add	x8, x19, x11
ffffff80400049b4: f9006bea     	str	x10, [sp, #0xd0]
ffffff80400049b8: 8b09010a     	add	x10, x8, x9
ffffff80400049bc: aa1f03eb     	mov	x11, xzr
ffffff80400049c0: aa0803ec     	mov	x12, x8
ffffff80400049c4: b5000409     	cbnz	x9, 0xffffff8040004a44 <main+0x287c>
ffffff80400049c8: 1400005e     	b	0xffffff8040004b40 <main+0x2978>
ffffff80400049cc: 394447e8     	ldrb	w8, [sp, #0x111]
ffffff80400049d0: 370000e8     	tbnz	w8, #0x0, 0xffffff80400049ec <main+0x2824>
ffffff80400049d4: a94d27e8     	ldp	x8, x9, [sp, #0xd0]
ffffff80400049d8: 394443ea     	ldrb	w10, [sp, #0x110]
ffffff80400049dc: 390447f7     	strb	w23, [sp, #0x111]
ffffff80400049e0: 370000ea     	tbnz	w10, #0x0, 0xffffff80400049fc <main+0x2834>
ffffff80400049e4: eb08013f     	cmp	x9, x8
ffffff80400049e8: 540000a1     	b.ne	0xffffff80400049fc <main+0x2834>
ffffff80400049ec: aa1f03e9     	mov	x9, xzr
ffffff80400049f0: aa1f03eb     	mov	x11, xzr
ffffff80400049f4: 52800028     	mov	w8, #0x1        // =1
ffffff80400049f8: 1400008f     	b	0xffffff8040004c34 <main+0x2a6c>
ffffff80400049fc: f94073ea     	ldr	x10, [sp, #0xe0]
ffffff8040004a00: cb080129     	sub	x9, x9, x8
ffffff8040004a04: 8b080148     	add	x8, x10, x8
ffffff8040004a08: 8b09010a     	add	x10, x8, x9
ffffff8040004a0c: aa1f03eb     	mov	x11, xzr
ffffff8040004a10: aa0803ec     	mov	x12, x8
ffffff8040004a14: b5000189     	cbnz	x9, 0xffffff8040004a44 <main+0x287c>
ffffff8040004a18: 1400004a     	b	0xffffff8040004b40 <main+0x2978>
ffffff8040004a1c: 331a11ab     	bfi	w11, w13, #6, #5
ffffff8040004a20: 910009cc     	add	x12, x14, #0x2
ffffff8040004a24: 2a0b03ed     	mov	w13, w11
ffffff8040004a28: 510025ab     	sub	w11, w13, #0x9
ffffff8040004a2c: cb0e018e     	sub	x14, x12, x14
ffffff8040004a30: 7100157f     	cmp	w11, #0x5
ffffff8040004a34: 8b0901cb     	add	x11, x14, x9
ffffff8040004a38: 54000302     	b.hs	0xffffff8040004a98 <main+0x28d0>
ffffff8040004a3c: eb0a019f     	cmp	x12, x10
ffffff8040004a40: 54000f60     	b.eq	0xffffff8040004c2c <main+0x2a64>
ffffff8040004a44: aa0c03ee     	mov	x14, x12
ffffff8040004a48: 38c0158f     	ldrsb	w15, [x12], #0x1
ffffff8040004a4c: aa0b03e9     	mov	x9, x11
ffffff8040004a50: 12001ded     	and	w13, w15, #0xff
ffffff8040004a54: 36fffeaf     	tbz	w15, #0x1f, 0xffffff8040004a28 <main+0x2860>
ffffff8040004a58: 394005cb     	ldrb	w11, [x14, #0x1]
ffffff8040004a5c: 710381bf     	cmp	w13, #0xe0
ffffff8040004a60: 1200156b     	and	w11, w11, #0x3f
ffffff8040004a64: 54fffdc3     	b.lo	0xffffff8040004a1c <main+0x2854>
ffffff8040004a68: 394009cc     	ldrb	w12, [x14, #0x2]
ffffff8040004a6c: 7103c1bf     	cmp	w13, #0xf0
ffffff8040004a70: 1200158c     	and	w12, w12, #0x3f
ffffff8040004a74: 2a0b198c     	orr	w12, w12, w11, lsl #6
ffffff8040004a78: 120011ab     	and	w11, w13, #0x1f
ffffff8040004a7c: 540002a3     	b.lo	0xffffff8040004ad0 <main+0x2908>
ffffff8040004a80: 39400dcd     	ldrb	w13, [x14, #0x3]
ffffff8040004a84: 120015ad     	and	w13, w13, #0x3f
ffffff8040004a88: 2a0c19ad     	orr	w13, w13, w12, lsl #6
ffffff8040004a8c: 910011cc     	add	x12, x14, #0x4
ffffff8040004a90: 330e096d     	bfi	w13, w11, #18, #3
ffffff8040004a94: 17ffffe5     	b	0xffffff8040004a28 <main+0x2860>
ffffff8040004a98: 710081bf     	cmp	w13, #0x20
ffffff8040004a9c: 54fffd00     	b.eq	0xffffff8040004a3c <main+0x2874>
ffffff8040004aa0: 710201bf     	cmp	w13, #0x80
ffffff8040004aa4: 540004e3     	b.lo	0xffffff8040004b40 <main+0x2978>
ffffff8040004aa8: 53087dae     	lsr	w14, w13, #8
ffffff8040004aac: 71007ddf     	cmp	w14, #0x1f
ffffff8040004ab0: 5400016c     	b.gt	0xffffff8040004adc <main+0x2914>
ffffff8040004ab4: 3400022e     	cbz	w14, 0xffffff8040004af8 <main+0x2930>
ffffff8040004ab8: 710059df     	cmp	w14, #0x16
ffffff8040004abc: 54000421     	b.ne	0xffffff8040004b40 <main+0x2978>
ffffff8040004ac0: 5282d00e     	mov	w14, #0x1680    // =5760
ffffff8040004ac4: 6b0e01bf     	cmp	w13, w14
ffffff8040004ac8: 54fffba0     	b.eq	0xffffff8040004a3c <main+0x2874>
ffffff8040004acc: 1400001d     	b	0xffffff8040004b40 <main+0x2978>
ffffff8040004ad0: 2a0b318d     	orr	w13, w12, w11, lsl #12
ffffff8040004ad4: 91000dcc     	add	x12, x14, #0x3
ffffff8040004ad8: 17ffffd4     	b	0xffffff8040004a28 <main+0x2860>
ffffff8040004adc: 710081df     	cmp	w14, #0x20
ffffff8040004ae0: 54000180     	b.eq	0xffffff8040004b10 <main+0x2948>
ffffff8040004ae4: 7100c1df     	cmp	w14, #0x30
ffffff8040004ae8: 540002c1     	b.ne	0xffffff8040004b40 <main+0x2978>
ffffff8040004aec: 71400dbf     	cmp	w13, #0x3, lsl #12 // =0x3000
ffffff8040004af0: 54fffa60     	b.eq	0xffffff8040004a3c <main+0x2874>
ffffff8040004af4: 14000013     	b	0xffffff8040004b40 <main+0x2978>
ffffff8040004af8: d503201f     	nop
ffffff8040004afc: 5002162e     	adr	x14, 0xffffff8040008dc2 <_ZN4core7unicode12unicode_data11white_space14WHITESPACE_MAP17h05932b8d89d4c975E>
ffffff8040004b00: 92401dad     	and	x13, x13, #0xff
ffffff8040004b04: 386d69cd     	ldrb	w13, [x14, x13]
ffffff8040004b08: 3707f9ad     	tbnz	w13, #0x0, 0xffffff8040004a3c <main+0x2874>
ffffff8040004b0c: 1400000d     	b	0xffffff8040004b40 <main+0x2978>
ffffff8040004b10: 92401dad     	and	x13, x13, #0xff
ffffff8040004b14: d503201f     	nop
ffffff8040004b18: 5002154e     	adr	x14, 0xffffff8040008dc2 <_ZN4core7unicode12unicode_data11white_space14WHITESPACE_MAP17h05932b8d89d4c975E>
ffffff8040004b1c: 386d69cd     	ldrb	w13, [x14, x13]
ffffff8040004b20: 370ff8ed     	tbnz	w13, #0x1, 0xffffff8040004a3c <main+0x2874>
ffffff8040004b24: 14000007     	b	0xffffff8040004b40 <main+0x2978>
ffffff8040004b28: 120011ef     	and	w15, w15, #0x1f
ffffff8040004b2c: 120015ce     	and	w14, w14, #0x3f
ffffff8040004b30: 2a0f19ce     	orr	w14, w14, w15, lsl #6
ffffff8040004b34: 510025cf     	sub	w15, w14, #0x9
ffffff8040004b38: 710015ff     	cmp	w15, #0x5
ffffff8040004b3c: 54000282     	b.hs	0xffffff8040004b8c <main+0x29c4>
ffffff8040004b40: eb0a019f     	cmp	x12, x10
ffffff8040004b44: 54000780     	b.eq	0xffffff8040004c34 <main+0x2a6c>
ffffff8040004b48: aa0a03ed     	mov	x13, x10
ffffff8040004b4c: 38dffd4e     	ldrsb	w14, [x10, #-0x1]!
ffffff8040004b50: 36ffff2e     	tbz	w14, #0x1f, 0xffffff8040004b34 <main+0x296c>
ffffff8040004b54: aa0d03ea     	mov	x10, x13
ffffff8040004b58: 38dfed4f     	ldrsb	w15, [x10, #-0x2]!
ffffff8040004b5c: 310101ff     	cmn	w15, #0x40
ffffff8040004b60: 54fffe4a     	b.ge	0xffffff8040004b28 <main+0x2960>
ffffff8040004b64: aa0d03ea     	mov	x10, x13
ffffff8040004b68: 38dfdd50     	ldrsb	w16, [x10, #-0x3]!
ffffff8040004b6c: 3101021f     	cmn	w16, #0x40
ffffff8040004b70: 540002aa     	b.ge	0xffffff8040004bc4 <main+0x29fc>
ffffff8040004b74: aa0d03ea     	mov	x10, x13
ffffff8040004b78: 12001e10     	and	w16, w16, #0xff
ffffff8040004b7c: 385fcd51     	ldrb	w17, [x10, #-0x4]!
ffffff8040004b80: 12001610     	and	w16, w16, #0x3f
ffffff8040004b84: 331a0a30     	bfi	w16, w17, #6, #3
ffffff8040004b88: 14000010     	b	0xffffff8040004bc8 <main+0x2a00>
ffffff8040004b8c: 710081df     	cmp	w14, #0x20
ffffff8040004b90: 54fffd80     	b.eq	0xffffff8040004b40 <main+0x2978>
ffffff8040004b94: 710201df     	cmp	w14, #0x80
ffffff8040004b98: 54000443     	b.lo	0xffffff8040004c20 <main+0x2a58>
ffffff8040004b9c: 53087dcf     	lsr	w15, w14, #8
ffffff8040004ba0: 71007dff     	cmp	w15, #0x1f
ffffff8040004ba4: 540001ac     	b.gt	0xffffff8040004bd8 <main+0x2a10>
ffffff8040004ba8: 3400026f     	cbz	w15, 0xffffff8040004bf4 <main+0x2a2c>
ffffff8040004bac: 710059ff     	cmp	w15, #0x16
ffffff8040004bb0: 54000381     	b.ne	0xffffff8040004c20 <main+0x2a58>
ffffff8040004bb4: 5282d00f     	mov	w15, #0x1680    // =5760
ffffff8040004bb8: 6b0f01df     	cmp	w14, w15
ffffff8040004bbc: 54fffc20     	b.eq	0xffffff8040004b40 <main+0x2978>
ffffff8040004bc0: 14000018     	b	0xffffff8040004c20 <main+0x2a58>
ffffff8040004bc4: 12000e10     	and	w16, w16, #0xf
ffffff8040004bc8: 12001def     	and	w15, w15, #0xff
ffffff8040004bcc: 120015ef     	and	w15, w15, #0x3f
ffffff8040004bd0: 2a1019ef     	orr	w15, w15, w16, lsl #6
ffffff8040004bd4: 17ffffd6     	b	0xffffff8040004b2c <main+0x2964>
ffffff8040004bd8: 710081ff     	cmp	w15, #0x20
ffffff8040004bdc: 54000180     	b.eq	0xffffff8040004c0c <main+0x2a44>
ffffff8040004be0: 7100c1ff     	cmp	w15, #0x30
ffffff8040004be4: 540001e1     	b.ne	0xffffff8040004c20 <main+0x2a58>
ffffff8040004be8: 71400ddf     	cmp	w14, #0x3, lsl #12 // =0x3000
ffffff8040004bec: 54fffaa0     	b.eq	0xffffff8040004b40 <main+0x2978>
ffffff8040004bf0: 1400000c     	b	0xffffff8040004c20 <main+0x2a58>
ffffff8040004bf4: d503201f     	nop
ffffff8040004bf8: 50020e4f     	adr	x15, 0xffffff8040008dc2 <_ZN4core7unicode12unicode_data11white_space14WHITESPACE_MAP17h05932b8d89d4c975E>
ffffff8040004bfc: 92401dce     	and	x14, x14, #0xff
ffffff8040004c00: 386e69ee     	ldrb	w14, [x15, x14]
ffffff8040004c04: 3707f9ee     	tbnz	w14, #0x0, 0xffffff8040004b40 <main+0x2978>
ffffff8040004c08: 14000006     	b	0xffffff8040004c20 <main+0x2a58>
ffffff8040004c0c: 92401dce     	and	x14, x14, #0xff
ffffff8040004c10: d503201f     	nop
ffffff8040004c14: 50020d6f     	adr	x15, 0xffffff8040008dc2 <_ZN4core7unicode12unicode_data11white_space14WHITESPACE_MAP17h05932b8d89d4c975E>
ffffff8040004c18: 386e69ee     	ldrb	w14, [x15, x14]
ffffff8040004c1c: 370ff92e     	tbnz	w14, #0x1, 0xffffff8040004b40 <main+0x2978>
ffffff8040004c20: cb0c016a     	sub	x10, x11, x12
ffffff8040004c24: 8b0d014b     	add	x11, x10, x13
ffffff8040004c28: 14000003     	b	0xffffff8040004c34 <main+0x2a6c>
ffffff8040004c2c: aa1f03e9     	mov	x9, xzr
ffffff8040004c30: aa1f03eb     	mov	x11, xzr
ffffff8040004c34: 8b09010a     	add	x10, x8, x9
ffffff8040004c38: eb09017d     	subs	x29, x11, x9
ffffff8040004c3c: f90007ea     	str	x10, [sp, #0x8]
ffffff8040004c40: a90977ea     	stp	x10, x29, [sp, #0x90]
ffffff8040004c44: 54ffe400     	b.eq	0xffffff80400048c4 <main+0x26fc>
ffffff8040004c48: f94007f5     	ldr	x21, [sp, #0x8]
ffffff8040004c4c: aa1f03f6     	mov	x22, xzr
ffffff8040004c50: 2a1f03f9     	mov	w25, wzr
ffffff8040004c54: aa1f03fb     	mov	x27, xzr
ffffff8040004c58: aa1f03e9     	mov	x9, xzr
ffffff8040004c5c: aa1f03ec     	mov	x12, xzr
ffffff8040004c60: 2a1f03ea     	mov	w10, wzr
ffffff8040004c64: 8b0b0114     	add	x20, x8, x11
ffffff8040004c68: 14000007     	b	0xffffff8040004c84 <main+0x2abc>
ffffff8040004c6c: 2a1f03ea     	mov	w10, wzr
ffffff8040004c70: aa0903f6     	mov	x22, x9
ffffff8040004c74: aa0903fb     	mov	x27, x9
ffffff8040004c78: aa0903ec     	mov	x12, x9
ffffff8040004c7c: eb130118     	subs	x24, x8, x19
ffffff8040004c80: 54000a81     	b.ne	0xffffff8040004dd0 <main+0x2c08>
ffffff8040004c84: 3707e04a     	tbnz	w10, #0x0, 0xffffff804000488c <main+0x26c4>
ffffff8040004c88: aa0c03f3     	mov	x19, x12
ffffff8040004c8c: eb1402bf     	cmp	x21, x20
ffffff8040004c90: 540001c1     	b.ne	0xffffff8040004cc8 <main+0x2b00>
ffffff8040004c94: 52800039     	mov	w25, #0x1       // =1
ffffff8040004c98: aa1303ec     	mov	x12, x19
ffffff8040004c9c: 5280002a     	mov	w10, #0x1       // =1
ffffff8040004ca0: eb1303b8     	subs	x24, x29, x19
ffffff8040004ca4: 54ffff00     	b.eq	0xffffff8040004c84 <main+0x2abc>
ffffff8040004ca8: 1400004a     	b	0xffffff8040004dd0 <main+0x2c08>
ffffff8040004cac: d503201f     	nop
ffffff8040004cb0: 5002088b     	adr	x11, 0xffffff8040008dc2 <_ZN4core7unicode12unicode_data11white_space14WHITESPACE_MAP17h05932b8d89d4c975E>
ffffff8040004cb4: 92401d4a     	and	x10, x10, #0xff
ffffff8040004cb8: 386a696a     	ldrb	w10, [x11, x10]
ffffff8040004cbc: 3707fd8a     	tbnz	w10, #0x0, 0xffffff8040004c6c <main+0x2aa4>
ffffff8040004cc0: eb1402bf     	cmp	x21, x20
ffffff8040004cc4: 540007a0     	b.eq	0xffffff8040004db8 <main+0x2bf0>
ffffff8040004cc8: aa1503eb     	mov	x11, x21
ffffff8040004ccc: 38c016ac     	ldrsb	w12, [x21], #0x1
ffffff8040004cd0: aa0903e8     	mov	x8, x9
ffffff8040004cd4: 12001d8a     	and	w10, w12, #0xff
ffffff8040004cd8: 36f802ec     	tbz	w12, #0x1f, 0xffffff8040004d34 <main+0x2b6c>
ffffff8040004cdc: 39400569     	ldrb	w9, [x11, #0x1]
ffffff8040004ce0: 7103815f     	cmp	w10, #0xe0
ffffff8040004ce4: 12001529     	and	w9, w9, #0x3f
ffffff8040004ce8: 540001a3     	b.lo	0xffffff8040004d1c <main+0x2b54>
ffffff8040004cec: 3940096c     	ldrb	w12, [x11, #0x2]
ffffff8040004cf0: 7103c15f     	cmp	w10, #0xf0
ffffff8040004cf4: 1200158c     	and	w12, w12, #0x3f
ffffff8040004cf8: 2a09198c     	orr	w12, w12, w9, lsl #6
ffffff8040004cfc: 12001149     	and	w9, w10, #0x1f
ffffff8040004d00: 54000163     	b.lo	0xffffff8040004d2c <main+0x2b64>
ffffff8040004d04: 39400d6a     	ldrb	w10, [x11, #0x3]
ffffff8040004d08: 91001175     	add	x21, x11, #0x4
ffffff8040004d0c: 1200154a     	and	w10, w10, #0x3f
ffffff8040004d10: 2a0c194a     	orr	w10, w10, w12, lsl #6
ffffff8040004d14: 330e092a     	bfi	w10, w9, #18, #3
ffffff8040004d18: 14000007     	b	0xffffff8040004d34 <main+0x2b6c>
ffffff8040004d1c: 331a1149     	bfi	w9, w10, #6, #5
ffffff8040004d20: 91000975     	add	x21, x11, #0x2
ffffff8040004d24: 2a0903ea     	mov	w10, w9
ffffff8040004d28: 14000003     	b	0xffffff8040004d34 <main+0x2b6c>
ffffff8040004d2c: 2a09318a     	orr	w10, w12, w9, lsl #12
ffffff8040004d30: 91000d75     	add	x21, x11, #0x3
ffffff8040004d34: 2a0a03e9     	mov	w9, w10
ffffff8040004d38: 7100815f     	cmp	w10, #0x20
ffffff8040004d3c: cb0b02ab     	sub	x11, x21, x11
ffffff8040004d40: 9ac922e9     	lsl	x9, x23, x9
ffffff8040004d44: 8a1c0129     	and	x9, x9, x28
ffffff8040004d48: fa409924     	ccmp	x9, #0x0, #0x4, ls
ffffff8040004d4c: 8b080169     	add	x9, x11, x8
ffffff8040004d50: 54fff8e1     	b.ne	0xffffff8040004c6c <main+0x2aa4>
ffffff8040004d54: 7102015f     	cmp	w10, #0x80
ffffff8040004d58: 54fffb43     	b.lo	0xffffff8040004cc0 <main+0x2af8>
ffffff8040004d5c: 53087d4b     	lsr	w11, w10, #8
ffffff8040004d60: 71007d7f     	cmp	w11, #0x1f
ffffff8040004d64: 5400010c     	b.gt	0xffffff8040004d84 <main+0x2bbc>
ffffff8040004d68: 34fffa2b     	cbz	w11, 0xffffff8040004cac <main+0x2ae4>
ffffff8040004d6c: 7100597f     	cmp	w11, #0x16
ffffff8040004d70: 54fffa81     	b.ne	0xffffff8040004cc0 <main+0x2af8>
ffffff8040004d74: 5282d00b     	mov	w11, #0x1680    // =5760
ffffff8040004d78: 6b0b015f     	cmp	w10, w11
ffffff8040004d7c: 54fffa21     	b.ne	0xffffff8040004cc0 <main+0x2af8>
ffffff8040004d80: 17ffffbb     	b	0xffffff8040004c6c <main+0x2aa4>
ffffff8040004d84: 7100817f     	cmp	w11, #0x20
ffffff8040004d88: 540000c0     	b.eq	0xffffff8040004da0 <main+0x2bd8>
ffffff8040004d8c: 7100c17f     	cmp	w11, #0x30
ffffff8040004d90: 54fff981     	b.ne	0xffffff8040004cc0 <main+0x2af8>
ffffff8040004d94: 71400d5f     	cmp	w10, #0x3, lsl #12 // =0x3000
ffffff8040004d98: 54fff941     	b.ne	0xffffff8040004cc0 <main+0x2af8>
ffffff8040004d9c: 17ffffb4     	b	0xffffff8040004c6c <main+0x2aa4>
ffffff8040004da0: 92401d4a     	and	x10, x10, #0xff
ffffff8040004da4: d503201f     	nop
ffffff8040004da8: 500200cb     	adr	x11, 0xffffff8040008dc2 <_ZN4core7unicode12unicode_data11white_space14WHITESPACE_MAP17h05932b8d89d4c975E>
ffffff8040004dac: 386a696a     	ldrb	w10, [x11, x10]
ffffff8040004db0: 360ff88a     	tbz	w10, #0x1, 0xffffff8040004cc0 <main+0x2af8>
ffffff8040004db4: 17ffffae     	b	0xffffff8040004c6c <main+0x2aa4>
ffffff8040004db8: 52800039     	mov	w25, #0x1       // =1
ffffff8040004dbc: aa0903f6     	mov	x22, x9
ffffff8040004dc0: aa1303ec     	mov	x12, x19
ffffff8040004dc4: 5280002a     	mov	w10, #0x1       // =1
ffffff8040004dc8: eb1303b8     	subs	x24, x29, x19
ffffff8040004dcc: 54fff5c0     	b.eq	0xffffff8040004c84 <main+0x2abc>
ffffff8040004dd0: 52800100     	mov	w0, #0x8        // =8
ffffff8040004dd4: 52800801     	mov	w1, #0x40       // =64
ffffff8040004dd8: 97ffee28     	bl	0xffffff8040000678 <_ZN91_$LT$cohesix_root..allocator..BumpAllocator$u20$as$u20$core..alloc..global..GlobalAlloc$GT$5alloc17h68394e3a5be46895E>
ffffff8040004ddc: b4ffa760     	cbz	x0, 0xffffff80400042c8 <main+0x2100>
ffffff8040004de0: f94007e8     	ldr	x8, [sp, #0x8]
ffffff8040004de4: 8b130108     	add	x8, x8, x19
ffffff8040004de8: 52800033     	mov	w19, #0x1       // =1
ffffff8040004dec: a9006008     	stp	x8, x24, [x0]
ffffff8040004df0: 52800088     	mov	w8, #0x4        // =4
ffffff8040004df4: a90d03e8     	stp	x8, x0, [sp, #0xd0]
ffffff8040004df8: f90073f7     	str	x23, [sp, #0xe0]
ffffff8040004dfc: aa1b03ea     	mov	x10, x27
ffffff8040004e00: 2a1903e9     	mov	w9, w25
ffffff8040004e04: 14000006     	b	0xffffff8040004e1c <main+0x2c54>
ffffff8040004e08: 2a1f03e9     	mov	w9, wzr
ffffff8040004e0c: aa1603fb     	mov	x27, x22
ffffff8040004e10: aa1603ea     	mov	x10, x22
ffffff8040004e14: eb1a0118     	subs	x24, x8, x26
ffffff8040004e18: 54000981     	b.ne	0xffffff8040004f48 <main+0x2d80>
ffffff8040004e1c: 37000ba9     	tbnz	w9, #0x0, 0xffffff8040004f90 <main+0x2dc8>
ffffff8040004e20: aa0a03fa     	mov	x26, x10
ffffff8040004e24: eb1402bf     	cmp	x21, x20
ffffff8040004e28: 54000860     	b.eq	0xffffff8040004f34 <main+0x2d6c>
ffffff8040004e2c: aa1503ea     	mov	x10, x21
ffffff8040004e30: 38c016ab     	ldrsb	w11, [x21], #0x1
ffffff8040004e34: aa1603e8     	mov	x8, x22
ffffff8040004e38: 12001d69     	and	w9, w11, #0xff
ffffff8040004e3c: 36f802eb     	tbz	w11, #0x1f, 0xffffff8040004e98 <main+0x2cd0>
ffffff8040004e40: 3940054b     	ldrb	w11, [x10, #0x1]
ffffff8040004e44: 7103813f     	cmp	w9, #0xe0
ffffff8040004e48: 1200156b     	and	w11, w11, #0x3f
ffffff8040004e4c: 540001a3     	b.lo	0xffffff8040004e80 <main+0x2cb8>
ffffff8040004e50: 3940094c     	ldrb	w12, [x10, #0x2]
ffffff8040004e54: 7103c13f     	cmp	w9, #0xf0
ffffff8040004e58: 1200158c     	and	w12, w12, #0x3f
ffffff8040004e5c: 2a0b198c     	orr	w12, w12, w11, lsl #6
ffffff8040004e60: 1200112b     	and	w11, w9, #0x1f
ffffff8040004e64: 54000163     	b.lo	0xffffff8040004e90 <main+0x2cc8>
ffffff8040004e68: 39400d49     	ldrb	w9, [x10, #0x3]
ffffff8040004e6c: 91001155     	add	x21, x10, #0x4
ffffff8040004e70: 12001529     	and	w9, w9, #0x3f
ffffff8040004e74: 2a0c1929     	orr	w9, w9, w12, lsl #6
ffffff8040004e78: 330e0969     	bfi	w9, w11, #18, #3
ffffff8040004e7c: 14000007     	b	0xffffff8040004e98 <main+0x2cd0>
ffffff8040004e80: 331a112b     	bfi	w11, w9, #6, #5
ffffff8040004e84: 91000955     	add	x21, x10, #0x2
ffffff8040004e88: 2a0b03e9     	mov	w9, w11
ffffff8040004e8c: 14000003     	b	0xffffff8040004e98 <main+0x2cd0>
ffffff8040004e90: 2a0b3189     	orr	w9, w12, w11, lsl #12
ffffff8040004e94: 91000d55     	add	x21, x10, #0x3
ffffff8040004e98: 2a0903eb     	mov	w11, w9
ffffff8040004e9c: 7100813f     	cmp	w9, #0x20
ffffff8040004ea0: cb0a02aa     	sub	x10, x21, x10
ffffff8040004ea4: 9acb22eb     	lsl	x11, x23, x11
ffffff8040004ea8: 8b080156     	add	x22, x10, x8
ffffff8040004eac: 8a1c016b     	and	x11, x11, x28
ffffff8040004eb0: fa409964     	ccmp	x11, #0x0, #0x4, ls
ffffff8040004eb4: 54fffaa1     	b.ne	0xffffff8040004e08 <main+0x2c40>
ffffff8040004eb8: 7102013f     	cmp	w9, #0x80
ffffff8040004ebc: 54fffb43     	b.lo	0xffffff8040004e24 <main+0x2c5c>
ffffff8040004ec0: 53087d2a     	lsr	w10, w9, #8
ffffff8040004ec4: 71007d5f     	cmp	w10, #0x1f
ffffff8040004ec8: 5400010c     	b.gt	0xffffff8040004ee8 <main+0x2d20>
ffffff8040004ecc: 340001ca     	cbz	w10, 0xffffff8040004f04 <main+0x2d3c>
ffffff8040004ed0: 7100595f     	cmp	w10, #0x16
ffffff8040004ed4: 54fffa81     	b.ne	0xffffff8040004e24 <main+0x2c5c>
ffffff8040004ed8: 5282d00a     	mov	w10, #0x1680    // =5760
ffffff8040004edc: 6b0a013f     	cmp	w9, w10
ffffff8040004ee0: 54fffa21     	b.ne	0xffffff8040004e24 <main+0x2c5c>
ffffff8040004ee4: 17ffffc9     	b	0xffffff8040004e08 <main+0x2c40>
ffffff8040004ee8: 7100815f     	cmp	w10, #0x20
ffffff8040004eec: 54000180     	b.eq	0xffffff8040004f1c <main+0x2d54>
ffffff8040004ef0: 7100c15f     	cmp	w10, #0x30
ffffff8040004ef4: 54fff981     	b.ne	0xffffff8040004e24 <main+0x2c5c>
ffffff8040004ef8: 71400d3f     	cmp	w9, #0x3, lsl #12 // =0x3000
ffffff8040004efc: 54fff941     	b.ne	0xffffff8040004e24 <main+0x2c5c>
ffffff8040004f00: 17ffffc2     	b	0xffffff8040004e08 <main+0x2c40>
ffffff8040004f04: d503201f     	nop
ffffff8040004f08: 5001f5ca     	adr	x10, 0xffffff8040008dc2 <_ZN4core7unicode12unicode_data11white_space14WHITESPACE_MAP17h05932b8d89d4c975E>
ffffff8040004f0c: 92401d29     	and	x9, x9, #0xff
ffffff8040004f10: 38696949     	ldrb	w9, [x10, x9]
ffffff8040004f14: 3607f889     	tbz	w9, #0x0, 0xffffff8040004e24 <main+0x2c5c>
ffffff8040004f18: 17ffffbc     	b	0xffffff8040004e08 <main+0x2c40>
ffffff8040004f1c: 92401d29     	and	x9, x9, #0xff
ffffff8040004f20: d503201f     	nop
ffffff8040004f24: 5001f4ea     	adr	x10, 0xffffff8040008dc2 <_ZN4core7unicode12unicode_data11white_space14WHITESPACE_MAP17h05932b8d89d4c975E>
ffffff8040004f28: 38696949     	ldrb	w9, [x10, x9]
ffffff8040004f2c: 360ff7c9     	tbz	w9, #0x1, 0xffffff8040004e24 <main+0x2c5c>
ffffff8040004f30: 17ffffb6     	b	0xffffff8040004e08 <main+0x2c40>
ffffff8040004f34: 52800039     	mov	w25, #0x1       // =1
ffffff8040004f38: aa1a03ea     	mov	x10, x26
ffffff8040004f3c: 52800029     	mov	w9, #0x1        // =1
ffffff8040004f40: eb1a03b8     	subs	x24, x29, x26
ffffff8040004f44: 54fff6c0     	b.eq	0xffffff8040004e1c <main+0x2c54>
ffffff8040004f48: f9406be8     	ldr	x8, [sp, #0xd0]
ffffff8040004f4c: eb08027f     	cmp	x19, x8
ffffff8040004f50: 54000100     	b.eq	0xffffff8040004f70 <main+0x2da8>
ffffff8040004f54: f94007e9     	ldr	x9, [sp, #0x8]
ffffff8040004f58: 8b131008     	add	x8, x0, x19, lsl #4
ffffff8040004f5c: 91000673     	add	x19, x19, #0x1
ffffff8040004f60: 8b1a0129     	add	x9, x9, x26
ffffff8040004f64: a9006109     	stp	x9, x24, [x8]
ffffff8040004f68: f90073f3     	str	x19, [sp, #0xe0]
ffffff8040004f6c: 17ffffa4     	b	0xffffff8040004dfc <main+0x2c34>
ffffff8040004f70: 910343e0     	add	x0, sp, #0xd0
ffffff8040004f74: aa1303e1     	mov	x1, x19
ffffff8040004f78: 52800022     	mov	w2, #0x1        // =1
ffffff8040004f7c: 52800103     	mov	w3, #0x8        // =8
ffffff8040004f80: 52800204     	mov	w4, #0x10       // =16
ffffff8040004f84: 97ffec9a     	bl	0xffffff80400001ec <_ZN5alloc7raw_vec20RawVecInner$LT$A$GT$7reserve21do_reserve_and_handle17h6cf4fe444bcba26aE>
ffffff8040004f88: f9406fe0     	ldr	x0, [sp, #0xd8]
ffffff8040004f8c: 17fffff2     	b	0xffffff8040004f54 <main+0x2d8c>
ffffff8040004f90: f9406ff4     	ldr	x20, [sp, #0xd8]
ffffff8040004f94: f1000e7f     	cmp	x19, #0x3
ffffff8040004f98: 54000740     	b.eq	0xffffff8040005080 <main+0x2eb8>
ffffff8040004f9c: f100127f     	cmp	x19, #0x4
ffffff8040004fa0: 54ffc761     	b.ne	0xffffff804000488c <main+0x26c4>
ffffff8040004fa4: f9400688     	ldr	x8, [x20, #0x8]
ffffff8040004fa8: f100111f     	cmp	x8, #0x4
ffffff8040004fac: 54ffc701     	b.ne	0xffffff804000488c <main+0x26c4>
ffffff8040004fb0: f9400288     	ldr	x8, [x20]
ffffff8040004fb4: 39400109     	ldrb	w9, [x8]
ffffff8040004fb8: 7101893f     	cmp	w9, #0x62
ffffff8040004fbc: 54ffc681     	b.ne	0xffffff804000488c <main+0x26c4>
ffffff8040004fc0: 39400509     	ldrb	w9, [x8, #0x1]
ffffff8040004fc4: 7101a53f     	cmp	w9, #0x69
ffffff8040004fc8: 54ffc621     	b.ne	0xffffff804000488c <main+0x26c4>
ffffff8040004fcc: 39400909     	ldrb	w9, [x8, #0x2]
ffffff8040004fd0: 7101b93f     	cmp	w9, #0x6e
ffffff8040004fd4: 54ffc5c1     	b.ne	0xffffff804000488c <main+0x26c4>
ffffff8040004fd8: 39400d08     	ldrb	w8, [x8, #0x3]
ffffff8040004fdc: 7101911f     	cmp	w8, #0x64
ffffff8040004fe0: 54ffc561     	b.ne	0xffffff804000488c <main+0x26c4>
ffffff8040004fe4: f9400e88     	ldr	x8, [x20, #0x18]
ffffff8040004fe8: f100091f     	cmp	x8, #0x2
ffffff8040004fec: 54ffc501     	b.ne	0xffffff804000488c <main+0x26c4>
ffffff8040004ff0: f9400a88     	ldr	x8, [x20, #0x10]
ffffff8040004ff4: 39400109     	ldrb	w9, [x8]
ffffff8040004ff8: 7100b53f     	cmp	w9, #0x2d
ffffff8040004ffc: 54ffc481     	b.ne	0xffffff804000488c <main+0x26c4>
ffffff8040005000: 39400508     	ldrb	w8, [x8, #0x1]
ffffff8040005004: 7101851f     	cmp	w8, #0x61
ffffff8040005008: 54ffc421     	b.ne	0xffffff804000488c <main+0x26c4>
ffffff804000500c: 91008288     	add	x8, x20, #0x20
ffffff8040005010: 9100c289     	add	x9, x20, #0x30
ffffff8040005014: 91077fe0     	add	x0, sp, #0x1df
ffffff8040005018: a90a27e8     	stp	x8, x9, [sp, #0xa0]
ffffff804000501c: 910283e8     	add	x8, sp, #0xa0
ffffff8040005020: 9102a3e9     	add	x9, sp, #0xa8
ffffff8040005024: f9005be8     	str	x8, [sp, #0xb0]
ffffff8040005028: f0ffffc8     	adrp	x8, 0xffffff8040000000 <_start>
ffffff804000502c: 9101010a     	add	x10, x8, #0x40
ffffff8040005030: d503201f     	nop
ffffff8040005034: 1001e1a8     	adr	x8, 0xffffff8040008c68 <_ZN12cohesix_root17ROOTSERVER_ONLINE17hccde821890211dbaE+0x450>
ffffff8040005038: a90ba7ea     	stp	x10, x9, [sp, #0xb8]
ffffff804000503c: a90ca3ea     	stp	x10, x8, [sp, #0xc8]
ffffff8040005040: 52800049     	mov	w9, #0x2        // =2
ffffff8040005044: 9102c3e8     	add	x8, sp, #0xb0
ffffff8040005048: 910343e1     	add	x1, sp, #0xd0
ffffff804000504c: a90effe9     	stp	x9, xzr, [sp, #0xe8]
ffffff8040005050: a90da3e9     	stp	x9, x8, [sp, #0xd8]
ffffff8040005054: 94000372     	bl	0xffffff8040005e1c <_ZN4core3fmt5write17h8f7b88e4069053abE>
ffffff8040005058: f9401693     	ldr	x19, [x20, #0x28]
ffffff804000505c: b7f80d13     	tbnz	x19, #0x3f, 0xffffff80400051fc <main+0x3034>
ffffff8040005060: f9401296     	ldr	x22, [x20, #0x20]
ffffff8040005064: b4000933     	cbz	x19, 0xffffff8040005188 <main+0x2fc0>
ffffff8040005068: 52800020     	mov	w0, #0x1        // =1
ffffff804000506c: aa1303e1     	mov	x1, x19
ffffff8040005070: 97ffed82     	bl	0xffffff8040000678 <_ZN91_$LT$cohesix_root..allocator..BumpAllocator$u20$as$u20$core..alloc..global..GlobalAlloc$GT$5alloc17h68394e3a5be46895E>
ffffff8040005074: aa0003f5     	mov	x21, x0
ffffff8040005078: b50008a0     	cbnz	x0, 0xffffff804000518c <main+0x2fc4>
ffffff804000507c: 17fffc93     	b	0xffffff80400042c8 <main+0x2100>
ffffff8040005080: f9400688     	ldr	x8, [x20, #0x8]
ffffff8040005084: f100111f     	cmp	x8, #0x4
ffffff8040005088: 54ffc021     	b.ne	0xffffff804000488c <main+0x26c4>
ffffff804000508c: f9400288     	ldr	x8, [x20]
ffffff8040005090: 39400109     	ldrb	w9, [x8]
ffffff8040005094: 7101893f     	cmp	w9, #0x62
ffffff8040005098: 54ffbfa1     	b.ne	0xffffff804000488c <main+0x26c4>
ffffff804000509c: 39400509     	ldrb	w9, [x8, #0x1]
ffffff80400050a0: 7101a53f     	cmp	w9, #0x69
ffffff80400050a4: 54ffbf41     	b.ne	0xffffff804000488c <main+0x26c4>
ffffff80400050a8: 39400909     	ldrb	w9, [x8, #0x2]
ffffff80400050ac: 7101b93f     	cmp	w9, #0x6e
ffffff80400050b0: 54ffbee1     	b.ne	0xffffff804000488c <main+0x26c4>
ffffff80400050b4: 39400d08     	ldrb	w8, [x8, #0x3]
ffffff80400050b8: 7101911f     	cmp	w8, #0x64
ffffff80400050bc: 54ffbe81     	b.ne	0xffffff804000488c <main+0x26c4>
ffffff80400050c0: 91004288     	add	x8, x20, #0x10
ffffff80400050c4: 91008289     	add	x9, x20, #0x20
ffffff80400050c8: 91077fe0     	add	x0, sp, #0x1df
ffffff80400050cc: a90a27e8     	stp	x8, x9, [sp, #0xa0]
ffffff80400050d0: 910283e8     	add	x8, sp, #0xa0
ffffff80400050d4: 9102a3e9     	add	x9, sp, #0xa8
ffffff80400050d8: f9005be8     	str	x8, [sp, #0xb0]
ffffff80400050dc: f0ffffc8     	adrp	x8, 0xffffff8040000000 <_start>
ffffff80400050e0: 9101010a     	add	x10, x8, #0x40
ffffff80400050e4: d503201f     	nop
ffffff80400050e8: 1001dd48     	adr	x8, 0xffffff8040008c90 <_ZN12cohesix_root17ROOTSERVER_ONLINE17hccde821890211dbaE+0x478>
ffffff80400050ec: a90ba7ea     	stp	x10, x9, [sp, #0xb8]
ffffff80400050f0: a90ca3ea     	stp	x10, x8, [sp, #0xc8]
ffffff80400050f4: 52800049     	mov	w9, #0x2        // =2
ffffff80400050f8: 9102c3e8     	add	x8, sp, #0xb0
ffffff80400050fc: 910343e1     	add	x1, sp, #0xd0
ffffff8040005100: a90effe9     	stp	x9, xzr, [sp, #0xe8]
ffffff8040005104: a90da3e9     	stp	x9, x8, [sp, #0xd8]
ffffff8040005108: 94000345     	bl	0xffffff8040005e1c <_ZN4core3fmt5write17h8f7b88e4069053abE>
ffffff804000510c: f9400e93     	ldr	x19, [x20, #0x18]
ffffff8040005110: b7f80773     	tbnz	x19, #0x3f, 0xffffff80400051fc <main+0x3034>
ffffff8040005114: f9400a96     	ldr	x22, [x20, #0x10]
ffffff8040005118: b40000f3     	cbz	x19, 0xffffff8040005134 <main+0x2f6c>
ffffff804000511c: 52800020     	mov	w0, #0x1        // =1
ffffff8040005120: aa1303e1     	mov	x1, x19
ffffff8040005124: 97ffed55     	bl	0xffffff8040000678 <_ZN91_$LT$cohesix_root..allocator..BumpAllocator$u20$as$u20$core..alloc..global..GlobalAlloc$GT$5alloc17h68394e3a5be46895E>
ffffff8040005128: aa0003f5     	mov	x21, x0
ffffff804000512c: b5000060     	cbnz	x0, 0xffffff8040005138 <main+0x2f70>
ffffff8040005130: 17fffc66     	b	0xffffff80400042c8 <main+0x2100>
ffffff8040005134: 52800035     	mov	w21, #0x1       // =1
ffffff8040005138: aa1503e0     	mov	x0, x21
ffffff804000513c: aa1603e1     	mov	x1, x22
ffffff8040005140: aa1303e2     	mov	x2, x19
ffffff8040005144: 97fff1e9     	bl	0xffffff80400018e8 <memcpy>
ffffff8040005148: 9102c3e0     	add	x0, sp, #0xb0
ffffff804000514c: a90b57f3     	stp	x19, x21, [sp, #0xb0]
ffffff8040005150: f90063f3     	str	x19, [sp, #0xc0]
ffffff8040005154: 94000052     	bl	0xffffff804000529c <_ZN5alloc7raw_vec19RawVec$LT$T$C$A$GT$8grow_one17h2608cff5e48c703fE>
ffffff8040005158: f9405fe8     	ldr	x8, [sp, #0xb8]
ffffff804000515c: 3833691f     	strb	wzr, [x8, x19]
ffffff8040005160: f9401693     	ldr	x19, [x20, #0x28]
ffffff8040005164: b7f804d3     	tbnz	x19, #0x3f, 0xffffff80400051fc <main+0x3034>
ffffff8040005168: f9401294     	ldr	x20, [x20, #0x20]
ffffff804000516c: b40002d3     	cbz	x19, 0xffffff80400051c4 <main+0x2ffc>
ffffff8040005170: 52800020     	mov	w0, #0x1        // =1
ffffff8040005174: aa1303e1     	mov	x1, x19
ffffff8040005178: 97ffed40     	bl	0xffffff8040000678 <_ZN91_$LT$cohesix_root..allocator..BumpAllocator$u20$as$u20$core..alloc..global..GlobalAlloc$GT$5alloc17h68394e3a5be46895E>
ffffff804000517c: aa0003f5     	mov	x21, x0
ffffff8040005180: b5000240     	cbnz	x0, 0xffffff80400051c8 <main+0x3000>
ffffff8040005184: 17fffc51     	b	0xffffff80400042c8 <main+0x2100>
ffffff8040005188: 52800035     	mov	w21, #0x1       // =1
ffffff804000518c: aa1503e0     	mov	x0, x21
ffffff8040005190: aa1603e1     	mov	x1, x22
ffffff8040005194: aa1303e2     	mov	x2, x19
ffffff8040005198: 97fff1d4     	bl	0xffffff80400018e8 <memcpy>
ffffff804000519c: 9102c3e0     	add	x0, sp, #0xb0
ffffff80400051a0: a90b57f3     	stp	x19, x21, [sp, #0xb0]
ffffff80400051a4: f90063f3     	str	x19, [sp, #0xc0]
ffffff80400051a8: 9400003d     	bl	0xffffff804000529c <_ZN5alloc7raw_vec19RawVec$LT$T$C$A$GT$8grow_one17h2608cff5e48c703fE>
ffffff80400051ac: f9405fe8     	ldr	x8, [sp, #0xb8]
ffffff80400051b0: 3833691f     	strb	wzr, [x8, x19]
ffffff80400051b4: f9401e93     	ldr	x19, [x20, #0x38]
ffffff80400051b8: b7f80233     	tbnz	x19, #0x3f, 0xffffff80400051fc <main+0x3034>
ffffff80400051bc: f9401a94     	ldr	x20, [x20, #0x30]
ffffff80400051c0: b5fffd93     	cbnz	x19, 0xffffff8040005170 <main+0x2fa8>
ffffff80400051c4: 52800035     	mov	w21, #0x1       // =1
ffffff80400051c8: aa1503e0     	mov	x0, x21
ffffff80400051cc: aa1403e1     	mov	x1, x20
ffffff80400051d0: aa1303e2     	mov	x2, x19
ffffff80400051d4: 97fff1c5     	bl	0xffffff80400018e8 <memcpy>
ffffff80400051d8: 910343e0     	add	x0, sp, #0xd0
ffffff80400051dc: a90d57f3     	stp	x19, x21, [sp, #0xd0]
ffffff80400051e0: f90073f3     	str	x19, [sp, #0xe0]
ffffff80400051e4: 9400002e     	bl	0xffffff804000529c <_ZN5alloc7raw_vec19RawVec$LT$T$C$A$GT$8grow_one17h2608cff5e48c703fE>
ffffff80400051e8: f9406fe8     	ldr	x8, [sp, #0xd8]
ffffff80400051ec: 3833691f     	strb	wzr, [x8, x19]
ffffff80400051f0: 17fffdb5     	b	0xffffff80400048c4 <main+0x26fc>
ffffff80400051f4: aa0803e0     	mov	x0, x8
ffffff80400051f8: 94000394     	bl	0xffffff8040006048 <_ZN4core5slice5index22slice_index_order_fail17h137a119cfdac7bceE>
ffffff80400051fc: 94000307     	bl	0xffffff8040005e18 <_ZN4core9panicking5panic17h8591a00acee40ddeE>
ffffff8040005200: aa1603e0     	mov	x0, x22
ffffff8040005204: aa1503e1     	mov	x1, x21
ffffff8040005208: aa1f03e2     	mov	x2, xzr
ffffff804000520c: aa1703e3     	mov	x3, x23
ffffff8040005210: 94000451     	bl	0xffffff8040006354 <_ZN4core3str16slice_error_fail17h989e9dc2c72e1d49E>

ffffff8040005214 <_ZN12cohesix_root10lang_items11alloc_error17h7e7cf23b18851024E>:
ffffff8040005214: 52a12008     	mov	w8, #0x9000000  // =150994944
ffffff8040005218: 52800b69     	mov	w9, #0x5b       // =91
ffffff804000521c: 52800e4a     	mov	w10, #0x72      // =114
ffffff8040005220: 39000109     	strb	w9, [x8]
ffffff8040005224: 52800de9     	mov	w9, #0x6f       // =111
ffffff8040005228: 52800e8b     	mov	w11, #0x74      // =116
ffffff804000522c: 3900010a     	strb	w10, [x8]
ffffff8040005230: 39000109     	strb	w9, [x8]
ffffff8040005234: 39000109     	strb	w9, [x8]
ffffff8040005238: 3900010b     	strb	w11, [x8]
ffffff804000523c: 52800bab     	mov	w11, #0x5d      // =93
ffffff8040005240: 3900010b     	strb	w11, [x8]
ffffff8040005244: 5280040b     	mov	w11, #0x20      // =32
ffffff8040005248: 3900010b     	strb	w11, [x8]
ffffff804000524c: 52800c2b     	mov	w11, #0x61      // =97
ffffff8040005250: 3900010b     	strb	w11, [x8]
ffffff8040005254: 52800d8b     	mov	w11, #0x6c      // =108
ffffff8040005258: 3900010b     	strb	w11, [x8]
ffffff804000525c: 3900010b     	strb	w11, [x8]
ffffff8040005260: 52800c6b     	mov	w11, #0x63      // =99
ffffff8040005264: 39000109     	strb	w9, [x8]
ffffff8040005268: 3900010b     	strb	w11, [x8]
ffffff804000526c: 52800beb     	mov	w11, #0x5f      // =95
ffffff8040005270: 3900010b     	strb	w11, [x8]
ffffff8040005274: 52800cab     	mov	w11, #0x65      // =101
ffffff8040005278: 3900010b     	strb	w11, [x8]
ffffff804000527c: 3900010a     	strb	w10, [x8]
ffffff8040005280: 3900010a     	strb	w10, [x8]
ffffff8040005284: 39000109     	strb	w9, [x8]
ffffff8040005288: 52800149     	mov	w9, #0xa        // =10
ffffff804000528c: 3900010a     	strb	w10, [x8]
ffffff8040005290: 39000109     	strb	w9, [x8]
ffffff8040005294: d5033fdf     	isb
ffffff8040005298: 17ffffff     	b	0xffffff8040005294 <_ZN12cohesix_root10lang_items11alloc_error17h7e7cf23b18851024E+0x80>

ffffff804000529c <_ZN5alloc7raw_vec19RawVec$LT$T$C$A$GT$8grow_one17h2608cff5e48c703fE>:
ffffff804000529c: d10143ff     	sub	sp, sp, #0x50
ffffff80400052a0: f9001bfe     	str	x30, [sp, #0x30]
ffffff80400052a4: a9044ff4     	stp	x20, x19, [sp, #0x40]
ffffff80400052a8: f9400008     	ldr	x8, [x0]
ffffff80400052ac: 52800109     	mov	w9, #0x8        // =8
ffffff80400052b0: d37ff90a     	lsl	x10, x8, #1
ffffff80400052b4: f100215f     	cmp	x10, #0x8
ffffff80400052b8: 9a898154     	csel	x20, x10, x9, hi
ffffff80400052bc: b7f802b4     	tbnz	x20, #0x3f, 0xffffff8040005310 <_ZN5alloc7raw_vec19RawVec$LT$T$C$A$GT$8grow_one17h2608cff5e48c703fE+0x74>
ffffff80400052c0: aa0003f3     	mov	x19, x0
ffffff80400052c4: b40000a8     	cbz	x8, 0xffffff80400052d8 <_ZN5alloc7raw_vec19RawVec$LT$T$C$A$GT$8grow_one17h2608cff5e48c703fE+0x3c>
ffffff80400052c8: f9400669     	ldr	x9, [x19, #0x8]
ffffff80400052cc: f90017e8     	str	x8, [sp, #0x28]
ffffff80400052d0: 52800028     	mov	w8, #0x1        // =1
ffffff80400052d4: f9000fe9     	str	x9, [sp, #0x18]
ffffff80400052d8: 910003e0     	mov	x0, sp
ffffff80400052dc: 910063e2     	add	x2, sp, #0x18
ffffff80400052e0: aa1403e1     	mov	x1, x20
ffffff80400052e4: f90013e8     	str	x8, [sp, #0x20]
ffffff80400052e8: 9400000e     	bl	0xffffff8040005320 <_ZN5alloc7raw_vec11finish_grow17h16c765b8ef41d761E>
ffffff80400052ec: b94003e8     	ldr	w8, [sp]
ffffff80400052f0: 7100051f     	cmp	w8, #0x1
ffffff80400052f4: 54000120     	b.eq	0xffffff8040005318 <_ZN5alloc7raw_vec19RawVec$LT$T$C$A$GT$8grow_one17h2608cff5e48c703fE+0x7c>
ffffff80400052f8: f94007e8     	ldr	x8, [sp, #0x8]
ffffff80400052fc: f9401bfe     	ldr	x30, [sp, #0x30]
ffffff8040005300: a9002274     	stp	x20, x8, [x19]
ffffff8040005304: a9444ff4     	ldp	x20, x19, [sp, #0x40]
ffffff8040005308: 910143ff     	add	sp, sp, #0x50
ffffff804000530c: d65f03c0     	ret
ffffff8040005310: aa1f03e0     	mov	x0, xzr
ffffff8040005314: 94000023     	bl	0xffffff80400053a0 <_ZN5alloc7raw_vec12handle_error17h1bb85de6207b500fE>
ffffff8040005318: f94007e0     	ldr	x0, [sp, #0x8]
ffffff804000531c: 94000021     	bl	0xffffff80400053a0 <_ZN5alloc7raw_vec12handle_error17h1bb85de6207b500fE>

ffffff8040005320 <_ZN5alloc7raw_vec11finish_grow17h16c765b8ef41d761E>:
ffffff8040005320: a9bd5ffe     	stp	x30, x23, [sp, #-0x30]!
ffffff8040005324: a90157f6     	stp	x22, x21, [sp, #0x10]
ffffff8040005328: a9024ff4     	stp	x20, x19, [sp, #0x20]
ffffff804000532c: f9400448     	ldr	x8, [x2, #0x8]
ffffff8040005330: aa0103f4     	mov	x20, x1
ffffff8040005334: aa0003f3     	mov	x19, x0
ffffff8040005338: b40001c8     	cbz	x8, 0xffffff8040005370 <_ZN5alloc7raw_vec11finish_grow17h16c765b8ef41d761E+0x50>
ffffff804000533c: f9400855     	ldr	x21, [x2, #0x10]
ffffff8040005340: b4000195     	cbz	x21, 0xffffff8040005370 <_ZN5alloc7raw_vec11finish_grow17h16c765b8ef41d761E+0x50>
ffffff8040005344: f9400056     	ldr	x22, [x2]
ffffff8040005348: 52800020     	mov	w0, #0x1        // =1
ffffff804000534c: aa1403e1     	mov	x1, x20
ffffff8040005350: 97ffecca     	bl	0xffffff8040000678 <_ZN91_$LT$cohesix_root..allocator..BumpAllocator$u20$as$u20$core..alloc..global..GlobalAlloc$GT$5alloc17h68394e3a5be46895E>
ffffff8040005354: b4000140     	cbz	x0, 0xffffff804000537c <_ZN5alloc7raw_vec11finish_grow17h16c765b8ef41d761E+0x5c>
ffffff8040005358: aa1603e1     	mov	x1, x22
ffffff804000535c: aa1503e2     	mov	x2, x21
ffffff8040005360: aa0003f7     	mov	x23, x0
ffffff8040005364: 97fff161     	bl	0xffffff80400018e8 <memcpy>
ffffff8040005368: aa1703e0     	mov	x0, x23
ffffff804000536c: 14000004     	b	0xffffff804000537c <_ZN5alloc7raw_vec11finish_grow17h16c765b8ef41d761E+0x5c>
ffffff8040005370: 52800020     	mov	w0, #0x1        // =1
ffffff8040005374: aa1403e1     	mov	x1, x20
ffffff8040005378: 97ffecc0     	bl	0xffffff8040000678 <_ZN91_$LT$cohesix_root..allocator..BumpAllocator$u20$as$u20$core..alloc..global..GlobalAlloc$GT$5alloc17h68394e3a5be46895E>
ffffff804000537c: f100001f     	cmp	x0, #0x0
ffffff8040005380: a94157f6     	ldp	x22, x21, [sp, #0x10]
ffffff8040005384: 9a9f1408     	csinc	x8, x0, xzr, ne
ffffff8040005388: 1a9f17e9     	cset	w9, eq
ffffff804000538c: a900d268     	stp	x8, x20, [x19, #0x8]
ffffff8040005390: f9000269     	str	x9, [x19]
ffffff8040005394: a9424ff4     	ldp	x20, x19, [sp, #0x20]
ffffff8040005398: a8c35ffe     	ldp	x30, x23, [sp], #0x30
ffffff804000539c: d65f03c0     	ret

ffffff80400053a0 <_ZN5alloc7raw_vec12handle_error17h1bb85de6207b500fE>:
ffffff80400053a0: b5000040     	cbnz	x0, 0xffffff80400053a8 <_ZN5alloc7raw_vec12handle_error17h1bb85de6207b500fE+0x8>
ffffff80400053a4: 9400029d     	bl	0xffffff8040005e18 <_ZN4core9panicking5panic17h8591a00acee40ddeE>
ffffff80400053a8: 97ffff9b     	bl	0xffffff8040005214 <_ZN12cohesix_root10lang_items11alloc_error17h7e7cf23b18851024E>

ffffff80400053ac <_ZN4core3fmt3num3imp54_$LT$impl$u20$core..fmt..Display$u20$for$u20$usize$GT$3fmt17h54cfc045c1880294E>:
ffffff80400053ac: d100c3ff     	sub	sp, sp, #0x30
ffffff80400053b0: f90013fe     	str	x30, [sp, #0x20]
ffffff80400053b4: f9400009     	ldr	x9, [x0]
ffffff80400053b8: d503201f     	nop
ffffff80400053bc: 1001d8c8     	adr	x8, 0xffffff8040008ed4 <_ZN4core7unicode12unicode_data11white_space14WHITESPACE_MAP17h05932b8d89d4c975E+0x112>
ffffff80400053c0: f10fa13f     	cmp	x9, #0x3e8
ffffff80400053c4: 54000463     	b.lo	0xffffff8040005450 <_ZN4core3fmt3num3imp54_$LT$impl$u20$core..fmt..Display$u20$for$u20$usize$GT$3fmt17h54cfc045c1880294E+0xa4>
ffffff80400053c8: d28b296c     	mov	x12, #0x594b    // =22859
ffffff80400053cc: 910033ea     	add	x10, sp, #0xc
ffffff80400053d0: 5292cff1     	mov	w17, #0x967f    // =38527
ffffff80400053d4: f2a710cc     	movk	x12, #0x3886, lsl #16
ffffff80400053d8: 9280026b     	mov	x11, #-0x14     // =-20
ffffff80400053dc: 5284e20d     	mov	w13, #0x2710    // =10000
ffffff80400053e0: f2d8bacc     	movk	x12, #0xc5d6, lsl #32
ffffff80400053e4: 52828f6e     	mov	w14, #0x147b    // =5243
ffffff80400053e8: 91004d4f     	add	x15, x10, #0x13
ffffff80400053ec: f2e68dac     	movk	x12, #0x346d, lsl #48
ffffff80400053f0: 52800c90     	mov	w16, #0x64      // =100
ffffff80400053f4: 72a01311     	movk	w17, #0x98, lsl #16
ffffff80400053f8: aa0903ea     	mov	x10, x9
ffffff80400053fc: aa0a03f2     	mov	x18, x10
ffffff8040005400: 9bcc7d4a     	umulh	x10, x10, x12
ffffff8040005404: 9100116b     	add	x11, x11, #0x4
ffffff8040005408: eb11025f     	cmp	x18, x17
ffffff804000540c: d34bfd4a     	lsr	x10, x10, #11
ffffff8040005410: 1b0dc940     	msub	w0, w10, w13, w18
ffffff8040005414: 53023c02     	ubfx	w2, w0, #2, #14
ffffff8040005418: 1b0e7c42     	mul	w2, w2, w14
ffffff804000541c: 53117c42     	lsr	w2, w2, #17
ffffff8040005420: 1b108040     	msub	w0, w2, w16, w0
ffffff8040005424: 78625902     	ldrh	w2, [x8, w2, uxtw #1]
ffffff8040005428: 781fd1e2     	sturh	w2, [x15, #-0x3]
ffffff804000542c: 92403c00     	and	x0, x0, #0xffff
ffffff8040005430: 78607900     	ldrh	w0, [x8, x0, lsl #1]
ffffff8040005434: 781ff1e0     	sturh	w0, [x15, #-0x1]
ffffff8040005438: d10011ef     	sub	x15, x15, #0x4
ffffff804000543c: 54fffe08     	b.hi	0xffffff80400053fc <_ZN4core3fmt3num3imp54_$LT$impl$u20$core..fmt..Display$u20$for$u20$usize$GT$3fmt17h54cfc045c1880294E+0x50>
ffffff8040005440: cb0b03eb     	neg	x11, x11
ffffff8040005444: f100255f     	cmp	x10, #0x9
ffffff8040005448: 540000c8     	b.hi	0xffffff8040005460 <_ZN4core3fmt3num3imp54_$LT$impl$u20$core..fmt..Display$u20$for$u20$usize$GT$3fmt17h54cfc045c1880294E+0xb4>
ffffff804000544c: 14000011     	b	0xffffff8040005490 <_ZN4core3fmt3num3imp54_$LT$impl$u20$core..fmt..Display$u20$for$u20$usize$GT$3fmt17h54cfc045c1880294E+0xe4>
ffffff8040005450: 5280028b     	mov	w11, #0x14      // =20
ffffff8040005454: aa0903ea     	mov	x10, x9
ffffff8040005458: f100253f     	cmp	x9, #0x9
ffffff804000545c: 540001a9     	b.ls	0xffffff8040005490 <_ZN4core3fmt3num3imp54_$LT$impl$u20$core..fmt..Display$u20$for$u20$usize$GT$3fmt17h54cfc045c1880294E+0xe4>
ffffff8040005460: 53023d4c     	ubfx	w12, w10, #2, #14
ffffff8040005464: 52828f6d     	mov	w13, #0x147b    // =5243
ffffff8040005468: d100096b     	sub	x11, x11, #0x2
ffffff804000546c: 1b0d7d8c     	mul	w12, w12, w13
ffffff8040005470: 52800c8d     	mov	w13, #0x64      // =100
ffffff8040005474: 53117d8c     	lsr	w12, w12, #17
ffffff8040005478: 1b0da98a     	msub	w10, w12, w13, w10
ffffff804000547c: 910033ed     	add	x13, sp, #0xc
ffffff8040005480: 92403d4a     	and	x10, x10, #0xffff
ffffff8040005484: 786a790a     	ldrh	w10, [x8, x10, lsl #1]
ffffff8040005488: 782b69aa     	strh	w10, [x13, x11]
ffffff804000548c: aa0c03ea     	mov	x10, x12
ffffff8040005490: b4000049     	cbz	x9, 0xffffff8040005498 <_ZN4core3fmt3num3imp54_$LT$impl$u20$core..fmt..Display$u20$for$u20$usize$GT$3fmt17h54cfc045c1880294E+0xec>
ffffff8040005494: b40000ea     	cbz	x10, 0xffffff80400054b0 <_ZN4core3fmt3num3imp54_$LT$impl$u20$core..fmt..Display$u20$for$u20$usize$GT$3fmt17h54cfc045c1880294E+0x104>
ffffff8040005498: d37f0d49     	ubfiz	x9, x10, #1, #4
ffffff804000549c: d100056b     	sub	x11, x11, #0x1
ffffff80400054a0: 8b090108     	add	x8, x8, x9
ffffff80400054a4: 910033e9     	add	x9, sp, #0xc
ffffff80400054a8: 39400508     	ldrb	w8, [x8, #0x1]
ffffff80400054ac: 382b6928     	strb	w8, [x9, x11]
ffffff80400054b0: 52800288     	mov	w8, #0x14       // =20
ffffff80400054b4: aa0103e0     	mov	x0, x1
ffffff80400054b8: 52800021     	mov	w1, #0x1        // =1
ffffff80400054bc: cb0b0104     	sub	x4, x8, x11
ffffff80400054c0: 910033e8     	add	x8, sp, #0xc
ffffff80400054c4: aa1f03e2     	mov	x2, xzr
ffffff80400054c8: 8b0b0103     	add	x3, x8, x11
ffffff80400054cc: 94000005     	bl	0xffffff80400054e0 <_ZN4core3fmt9Formatter12pad_integral17h941e54f28d0965ffE>
ffffff80400054d0: f94013fe     	ldr	x30, [sp, #0x20]
ffffff80400054d4: 9100c3ff     	add	sp, sp, #0x30
ffffff80400054d8: d65f03c0     	ret

ffffff80400054dc <_ZN4core9panicking9panic_fmt17hc6333e93bd8c6355E>:
ffffff80400054dc: 97ffefa7     	bl	0xffffff8040001378 <_RNvCs9km79j5joxb_7___rustc17rust_begin_unwind>

ffffff80400054e0 <_ZN4core3fmt9Formatter12pad_integral17h941e54f28d0965ffE>:
ffffff80400054e0: a9ba7bfd     	stp	x29, x30, [sp, #-0x60]!
ffffff80400054e4: a9016ffc     	stp	x28, x27, [sp, #0x10]
ffffff80400054e8: a90267fa     	stp	x26, x25, [sp, #0x20]
ffffff80400054ec: a9035ff8     	stp	x24, x23, [sp, #0x30]
ffffff80400054f0: a90457f6     	stp	x22, x21, [sp, #0x40]
ffffff80400054f4: a9054ff4     	stp	x20, x19, [sp, #0x50]
ffffff80400054f8: b940101a     	ldr	w26, [x0, #0x10]
ffffff80400054fc: 52800568     	mov	w8, #0x2b       // =43
ffffff8040005500: 52a0022a     	mov	w10, #0x110000  // =1114112
ffffff8040005504: aa0403f3     	mov	x19, x4
ffffff8040005508: aa0303f4     	mov	x20, x3
ffffff804000550c: aa0203f5     	mov	x21, x2
ffffff8040005510: 926b0349     	and	x9, x26, #0x200000
ffffff8040005514: 7100013f     	cmp	w9, #0x0
ffffff8040005518: 8b49549b     	add	x27, x4, x9, lsr #21
ffffff804000551c: 1a880157     	csel	w23, w10, w8, eq
ffffff8040005520: 37b8031a     	tbnz	w26, #0x17, 0xffffff8040005580 <_ZN4core3fmt9Formatter12pad_integral17h941e54f28d0965ffE+0xa0>
ffffff8040005524: aa1f03f6     	mov	x22, xzr
ffffff8040005528: 7940281d     	ldrh	w29, [x0, #0x14]
ffffff804000552c: eb1d037f     	cmp	x27, x29
ffffff8040005530: 54000443     	b.lo	0xffffff80400055b8 <_ZN4core3fmt9Formatter12pad_integral17h941e54f28d0965ffE+0xd8>
ffffff8040005534: a9406418     	ldp	x24, x25, [x0]
ffffff8040005538: 2a1703e2     	mov	w2, w23
ffffff804000553c: aa1603e3     	mov	x3, x22
ffffff8040005540: aa1503e4     	mov	x4, x21
ffffff8040005544: aa1803e0     	mov	x0, x24
ffffff8040005548: aa1903e1     	mov	x1, x25
ffffff804000554c: 94000084     	bl	0xffffff804000575c <_ZN4core3fmt9Formatter12pad_integral12write_prefix17h145f1cbeaf9534c8E>
ffffff8040005550: 37000d60     	tbnz	w0, #0x0, 0xffffff80400056fc <_ZN4core3fmt9Formatter12pad_integral17h941e54f28d0965ffE+0x21c>
ffffff8040005554: f9400f23     	ldr	x3, [x25, #0x18]
ffffff8040005558: aa1803e0     	mov	x0, x24
ffffff804000555c: aa1403e1     	mov	x1, x20
ffffff8040005560: aa1303e2     	mov	x2, x19
ffffff8040005564: a9454ff4     	ldp	x20, x19, [sp, #0x50]
ffffff8040005568: a94457f6     	ldp	x22, x21, [sp, #0x40]
ffffff804000556c: a9435ff8     	ldp	x24, x23, [sp, #0x30]
ffffff8040005570: a94267fa     	ldp	x26, x25, [sp, #0x20]
ffffff8040005574: a9416ffc     	ldp	x28, x27, [sp, #0x10]
ffffff8040005578: a8c67bfd     	ldp	x29, x30, [sp], #0x60
ffffff804000557c: d61f0060     	br	x3
ffffff8040005580: aa0103f6     	mov	x22, x1
ffffff8040005584: b4000635     	cbz	x21, 0xffffff8040005648 <_ZN4core3fmt9Formatter12pad_integral17h941e54f28d0965ffE+0x168>
ffffff8040005588: 39c002c8     	ldrsb	w8, [x22]
ffffff804000558c: 3101051f     	cmn	w8, #0x41
ffffff8040005590: 1a9fd7e8     	cset	w8, gt
ffffff8040005594: f10006bf     	cmp	x21, #0x1
ffffff8040005598: 54000080     	b.eq	0xffffff80400055a8 <_ZN4core3fmt9Formatter12pad_integral17h941e54f28d0965ffE+0xc8>
ffffff804000559c: 39c006c9     	ldrsb	w9, [x22, #0x1]
ffffff80400055a0: 3101053f     	cmn	w9, #0x41
ffffff80400055a4: 9a88d508     	cinc	x8, x8, gt
ffffff80400055a8: 8b1b011b     	add	x27, x8, x27
ffffff80400055ac: 7940281d     	ldrh	w29, [x0, #0x14]
ffffff80400055b0: eb1d037f     	cmp	x27, x29
ffffff80400055b4: 54fffc02     	b.hs	0xffffff8040005534 <_ZN4core3fmt9Formatter12pad_integral17h941e54f28d0965ffE+0x54>
ffffff80400055b8: 37c0011a     	tbnz	w26, #0x18, 0xffffff80400055d8 <_ZN4core3fmt9Formatter12pad_integral17h941e54f28d0965ffE+0xf8>
ffffff80400055bc: 531d7b48     	ubfx	w8, w26, #29, #2
ffffff80400055c0: 4b1b03bb     	sub	w27, w29, w27
ffffff80400055c4: 7100051f     	cmp	w8, #0x1
ffffff80400055c8: 540004ac     	b.gt	0xffffff804000565c <_ZN4core3fmt9Formatter12pad_integral17h941e54f28d0965ffE+0x17c>
ffffff80400055cc: 35000648     	cbnz	w8, 0xffffff8040005694 <_ZN4core3fmt9Formatter12pad_integral17h941e54f28d0965ffE+0x1b4>
ffffff80400055d0: 2a1f03fc     	mov	w28, wzr
ffffff80400055d4: 14000031     	b	0xffffff8040005698 <_ZN4core3fmt9Formatter12pad_integral17h941e54f28d0965ffE+0x1b8>
ffffff80400055d8: a940e819     	ldp	x25, x26, [x0, #0x8]
ffffff80400055dc: 52b3fc08     	mov	w8, #-0x60200000 // =-1612709888
ffffff80400055e0: 52800609     	mov	w9, #0x30       // =48
ffffff80400055e4: f9400018     	ldr	x24, [x0]
ffffff80400055e8: aa0003fc     	mov	x28, x0
ffffff80400055ec: 72a40009     	movk	w9, #0x2000, lsl #16
ffffff80400055f0: 2a1703e2     	mov	w2, w23
ffffff80400055f4: aa1603e3     	mov	x3, x22
ffffff80400055f8: 0a080348     	and	w8, w26, w8
ffffff80400055fc: aa1903e1     	mov	x1, x25
ffffff8040005600: aa1503e4     	mov	x4, x21
ffffff8040005604: 2a090108     	orr	w8, w8, w9
ffffff8040005608: b9001008     	str	w8, [x0, #0x10]
ffffff804000560c: aa1803e0     	mov	x0, x24
ffffff8040005610: 94000053     	bl	0xffffff804000575c <_ZN4core3fmt9Formatter12pad_integral12write_prefix17h145f1cbeaf9534c8E>
ffffff8040005614: 37000740     	tbnz	w0, #0x0, 0xffffff80400056fc <_ZN4core3fmt9Formatter12pad_integral17h941e54f28d0965ffE+0x21c>
ffffff8040005618: 2a1f03f5     	mov	w21, wzr
ffffff804000561c: 4b1b03b6     	sub	w22, w29, w27
ffffff8040005620: 12003ea8     	and	w8, w21, #0xffff
ffffff8040005624: 6b36211f     	cmp	w8, w22, uxth
ffffff8040005628: 54000242     	b.hs	0xffffff8040005670 <_ZN4core3fmt9Formatter12pad_integral17h941e54f28d0965ffE+0x190>
ffffff804000562c: f9401328     	ldr	x8, [x25, #0x20]
ffffff8040005630: aa1803e0     	mov	x0, x24
ffffff8040005634: 52800601     	mov	w1, #0x30       // =48
ffffff8040005638: 110006b5     	add	w21, w21, #0x1
ffffff804000563c: d63f0100     	blr	x8
ffffff8040005640: 3607ff00     	tbz	w0, #0x0, 0xffffff8040005620 <_ZN4core3fmt9Formatter12pad_integral17h941e54f28d0965ffE+0x140>
ffffff8040005644: 1400002e     	b	0xffffff80400056fc <_ZN4core3fmt9Formatter12pad_integral17h941e54f28d0965ffE+0x21c>
ffffff8040005648: 8b1b03fb     	add	x27, xzr, x27
ffffff804000564c: 7940281d     	ldrh	w29, [x0, #0x14]
ffffff8040005650: eb1d037f     	cmp	x27, x29
ffffff8040005654: 54fff702     	b.hs	0xffffff8040005534 <_ZN4core3fmt9Formatter12pad_integral17h941e54f28d0965ffE+0x54>
ffffff8040005658: 17ffffd8     	b	0xffffff80400055b8 <_ZN4core3fmt9Formatter12pad_integral17h941e54f28d0965ffE+0xd8>
ffffff804000565c: 7100091f     	cmp	w8, #0x2
ffffff8040005660: 2a1b03fc     	mov	w28, w27
ffffff8040005664: 540001a1     	b.ne	0xffffff8040005698 <_ZN4core3fmt9Formatter12pad_integral17h941e54f28d0965ffE+0x1b8>
ffffff8040005668: 53013f7c     	ubfx	w28, w27, #1, #15
ffffff804000566c: 1400000b     	b	0xffffff8040005698 <_ZN4core3fmt9Formatter12pad_integral17h941e54f28d0965ffE+0x1b8>
ffffff8040005670: f9400f28     	ldr	x8, [x25, #0x18]
ffffff8040005674: aa1803e0     	mov	x0, x24
ffffff8040005678: aa1403e1     	mov	x1, x20
ffffff804000567c: aa1303e2     	mov	x2, x19
ffffff8040005680: d63f0100     	blr	x8
ffffff8040005684: 370003c0     	tbnz	w0, #0x0, 0xffffff80400056fc <_ZN4core3fmt9Formatter12pad_integral17h941e54f28d0965ffE+0x21c>
ffffff8040005688: 2a1f03e0     	mov	w0, wzr
ffffff804000568c: f9000b9a     	str	x26, [x28, #0x10]
ffffff8040005690: 1400001c     	b	0xffffff8040005700 <_ZN4core3fmt9Formatter12pad_integral17h941e54f28d0965ffE+0x220>
ffffff8040005694: 2a1b03fc     	mov	w28, w27
ffffff8040005698: a9406418     	ldp	x24, x25, [x0]
ffffff804000569c: 2a1f03fd     	mov	w29, wzr
ffffff80400056a0: 12003fa8     	and	w8, w29, #0xffff
ffffff80400056a4: 6b3c211f     	cmp	w8, w28, uxth
ffffff80400056a8: 54000102     	b.hs	0xffffff80400056c8 <_ZN4core3fmt9Formatter12pad_integral17h941e54f28d0965ffE+0x1e8>
ffffff80400056ac: f9401328     	ldr	x8, [x25, #0x20]
ffffff80400056b0: 12005341     	and	w1, w26, #0x1fffff
ffffff80400056b4: aa1803e0     	mov	x0, x24
ffffff80400056b8: 110007bd     	add	w29, w29, #0x1
ffffff80400056bc: d63f0100     	blr	x8
ffffff80400056c0: 3607ff00     	tbz	w0, #0x0, 0xffffff80400056a0 <_ZN4core3fmt9Formatter12pad_integral17h941e54f28d0965ffE+0x1c0>
ffffff80400056c4: 1400000e     	b	0xffffff80400056fc <_ZN4core3fmt9Formatter12pad_integral17h941e54f28d0965ffE+0x21c>
ffffff80400056c8: aa1803e0     	mov	x0, x24
ffffff80400056cc: aa1903e1     	mov	x1, x25
ffffff80400056d0: 2a1703e2     	mov	w2, w23
ffffff80400056d4: aa1603e3     	mov	x3, x22
ffffff80400056d8: aa1503e4     	mov	x4, x21
ffffff80400056dc: 94000020     	bl	0xffffff804000575c <_ZN4core3fmt9Formatter12pad_integral12write_prefix17h145f1cbeaf9534c8E>
ffffff80400056e0: 370000e0     	tbnz	w0, #0x0, 0xffffff80400056fc <_ZN4core3fmt9Formatter12pad_integral17h941e54f28d0965ffE+0x21c>
ffffff80400056e4: f9400f28     	ldr	x8, [x25, #0x18]
ffffff80400056e8: aa1803e0     	mov	x0, x24
ffffff80400056ec: aa1403e1     	mov	x1, x20
ffffff80400056f0: aa1303e2     	mov	x2, x19
ffffff80400056f4: d63f0100     	blr	x8
ffffff80400056f8: 36000120     	tbz	w0, #0x0, 0xffffff804000571c <_ZN4core3fmt9Formatter12pad_integral17h941e54f28d0965ffE+0x23c>
ffffff80400056fc: 52800020     	mov	w0, #0x1        // =1
ffffff8040005700: a9454ff4     	ldp	x20, x19, [sp, #0x50]
ffffff8040005704: a94457f6     	ldp	x22, x21, [sp, #0x40]
ffffff8040005708: a9435ff8     	ldp	x24, x23, [sp, #0x30]
ffffff804000570c: a94267fa     	ldp	x26, x25, [sp, #0x20]
ffffff8040005710: a9416ffc     	ldp	x28, x27, [sp, #0x10]
ffffff8040005714: a8c67bfd     	ldp	x29, x30, [sp], #0x60
ffffff8040005718: d65f03c0     	ret
ffffff804000571c: 2a1f03f3     	mov	w19, wzr
ffffff8040005720: 4b1c0374     	sub	w20, w27, w28
ffffff8040005724: 12003e68     	and	w8, w19, #0xffff
ffffff8040005728: 6b34211f     	cmp	w8, w20, uxth
ffffff804000572c: 54000142     	b.hs	0xffffff8040005754 <_ZN4core3fmt9Formatter12pad_integral17h941e54f28d0965ffE+0x274>
ffffff8040005730: f9401328     	ldr	x8, [x25, #0x20]
ffffff8040005734: 12005341     	and	w1, w26, #0x1fffff
ffffff8040005738: aa1803e0     	mov	x0, x24
ffffff804000573c: 11000673     	add	w19, w19, #0x1
ffffff8040005740: d63f0100     	blr	x8
ffffff8040005744: 2a0003e8     	mov	w8, w0
ffffff8040005748: 52800020     	mov	w0, #0x1        // =1
ffffff804000574c: 3607fec8     	tbz	w8, #0x0, 0xffffff8040005724 <_ZN4core3fmt9Formatter12pad_integral17h941e54f28d0965ffE+0x244>
ffffff8040005750: 17ffffec     	b	0xffffff8040005700 <_ZN4core3fmt9Formatter12pad_integral17h941e54f28d0965ffE+0x220>
ffffff8040005754: 2a1f03e0     	mov	w0, wzr
ffffff8040005758: 17ffffea     	b	0xffffff8040005700 <_ZN4core3fmt9Formatter12pad_integral17h941e54f28d0965ffE+0x220>

ffffff804000575c <_ZN4core3fmt9Formatter12pad_integral12write_prefix17h145f1cbeaf9534c8E>:
ffffff804000575c: f81d0ffe     	str	x30, [sp, #-0x30]!
ffffff8040005760: a90157f6     	stp	x22, x21, [sp, #0x10]
ffffff8040005764: a9024ff4     	stp	x20, x19, [sp, #0x20]
ffffff8040005768: aa0403f3     	mov	x19, x4
ffffff804000576c: aa0303f4     	mov	x20, x3
ffffff8040005770: aa0103f5     	mov	x21, x1
ffffff8040005774: 7144405f     	cmp	w2, #0x110, lsl #12 // =0x110000
ffffff8040005778: 540001a0     	b.eq	0xffffff80400057ac <_ZN4core3fmt9Formatter12pad_integral12write_prefix17h145f1cbeaf9534c8E+0x50>
ffffff804000577c: f94012a8     	ldr	x8, [x21, #0x20]
ffffff8040005780: 2a0203e1     	mov	w1, w2
ffffff8040005784: aa0003f6     	mov	x22, x0
ffffff8040005788: d63f0100     	blr	x8
ffffff804000578c: 2a0003e8     	mov	w8, w0
ffffff8040005790: aa1603e0     	mov	x0, x22
ffffff8040005794: 360000c8     	tbz	w8, #0x0, 0xffffff80400057ac <_ZN4core3fmt9Formatter12pad_integral12write_prefix17h145f1cbeaf9534c8E+0x50>
ffffff8040005798: 52800020     	mov	w0, #0x1        // =1
ffffff804000579c: a9424ff4     	ldp	x20, x19, [sp, #0x20]
ffffff80400057a0: a94157f6     	ldp	x22, x21, [sp, #0x10]
ffffff80400057a4: f84307fe     	ldr	x30, [sp], #0x30
ffffff80400057a8: d65f03c0     	ret
ffffff80400057ac: b4000114     	cbz	x20, 0xffffff80400057cc <_ZN4core3fmt9Formatter12pad_integral12write_prefix17h145f1cbeaf9534c8E+0x70>
ffffff80400057b0: f9400ea3     	ldr	x3, [x21, #0x18]
ffffff80400057b4: aa1403e1     	mov	x1, x20
ffffff80400057b8: aa1303e2     	mov	x2, x19
ffffff80400057bc: a9424ff4     	ldp	x20, x19, [sp, #0x20]
ffffff80400057c0: a94157f6     	ldp	x22, x21, [sp, #0x10]
ffffff80400057c4: f84307fe     	ldr	x30, [sp], #0x30
ffffff80400057c8: d61f0060     	br	x3
ffffff80400057cc: 2a1f03e0     	mov	w0, wzr
ffffff80400057d0: a9424ff4     	ldp	x20, x19, [sp, #0x20]
ffffff80400057d4: a94157f6     	ldp	x22, x21, [sp, #0x10]
ffffff80400057d8: f84307fe     	ldr	x30, [sp], #0x30
ffffff80400057dc: d65f03c0     	ret

ffffff80400057e0 <_ZN4core5slice5index24slice_end_index_len_fail17hbc29399646d93e3bE>:
ffffff80400057e0: 97ffff3f     	bl	0xffffff80400054dc <_ZN4core9panicking9panic_fmt17hc6333e93bd8c6355E>

ffffff80400057e4 <_ZN4core3fmt9Formatter3pad17h73535101b700531fE>:
ffffff80400057e4: f81b0ffe     	str	x30, [sp, #-0x50]!
ffffff80400057e8: a90167fa     	stp	x26, x25, [sp, #0x10]
ffffff80400057ec: a9025ff8     	stp	x24, x23, [sp, #0x20]
ffffff80400057f0: a90357f6     	stp	x22, x21, [sp, #0x30]
ffffff80400057f4: a9044ff4     	stp	x20, x19, [sp, #0x40]
ffffff80400057f8: b9401016     	ldr	w22, [x0, #0x10]
ffffff80400057fc: aa0203f4     	mov	x20, x2
ffffff8040005800: aa0103f3     	mov	x19, x1
ffffff8040005804: 720506df     	tst	w22, #0x18000000
ffffff8040005808: 54002980     	b.eq	0xffffff8040005d38 <_ZN4core3fmt9Formatter3pad17h73535101b700531fE+0x554>
ffffff804000580c: 37e00136     	tbnz	w22, #0x1c, 0xffffff8040005830 <_ZN4core3fmt9Formatter3pad17h73535101b700531fE+0x4c>
ffffff8040005810: f100829f     	cmp	x20, #0x20
ffffff8040005814: 54000482     	b.hs	0xffffff80400058a4 <_ZN4core3fmt9Formatter3pad17h73535101b700531fE+0xc0>
ffffff8040005818: b4000b54     	cbz	x20, 0xffffff8040005980 <_ZN4core3fmt9Formatter3pad17h73535101b700531fE+0x19c>
ffffff804000581c: f100229f     	cmp	x20, #0x8
ffffff8040005820: 54001e42     	b.hs	0xffffff8040005be8 <_ZN4core3fmt9Formatter3pad17h73535101b700531fE+0x404>
ffffff8040005824: aa1f03e8     	mov	x8, xzr
ffffff8040005828: aa1f03e9     	mov	x9, xzr
ffffff804000582c: 14000132     	b	0xffffff8040005cf4 <_ZN4core3fmt9Formatter3pad17h73535101b700531fE+0x510>
ffffff8040005830: 79402c08     	ldrh	w8, [x0, #0x16]
ffffff8040005834: b4000a08     	cbz	x8, 0xffffff8040005974 <_ZN4core3fmt9Formatter3pad17h73535101b700531fE+0x190>
ffffff8040005838: 8b14026a     	add	x10, x19, x20
ffffff804000583c: aa1303eb     	mov	x11, x19
ffffff8040005840: aa0803e9     	mov	x9, x8
ffffff8040005844: aa1f03f4     	mov	x20, xzr
ffffff8040005848: 14000007     	b	0xffffff8040005864 <_ZN4core3fmt9Formatter3pad17h73535101b700531fE+0x80>
ffffff804000584c: 9100096c     	add	x12, x11, #0x2
ffffff8040005850: cb0b018b     	sub	x11, x12, x11
ffffff8040005854: f1000529     	subs	x9, x9, #0x1
ffffff8040005858: 8b140174     	add	x20, x11, x20
ffffff804000585c: aa0c03eb     	mov	x11, x12
ffffff8040005860: 540001e0     	b.eq	0xffffff804000589c <_ZN4core3fmt9Formatter3pad17h73535101b700531fE+0xb8>
ffffff8040005864: eb0a017f     	cmp	x11, x10
ffffff8040005868: 540001a0     	b.eq	0xffffff804000589c <_ZN4core3fmt9Formatter3pad17h73535101b700531fE+0xb8>
ffffff804000586c: aa0b03ec     	mov	x12, x11
ffffff8040005870: 38c0158d     	ldrsb	w13, [x12], #0x1
ffffff8040005874: 36fffeed     	tbz	w13, #0x1f, 0xffffff8040005850 <_ZN4core3fmt9Formatter3pad17h73535101b700531fE+0x6c>
ffffff8040005878: 12001dac     	and	w12, w13, #0xff
ffffff804000587c: 7103819f     	cmp	w12, #0xe0
ffffff8040005880: 54fffe63     	b.lo	0xffffff804000584c <_ZN4core3fmt9Formatter3pad17h73535101b700531fE+0x68>
ffffff8040005884: 7103c19f     	cmp	w12, #0xf0
ffffff8040005888: 54000063     	b.lo	0xffffff8040005894 <_ZN4core3fmt9Formatter3pad17h73535101b700531fE+0xb0>
ffffff804000588c: 9100116c     	add	x12, x11, #0x4
ffffff8040005890: 17fffff0     	b	0xffffff8040005850 <_ZN4core3fmt9Formatter3pad17h73535101b700531fE+0x6c>
ffffff8040005894: 91000d6c     	add	x12, x11, #0x3
ffffff8040005898: 17ffffee     	b	0xffffff8040005850 <_ZN4core3fmt9Formatter3pad17h73535101b700531fE+0x6c>
ffffff804000589c: cb090108     	sub	x8, x8, x9
ffffff80400058a0: 1400011b     	b	0xffffff8040005d0c <_ZN4core3fmt9Formatter3pad17h73535101b700531fE+0x528>
ffffff80400058a4: 91001e68     	add	x8, x19, #0x7
ffffff80400058a8: 927df10e     	and	x14, x8, #0xfffffffffffffff8
ffffff80400058ac: aa1f03e8     	mov	x8, xzr
ffffff80400058b0: cb0e0269     	sub	x9, x19, x14
ffffff80400058b4: eb1301df     	cmp	x14, x19
ffffff80400058b8: 8b09028b     	add	x11, x20, x9
ffffff80400058bc: 9240096a     	and	x10, x11, #0x7
ffffff80400058c0: 540000e0     	b.eq	0xffffff80400058dc <_ZN4core3fmt9Formatter3pad17h73535101b700531fE+0xf8>
ffffff80400058c4: aa1303ec     	mov	x12, x19
ffffff80400058c8: 38c0158d     	ldrsb	w13, [x12], #0x1
ffffff80400058cc: 310105bf     	cmn	w13, #0x41
ffffff80400058d0: 9a88d508     	cinc	x8, x8, gt
ffffff80400058d4: b1000529     	adds	x9, x9, #0x1
ffffff80400058d8: 54ffff83     	b.lo	0xffffff80400058c8 <_ZN4core3fmt9Formatter3pad17h73535101b700531fE+0xe4>
ffffff80400058dc: d343fd69     	lsr	x9, x11, #3
ffffff80400058e0: b400054a     	cbz	x10, 0xffffff8040005988 <_ZN4core3fmt9Formatter3pad17h73535101b700531fE+0x1a4>
ffffff80400058e4: 927df16b     	and	x11, x11, #0xfffffffffffffff8
ffffff80400058e8: 8b0b01cc     	add	x12, x14, x11
ffffff80400058ec: 39c0018b     	ldrsb	w11, [x12]
ffffff80400058f0: 3101057f     	cmn	w11, #0x41
ffffff80400058f4: 1a9fd7eb     	cset	w11, gt
ffffff80400058f8: f100055f     	cmp	x10, #0x1
ffffff80400058fc: 54000480     	b.eq	0xffffff804000598c <_ZN4core3fmt9Formatter3pad17h73535101b700531fE+0x1a8>
ffffff8040005900: 39c0058d     	ldrsb	w13, [x12, #0x1]
ffffff8040005904: 310105bf     	cmn	w13, #0x41
ffffff8040005908: 9a8bd56b     	cinc	x11, x11, gt
ffffff804000590c: f100095f     	cmp	x10, #0x2
ffffff8040005910: 540003e0     	b.eq	0xffffff804000598c <_ZN4core3fmt9Formatter3pad17h73535101b700531fE+0x1a8>
ffffff8040005914: 39c0098d     	ldrsb	w13, [x12, #0x2]
ffffff8040005918: 310105bf     	cmn	w13, #0x41
ffffff804000591c: 9a8bd56b     	cinc	x11, x11, gt
ffffff8040005920: f1000d5f     	cmp	x10, #0x3
ffffff8040005924: 54000340     	b.eq	0xffffff804000598c <_ZN4core3fmt9Formatter3pad17h73535101b700531fE+0x1a8>
ffffff8040005928: 39c00d8d     	ldrsb	w13, [x12, #0x3]
ffffff804000592c: 310105bf     	cmn	w13, #0x41
ffffff8040005930: 9a8bd56b     	cinc	x11, x11, gt
ffffff8040005934: f100115f     	cmp	x10, #0x4
ffffff8040005938: 540002a0     	b.eq	0xffffff804000598c <_ZN4core3fmt9Formatter3pad17h73535101b700531fE+0x1a8>
ffffff804000593c: 39c0118d     	ldrsb	w13, [x12, #0x4]
ffffff8040005940: 310105bf     	cmn	w13, #0x41
ffffff8040005944: 9a8bd56b     	cinc	x11, x11, gt
ffffff8040005948: f100155f     	cmp	x10, #0x5
ffffff804000594c: 54000200     	b.eq	0xffffff804000598c <_ZN4core3fmt9Formatter3pad17h73535101b700531fE+0x1a8>
ffffff8040005950: 39c0158d     	ldrsb	w13, [x12, #0x5]
ffffff8040005954: 310105bf     	cmn	w13, #0x41
ffffff8040005958: 9a8bd56b     	cinc	x11, x11, gt
ffffff804000595c: f100195f     	cmp	x10, #0x6
ffffff8040005960: 54000160     	b.eq	0xffffff804000598c <_ZN4core3fmt9Formatter3pad17h73535101b700531fE+0x1a8>
ffffff8040005964: 39c0198a     	ldrsb	w10, [x12, #0x6]
ffffff8040005968: 3101055f     	cmn	w10, #0x41
ffffff804000596c: 9a8bd56b     	cinc	x11, x11, gt
ffffff8040005970: 14000007     	b	0xffffff804000598c <_ZN4core3fmt9Formatter3pad17h73535101b700531fE+0x1a8>
ffffff8040005974: aa1f03f4     	mov	x20, xzr
ffffff8040005978: cb1f0108     	sub	x8, x8, xzr
ffffff804000597c: 140000e4     	b	0xffffff8040005d0c <_ZN4core3fmt9Formatter3pad17h73535101b700531fE+0x528>
ffffff8040005980: aa1f03e8     	mov	x8, xzr
ffffff8040005984: 140000e2     	b	0xffffff8040005d0c <_ZN4core3fmt9Formatter3pad17h73535101b700531fE+0x528>
ffffff8040005988: aa1f03eb     	mov	x11, xzr
ffffff804000598c: 4f00e420     	movi	v0.16b, #0x1
ffffff8040005990: 8b080168     	add	x8, x11, x8
ffffff8040005994: 5280180a     	mov	w10, #0xc0      // =192
ffffff8040005998: b20083eb     	mov	x11, #0x1000100010001 // =281479271743489
ffffff804000599c: 1400000c     	b	0xffffff80400059cc <_ZN4core3fmt9Formatter3pad17h73535101b700531fE+0x1e8>
ffffff80400059a0: aa1f03f1     	mov	x17, xzr
ffffff80400059a4: d348fe2e     	lsr	x14, x17, #8
ffffff80400059a8: 92009e2f     	and	x15, x17, #0xff00ff00ff00ff
ffffff80400059ac: cb0d0129     	sub	x9, x9, x13
ffffff80400059b0: 92009dce     	and	x14, x14, #0xff00ff00ff00ff
ffffff80400059b4: 8b0f01ce     	add	x14, x14, x15
ffffff80400059b8: 924005af     	and	x15, x13, #0x3
ffffff80400059bc: 9b0b7dd0     	mul	x16, x14, x11
ffffff80400059c0: 8b0d0d8e     	add	x14, x12, x13, lsl #3
ffffff80400059c4: 8b50c108     	add	x8, x8, x16, lsr #48
ffffff80400059c8: b5000d2f     	cbnz	x15, 0xffffff8040005b6c <_ZN4core3fmt9Formatter3pad17h73535101b700531fE+0x388>
ffffff80400059cc: b4001a09     	cbz	x9, 0xffffff8040005d0c <_ZN4core3fmt9Formatter3pad17h73535101b700531fE+0x528>
ffffff80400059d0: f103013f     	cmp	x9, #0xc0
ffffff80400059d4: aa0e03ec     	mov	x12, x14
ffffff80400059d8: 9a8a312d     	csel	x13, x9, x10, lo
ffffff80400059dc: f100113f     	cmp	x9, #0x4
ffffff80400059e0: 54fffe03     	b.lo	0xffffff80400059a0 <_ZN4core3fmt9Formatter3pad17h73535101b700531fE+0x1bc>
ffffff80400059e4: d342fdaf     	lsr	x15, x13, #2
ffffff80400059e8: d10005ee     	sub	x14, x15, #0x1
ffffff80400059ec: 9240e9d0     	and	x16, x14, #0x7ffffffffffffff
ffffff80400059f0: 9100818e     	add	x14, x12, #0x20
ffffff80400059f4: f1000e1f     	cmp	x16, #0x3
ffffff80400059f8: 54000082     	b.hs	0xffffff8040005a08 <_ZN4core3fmt9Formatter3pad17h73535101b700531fE+0x224>
ffffff80400059fc: aa1f03f1     	mov	x17, xzr
ffffff8040005a00: aa0c03f0     	mov	x16, x12
ffffff8040005a04: 14000045     	b	0xffffff8040005b18 <_ZN4core3fmt9Formatter3pad17h73535101b700531fE+0x334>
ffffff8040005a08: 91000611     	add	x17, x16, #0x1
ffffff8040005a0c: 6f00e401     	movi	v1.2d, #0000000000000000
ffffff8040005a10: 6f00e402     	movi	v2.2d, #0000000000000000
ffffff8040005a14: 927ee632     	and	x18, x17, #0xffffffffffffffc
ffffff8040005a18: d37bea41     	lsl	x1, x18, #5
ffffff8040005a1c: aa1203e2     	mov	x2, x18
ffffff8040005a20: 8b010190     	add	x16, x12, x1
ffffff8040005a24: 8b0101ce     	add	x14, x14, x1
ffffff8040005a28: 91010181     	add	x1, x12, #0x40
ffffff8040005a2c: d1010023     	sub	x3, x1, #0x40
ffffff8040005a30: 4c400c30     	ld4	{ v16.2d, v17.2d, v18.2d, v19.2d }, [x1]
ffffff8040005a34: f1001042     	subs	x2, x2, #0x4
ffffff8040005a38: 91020021     	add	x1, x1, #0x80
ffffff8040005a3c: 4c400c63     	ld4	{ v3.2d, v4.2d, v5.2d, v6.2d }, [x3]
ffffff8040005a40: 6e205a07     	mvn	v7.16b, v16.16b
ffffff8040005a44: 6e205a35     	mvn	v21.16b, v17.16b
ffffff8040005a48: 6e205a5a     	mvn	v26.16b, v18.16b
ffffff8040005a4c: 6e205876     	mvn	v22.16b, v3.16b
ffffff8040005a50: 6e205897     	mvn	v23.16b, v4.16b
ffffff8040005a54: 6e2058b8     	mvn	v24.16b, v5.16b
ffffff8040005a58: 6f7a0614     	ushr	v20.2d, v16.2d, #0x6
ffffff8040005a5c: 6f7a0639     	ushr	v25.2d, v17.2d, #0x6
ffffff8040005a60: 6f7a065b     	ushr	v27.2d, v18.2d, #0x6
ffffff8040005a64: 6f7a047c     	ushr	v28.2d, v3.2d, #0x6
ffffff8040005a68: 6f7a049d     	ushr	v29.2d, v4.2d, #0x6
ffffff8040005a6c: 6f7a04be     	ushr	v30.2d, v5.2d, #0x6
ffffff8040005a70: 6f7906d6     	ushr	v22.2d, v22.2d, #0x7
ffffff8040005a74: 6f7906f7     	ushr	v23.2d, v23.2d, #0x7
ffffff8040005a78: 6f790718     	ushr	v24.2d, v24.2d, #0x7
ffffff8040005a7c: 6f7904e7     	ushr	v7.2d, v7.2d, #0x7
ffffff8040005a80: 6f7906b5     	ushr	v21.2d, v21.2d, #0x7
ffffff8040005a84: 6f79075a     	ushr	v26.2d, v26.2d, #0x7
ffffff8040005a88: 6e205a7f     	mvn	v31.16b, v19.16b
ffffff8040005a8c: 6f7a0670     	ushr	v16.2d, v19.2d, #0x6
ffffff8040005a90: 6e2058d1     	mvn	v17.16b, v6.16b
ffffff8040005a94: 4ebc1ed2     	orr	v18.16b, v22.16b, v28.16b
ffffff8040005a98: 4ebd1ef3     	orr	v19.16b, v23.16b, v29.16b
ffffff8040005a9c: 4ebe1f16     	orr	v22.16b, v24.16b, v30.16b
ffffff8040005aa0: 4eb41ce7     	orr	v7.16b, v7.16b, v20.16b
ffffff8040005aa4: 4eb91eb4     	orr	v20.16b, v21.16b, v25.16b
ffffff8040005aa8: 4ebb1f55     	orr	v21.16b, v26.16b, v27.16b
ffffff8040005aac: 6f7a04c3     	ushr	v3.2d, v6.2d, #0x6
ffffff8040005ab0: 6f7907e4     	ushr	v4.2d, v31.2d, #0x7
ffffff8040005ab4: 6f790625     	ushr	v5.2d, v17.2d, #0x7
ffffff8040005ab8: 4e201e46     	and	v6.16b, v18.16b, v0.16b
ffffff8040005abc: 4e201e71     	and	v17.16b, v19.16b, v0.16b
ffffff8040005ac0: 4e201ed2     	and	v18.16b, v22.16b, v0.16b
ffffff8040005ac4: 4e201ce7     	and	v7.16b, v7.16b, v0.16b
ffffff8040005ac8: 4e201e93     	and	v19.16b, v20.16b, v0.16b
ffffff8040005acc: 4e201eb4     	and	v20.16b, v21.16b, v0.16b
ffffff8040005ad0: 4eb01c84     	orr	v4.16b, v4.16b, v16.16b
ffffff8040005ad4: 4ea31ca3     	orr	v3.16b, v5.16b, v3.16b
ffffff8040005ad8: 4ee184c1     	add	v1.2d, v6.2d, v1.2d
ffffff8040005adc: 4ef18646     	add	v6.2d, v18.2d, v17.2d
ffffff8040005ae0: 4ee284e2     	add	v2.2d, v7.2d, v2.2d
ffffff8040005ae4: 4ef38685     	add	v5.2d, v20.2d, v19.2d
ffffff8040005ae8: 4e201c63     	and	v3.16b, v3.16b, v0.16b
ffffff8040005aec: 4e201c84     	and	v4.16b, v4.16b, v0.16b
ffffff8040005af0: 4ee184c1     	add	v1.2d, v6.2d, v1.2d
ffffff8040005af4: 4ee284a2     	add	v2.2d, v5.2d, v2.2d
ffffff8040005af8: 4ee18461     	add	v1.2d, v3.2d, v1.2d
ffffff8040005afc: 4ee28482     	add	v2.2d, v4.2d, v2.2d
ffffff8040005b00: 54fff961     	b.ne	0xffffff8040005a2c <_ZN4core3fmt9Formatter3pad17h73535101b700531fE+0x248>
ffffff8040005b04: 4ee18441     	add	v1.2d, v2.2d, v1.2d
ffffff8040005b08: eb12023f     	cmp	x17, x18
ffffff8040005b0c: 5ef1b821     	addp	d1, v1.2d
ffffff8040005b10: 9e660031     	fmov	x17, d1
ffffff8040005b14: 54fff480     	b.eq	0xffffff80400059a4 <_ZN4core3fmt9Formatter3pad17h73535101b700531fE+0x1c0>
ffffff8040005b18: 8b0f158f     	add	x15, x12, x15, lsl #5
ffffff8040005b1c: ad400602     	ldp	q2, q1, [x16]
ffffff8040005b20: eb0f01df     	cmp	x14, x15
ffffff8040005b24: 6e205823     	mvn	v3.16b, v1.16b
ffffff8040005b28: 6e205844     	mvn	v4.16b, v2.16b
ffffff8040005b2c: 6f7a0421     	ushr	v1.2d, v1.2d, #0x6
ffffff8040005b30: 6f7a0442     	ushr	v2.2d, v2.2d, #0x6
ffffff8040005b34: 6f790463     	ushr	v3.2d, v3.2d, #0x7
ffffff8040005b38: 6f790484     	ushr	v4.2d, v4.2d, #0x7
ffffff8040005b3c: 4ea21c82     	orr	v2.16b, v4.16b, v2.16b
ffffff8040005b40: 4ea11c61     	orr	v1.16b, v3.16b, v1.16b
ffffff8040005b44: 4e201c21     	and	v1.16b, v1.16b, v0.16b
ffffff8040005b48: 4e201c42     	and	v2.16b, v2.16b, v0.16b
ffffff8040005b4c: 4ee18441     	add	v1.2d, v2.2d, v1.2d
ffffff8040005b50: 5ef1b821     	addp	d1, v1.2d
ffffff8040005b54: 9e660030     	fmov	x16, d1
ffffff8040005b58: 8b110211     	add	x17, x16, x17
ffffff8040005b5c: aa0e03f0     	mov	x16, x14
ffffff8040005b60: 910081ce     	add	x14, x14, #0x20
ffffff8040005b64: 54fffdc1     	b.ne	0xffffff8040005b1c <_ZN4core3fmt9Formatter3pad17h73535101b700531fE+0x338>
ffffff8040005b68: 17ffff8f     	b	0xffffff80400059a4 <_ZN4core3fmt9Formatter3pad17h73535101b700531fE+0x1c0>
ffffff8040005b6c: 927e15a9     	and	x9, x13, #0xfc
ffffff8040005b70: f10005ff     	cmp	x15, #0x1
ffffff8040005b74: 8b090d8a     	add	x10, x12, x9, lsl #3
ffffff8040005b78: f9400149     	ldr	x9, [x10]
ffffff8040005b7c: aa2903eb     	mvn	x11, x9
ffffff8040005b80: d347fd6b     	lsr	x11, x11, #7
ffffff8040005b84: aa491969     	orr	x9, x11, x9, lsr #6
ffffff8040005b88: 9200c129     	and	x9, x9, #0x101010101010101
ffffff8040005b8c: 540001e0     	b.eq	0xffffff8040005bc8 <_ZN4core3fmt9Formatter3pad17h73535101b700531fE+0x3e4>
ffffff8040005b90: f940054b     	ldr	x11, [x10, #0x8]
ffffff8040005b94: f10009ff     	cmp	x15, #0x2
ffffff8040005b98: aa2b03ec     	mvn	x12, x11
ffffff8040005b9c: d347fd8c     	lsr	x12, x12, #7
ffffff8040005ba0: aa4b198b     	orr	x11, x12, x11, lsr #6
ffffff8040005ba4: 9200c16b     	and	x11, x11, #0x101010101010101
ffffff8040005ba8: 8b090169     	add	x9, x11, x9
ffffff8040005bac: 540000e0     	b.eq	0xffffff8040005bc8 <_ZN4core3fmt9Formatter3pad17h73535101b700531fE+0x3e4>
ffffff8040005bb0: f940094a     	ldr	x10, [x10, #0x10]
ffffff8040005bb4: aa2a03eb     	mvn	x11, x10
ffffff8040005bb8: d347fd6b     	lsr	x11, x11, #7
ffffff8040005bbc: aa4a196a     	orr	x10, x11, x10, lsr #6
ffffff8040005bc0: 9200c14a     	and	x10, x10, #0x101010101010101
ffffff8040005bc4: 8b090149     	add	x9, x10, x9
ffffff8040005bc8: d348fd2a     	lsr	x10, x9, #8
ffffff8040005bcc: 92009d29     	and	x9, x9, #0xff00ff00ff00ff
ffffff8040005bd0: 92009d4a     	and	x10, x10, #0xff00ff00ff00ff
ffffff8040005bd4: 8b090149     	add	x9, x10, x9
ffffff8040005bd8: b20083ea     	mov	x10, #0x1000100010001 // =281479271743489
ffffff8040005bdc: 9b0a7d29     	mul	x9, x9, x10
ffffff8040005be0: 8b49c108     	add	x8, x8, x9, lsr #48
ffffff8040005be4: 1400004a     	b	0xffffff8040005d0c <_ZN4core3fmt9Formatter3pad17h73535101b700531fE+0x528>
ffffff8040005be8: 0f05e7e4     	movi	v4.8b, #0xbf
ffffff8040005bec: fd400260     	ldr	d0, [x19]
ffffff8040005bf0: 52800028     	mov	w8, #0x1        // =1
ffffff8040005bf4: 4e080d03     	dup	v3.2d, x8
ffffff8040005bf8: 927d0689     	and	x9, x20, #0x18
ffffff8040005bfc: f100213f     	cmp	x9, #0x8
ffffff8040005c00: 0e243400     	cmgt	v0.8b, v0.8b, v4.8b
ffffff8040005c04: 2f08a400     	ushll	v0.8h, v0.8b, #0x0
ffffff8040005c08: 6f10a401     	ushll2	v1.4s, v0.8h, #0x0
ffffff8040005c0c: 2f10a400     	ushll	v0.4s, v0.4h, #0x0
ffffff8040005c10: 6f20a422     	ushll2	v2.2d, v1.4s, #0x0
ffffff8040005c14: 2f20a421     	ushll	v1.2d, v1.2s, #0x0
ffffff8040005c18: 6f20a405     	ushll2	v5.2d, v0.4s, #0x0
ffffff8040005c1c: 2f20a406     	ushll	v6.2d, v0.2s, #0x0
ffffff8040005c20: 4e231c40     	and	v0.16b, v2.16b, v3.16b
ffffff8040005c24: 4e231c22     	and	v2.16b, v1.16b, v3.16b
ffffff8040005c28: 4e231ca1     	and	v1.16b, v5.16b, v3.16b
ffffff8040005c2c: 4e231cc3     	and	v3.16b, v6.16b, v3.16b
ffffff8040005c30: 54000540     	b.eq	0xffffff8040005cd8 <_ZN4core3fmt9Formatter3pad17h73535101b700531fE+0x4f4>
ffffff8040005c34: fd400665     	ldr	d5, [x19, #0x8]
ffffff8040005c38: 52800028     	mov	w8, #0x1        // =1
ffffff8040005c3c: f100413f     	cmp	x9, #0x10
ffffff8040005c40: 4e080d06     	dup	v6.2d, x8
ffffff8040005c44: 0e2434a4     	cmgt	v4.8b, v5.8b, v4.8b
ffffff8040005c48: 2f08a484     	ushll	v4.8h, v4.8b, #0x0
ffffff8040005c4c: 6f10a485     	ushll2	v5.4s, v4.8h, #0x0
ffffff8040005c50: 2f10a484     	ushll	v4.4s, v4.4h, #0x0
ffffff8040005c54: 6f20a4a7     	ushll2	v7.2d, v5.4s, #0x0
ffffff8040005c58: 2f20a490     	ushll	v16.2d, v4.2s, #0x0
ffffff8040005c5c: 6f20a484     	ushll2	v4.2d, v4.4s, #0x0
ffffff8040005c60: 2f20a4a5     	ushll	v5.2d, v5.2s, #0x0
ffffff8040005c64: 4e261ce7     	and	v7.16b, v7.16b, v6.16b
ffffff8040005c68: 4e261e10     	and	v16.16b, v16.16b, v6.16b
ffffff8040005c6c: 4e261c84     	and	v4.16b, v4.16b, v6.16b
ffffff8040005c70: 4e261ca5     	and	v5.16b, v5.16b, v6.16b
ffffff8040005c74: 4ee78400     	add	v0.2d, v0.2d, v7.2d
ffffff8040005c78: 4ee48421     	add	v1.2d, v1.2d, v4.2d
ffffff8040005c7c: 4ef08463     	add	v3.2d, v3.2d, v16.2d
ffffff8040005c80: 4ee58442     	add	v2.2d, v2.2d, v5.2d
ffffff8040005c84: 540002a0     	b.eq	0xffffff8040005cd8 <_ZN4core3fmt9Formatter3pad17h73535101b700531fE+0x4f4>
ffffff8040005c88: 0f05e7e4     	movi	v4.8b, #0xbf
ffffff8040005c8c: fd400a65     	ldr	d5, [x19, #0x10]
ffffff8040005c90: 52800028     	mov	w8, #0x1        // =1
ffffff8040005c94: 4e080d06     	dup	v6.2d, x8
ffffff8040005c98: 0e2434a4     	cmgt	v4.8b, v5.8b, v4.8b
ffffff8040005c9c: 2f08a484     	ushll	v4.8h, v4.8b, #0x0
ffffff8040005ca0: 6f10a485     	ushll2	v5.4s, v4.8h, #0x0
ffffff8040005ca4: 2f10a484     	ushll	v4.4s, v4.4h, #0x0
ffffff8040005ca8: 6f20a4a7     	ushll2	v7.2d, v5.4s, #0x0
ffffff8040005cac: 2f20a490     	ushll	v16.2d, v4.2s, #0x0
ffffff8040005cb0: 6f20a484     	ushll2	v4.2d, v4.4s, #0x0
ffffff8040005cb4: 2f20a4a5     	ushll	v5.2d, v5.2s, #0x0
ffffff8040005cb8: 4e261ce7     	and	v7.16b, v7.16b, v6.16b
ffffff8040005cbc: 4e261e10     	and	v16.16b, v16.16b, v6.16b
ffffff8040005cc0: 4e261c84     	and	v4.16b, v4.16b, v6.16b
ffffff8040005cc4: 4e261ca5     	and	v5.16b, v5.16b, v6.16b
ffffff8040005cc8: 4ee78400     	add	v0.2d, v0.2d, v7.2d
ffffff8040005ccc: 4ee48421     	add	v1.2d, v1.2d, v4.2d
ffffff8040005cd0: 4ef08463     	add	v3.2d, v3.2d, v16.2d
ffffff8040005cd4: 4ee58442     	add	v2.2d, v2.2d, v5.2d
ffffff8040005cd8: 4ee28462     	add	v2.2d, v3.2d, v2.2d
ffffff8040005cdc: 4ee08420     	add	v0.2d, v1.2d, v0.2d
ffffff8040005ce0: eb09029f     	cmp	x20, x9
ffffff8040005ce4: 4ee08440     	add	v0.2d, v2.2d, v0.2d
ffffff8040005ce8: 5ef1b800     	addp	d0, v0.2d
ffffff8040005cec: 9e660008     	fmov	x8, d0
ffffff8040005cf0: 540000e0     	b.eq	0xffffff8040005d0c <_ZN4core3fmt9Formatter3pad17h73535101b700531fE+0x528>
ffffff8040005cf4: 38e96a6a     	ldrsb	w10, [x19, x9]
ffffff8040005cf8: 91000529     	add	x9, x9, #0x1
ffffff8040005cfc: 3101055f     	cmn	w10, #0x41
ffffff8040005d00: 9a88d508     	cinc	x8, x8, gt
ffffff8040005d04: eb09029f     	cmp	x20, x9
ffffff8040005d08: 54ffff61     	b.ne	0xffffff8040005cf4 <_ZN4core3fmt9Formatter3pad17h73535101b700531fE+0x510>
ffffff8040005d0c: 79402809     	ldrh	w9, [x0, #0x14]
ffffff8040005d10: eb09011f     	cmp	x8, x9
ffffff8040005d14: 54000122     	b.hs	0xffffff8040005d38 <_ZN4core3fmt9Formatter3pad17h73535101b700531fE+0x554>
ffffff8040005d18: 531d7aca     	ubfx	w10, w22, #29, #2
ffffff8040005d1c: 2a1f03f7     	mov	w23, wzr
ffffff8040005d20: 4b080138     	sub	w24, w9, w8
ffffff8040005d24: 7100055f     	cmp	w10, #0x1
ffffff8040005d28: 540001cc     	b.gt	0xffffff8040005d60 <_ZN4core3fmt9Formatter3pad17h73535101b700531fE+0x57c>
ffffff8040005d2c: 3400020a     	cbz	w10, 0xffffff8040005d6c <_ZN4core3fmt9Formatter3pad17h73535101b700531fE+0x588>
ffffff8040005d30: 2a1803f7     	mov	w23, w24
ffffff8040005d34: 1400000e     	b	0xffffff8040005d6c <_ZN4core3fmt9Formatter3pad17h73535101b700531fE+0x588>
ffffff8040005d38: a9402000     	ldp	x0, x8, [x0]
ffffff8040005d3c: aa1303e1     	mov	x1, x19
ffffff8040005d40: aa1403e2     	mov	x2, x20
ffffff8040005d44: a9444ff4     	ldp	x20, x19, [sp, #0x40]
ffffff8040005d48: a94357f6     	ldp	x22, x21, [sp, #0x30]
ffffff8040005d4c: a9425ff8     	ldp	x24, x23, [sp, #0x20]
ffffff8040005d50: f9400d03     	ldr	x3, [x8, #0x18]
ffffff8040005d54: a94167fa     	ldp	x26, x25, [sp, #0x10]
ffffff8040005d58: f84507fe     	ldr	x30, [sp], #0x50
ffffff8040005d5c: d61f0060     	br	x3
ffffff8040005d60: 7100095f     	cmp	w10, #0x2
ffffff8040005d64: 54000041     	b.ne	0xffffff8040005d6c <_ZN4core3fmt9Formatter3pad17h73535101b700531fE+0x588>
ffffff8040005d68: 53013f17     	ubfx	w23, w24, #1, #15
ffffff8040005d6c: a9406415     	ldp	x21, x25, [x0]
ffffff8040005d70: 2a1f03fa     	mov	w26, wzr
ffffff8040005d74: 12003f48     	and	w8, w26, #0xffff
ffffff8040005d78: 6b37211f     	cmp	w8, w23, uxth
ffffff8040005d7c: 54000102     	b.hs	0xffffff8040005d9c <_ZN4core3fmt9Formatter3pad17h73535101b700531fE+0x5b8>
ffffff8040005d80: f9401328     	ldr	x8, [x25, #0x20]
ffffff8040005d84: 120052c1     	and	w1, w22, #0x1fffff
ffffff8040005d88: aa1503e0     	mov	x0, x21
ffffff8040005d8c: 1100075a     	add	w26, w26, #0x1
ffffff8040005d90: d63f0100     	blr	x8
ffffff8040005d94: 3607ff00     	tbz	w0, #0x0, 0xffffff8040005d74 <_ZN4core3fmt9Formatter3pad17h73535101b700531fE+0x590>
ffffff8040005d98: 14000012     	b	0xffffff8040005de0 <_ZN4core3fmt9Formatter3pad17h73535101b700531fE+0x5fc>
ffffff8040005d9c: f9400f28     	ldr	x8, [x25, #0x18]
ffffff8040005da0: aa1503e0     	mov	x0, x21
ffffff8040005da4: aa1303e1     	mov	x1, x19
ffffff8040005da8: aa1403e2     	mov	x2, x20
ffffff8040005dac: d63f0100     	blr	x8
ffffff8040005db0: 37000180     	tbnz	w0, #0x0, 0xffffff8040005de0 <_ZN4core3fmt9Formatter3pad17h73535101b700531fE+0x5fc>
ffffff8040005db4: 2a1f03f3     	mov	w19, wzr
ffffff8040005db8: 4b170314     	sub	w20, w24, w23
ffffff8040005dbc: 12003e68     	and	w8, w19, #0xffff
ffffff8040005dc0: 6b34211f     	cmp	w8, w20, uxth
ffffff8040005dc4: 540001c2     	b.hs	0xffffff8040005dfc <_ZN4core3fmt9Formatter3pad17h73535101b700531fE+0x618>
ffffff8040005dc8: f9401328     	ldr	x8, [x25, #0x20]
ffffff8040005dcc: 120052c1     	and	w1, w22, #0x1fffff
ffffff8040005dd0: aa1503e0     	mov	x0, x21
ffffff8040005dd4: 11000673     	add	w19, w19, #0x1
ffffff8040005dd8: d63f0100     	blr	x8
ffffff8040005ddc: 3607ff00     	tbz	w0, #0x0, 0xffffff8040005dbc <_ZN4core3fmt9Formatter3pad17h73535101b700531fE+0x5d8>
ffffff8040005de0: 52800020     	mov	w0, #0x1        // =1
ffffff8040005de4: a9444ff4     	ldp	x20, x19, [sp, #0x40]
ffffff8040005de8: a94357f6     	ldp	x22, x21, [sp, #0x30]
ffffff8040005dec: a9425ff8     	ldp	x24, x23, [sp, #0x20]
ffffff8040005df0: a94167fa     	ldp	x26, x25, [sp, #0x10]
ffffff8040005df4: f84507fe     	ldr	x30, [sp], #0x50
ffffff8040005df8: d65f03c0     	ret
ffffff8040005dfc: 2a1f03e0     	mov	w0, wzr
ffffff8040005e00: a9444ff4     	ldp	x20, x19, [sp, #0x40]
ffffff8040005e04: a94357f6     	ldp	x22, x21, [sp, #0x30]
ffffff8040005e08: a9425ff8     	ldp	x24, x23, [sp, #0x20]
ffffff8040005e0c: a94167fa     	ldp	x26, x25, [sp, #0x10]
ffffff8040005e10: f84507fe     	ldr	x30, [sp], #0x50
ffffff8040005e14: d65f03c0     	ret

ffffff8040005e18 <_ZN4core9panicking5panic17h8591a00acee40ddeE>:
ffffff8040005e18: 97fffdb1     	bl	0xffffff80400054dc <_ZN4core9panicking9panic_fmt17hc6333e93bd8c6355E>

ffffff8040005e1c <_ZN4core3fmt5write17h8f7b88e4069053abE>:
ffffff8040005e1c: d101c3ff     	sub	sp, sp, #0x70
ffffff8040005e20: a9026ffe     	stp	x30, x27, [sp, #0x20]
ffffff8040005e24: a90367fa     	stp	x26, x25, [sp, #0x30]
ffffff8040005e28: a9045ff8     	stp	x24, x23, [sp, #0x40]
ffffff8040005e2c: a90557f6     	stp	x22, x21, [sp, #0x50]
ffffff8040005e30: a9064ff4     	stp	x20, x19, [sp, #0x60]
ffffff8040005e34: 52800408     	mov	w8, #0x20       // =32
ffffff8040005e38: f940103a     	ldr	x26, [x1, #0x20]
ffffff8040005e3c: aa0103f3     	mov	x19, x1
ffffff8040005e40: 72bc0008     	movk	w8, #0xe000, lsl #16
ffffff8040005e44: f9000fe8     	str	x8, [sp, #0x18]
ffffff8040005e48: d503201f     	nop
ffffff8040005e4c: 100115a8     	adr	x8, 0xffffff8040008100 <rodata_check_str+0x100>
ffffff8040005e50: a900a3e0     	stp	x0, x8, [sp, #0x8]
ffffff8040005e54: b40008ba     	cbz	x26, 0xffffff8040005f68 <_ZN4core3fmt5write17h8f7b88e4069053abE+0x14c>
ffffff8040005e58: f9401668     	ldr	x8, [x19, #0x28]
ffffff8040005e5c: b4000cc8     	cbz	x8, 0xffffff8040005ff4 <_ZN4core3fmt5write17h8f7b88e4069053abE+0x1d8>
ffffff8040005e60: 52800609     	mov	w9, #0x30       // =48
ffffff8040005e64: d100050a     	sub	x10, x8, #0x1
ffffff8040005e68: f9400a77     	ldr	x23, [x19, #0x10]
ffffff8040005e6c: 9b096916     	madd	x22, x8, x9, x26
ffffff8040005e70: f9400269     	ldr	x9, [x19]
ffffff8040005e74: 9240ed4a     	and	x10, x10, #0xfffffffffffffff
ffffff8040005e78: aa1f03f5     	mov	x21, xzr
ffffff8040005e7c: 9100c348     	add	x8, x26, #0x30
ffffff8040005e80: 91000554     	add	x20, x10, #0x1
ffffff8040005e84: 91002138     	add	x24, x9, #0x8
ffffff8040005e88: 52800619     	mov	w25, #0x30      // =48
ffffff8040005e8c: f9400302     	ldr	x2, [x24]
ffffff8040005e90: aa0803fb     	mov	x27, x8
ffffff8040005e94: b40000c2     	cbz	x2, 0xffffff8040005eac <_ZN4core3fmt5write17h8f7b88e4069053abE+0x90>
ffffff8040005e98: a940a3e0     	ldp	x0, x8, [sp, #0x8]
ffffff8040005e9c: f85f8301     	ldur	x1, [x24, #-0x8]
ffffff8040005ea0: f9400d08     	ldr	x8, [x8, #0x18]
ffffff8040005ea4: d63f0100     	blr	x8
ffffff8040005ea8: 37000bc0     	tbnz	w0, #0x0, 0xffffff8040006020 <_ZN4core3fmt5write17h8f7b88e4069053abE+0x204>
ffffff8040005eac: 79402348     	ldrh	w8, [x26, #0x10]
ffffff8040005eb0: 340001e8     	cbz	w8, 0xffffff8040005eec <_ZN4core3fmt5write17h8f7b88e4069053abE+0xd0>
ffffff8040005eb4: 7100051f     	cmp	w8, #0x1
ffffff8040005eb8: 54000261     	b.ne	0xffffff8040005f04 <_ZN4core3fmt5write17h8f7b88e4069053abE+0xe8>
ffffff8040005ebc: f9400f48     	ldr	x8, [x26, #0x18]
ffffff8040005ec0: 8b0812e8     	add	x8, x23, x8, lsl #4
ffffff8040005ec4: 79401108     	ldrh	w8, [x8, #0x8]
ffffff8040005ec8: 79400349     	ldrh	w9, [x26]
ffffff8040005ecc: 7100093f     	cmp	w9, #0x2
ffffff8040005ed0: 54000160     	b.eq	0xffffff8040005efc <_ZN4core3fmt5write17h8f7b88e4069053abE+0xe0>
ffffff8040005ed4: 7100053f     	cmp	w9, #0x1
ffffff8040005ed8: 54000201     	b.ne	0xffffff8040005f18 <_ZN4core3fmt5write17h8f7b88e4069053abE+0xfc>
ffffff8040005edc: f9400749     	ldr	x9, [x26, #0x8]
ffffff8040005ee0: 8b0912e9     	add	x9, x23, x9, lsl #4
ffffff8040005ee4: 79401129     	ldrh	w9, [x9, #0x8]
ffffff8040005ee8: 1400000d     	b	0xffffff8040005f1c <_ZN4core3fmt5write17h8f7b88e4069053abE+0x100>
ffffff8040005eec: 79402748     	ldrh	w8, [x26, #0x12]
ffffff8040005ef0: 79400349     	ldrh	w9, [x26]
ffffff8040005ef4: 7100093f     	cmp	w9, #0x2
ffffff8040005ef8: 54fffee1     	b.ne	0xffffff8040005ed4 <_ZN4core3fmt5write17h8f7b88e4069053abE+0xb8>
ffffff8040005efc: 2a1f03e9     	mov	w9, wzr
ffffff8040005f00: 14000007     	b	0xffffff8040005f1c <_ZN4core3fmt5write17h8f7b88e4069053abE+0x100>
ffffff8040005f04: 2a1f03e8     	mov	w8, wzr
ffffff8040005f08: 79400349     	ldrh	w9, [x26]
ffffff8040005f0c: 7100093f     	cmp	w9, #0x2
ffffff8040005f10: 54fffe21     	b.ne	0xffffff8040005ed4 <_ZN4core3fmt5write17h8f7b88e4069053abE+0xb8>
ffffff8040005f14: 17fffffa     	b	0xffffff8040005efc <_ZN4core3fmt5write17h8f7b88e4069053abE+0xe0>
ffffff8040005f18: 79400749     	ldrh	w9, [x26, #0x2]
ffffff8040005f1c: f940134a     	ldr	x10, [x26, #0x20]
ffffff8040005f20: 79003be8     	strh	w8, [sp, #0x1c]
ffffff8040005f24: 910023e1     	add	x1, sp, #0x8
ffffff8040005f28: b9402b4b     	ldr	w11, [x26, #0x28]
ffffff8040005f2c: 79003fe9     	strh	w9, [sp, #0x1e]
ffffff8040005f30: 8b0a12ea     	add	x10, x23, x10, lsl #4
ffffff8040005f34: b9001beb     	str	w11, [sp, #0x18]
ffffff8040005f38: a9402140     	ldp	x0, x8, [x10]
ffffff8040005f3c: d63f0100     	blr	x8
ffffff8040005f40: 37000700     	tbnz	w0, #0x0, 0xffffff8040006020 <_ZN4core3fmt5write17h8f7b88e4069053abE+0x204>
ffffff8040005f44: eb16037f     	cmp	x27, x22
ffffff8040005f48: 910006b5     	add	x21, x21, #0x1
ffffff8040005f4c: 91004318     	add	x24, x24, #0x10
ffffff8040005f50: 9a9903e8     	csel	x8, xzr, x25, eq
ffffff8040005f54: eb15029f     	cmp	x20, x21
ffffff8040005f58: aa1b03fa     	mov	x26, x27
ffffff8040005f5c: 8b080368     	add	x8, x27, x8
ffffff8040005f60: 54fff961     	b.ne	0xffffff8040005e8c <_ZN4core3fmt5write17h8f7b88e4069053abE+0x70>
ffffff8040005f64: 14000020     	b	0xffffff8040005fe4 <_ZN4core3fmt5write17h8f7b88e4069053abE+0x1c8>
ffffff8040005f68: f9400e68     	ldr	x8, [x19, #0x18]
ffffff8040005f6c: b4000448     	cbz	x8, 0xffffff8040005ff4 <_ZN4core3fmt5write17h8f7b88e4069053abE+0x1d8>
ffffff8040005f70: f9400a78     	ldr	x24, [x19, #0x10]
ffffff8040005f74: f9400269     	ldr	x9, [x19]
ffffff8040005f78: d100050a     	sub	x10, x8, #0x1
ffffff8040005f7c: 9240ed4a     	and	x10, x10, #0xfffffffffffffff
ffffff8040005f80: aa1f03f5     	mov	x21, xzr
ffffff8040005f84: 8b081316     	add	x22, x24, x8, lsl #4
ffffff8040005f88: 91004308     	add	x8, x24, #0x10
ffffff8040005f8c: 91000554     	add	x20, x10, #0x1
ffffff8040005f90: 91002137     	add	x23, x9, #0x8
ffffff8040005f94: f94002e2     	ldr	x2, [x23]
ffffff8040005f98: aa0803f9     	mov	x25, x8
ffffff8040005f9c: b40000c2     	cbz	x2, 0xffffff8040005fb4 <_ZN4core3fmt5write17h8f7b88e4069053abE+0x198>
ffffff8040005fa0: a940a3e0     	ldp	x0, x8, [sp, #0x8]
ffffff8040005fa4: f85f82e1     	ldur	x1, [x23, #-0x8]
ffffff8040005fa8: f9400d08     	ldr	x8, [x8, #0x18]
ffffff8040005fac: d63f0100     	blr	x8
ffffff8040005fb0: 37000380     	tbnz	w0, #0x0, 0xffffff8040006020 <_ZN4core3fmt5write17h8f7b88e4069053abE+0x204>
ffffff8040005fb4: a9402300     	ldp	x0, x8, [x24]
ffffff8040005fb8: 910023e1     	add	x1, sp, #0x8
ffffff8040005fbc: d63f0100     	blr	x8
ffffff8040005fc0: 37000300     	tbnz	w0, #0x0, 0xffffff8040006020 <_ZN4core3fmt5write17h8f7b88e4069053abE+0x204>
ffffff8040005fc4: eb16033f     	cmp	x25, x22
ffffff8040005fc8: 910006b5     	add	x21, x21, #0x1
ffffff8040005fcc: 910042f7     	add	x23, x23, #0x10
ffffff8040005fd0: 1a9f07e8     	cset	w8, ne
ffffff8040005fd4: eb15029f     	cmp	x20, x21
ffffff8040005fd8: aa1903f8     	mov	x24, x25
ffffff8040005fdc: 8b285328     	add	x8, x25, w8, uxtw #4
ffffff8040005fe0: 54fffda1     	b.ne	0xffffff8040005f94 <_ZN4core3fmt5write17h8f7b88e4069053abE+0x178>
ffffff8040005fe4: f9400668     	ldr	x8, [x19, #0x8]
ffffff8040005fe8: eb08029f     	cmp	x20, x8
ffffff8040005fec: 540000c3     	b.lo	0xffffff8040006004 <_ZN4core3fmt5write17h8f7b88e4069053abE+0x1e8>
ffffff8040005ff0: 1400000e     	b	0xffffff8040006028 <_ZN4core3fmt5write17h8f7b88e4069053abE+0x20c>
ffffff8040005ff4: aa1f03f4     	mov	x20, xzr
ffffff8040005ff8: f9400668     	ldr	x8, [x19, #0x8]
ffffff8040005ffc: eb0803ff     	cmp	xzr, x8
ffffff8040006000: 54000142     	b.hs	0xffffff8040006028 <_ZN4core3fmt5write17h8f7b88e4069053abE+0x20c>
ffffff8040006004: f9400268     	ldr	x8, [x19]
ffffff8040006008: a940a7e0     	ldp	x0, x9, [sp, #0x8]
ffffff804000600c: 8b141108     	add	x8, x8, x20, lsl #4
ffffff8040006010: a9400901     	ldp	x1, x2, [x8]
ffffff8040006014: f9400d28     	ldr	x8, [x9, #0x18]
ffffff8040006018: d63f0100     	blr	x8
ffffff804000601c: 36000060     	tbz	w0, #0x0, 0xffffff8040006028 <_ZN4core3fmt5write17h8f7b88e4069053abE+0x20c>
ffffff8040006020: 52800020     	mov	w0, #0x1        // =1
ffffff8040006024: 14000002     	b	0xffffff804000602c <_ZN4core3fmt5write17h8f7b88e4069053abE+0x210>
ffffff8040006028: 2a1f03e0     	mov	w0, wzr
ffffff804000602c: a9464ff4     	ldp	x20, x19, [sp, #0x60]
ffffff8040006030: a94557f6     	ldp	x22, x21, [sp, #0x50]
ffffff8040006034: a9445ff8     	ldp	x24, x23, [sp, #0x40]
ffffff8040006038: a94367fa     	ldp	x26, x25, [sp, #0x30]
ffffff804000603c: a9426ffe     	ldp	x30, x27, [sp, #0x20]
ffffff8040006040: 9101c3ff     	add	sp, sp, #0x70
ffffff8040006044: d65f03c0     	ret

ffffff8040006048 <_ZN4core5slice5index22slice_index_order_fail17h137a119cfdac7bceE>:
ffffff8040006048: 97fffd25     	bl	0xffffff80400054dc <_ZN4core9panicking9panic_fmt17hc6333e93bd8c6355E>

ffffff804000604c <_ZN4core6option13unwrap_failed17h85f5c7e6b9994ecfE>:
ffffff804000604c: 97ffff73     	bl	0xffffff8040005e18 <_ZN4core9panicking5panic17h8591a00acee40ddeE>

ffffff8040006050 <_ZN4core3str8converts9from_utf817h7cdaeb2009589786E>:
ffffff8040006050: f1003c48     	subs	x8, x2, #0xf
ffffff8040006054: 9a8833e9     	csel	x9, xzr, x8, lo
ffffff8040006058: b4001022     	cbz	x2, 0xffffff804000625c <_ZN4core3str8converts9from_utf817h7cdaeb2009589786E+0x20c>
ffffff804000605c: 91001c2a     	add	x10, x1, #0x7
ffffff8040006060: aa1f03e8     	mov	x8, xzr
ffffff8040006064: d503201f     	nop
ffffff8040006068: 100179ab     	adr	x11, 0xffffff8040008f9c <_ZN4core7unicode12unicode_data11white_space14WHITESPACE_MAP17h05932b8d89d4c975E+0x1da>
ffffff804000606c: 927df14a     	and	x10, x10, #0xfffffffffffffff8
ffffff8040006070: cb01014a     	sub	x10, x10, x1
ffffff8040006074: 14000004     	b	0xffffff8040006084 <_ZN4core3str8converts9from_utf817h7cdaeb2009589786E+0x34>
ffffff8040006078: 91000588     	add	x8, x12, #0x1
ffffff804000607c: eb02011f     	cmp	x8, x2
ffffff8040006080: 54000ee2     	b.hs	0xffffff804000625c <_ZN4core3str8converts9from_utf817h7cdaeb2009589786E+0x20c>
ffffff8040006084: 38e8682c     	ldrsb	w12, [x1, x8]
ffffff8040006088: 37f802cc     	tbnz	w12, #0x1f, 0xffffff80400060e0 <_ZN4core3str8converts9from_utf817h7cdaeb2009589786E+0x90>
ffffff804000608c: 4b08014c     	sub	w12, w10, w8
ffffff8040006090: f240099f     	tst	x12, #0x7
ffffff8040006094: 54000080     	b.eq	0xffffff80400060a4 <_ZN4core3str8converts9from_utf817h7cdaeb2009589786E+0x54>
ffffff8040006098: 91000508     	add	x8, x8, #0x1
ffffff804000609c: 17fffff8     	b	0xffffff804000607c <_ZN4core3str8converts9from_utf817h7cdaeb2009589786E+0x2c>
ffffff80400060a0: 91004108     	add	x8, x8, #0x10
ffffff80400060a4: eb09011f     	cmp	x8, x9
ffffff80400060a8: 540000c2     	b.hs	0xffffff80400060c0 <_ZN4core3str8converts9from_utf817h7cdaeb2009589786E+0x70>
ffffff80400060ac: 8b08002c     	add	x12, x1, x8
ffffff80400060b0: a940318d     	ldp	x13, x12, [x12]
ffffff80400060b4: aa0d018c     	orr	x12, x12, x13
ffffff80400060b8: f201c19f     	tst	x12, #0x8080808080808080
ffffff80400060bc: 54ffff20     	b.eq	0xffffff80400060a0 <_ZN4core3str8converts9from_utf817h7cdaeb2009589786E+0x50>
ffffff80400060c0: eb02011f     	cmp	x8, x2
ffffff80400060c4: 54fffdc2     	b.hs	0xffffff804000607c <_ZN4core3str8converts9from_utf817h7cdaeb2009589786E+0x2c>
ffffff80400060c8: 38e8682c     	ldrsb	w12, [x1, x8]
ffffff80400060cc: 37fffd8c     	tbnz	w12, #0x1f, 0xffffff804000607c <_ZN4core3str8converts9from_utf817h7cdaeb2009589786E+0x2c>
ffffff80400060d0: 91000508     	add	x8, x8, #0x1
ffffff80400060d4: eb08005f     	cmp	x2, x8
ffffff80400060d8: 54ffff81     	b.ne	0xffffff80400060c8 <_ZN4core3str8converts9from_utf817h7cdaeb2009589786E+0x78>
ffffff80400060dc: 14000060     	b	0xffffff804000625c <_ZN4core3str8converts9from_utf817h7cdaeb2009589786E+0x20c>
ffffff80400060e0: 92401d8d     	and	x13, x12, #0xff
ffffff80400060e4: 12001d8c     	and	w12, w12, #0xff
ffffff80400060e8: 386d696d     	ldrb	w13, [x11, x13]
ffffff80400060ec: 710011bf     	cmp	w13, #0x4
ffffff80400060f0: 54000300     	b.eq	0xffffff8040006150 <_ZN4core3str8converts9from_utf817h7cdaeb2009589786E+0x100>
ffffff80400060f4: 71000dbf     	cmp	w13, #0x3
ffffff80400060f8: 54000140     	b.eq	0xffffff8040006120 <_ZN4core3str8converts9from_utf817h7cdaeb2009589786E+0xd0>
ffffff80400060fc: 710009bf     	cmp	w13, #0x2
ffffff8040006100: 54000c01     	b.ne	0xffffff8040006280 <_ZN4core3str8converts9from_utf817h7cdaeb2009589786E+0x230>
ffffff8040006104: 9100050c     	add	x12, x8, #0x1
ffffff8040006108: eb02019f     	cmp	x12, x2
ffffff804000610c: 54000ae2     	b.hs	0xffffff8040006268 <_ZN4core3str8converts9from_utf817h7cdaeb2009589786E+0x218>
ffffff8040006110: 38ec682d     	ldrsb	w13, [x1, x12]
ffffff8040006114: 310105bf     	cmn	w13, #0x41
ffffff8040006118: 54fffb0d     	b.le	0xffffff8040006078 <_ZN4core3str8converts9from_utf817h7cdaeb2009589786E+0x28>
ffffff804000611c: 14000059     	b	0xffffff8040006280 <_ZN4core3str8converts9from_utf817h7cdaeb2009589786E+0x230>
ffffff8040006120: 9100050d     	add	x13, x8, #0x1
ffffff8040006124: eb0201bf     	cmp	x13, x2
ffffff8040006128: 54000a02     	b.hs	0xffffff8040006268 <_ZN4core3str8converts9from_utf817h7cdaeb2009589786E+0x218>
ffffff804000612c: 386d682d     	ldrb	w13, [x1, x13]
ffffff8040006130: 7103819f     	cmp	w12, #0xe0
ffffff8040006134: 54000260     	b.eq	0xffffff8040006180 <_ZN4core3str8converts9from_utf817h7cdaeb2009589786E+0x130>
ffffff8040006138: 13001dad     	sxtb	w13, w13
ffffff804000613c: 7103b59f     	cmp	w12, #0xed
ffffff8040006140: 54000301     	b.ne	0xffffff80400061a0 <_ZN4core3str8converts9from_utf817h7cdaeb2009589786E+0x150>
ffffff8040006144: 310185bf     	cmn	w13, #0x61
ffffff8040006148: 540006ed     	b.le	0xffffff8040006224 <_ZN4core3str8converts9from_utf817h7cdaeb2009589786E+0x1d4>
ffffff804000614c: 1400004d     	b	0xffffff8040006280 <_ZN4core3str8converts9from_utf817h7cdaeb2009589786E+0x230>
ffffff8040006150: 9100050d     	add	x13, x8, #0x1
ffffff8040006154: eb0201bf     	cmp	x13, x2
ffffff8040006158: 54000882     	b.hs	0xffffff8040006268 <_ZN4core3str8converts9from_utf817h7cdaeb2009589786E+0x218>
ffffff804000615c: 386d682d     	ldrb	w13, [x1, x13]
ffffff8040006160: 7103c19f     	cmp	w12, #0xf0
ffffff8040006164: 54000160     	b.eq	0xffffff8040006190 <_ZN4core3str8converts9from_utf817h7cdaeb2009589786E+0x140>
ffffff8040006168: 13001dad     	sxtb	w13, w13
ffffff804000616c: 7103d19f     	cmp	w12, #0xf4
ffffff8040006170: 54000241     	b.ne	0xffffff80400061b8 <_ZN4core3str8converts9from_utf817h7cdaeb2009589786E+0x168>
ffffff8040006174: 3101c5bf     	cmn	w13, #0x71
ffffff8040006178: 540002ed     	b.le	0xffffff80400061d4 <_ZN4core3str8converts9from_utf817h7cdaeb2009589786E+0x184>
ffffff804000617c: 14000041     	b	0xffffff8040006280 <_ZN4core3str8converts9from_utf817h7cdaeb2009589786E+0x230>
ffffff8040006180: 121b09ac     	and	w12, w13, #0xe0
ffffff8040006184: 7102819f     	cmp	w12, #0xa0
ffffff8040006188: 540004e0     	b.eq	0xffffff8040006224 <_ZN4core3str8converts9from_utf817h7cdaeb2009589786E+0x1d4>
ffffff804000618c: 1400003d     	b	0xffffff8040006280 <_ZN4core3str8converts9from_utf817h7cdaeb2009589786E+0x230>
ffffff8040006190: 510241ac     	sub	w12, w13, #0x90
ffffff8040006194: 7100c19f     	cmp	w12, #0x30
ffffff8040006198: 540001e3     	b.lo	0xffffff80400061d4 <_ZN4core3str8converts9from_utf817h7cdaeb2009589786E+0x184>
ffffff804000619c: 14000039     	b	0xffffff8040006280 <_ZN4core3str8converts9from_utf817h7cdaeb2009589786E+0x230>
ffffff80400061a0: 5103858e     	sub	w14, w12, #0xe1
ffffff80400061a4: 710031df     	cmp	w14, #0xc
ffffff80400061a8: 54000302     	b.hs	0xffffff8040006208 <_ZN4core3str8converts9from_utf817h7cdaeb2009589786E+0x1b8>
ffffff80400061ac: 310101bf     	cmn	w13, #0x40
ffffff80400061b0: 540003ab     	b.lt	0xffffff8040006224 <_ZN4core3str8converts9from_utf817h7cdaeb2009589786E+0x1d4>
ffffff80400061b4: 14000033     	b	0xffffff8040006280 <_ZN4core3str8converts9from_utf817h7cdaeb2009589786E+0x230>
ffffff80400061b8: 5103c58c     	sub	w12, w12, #0xf1
ffffff80400061bc: 7100099f     	cmp	w12, #0x2
ffffff80400061c0: 5280002c     	mov	w12, #0x1       // =1
ffffff80400061c4: 54000608     	b.hi	0xffffff8040006284 <_ZN4core3str8converts9from_utf817h7cdaeb2009589786E+0x234>
ffffff80400061c8: 310101bf     	cmn	w13, #0x40
ffffff80400061cc: 5280002d     	mov	w13, #0x1       // =1
ffffff80400061d0: 540003aa     	b.ge	0xffffff8040006244 <_ZN4core3str8converts9from_utf817h7cdaeb2009589786E+0x1f4>
ffffff80400061d4: 9100090c     	add	x12, x8, #0x2
ffffff80400061d8: eb02019f     	cmp	x12, x2
ffffff80400061dc: 54000462     	b.hs	0xffffff8040006268 <_ZN4core3str8converts9from_utf817h7cdaeb2009589786E+0x218>
ffffff80400061e0: 38ec682c     	ldrsb	w12, [x1, x12]
ffffff80400061e4: 3101059f     	cmn	w12, #0x41
ffffff80400061e8: 540002ac     	b.gt	0xffffff804000623c <_ZN4core3str8converts9from_utf817h7cdaeb2009589786E+0x1ec>
ffffff80400061ec: 91000d0c     	add	x12, x8, #0x3
ffffff80400061f0: eb02019f     	cmp	x12, x2
ffffff80400061f4: 540003a2     	b.hs	0xffffff8040006268 <_ZN4core3str8converts9from_utf817h7cdaeb2009589786E+0x218>
ffffff80400061f8: 38ec682d     	ldrsb	w13, [x1, x12]
ffffff80400061fc: 310101bf     	cmn	w13, #0x40
ffffff8040006200: 54fff3cb     	b.lt	0xffffff8040006078 <_ZN4core3str8converts9from_utf817h7cdaeb2009589786E+0x28>
ffffff8040006204: 14000027     	b	0xffffff80400062a0 <_ZN4core3str8converts9from_utf817h7cdaeb2009589786E+0x250>
ffffff8040006208: 121f198c     	and	w12, w12, #0xfe
ffffff804000620c: 7103b99f     	cmp	w12, #0xee
ffffff8040006210: 5280002c     	mov	w12, #0x1       // =1
ffffff8040006214: 54000381     	b.ne	0xffffff8040006284 <_ZN4core3str8converts9from_utf817h7cdaeb2009589786E+0x234>
ffffff8040006218: 310101bf     	cmn	w13, #0x40
ffffff804000621c: 5280002d     	mov	w13, #0x1       // =1
ffffff8040006220: 5400012a     	b.ge	0xffffff8040006244 <_ZN4core3str8converts9from_utf817h7cdaeb2009589786E+0x1f4>
ffffff8040006224: 9100090c     	add	x12, x8, #0x2
ffffff8040006228: eb02019f     	cmp	x12, x2
ffffff804000622c: 540001e2     	b.hs	0xffffff8040006268 <_ZN4core3str8converts9from_utf817h7cdaeb2009589786E+0x218>
ffffff8040006230: 38ec682d     	ldrsb	w13, [x1, x12]
ffffff8040006234: 310105bf     	cmn	w13, #0x41
ffffff8040006238: 54fff20d     	b.le	0xffffff8040006078 <_ZN4core3str8converts9from_utf817h7cdaeb2009589786E+0x28>
ffffff804000623c: 5280002d     	mov	w13, #0x1       // =1
ffffff8040006240: 5280004c     	mov	w12, #0x2       // =2
ffffff8040006244: f9000408     	str	x8, [x0, #0x8]
ffffff8040006248: 52800028     	mov	w8, #0x1        // =1
ffffff804000624c: 3900400d     	strb	w13, [x0, #0x10]
ffffff8040006250: 3900440c     	strb	w12, [x0, #0x11]
ffffff8040006254: f9000008     	str	x8, [x0]
ffffff8040006258: d65f03c0     	ret
ffffff804000625c: a9008801     	stp	x1, x2, [x0, #0x8]
ffffff8040006260: f900001f     	str	xzr, [x0]
ffffff8040006264: d65f03c0     	ret
ffffff8040006268: f9000408     	str	x8, [x0, #0x8]
ffffff804000626c: 52800028     	mov	w8, #0x1        // =1
ffffff8040006270: 3900401f     	strb	wzr, [x0, #0x10]
ffffff8040006274: 3900440c     	strb	w12, [x0, #0x11]
ffffff8040006278: f9000008     	str	x8, [x0]
ffffff804000627c: d65f03c0     	ret
ffffff8040006280: 5280002c     	mov	w12, #0x1       // =1
ffffff8040006284: 5280002d     	mov	w13, #0x1       // =1
ffffff8040006288: f9000408     	str	x8, [x0, #0x8]
ffffff804000628c: 52800028     	mov	w8, #0x1        // =1
ffffff8040006290: 3900400d     	strb	w13, [x0, #0x10]
ffffff8040006294: 3900440c     	strb	w12, [x0, #0x11]
ffffff8040006298: f9000008     	str	x8, [x0]
ffffff804000629c: d65f03c0     	ret
ffffff80400062a0: 5280002d     	mov	w13, #0x1       // =1
ffffff80400062a4: 5280006c     	mov	w12, #0x3       // =3
ffffff80400062a8: f9000408     	str	x8, [x0, #0x8]
ffffff80400062ac: 52800028     	mov	w8, #0x1        // =1
ffffff80400062b0: 3900400d     	strb	w13, [x0, #0x10]
ffffff80400062b4: 3900440c     	strb	w12, [x0, #0x11]
ffffff80400062b8: f9000008     	str	x8, [x0]
ffffff80400062bc: d65f03c0     	ret

ffffff80400062c0 <_ZN4core3fmt3num3imp51_$LT$impl$u20$core..fmt..Display$u20$for$u20$u8$GT$3fmt17hd66f5750f0151f15E>:
ffffff80400062c0: f81f0ffe     	str	x30, [sp, #-0x10]!
ffffff80400062c4: 3940000a     	ldrb	w10, [x0]
ffffff80400062c8: d503201f     	nop
ffffff80400062cc: 10016049     	adr	x9, 0xffffff8040008ed4 <_ZN4core7unicode12unicode_data11white_space14WHITESPACE_MAP17h05932b8d89d4c975E+0x112>
ffffff80400062d0: 7100295f     	cmp	w10, #0xa
ffffff80400062d4: 54000183     	b.lo	0xffffff8040006304 <_ZN4core3fmt3num3imp51_$LT$impl$u20$core..fmt..Display$u20$for$u20$u8$GT$3fmt17hd66f5750f0151f15E+0x44>
ffffff80400062d8: 52800528     	mov	w8, #0x29       // =41
ffffff80400062dc: 1b087d48     	mul	w8, w10, w8
ffffff80400062e0: 530c7d0b     	lsr	w11, w8, #12
ffffff80400062e4: 52800c88     	mov	w8, #0x64       // =100
ffffff80400062e8: 1b08a968     	msub	w8, w11, w8, w10
ffffff80400062ec: 92401d08     	and	x8, x8, #0xff
ffffff80400062f0: 78687928     	ldrh	w8, [x9, x8, lsl #1]
ffffff80400062f4: 7800e3e8     	sturh	w8, [sp, #0xe]
ffffff80400062f8: 52800028     	mov	w8, #0x1        // =1
ffffff80400062fc: 350000aa     	cbnz	w10, 0xffffff8040006310 <_ZN4core3fmt3num3imp51_$LT$impl$u20$core..fmt..Display$u20$for$u20$u8$GT$3fmt17hd66f5750f0151f15E+0x50>
ffffff8040006300: 14000005     	b	0xffffff8040006314 <_ZN4core3fmt3num3imp51_$LT$impl$u20$core..fmt..Display$u20$for$u20$u8$GT$3fmt17hd66f5750f0151f15E+0x54>
ffffff8040006304: 52800068     	mov	w8, #0x3        // =3
ffffff8040006308: 2a0a03eb     	mov	w11, w10
ffffff804000630c: 3400004a     	cbz	w10, 0xffffff8040006314 <_ZN4core3fmt3num3imp51_$LT$impl$u20$core..fmt..Display$u20$for$u20$u8$GT$3fmt17hd66f5750f0151f15E+0x54>
ffffff8040006310: 340000eb     	cbz	w11, 0xffffff804000632c <_ZN4core3fmt3num3imp51_$LT$impl$u20$core..fmt..Display$u20$for$u20$u8$GT$3fmt17hd66f5750f0151f15E+0x6c>
ffffff8040006314: d37f196a     	ubfiz	x10, x11, #1, #7
ffffff8040006318: d1000508     	sub	x8, x8, #0x1
ffffff804000631c: 8b0a0129     	add	x9, x9, x10
ffffff8040006320: 910037ea     	add	x10, sp, #0xd
ffffff8040006324: 39400529     	ldrb	w9, [x9, #0x1]
ffffff8040006328: 38286949     	strb	w9, [x10, x8]
ffffff804000632c: 52800069     	mov	w9, #0x3        // =3
ffffff8040006330: aa0103e0     	mov	x0, x1
ffffff8040006334: 52800021     	mov	w1, #0x1        // =1
ffffff8040006338: cb080124     	sub	x4, x9, x8
ffffff804000633c: 910037e9     	add	x9, sp, #0xd
ffffff8040006340: aa1f03e2     	mov	x2, xzr
ffffff8040006344: 8b080123     	add	x3, x9, x8
ffffff8040006348: 97fffc66     	bl	0xffffff80400054e0 <_ZN4core3fmt9Formatter12pad_integral17h941e54f28d0965ffE>
ffffff804000634c: f84107fe     	ldr	x30, [sp], #0x10
ffffff8040006350: d65f03c0     	ret

ffffff8040006354 <_ZN4core3str16slice_error_fail17h989e9dc2c72e1d49E>:
ffffff8040006354: 94000001     	bl	0xffffff8040006358 <_ZN4core3str19slice_error_fail_rt17h4543da3528e2e299E>

ffffff8040006358 <_ZN4core3str19slice_error_fail_rt17h4543da3528e2e299E>:
ffffff8040006358: f104043f     	cmp	x1, #0x101
ffffff804000635c: 540001c3     	b.lo	0xffffff8040006394 <_ZN4core3str19slice_error_fail_rt17h4543da3528e2e299E+0x3c>
ffffff8040006360: 39c40008     	ldrsb	w8, [x0, #0x100]
ffffff8040006364: 3101051f     	cmn	w8, #0x41
ffffff8040006368: 5400016c     	b.gt	0xffffff8040006394 <_ZN4core3str19slice_error_fail_rt17h4543da3528e2e299E+0x3c>
ffffff804000636c: 39c3fc08     	ldrsb	w8, [x0, #0xff]
ffffff8040006370: 3101051f     	cmn	w8, #0x41
ffffff8040006374: 5400010c     	b.gt	0xffffff8040006394 <_ZN4core3str19slice_error_fail_rt17h4543da3528e2e299E+0x3c>
ffffff8040006378: 39c3f808     	ldrsb	w8, [x0, #0xfe]
ffffff804000637c: 3101051f     	cmn	w8, #0x41
ffffff8040006380: 52801fa8     	mov	w8, #0xfd       // =253
ffffff8040006384: 9a88d508     	cinc	x8, x8, gt
ffffff8040006388: 38e86809     	ldrsb	w9, [x0, x8]
ffffff804000638c: 3101053f     	cmn	w9, #0x41
ffffff8040006390: 5400036d     	b.le	0xffffff80400063fc <_ZN4core3str19slice_error_fail_rt17h4543da3528e2e299E+0xa4>
ffffff8040006394: eb01005f     	cmp	x2, x1
ffffff8040006398: 540000a8     	b.hi	0xffffff80400063ac <_ZN4core3str19slice_error_fail_rt17h4543da3528e2e299E+0x54>
ffffff804000639c: eb01007f     	cmp	x3, x1
ffffff80400063a0: 54000068     	b.hi	0xffffff80400063ac <_ZN4core3str19slice_error_fail_rt17h4543da3528e2e299E+0x54>
ffffff80400063a4: eb03005f     	cmp	x2, x3
ffffff80400063a8: 54000049     	b.ls	0xffffff80400063b0 <_ZN4core3str19slice_error_fail_rt17h4543da3528e2e299E+0x58>
ffffff80400063ac: 97fffc4c     	bl	0xffffff80400054dc <_ZN4core9panicking9panic_fmt17hc6333e93bd8c6355E>
ffffff80400063b0: b40000c2     	cbz	x2, 0xffffff80400063c8 <_ZN4core3str19slice_error_fail_rt17h4543da3528e2e299E+0x70>
ffffff80400063b4: eb01005f     	cmp	x2, x1
ffffff80400063b8: 54000082     	b.hs	0xffffff80400063c8 <_ZN4core3str19slice_error_fail_rt17h4543da3528e2e299E+0x70>
ffffff80400063bc: 38e26808     	ldrsb	w8, [x0, x2]
ffffff80400063c0: 3101051f     	cmn	w8, #0x41
ffffff80400063c4: 9a82c063     	csel	x3, x3, x2, gt
ffffff80400063c8: eb01007f     	cmp	x3, x1
ffffff80400063cc: aa0103e2     	mov	x2, x1
ffffff80400063d0: 540003e2     	b.hs	0xffffff804000644c <_ZN4core3str19slice_error_fail_rt17h4543da3528e2e299E+0xf4>
ffffff80400063d4: f1000c68     	subs	x8, x3, #0x3
ffffff80400063d8: 91000469     	add	x9, x3, #0x1
ffffff80400063dc: 9a8833e8     	csel	x8, xzr, x8, lo
ffffff80400063e0: eb08012a     	subs	x10, x9, x8
ffffff80400063e4: 54000723     	b.lo	0xffffff80400064c8 <_ZN4core3str19slice_error_fail_rt17h4543da3528e2e299E+0x170>
ffffff80400063e8: 38e3680b     	ldrsb	w11, [x0, x3]
ffffff80400063ec: 3101057f     	cmn	w11, #0x41
ffffff80400063f0: 540000cd     	b.le	0xffffff8040006408 <_ZN4core3str19slice_error_fail_rt17h4543da3528e2e299E+0xb0>
ffffff80400063f4: d1000549     	sub	x9, x10, #0x1
ffffff80400063f8: 14000014     	b	0xffffff8040006448 <_ZN4core3str19slice_error_fail_rt17h4543da3528e2e299E+0xf0>
ffffff80400063fc: aa1f03e2     	mov	x2, xzr
ffffff8040006400: aa0803e3     	mov	x3, x8
ffffff8040006404: 97ffffd4     	bl	0xffffff8040006354 <_ZN4core3str16slice_error_fail17h989e9dc2c72e1d49E>
ffffff8040006408: 8b090009     	add	x9, x0, x9
ffffff804000640c: 38dfe12b     	ldursb	w11, [x9, #-0x2]
ffffff8040006410: 3101057f     	cmn	w11, #0x41
ffffff8040006414: 5400006d     	b.le	0xffffff8040006420 <_ZN4core3str19slice_error_fail_rt17h4543da3528e2e299E+0xc8>
ffffff8040006418: d1000949     	sub	x9, x10, #0x2
ffffff804000641c: 1400000b     	b	0xffffff8040006448 <_ZN4core3str19slice_error_fail_rt17h4543da3528e2e299E+0xf0>
ffffff8040006420: 38dfd12b     	ldursb	w11, [x9, #-0x3]
ffffff8040006424: 3101057f     	cmn	w11, #0x41
ffffff8040006428: 5400006d     	b.le	0xffffff8040006434 <_ZN4core3str19slice_error_fail_rt17h4543da3528e2e299E+0xdc>
ffffff804000642c: d1000d49     	sub	x9, x10, #0x3
ffffff8040006430: 14000006     	b	0xffffff8040006448 <_ZN4core3str19slice_error_fail_rt17h4543da3528e2e299E+0xf0>
ffffff8040006434: 38dfc129     	ldursb	w9, [x9, #-0x4]
ffffff8040006438: 3101053f     	cmn	w9, #0x41
ffffff804000643c: 92800089     	mov	x9, #-0x5       // =-5
ffffff8040006440: 9a89d529     	cinc	x9, x9, gt
ffffff8040006444: 8b090149     	add	x9, x10, x9
ffffff8040006448: 8b080122     	add	x2, x9, x8
ffffff804000644c: b5000082     	cbnz	x2, 0xffffff804000645c <_ZN4core3str19slice_error_fail_rt17h4543da3528e2e299E+0x104>
ffffff8040006450: eb01005f     	cmp	x2, x1
ffffff8040006454: 54000101     	b.ne	0xffffff8040006474 <_ZN4core3str19slice_error_fail_rt17h4543da3528e2e299E+0x11c>
ffffff8040006458: 97fffefd     	bl	0xffffff804000604c <_ZN4core6option13unwrap_failed17h85f5c7e6b9994ecfE>
ffffff804000645c: eb01005f     	cmp	x2, x1
ffffff8040006460: 540002e2     	b.hs	0xffffff80400064bc <_ZN4core3str19slice_error_fail_rt17h4543da3528e2e299E+0x164>
ffffff8040006464: 38e26808     	ldrsb	w8, [x0, x2]
ffffff8040006468: 3101051f     	cmn	w8, #0x41
ffffff804000646c: 54ffff2c     	b.gt	0xffffff8040006450 <_ZN4core3str19slice_error_fail_rt17h4543da3528e2e299E+0xf8>
ffffff8040006470: 14000014     	b	0xffffff80400064c0 <_ZN4core3str19slice_error_fail_rt17h4543da3528e2e299E+0x168>
ffffff8040006474: 8b020008     	add	x8, x0, x2
ffffff8040006478: 39c00109     	ldrsb	w9, [x8]
ffffff804000647c: 36fff989     	tbz	w9, #0x1f, 0xffffff80400063ac <_ZN4core3str19slice_error_fail_rt17h4543da3528e2e299E+0x54>
ffffff8040006480: 12001d29     	and	w9, w9, #0xff
ffffff8040006484: 7103813f     	cmp	w9, #0xe0
ffffff8040006488: 54fff923     	b.lo	0xffffff80400063ac <_ZN4core3str19slice_error_fail_rt17h4543da3528e2e299E+0x54>
ffffff804000648c: 7103c13f     	cmp	w9, #0xf0
ffffff8040006490: 54fff8e3     	b.lo	0xffffff80400063ac <_ZN4core3str19slice_error_fail_rt17h4543da3528e2e299E+0x54>
ffffff8040006494: 3940090a     	ldrb	w10, [x8, #0x2]
ffffff8040006498: 3940050b     	ldrb	w11, [x8, #0x1]
ffffff804000649c: 39400d08     	ldrb	w8, [x8, #0x3]
ffffff80400064a0: 531a154a     	ubfiz	w10, w10, #6, #6
ffffff80400064a4: 3314156a     	bfi	w10, w11, #12, #6
ffffff80400064a8: 3300150a     	bfxil	w10, w8, #0, #6
ffffff80400064ac: 330e092a     	bfi	w10, w9, #18, #3
ffffff80400064b0: 7144415f     	cmp	w10, #0x110, lsl #12 // =0x110000
ffffff80400064b4: 54fff7c1     	b.ne	0xffffff80400063ac <_ZN4core3str19slice_error_fail_rt17h4543da3528e2e299E+0x54>
ffffff80400064b8: 17ffffe8     	b	0xffffff8040006458 <_ZN4core3str19slice_error_fail_rt17h4543da3528e2e299E+0x100>
ffffff80400064bc: 54fffca0     	b.eq	0xffffff8040006450 <_ZN4core3str19slice_error_fail_rt17h4543da3528e2e299E+0xf8>
ffffff80400064c0: aa0103e3     	mov	x3, x1
ffffff80400064c4: 97ffffa4     	bl	0xffffff8040006354 <_ZN4core3str16slice_error_fail17h989e9dc2c72e1d49E>
ffffff80400064c8: aa0803e0     	mov	x0, x8
ffffff80400064cc: aa0903e1     	mov	x1, x9
ffffff80400064d0: 97fffede     	bl	0xffffff8040006048 <_ZN4core5slice5index22slice_index_order_fail17h137a119cfdac7bceE>

ffffff80400064d4 <_ZN4core3fmt3num55_$LT$impl$u20$core..fmt..LowerHex$u20$for$u20$usize$GT$3fmt17h27b1b024639decafE>:
ffffff80400064d4: d10243ff     	sub	sp, sp, #0x90
ffffff80400064d8: f90043fe     	str	x30, [sp, #0x80]
ffffff80400064dc: f940000b     	ldr	x11, [x0]
ffffff80400064e0: aa0103e8     	mov	x8, x1
ffffff80400064e4: 52800fe9     	mov	w9, #0x7f       // =127
ffffff80400064e8: 910003ea     	mov	x10, sp
ffffff80400064ec: 5280060c     	mov	w12, #0x30      // =48
ffffff80400064f0: 12000d6d     	and	w13, w11, #0xf
ffffff80400064f4: d344fd6e     	lsr	x14, x11, #4
ffffff80400064f8: 33000d6c     	bfxil	w12, w11, #0, #4
ffffff80400064fc: 11015daf     	add	w15, w13, #0x57
ffffff8040006500: 710029bf     	cmp	w13, #0xa
ffffff8040006504: 1a8f318d     	csel	w13, w12, w15, lo
ffffff8040006508: f1003d7f     	cmp	x11, #0xf
ffffff804000650c: aa0903ec     	mov	x12, x9
ffffff8040006510: 3829694d     	strb	w13, [x10, x9]
ffffff8040006514: d1000529     	sub	x9, x9, #0x1
ffffff8040006518: aa0e03eb     	mov	x11, x14
ffffff804000651c: 54fffe88     	b.hi	0xffffff80400064ec <_ZN4core3fmt3num55_$LT$impl$u20$core..fmt..LowerHex$u20$for$u20$usize$GT$3fmt17h27b1b024639decafE+0x18>
ffffff8040006520: 91000589     	add	x9, x12, #0x1
ffffff8040006524: 5280102a     	mov	w10, #0x81      // =129
ffffff8040006528: 910003eb     	mov	x11, sp
ffffff804000652c: cb090144     	sub	x4, x10, x9
ffffff8040006530: d503201f     	nop
ffffff8040006534: 50014ce1     	adr	x1, 0xffffff8040008ed2 <_ZN4core7unicode12unicode_data11white_space14WHITESPACE_MAP17h05932b8d89d4c975E+0x110>
ffffff8040006538: 8b0c0163     	add	x3, x11, x12
ffffff804000653c: aa0803e0     	mov	x0, x8
ffffff8040006540: 52800042     	mov	w2, #0x2        // =2
ffffff8040006544: 97fffbe7     	bl	0xffffff80400054e0 <_ZN4core3fmt9Formatter12pad_integral17h941e54f28d0965ffE>
ffffff8040006548: f94043fe     	ldr	x30, [sp, #0x80]
ffffff804000654c: 910243ff     	add	sp, sp, #0x90
ffffff8040006550: d65f03c0     	ret

ffffff8040006554 <_ZN4core5slice6memchr14memchr_aligned17h3de89c52c9c70ecfE>:
ffffff8040006554: 91001c28     	add	x8, x1, #0x7
ffffff8040006558: 12001c0a     	and	w10, w0, #0xff
ffffff804000655c: 927df108     	and	x8, x8, #0xfffffffffffffff8
ffffff8040006560: eb010109     	subs	x9, x8, x1
ffffff8040006564: 540001a0     	b.eq	0xffffff8040006598 <_ZN4core5slice6memchr14memchr_aligned17h3de89c52c9c70ecfE+0x44>
ffffff8040006568: aa1f03e8     	mov	x8, xzr
ffffff804000656c: 52800020     	mov	w0, #0x1        // =1
ffffff8040006570: 3868682b     	ldrb	w11, [x1, x8]
ffffff8040006574: 6b0a017f     	cmp	w11, w10
ffffff8040006578: 54000560     	b.eq	0xffffff8040006624 <_ZN4core5slice6memchr14memchr_aligned17h3de89c52c9c70ecfE+0xd0>
ffffff804000657c: 91000508     	add	x8, x8, #0x1
ffffff8040006580: eb08013f     	cmp	x9, x8
ffffff8040006584: 54ffff61     	b.ne	0xffffff8040006570 <_ZN4core5slice6memchr14memchr_aligned17h3de89c52c9c70ecfE+0x1c>
ffffff8040006588: d1004048     	sub	x8, x2, #0x10
ffffff804000658c: eb08013f     	cmp	x9, x8
ffffff8040006590: 54000069     	b.ls	0xffffff804000659c <_ZN4core5slice6memchr14memchr_aligned17h3de89c52c9c70ecfE+0x48>
ffffff8040006594: 14000015     	b	0xffffff80400065e8 <_ZN4core5slice6memchr14memchr_aligned17h3de89c52c9c70ecfE+0x94>
ffffff8040006598: d1004048     	sub	x8, x2, #0x10
ffffff804000659c: b200c3eb     	mov	x11, #0x101010101010101 // =72340172838076673
ffffff80400065a0: b200c3ec     	mov	x12, #0x101010101010101 // =72340172838076673
ffffff80400065a4: 9b0b7d4b     	mul	x11, x10, x11
ffffff80400065a8: f280200c     	movk	x12, #0x100
ffffff80400065ac: 4e080d81     	dup	v1.2d, x12
ffffff80400065b0: 4e080d60     	dup	v0.2d, x11
ffffff80400065b4: b201c3eb     	mov	x11, #-0x7f7f7f7f7f7f7f80 // =-9187201950435737472
ffffff80400065b8: 3ce96822     	ldr	q2, [x1, x9]
ffffff80400065bc: 6e201c42     	eor	v2.16b, v2.16b, v0.16b
ffffff80400065c0: 6ee28423     	sub	v3.2d, v1.2d, v2.2d
ffffff80400065c4: 4ea21c62     	orr	v2.16b, v3.16b, v2.16b
ffffff80400065c8: 4e183c4c     	mov	x12, v2.d[1]
ffffff80400065cc: 9e66004d     	fmov	x13, d2
ffffff80400065d0: 8a0c01ac     	and	x12, x13, x12
ffffff80400065d4: ea2c017f     	bics	xzr, x11, x12
ffffff80400065d8: 54000081     	b.ne	0xffffff80400065e8 <_ZN4core5slice6memchr14memchr_aligned17h3de89c52c9c70ecfE+0x94>
ffffff80400065dc: 91004129     	add	x9, x9, #0x10
ffffff80400065e0: eb08013f     	cmp	x9, x8
ffffff80400065e4: 54fffea9     	b.ls	0xffffff80400065b8 <_ZN4core5slice6memchr14memchr_aligned17h3de89c52c9c70ecfE+0x64>
ffffff80400065e8: eb090048     	subs	x8, x2, x9
ffffff80400065ec: 54000120     	b.eq	0xffffff8040006610 <_ZN4core5slice6memchr14memchr_aligned17h3de89c52c9c70ecfE+0xbc>
ffffff80400065f0: aa1f03eb     	mov	x11, xzr
ffffff80400065f4: 8b09002c     	add	x12, x1, x9
ffffff80400065f8: 386b698d     	ldrb	w13, [x12, x11]
ffffff80400065fc: 6b0a01bf     	cmp	w13, w10
ffffff8040006600: 540000e0     	b.eq	0xffffff804000661c <_ZN4core5slice6memchr14memchr_aligned17h3de89c52c9c70ecfE+0xc8>
ffffff8040006604: 9100056b     	add	x11, x11, #0x1
ffffff8040006608: eb0b011f     	cmp	x8, x11
ffffff804000660c: 54ffff61     	b.ne	0xffffff80400065f8 <_ZN4core5slice6memchr14memchr_aligned17h3de89c52c9c70ecfE+0xa4>
ffffff8040006610: aa1f03e0     	mov	x0, xzr
ffffff8040006614: aa0803e1     	mov	x1, x8
ffffff8040006618: d65f03c0     	ret
ffffff804000661c: 8b090168     	add	x8, x11, x9
ffffff8040006620: 52800020     	mov	w0, #0x1        // =1
ffffff8040006624: aa0803e1     	mov	x1, x8
ffffff8040006628: d65f03c0     	ret
ffffff804000662c: 00000000     	udf	#0x0

ffffff8040006630 <seL4_InitBootInfo>:
ffffff8040006630: f0000021     	adrp	x1, 0xffffff804000d000 <__bss_start>
ffffff8040006634: f9001020     	str	x0, [x1, #0x20]
ffffff8040006638: d65f03c0     	ret
ffffff804000663c: d503201f     	nop

ffffff8040006640 <seL4_GetBootInfo>:
ffffff8040006640: f0000020     	adrp	x0, 0xffffff804000d000 <__bss_start>
ffffff8040006644: f9401000     	ldr	x0, [x0, #0x20]
ffffff8040006648: d65f03c0     	ret
