0000000000400000 T vectors_start
0000000000401000 T rust_entry
0000000000401008 T _start
0000000000401058 t _ZN44_$LT$$RF$T$u20$as$u20$core..fmt..Display$GT$3fmt17h060ae1758682f92cE
000000000040106c t _ZN44_$LT$$RF$T$u20$as$u20$core..fmt..Display$GT$3fmt17h49eddc5c262f8d49E
000000000040107c t _ZN4core3fmt5Write10write_char17he7d353504fd85aa7E
000000000040116c t _ZN4core3fmt5Write9write_fmt17hfde170b46d8783aeE
0000000000401170 t _ZN5alloc7raw_vec11finish_grow17h370a092bcd6206f8E
0000000000401214 t _ZN5alloc7raw_vec20RawVecInner$LT$A$GT$7reserve21do_reserve_and_handle17h8fe3f18238ba0e0dE
00000000004012e0 t _ZN75_$LT$$RF$mut$u20$W$u20$as$u20$core..fmt..Write..write_fmt..SpecWriteFmt$GT$14spec_write_fmt17hca4abb18532e998bE
00000000004012e4 t _ZN81_$LT$core..str..pattern..CharSearcher$u20$as$u20$core..str..pattern..Searcher$GT$10next_match17h59af8016d074e948E
00000000004016a0 t _ZN91_$LT$cohesix_root..allocator..BumpAllocator$u20$as$u20$core..alloc..global..GlobalAlloc$GT$5alloc17hc97a9adda21019bdE
00000000004022c4 t _RNvCs9km79j5joxb_7___rustc17rust_begin_unwind
00000000004023cc t rust_eh_personality
00000000004023d0 T sel4_set_tls
00000000004023d8 T seL4_DebugPutChar
00000000004023f0 T seL4_Send
0000000000402408 T seL4_Recv
0000000000402420 T seL4_Yield
0000000000402430 T seL4_DebugHalt
0000000000402440 T coh_open
0000000000402718 T coh_read
000000000040279c T coh_close
00000000004027c8 T coh_write
00000000004027d0 T coh_exec
0000000000402a0c T coh_getenv
0000000000402a14 T coh_setenv
0000000000402a1c T coh_bind
0000000000402a24 T memcpy
0000000000402a28 T memmove
0000000000402a2c T memset
0000000000402a30 T memcmp
0000000000402a58 T strlen
0000000000402a84 T set_bootinfo_ptr
0000000000402a90 T get_bootinfo_ptr
0000000000402a9c T rust_start
0000000000402aa0 t _ZN12cohesix_root9exception12svc_dispatch17h4ffbbd4f17c203caE
0000000000403008 T handle_el1_sync
0000000000403048 T handle_el1_irq
0000000000403088 T handle_el1_fiq
00000000004030c8 T handle_el1_serror
0000000000403108 T handle_el1_sync_sp0
0000000000403148 T handle_el1_irq_sp0
0000000000403188 T handle_el1_fiq_sp0
00000000004031c8 T handle_el1_serror_sp0
0000000000403208 T handle_el0_sync
0000000000403270 T handle_el0_irq
00000000004032b0 T handle_el0_fiq
00000000004032f0 T handle_el0_serror
0000000000403330 T handle_el0_32_sync
0000000000403370 T handle_el0_32_irq
00000000004033b0 T handle_el0_32_fiq
00000000004033f0 T handle_el0_32_serror
0000000000403430 t _ZN60_$LT$cohesix_root..CohLogger$u20$as$u20$core..fmt..Write$GT$9write_str17hef3ae0aa6fc31cf2E
000000000040346c t _ZN12cohesix_root7put_hex17hd1a3bb86369fdefcE
0000000000403634 T boot_log_hex
0000000000403638 t _ZN12cohesix_root14check_heap_ptr17h0477fc5f1e2b816aE
0000000000403abc t _ZN12cohesix_root5abort17h2875b4dbfb5b1cb3E
0000000000403af4 t _ZN12cohesix_root7env_var17h0268a69405ad3f4aE
0000000000403d8c t _ZN12cohesix_root9exec_init17h355255ea938d66f6E
0000000000404068 T main
00000000004075b8 t _ZN12cohesix_root10lang_items11alloc_error17hc9d76ef5e243e316E
0000000000407720 t _ZN5alloc7raw_vec19RawVec$LT$T$C$A$GT$8grow_one17he2c50e2ed9571b6bE
00000000004077a4 t _ZN5alloc7raw_vec11finish_grow17h525429338a3c2198E
0000000000407824 t _ZN5alloc7raw_vec12handle_error17h68e405fe7d2eef04E
0000000000407830 t _ZN4core3fmt3num3imp54_$LT$impl$u20$core..fmt..Display$u20$for$u20$usize$GT$3fmt17h3b552058fef45ba7E
0000000000407960 t _ZN4core9panicking9panic_fmt17h7d27c6f13468728dE
0000000000407964 t _ZN4core3fmt9Formatter12pad_integral17h3323e701c7d72f43E
0000000000407be0 t _ZN4core3fmt9Formatter12pad_integral12write_prefix17hc6062f680228d9e5E
0000000000407c64 t _ZN4core5slice5index24slice_end_index_len_fail17h6e690d15dace2bc9E
0000000000407c68 t _ZN4core3fmt9Formatter3pad17h17fff84df6397ea3E
000000000040829c t _ZN4core9panicking5panic17h629f58d3f16909bdE
00000000004082a0 t _ZN4core3fmt5write17hf7092a74ebbf9db4E
00000000004084cc t _ZN4core5slice5index22slice_index_order_fail17h65d5f108449d194bE
00000000004084d0 t _ZN4core6option13unwrap_failed17hea8c570cddc14751E
00000000004084d4 t _ZN4core3fmt3num53_$LT$impl$u20$core..fmt..LowerHex$u20$for$u20$u16$GT$3fmt17h316f8e266a8ad23eE
0000000000408554 t _ZN4core3str8converts9from_utf817h8a8c012533dc3c6dE
00000000004087c4 t _ZN4core3fmt3num3imp51_$LT$impl$u20$core..fmt..Display$u20$for$u20$u8$GT$3fmt17hf6f6bf2069801d97E
0000000000408858 t _ZN4core3fmt3num3imp52_$LT$impl$u20$core..fmt..Display$u20$for$u20$u16$GT$3fmt17h3aaa28281444eae0E
0000000000408948 t _ZN4core3str16slice_error_fail17h298ab1af74ec8f92E
000000000040894c t _ZN4core3str19slice_error_fail_rt17h255946817dbf7d14E
0000000000408ac8 t _ZN4core3fmt3num55_$LT$impl$u20$core..fmt..LowerHex$u20$for$u20$usize$GT$3fmt17h5a890080aa137826E
0000000000408b48 t _ZN4core5slice6memchr14memchr_aligned17hc7040b907c1fd3daE
0000000000408c20 T __text_end
000000000040a000 r rodata_check_str
000000000040abd8 r _ZN12cohesix_root17ROOTSERVER_ONLINE17h1dda28d86f6d4332E
000000000040b213 r _ZN4core7unicode12unicode_data11white_space14WHITESPACE_MAP17hb21770c3c413f814E
000000000040b4dd R __rodata_end
000000000040c000 R __image_end
000000000040d000 d _ZN12cohesix_root3sys5FILES17hda1ab28c883b931eE
000000000040d060 D __data_end
000000000040f000 b _ZN12cohesix_root9allocator6OFFSET17h8a31909238a3b913E
000000000040f000 B __bss_start
000000000040f008 B BOOTINFO_PTR
000000000040f010 B VALIDATOR_HANDLE
000000000040f018 B SRV_HANDLE
000000000040f020 B CUDA_HANDLE
0000000000410000 b _ZN12cohesix_root3mmu8L1_TABLE17hd7707f21e0d4f47cE
0000000000411000 b _ZN12cohesix_root3mmu8L2_TABLE17h4d5d98de1dce61b1E
0000000000412000 B __bss_end
0000000000413000 B __heap_start
0000000000493000 B __heap_end
0000000000494000 B __stack_start
00000000004a4000 B __stack_end
00000000004a5000 B __uart_start
00000000004a6000 b _ZN12cohesix_root3sys10UART_FRAME17hc170a4175a144e50E
00000000004a6000 B __uart_end
