ffffff8040000000 T _sel4_start
ffffff8040000040 t _ZN44_$LT$$RF$T$u20$as$u20$core..fmt..Display$GT$3fmt17h150ddb0517d09913E
ffffff8040000054 t _ZN4core3fmt5Write10write_char17h6ea3ff5a158258bcE
ffffff804000005c t _ZN4core3fmt5Write9write_fmt17h64e4ff948d10a5f6E
ffffff804000006c t _ZN75_$LT$$RF$mut$u20$W$u20$as$u20$core..fmt..Write..write_fmt..SpecWriteFmt$GT$14spec_write_fmt17h3013c1a408354477E
ffffff804000007c t _RNvCs9km79j5joxb_7___rustc17rust_begin_unwind
ffffff8040000084 t rust_eh_personality
ffffff8040000088 T coh_open
ffffff8040000090 T coh_read
ffffff8040000090 T coh_write
ffffff8040000098 T coh_close
ffffff80400000a0 T coh_exec
ffffff80400000a8 T coh_getenv
ffffff80400000b0 T coh_bind
ffffff80400000b0 T coh_setenv
ffffff80400000b8 t _ZN60_$LT$cohesix_root..CohLogger$u20$as$u20$core..fmt..Write$GT$9write_str17h83142fd3d1c713f4E
ffffff80400000c0 T boot_log_hex
ffffff80400000c4 T seL4_DebugPutChar
ffffff80400000c8 t _ZN12cohesix_root7env_var17hc59888d95b3dda8fE
ffffff80400001d4 t _ZN12cohesix_root10write_role17h7bc646ccafd4c294E
ffffff80400002e8 t _ZN12cohesix_root15apply_namespace17ha7033f57c8bde4d5E
ffffff804000034c T main
ffffff80400008c0 t _RNvCs9km79j5joxb_7___rustc12___rust_alloc
ffffff80400009bc t _RNvCs9km79j5joxb_7___rustc14___rust_dealloc
ffffff80400009c0 t _RNvCs9km79j5joxb_7___rustc14___rust_realloc
ffffff8040000ac8 t _RNvCs9km79j5joxb_7___rustc19___rust_alloc_zeroed
ffffff8040000bc8 t _RNvCs9km79j5joxb_7___rustc8___rg_oom
ffffff8040000bd0 T _RNvCs9km79j5joxb_7___rustc26___rust_alloc_error_handler
ffffff8040000bd4 T _RNvCs9km79j5joxb_7___rustc42___rust_alloc_error_handler_should_panic_v2
ffffff8040000bdc T _RNvCs9km79j5joxb_7___rustc35___rust_no_alloc_shim_is_unstable_v2
ffffff8040000be0 t _ZN42_$LT$$RF$T$u20$as$u20$core..fmt..Debug$GT$3fmt17h1e5d809eb7213194E
ffffff8040000bf4 t _ZN42_$LT$$RF$T$u20$as$u20$core..fmt..Debug$GT$3fmt17h22ea7af99a2b4832E
ffffff8040000c10 t _ZN42_$LT$$RF$T$u20$as$u20$core..fmt..Debug$GT$3fmt17h96af05030a08bf1eE
ffffff8040000c60 t _ZN4core3fmt5Write9write_fmt17h52e6743d5113ee66E
ffffff8040000c70 t _ZN4core3ptr238drop_in_place$LT$alloc..boxed..convert..$LT$impl$u20$core..convert..From$LT$alloc..string..String$GT$$u20$for$u20$alloc..boxed..Box$LT$dyn$u20$core..error..Error$u2b$core..marker..Send$u2b$core..marker..Sync$GT$$GT$..from..StringError$GT$17hed469cf7cd43623dE
ffffff8040000c88 t _ZN4core3ptr42drop_in_place$LT$alloc..string..String$GT$17h59b7b12fd45236b3E
ffffff8040000ca0 t _ZN4core5error5Error5cause17h6dbaf87c960b151bE
ffffff8040000ca8 t _ZN4core5error5Error7provide17ha46deb1c65c8085dE
ffffff8040000cac t _ZN4core5error5Error7type_id17haf2d98a68c333284E
ffffff8040000cd0 T _ZN4core9panicking13assert_failed17h11ee5a0391b62eb9E
ffffff8040000cf4 t _ZN53_$LT$core..fmt..Error$u20$as$u20$core..fmt..Debug$GT$3fmt17h82148d4613a66ac9E
ffffff8040000d08 t _ZN69_$LT$core..alloc..layout..LayoutError$u20$as$u20$core..fmt..Debug$GT$3fmt17h95e9308e0912eed2E
ffffff8040000d1c t _ZN5alloc7raw_vec17capacity_overflow17h67f21a5c21a64e02E
ffffff8040000d44 T _ZN5alloc7raw_vec19RawVec$LT$T$C$A$GT$8grow_one17h40e0e43f12514844E
ffffff8040000dd8 t _ZN5alloc7raw_vec20RawVecInner$LT$A$GT$7reserve21do_reserve_and_handle17he97127971ffa29a8E
ffffff8040000e84 t _ZN5alloc7raw_vec11finish_grow17h9dfc04b5f9ff2b5eE
ffffff8040000ef8 T _ZN5alloc7raw_vec12handle_error17ha73e53971cbfbd04E
ffffff8040000f08 T _ZN5alloc5alloc18handle_alloc_error17h15f6c2c4216d9062E
ffffff8040000f18 T _ZN5alloc5alloc18handle_alloc_error8ct_error17hd3d8837820b9a85bE
ffffff8040000f44 T _RNvCs9km79j5joxb_7___rustc9___rdl_oom
ffffff8040000fd0 T _ZN92_$LT$alloc..borrow..Cow$LT$str$GT$$u20$as$u20$core..ops..arith..AddAssign$LT$$RF$str$GT$$GT$10add_assign17ha757e40aa37e608aE
ffffff80400011b8 T _ZN77_$LT$alloc..borrow..Cow$LT$str$GT$$u20$as$u20$core..ops..arith..AddAssign$GT$10add_assign17h1d46049c7dc0b482E
ffffff80400013e4 T _ZN256_$LT$alloc..boxed..convert..$LT$impl$u20$core..convert..From$LT$alloc..string..String$GT$$u20$for$u20$alloc..boxed..Box$LT$dyn$u20$core..error..Error$u2b$core..marker..Send$u2b$core..marker..Sync$GT$$GT$..from..StringError$u20$as$u20$core..error..Error$GT$11description17h2fbcb2cd46005c0dE
ffffff80400013f0 T _ZN256_$LT$alloc..boxed..convert..$LT$impl$u20$core..convert..From$LT$alloc..string..String$GT$$u20$for$u20$alloc..boxed..Box$LT$dyn$u20$core..error..Error$u2b$core..marker..Send$u2b$core..marker..Sync$GT$$GT$..from..StringError$u20$as$u20$core..fmt..Display$GT$3fmt17he8cd0fbed922a362E
ffffff8040001404 T _ZN254_$LT$alloc..boxed..convert..$LT$impl$u20$core..convert..From$LT$alloc..string..String$GT$$u20$for$u20$alloc..boxed..Box$LT$dyn$u20$core..error..Error$u2b$core..marker..Send$u2b$core..marker..Sync$GT$$GT$..from..StringError$u20$as$u20$core..fmt..Debug$GT$3fmt17h04f43dc44fd812f8E
ffffff8040001418 T _ZN5alloc5boxed7convert130_$LT$impl$u20$core..convert..From$LT$alloc..string..String$GT$$u20$for$u20$alloc..boxed..Box$LT$dyn$u20$core..error..Error$GT$$GT$4from17h49f2f26738a9886aE
ffffff8040001460 T _ZN5alloc5boxed7convert116_$LT$impl$u20$core..convert..From$LT$$RF$str$GT$$u20$for$u20$alloc..boxed..Box$LT$dyn$u20$core..error..Error$GT$$GT$4from17h4a0d754f38e7142eE
ffffff8040001508 T _ZN5alloc5boxed7convert138_$LT$impl$u20$core..convert..From$LT$alloc..borrow..Cow$LT$str$GT$$GT$$u20$for$u20$alloc..boxed..Box$LT$dyn$u20$core..error..Error$GT$$GT$4from17h3e3477ba018dc1dbE
ffffff8040001508 T _ZN5alloc5boxed7convert184_$LT$impl$u20$core..convert..From$LT$alloc..borrow..Cow$LT$str$GT$$GT$$u20$for$u20$alloc..boxed..Box$LT$dyn$u20$core..error..Error$u2b$core..marker..Send$u2b$core..marker..Sync$GT$$GT$4from17h8d0d4e3103974230E
ffffff80400015c4 T _ZN67_$LT$alloc..boxed..Box$LT$str$GT$$u20$as$u20$core..clone..Clone$GT$5clone17h7fd73bbdc0d68e74E
ffffff8040001638 T _ZN88_$LT$alloc..collections..btree..map..UnorderedKeyError$u20$as$u20$core..fmt..Display$GT$3fmt17hd8678af3d6b67685E
ffffff8040001654 T _ZN93_$LT$alloc..collections..btree..mem..replace..PanicGuard$u20$as$u20$core..ops..drop..Drop$GT$4drop17h9601771af1bfd272E
ffffff8040001658 T _ZN74_$LT$alloc..collections..TryReserveError$u20$as$u20$core..fmt..Display$GT$3fmt17h6f4d8dbcdbad7e93E
ffffff80400016c8 T _ZN5alloc3ffi5c_str19FromVecWithNulError8as_bytes17hfe4ff6e9cccab65bE
ffffff80400016d4 T _ZN72_$LT$$RF$str$u20$as$u20$alloc..ffi..c_str..CString..new..SpecNewImpl$GT$13spec_new_impl17h63b048aab6304973E
ffffff80400016d4 T _ZN81_$LT$$RF$$u5b$u8$u5d$$u20$as$u20$alloc..ffi..c_str..CString..new..SpecNewImpl$GT$13spec_new_impl17h801c9747bc90b3bcE
ffffff80400017dc T _ZN89_$LT$$RF$mut$u20$$u5b$u8$u5d$$u20$as$u20$alloc..ffi..c_str..CString..new..SpecNewImpl$GT$13spec_new_impl17h3ca086f47855d86bE
ffffff80400018e4 T _ZN5alloc3ffi5c_str7CString18from_vec_unchecked17h36094c68f0329846E
ffffff80400018e8 T _ZN5alloc3ffi5c_str7CString19_from_vec_unchecked17h45ba88a7b09e513eE
ffffff8040001a08 T _ZN5alloc3ffi5c_str7CString8from_raw17hbd2e4d5c78572949E
ffffff8040001a28 T _ZN5alloc3ffi5c_str7CString11into_string17h46968cbdb364d0c9E
ffffff8040001ad0 T _ZN5alloc3ffi5c_str7CString10into_bytes17h9f61c505a18502f0E
ffffff8040001ae4 T _ZN5alloc3ffi5c_str7CString19into_bytes_with_nul17h61dff0802fff6284E
ffffff8040001ae4 T _ZN97_$LT$alloc..string..String$u20$as$u20$core..convert..From$LT$alloc..boxed..Box$LT$str$GT$$GT$$GT$4from17h95303fdaa6679fe4E
ffffff8040001af0 T _ZN5alloc3ffi5c_str7CString27from_vec_with_nul_unchecked17haa476505d02a0a87E
ffffff8040001b60 T _ZN5alloc3ffi5c_str7CString17from_vec_with_nul17h7d2b191d0e971e56E
ffffff8040001c64 T _ZN63_$LT$alloc..ffi..c_str..CString$u20$as$u20$core..fmt..Debug$GT$3fmt17h3b9c42135717bffcE
ffffff8040001c78 T _ZN69_$LT$alloc..ffi..c_str..CString$u20$as$u20$core..default..Default$GT$7default17h873fea7c3a3f7073E
ffffff8040001cac T _ZN5alloc3ffi5c_str100_$LT$impl$u20$core..default..Default$u20$for$u20$alloc..boxed..Box$LT$core..ffi..c_str..CStr$GT$$GT$7default17hebc0f1c5e7a4c31dE
ffffff8040001ce0 T _ZN66_$LT$alloc..ffi..c_str..NulError$u20$as$u20$core..fmt..Display$GT$3fmt17h43515b10d626ebccE
ffffff8040001d2c T _ZN77_$LT$alloc..ffi..c_str..FromVecWithNulError$u20$as$u20$core..fmt..Display$GT$3fmt17h7aa5fbdc19349938E
ffffff8040001da4 T _ZN73_$LT$alloc..ffi..c_str..IntoStringError$u20$as$u20$core..fmt..Display$GT$3fmt17h6aa27b74ec2c4f74E
ffffff8040001db8 T _ZN5alloc3ffi5c_str75_$LT$impl$u20$alloc..borrow..ToOwned$u20$for$u20$core..ffi..c_str..CStr$GT$10clone_into17h85968b1297f1ced7E
ffffff8040001e74 T _ZN100_$LT$alloc..ffi..c_str..CString$u20$as$u20$core..convert..From$LT$$RF$core..ffi..c_str..CStr$GT$$GT$4from17h557e99ddc79b4434E
ffffff8040001e74 T _ZN5alloc3ffi5c_str131_$LT$impl$u20$core..convert..From$LT$$RF$core..ffi..c_str..CStr$GT$$u20$for$u20$alloc..boxed..Box$LT$core..ffi..c_str..CStr$GT$$GT$4from17hc4e61bdde841ce26E
ffffff8040001e74 T _ZN5alloc3ffi5c_str139_$LT$impl$u20$core..convert..From$LT$$RF$mut$u20$core..ffi..c_str..CStr$GT$$u20$for$u20$alloc..boxed..Box$LT$core..ffi..c_str..CStr$GT$$GT$4from17hc92b0c841f7dd765E
ffffff8040001e74 T _ZN5alloc3ffi5c_str75_$LT$impl$u20$alloc..borrow..ToOwned$u20$for$u20$core..ffi..c_str..CStr$GT$8to_owned17hf2962ff5ff191e31E
ffffff8040001ee8 T _ZN5alloc3ffi5c_str40_$LT$impl$u20$core..ffi..c_str..CStr$GT$15to_string_lossy17h5d89c30fe32ef076E
ffffff8040001ef0 T _ZN5alloc3ffi5c_str40_$LT$impl$u20$core..ffi..c_str..CStr$GT$13into_c_string17had43ab31ea6b5fa1E
ffffff8040001ef0 T _ZN5alloc3ffi5c_str7CString16into_boxed_c_str17hc13ee1f556a0eb1bE
ffffff8040001ef4 T _ZN5alloc3fmt6format12format_inner17h15a6f74591c113f7E
ffffff804000205c T _ZN5alloc2rc32rc_inner_layout_for_value_layout17h848271c6cf6723d1E
ffffff80400020c4 T _ZN5alloc3str21_$LT$impl$u20$str$GT$12to_lowercase17hd92dfe3dd4095c6aE
ffffff8040002c24 T _ZN5alloc3str21_$LT$impl$u20$str$GT$12to_uppercase17hed7a52a85e13d32cE
ffffff8040003430 T _ZN5alloc6string6String15from_utf8_lossy17hd204466b63997f37E
ffffff8040003668 T _ZN5alloc6string6String21from_utf8_lossy_owned17h122755924b893d6cE
ffffff80400036f0 T _ZN5alloc6string6String10from_utf1617h10e4f5e628e85114E
ffffff804000397c T _ZN5alloc6string6String12from_utf16le17h40d190a34530d3a9E
ffffff8040003d88 T _ZN5alloc6string6String18from_utf16le_lossy17h6134937053faa318E
ffffff8040004114 T _ZN5alloc6string6String12from_utf16be17h4ce8cce9dd440f66E
ffffff80400044f4 T _ZN5alloc6string6String18from_utf16be_lossy17hca261c2abda5c7c2E
ffffff80400047d0 T _ZN5alloc6string6String14into_raw_parts17h1625df6db78c41f6E
ffffff80400047e4 T _ZN5alloc6string6String11try_reserve17h9d998f013452b5a9E
ffffff80400048bc T _ZN5alloc6string6String17try_reserve_exact17hd88b30d3a80090b4E
ffffff804000497c T _ZN5alloc6string13FromUtf8Error8as_bytes17h63c2f62458db76cdE
ffffff8040004988 T _ZN5alloc6string13FromUtf8Error15into_utf8_lossy17h47b2d2e5c3aebef0E
ffffff8040004b4c T _ZN67_$LT$alloc..string..FromUtf8Error$u20$as$u20$core..fmt..Display$GT$3fmt17hce4a2887ff329446E
ffffff8040004b54 T _ZN68_$LT$alloc..string..FromUtf16Error$u20$as$u20$core..fmt..Display$GT$3fmt17h34fd1875500b3741E
ffffff8040004b68 T _ZN60_$LT$alloc..string..String$u20$as$u20$core..clone..Clone$GT$5clone17h961be59bf1b3d953E
ffffff8040004bec T _ZN60_$LT$alloc..string..String$u20$as$u20$core..clone..Clone$GT$10clone_from17h299ffd7adc5e30adE
ffffff8040004c54 t _ZN89_$LT$alloc..string..String$u20$as$u20$core..iter..traits..collect..Extend$LT$char$GT$$GT$6extend17h927bf2d80b86f93aE
ffffff8040004e98 T _ZN73_$LT$$RF$alloc..string..String$u20$as$u20$core..str..pattern..Pattern$GT$13into_searcher17hd0ccd85a0e1751f5E
ffffff8040004eac T _ZN5alloc6string107_$LT$impl$u20$core..convert..From$LT$alloc..string..String$GT$$u20$for$u20$alloc..boxed..Box$LT$str$GT$$GT$4from17h13d48859e99ee371E
ffffff8040004f00 T _ZN98_$LT$alloc..string..String$u20$as$u20$core..convert..From$LT$alloc..borrow..Cow$LT$str$GT$$GT$$GT$4from17h49f4b612f02ae129E
ffffff8040004fb4 T _ZN97_$LT$alloc..string..String$u20$as$u20$core..convert..TryFrom$LT$alloc..vec..Vec$LT$u8$GT$$GT$$GT$8try_from17h03b3c254db510741E
ffffff8040005040 t _ZN58_$LT$alloc..string..String$u20$as$u20$core..fmt..Write$GT$9write_str17h3cb0ccf491ae6696E
ffffff80400050b4 t _ZN58_$LT$alloc..string..String$u20$as$u20$core..fmt..Write$GT$10write_char17h74fd34d20083bf9bE
ffffff80400051e4 T _ZN61_$LT$alloc..string..IntoChars$u20$as$u20$core..fmt..Debug$GT$3fmt17ha443d37be2b3b58eE
ffffff8040005240 T _ZN57_$LT$alloc..string..Drain$u20$as$u20$core..fmt..Debug$GT$3fmt17h660ffe6e27d71301E
ffffff8040005298 T _ZN62_$LT$alloc..string..Drain$u20$as$u20$core..ops..drop..Drop$GT$4drop17h6e5ee14e2a31cdd6E
ffffff804000530c T _ZN5alloc6string5Drain6as_str17h73fdd570c5ac3f1dE
ffffff804000531c T _ZN72_$LT$alloc..string..Drain$u20$as$u20$core..convert..AsRef$LT$str$GT$$GT$6as_ref17ha28c72be9a8f27edE
ffffff804000531c T _ZN81_$LT$alloc..string..Drain$u20$as$u20$core..convert..AsRef$LT$$u5b$u8$u5d$$GT$$GT$6as_ref17ha1f2a3ef6c9c66c6E
ffffff804000532c T _ZN79_$LT$alloc..string..Drain$u20$as$u20$core..iter..traits..iterator..Iterator$GT$9size_hint17h620480b7a6d8a7b4E
ffffff804000534c T _ZN5alloc4sync32arcinner_layout_for_value_layout17h2548f4e6457b7136E
ffffff80400053b4 T _ZN5alloc3vec16Vec$LT$T$C$A$GT$11swap_remove13assert_failed17hc6f2e92a71275c60E
ffffff80400053d0 T _ZN5alloc3vec16Vec$LT$T$C$A$GT$6insert13assert_failed17h2ccf896ea623a545E
ffffff80400053ec T _ZN5alloc3vec16Vec$LT$T$C$A$GT$6remove13assert_failed17h08d18fd65715e3d5E
ffffff8040005408 T _ZN5alloc3vec16Vec$LT$T$C$A$GT$9split_off13assert_failed17h0ec14e053ec356d3E
ffffff8040005424 T _ZN80_$LT$alloc..vec..Vec$LT$u8$GT$$u20$as$u20$core..convert..From$LT$$RF$str$GT$$GT$4from17hd58bbfb0f0cbe16bE
ffffff80400054a8 t OUTLINED_FUNCTION_0
ffffff80400054c8 t OUTLINED_FUNCTION_1
ffffff80400054e8 T _ZN4core3num7dec2flt11decimal_seq10DecimalSeq4trim17he1ec13602f71cd5fE
ffffff8040005530 T _ZN4core3num7dec2flt11decimal_seq10DecimalSeq5round17h8fe3712178f2acabE
ffffff80400055e4 T _ZN4core3num7dec2flt11decimal_seq10DecimalSeq10left_shift17h230deaaff3f1e2dfE
ffffff80400057d8 T _ZN4core3num7dec2flt11decimal_seq10DecimalSeq11right_shift17h62013d8fedd60390E
ffffff8040005988 T _ZN4core3num7dec2flt11decimal_seq17parse_decimal_seq17h6b6e3dc05ceafd3cE
ffffff8040005d54 T _ZN59_$LT$f32$u20$as$u20$core..num..dec2flt..float..RawFloat$GT$15pow10_fast_path17hbca812e34e6aff14E
ffffff8040005d68 T _ZN59_$LT$f64$u20$as$u20$core..num..dec2flt..float..RawFloat$GT$15pow10_fast_path17hb3ebaef0d92cae4aE
ffffff8040005d7c t _ZN4core3num7dec2flt6lemire13compute_float17h2e6bbf3a6a0154b7E
ffffff8040005ecc t _ZN4core3num7dec2flt6lemire13compute_float17h6464c4b8d7eed620E
ffffff8040005ff8 t _ZN4core3num7dec2flt6lemire13compute_float17hde639eab00876f22E
ffffff8040006148 T _ZN4core3num7dec2flt6lemire22compute_product_approx17h11a5d59d7136991cE
ffffff80400061ac T _ZN4core3num7dec2flt5parse12parse_number17h15ecf3f21e76600cE
ffffff80400065e0 T _ZN74_$LT$core..num..dec2flt..ParseFloatError$u20$as$u20$core..fmt..Display$GT$3fmt17hb4ea3424ef0dbc6cE
ffffff8040006610 T _ZN4core3num9diy_float2Fp3mul17h486c79bc67c6306eE
ffffff8040006628 T _ZN4core3num9diy_float2Fp9normalize17ha8e7b177f8227a79E
ffffff8040006638 T _ZN4core3num9diy_float2Fp12normalize_to17h470fa92f7d9523e5E
ffffff80400066ac T _ZN4core3num7flt2dec9estimator23estimate_scaling_factor17h6b39ed8cd25d145cE
ffffff80400066dc T _ZN4core3num7flt2dec8strategy6dragon9mul_pow1017h5a16b282df616c57E
ffffff8040007300 T _ZN4core3num7flt2dec8strategy6dragon15format_shortest17h56b2534f11d5085fE
ffffff8040007efc T _ZN4core3num7flt2dec8strategy6dragon12format_exact17hee4c3ffdb1e52a53E
ffffff804000898c T _ZN4core3num7flt2dec8strategy5grisu12cached_power17h14f12bdb2d132a73E
ffffff80400089f8 T _ZN4core3num7flt2dec8strategy5grisu19format_shortest_opt17h14ab82a30b657ddaE
ffffff8040008fe0 T _ZN4core3num7flt2dec8strategy5grisu15format_shortest17h4473f5283e38dd68E
ffffff8040009054 T _ZN4core3num7flt2dec8strategy5grisu16format_exact_opt17h4259893d405d1a4bE
ffffff80400093d4 t _ZN4core3num7flt2dec8strategy5grisu16format_exact_opt14possibly_round17had8425a08ee3ebeeE
ffffff80400095c0 T _ZN4core3num7flt2dec8strategy5grisu12format_exact17h0eefb74147b997f0E
ffffff8040009640 T _ZN4core3num7flt2dec8round_up17h785edbb4301900f7E
ffffff8040009718 T _ZN4core3num7flt2dec17digits_to_dec_str17h98bb705d76e02b9cE
ffffff8040009880 T _ZN4core3num7flt2dec17digits_to_exp_str17h19838b79e2663fb7E
ffffff80400099dc T _ZN4core3num3fmt4Part5write17h96083c603690a2c3E
ffffff8040009b64 T _ZN4core3num3fmt9Formatted3len17h478c8e8fd9040080E
ffffff8040009bf8 T _ZN4core3num3fmt9Formatted5write17h23e71235d7d78024E
ffffff8040009cb0 T _ZN72_$LT$core..num..error..TryFromIntError$u20$as$u20$core..fmt..Display$GT$3fmt17h8569cd72d386371cE
ffffff8040009cc4 T _ZN70_$LT$core..num..error..ParseIntError$u20$as$u20$core..fmt..Display$GT$3fmt17he490a7d4e2a715a9E
ffffff8040009cec T _ZN4core3num9int_log1030panic_for_nonpositive_argument17h2be50ba728207d43E
ffffff8040009d14 T _ZN4core3num8int_sqrt27panic_for_negative_argument17h0170cb853eb3dac6E
ffffff8040009d3c T _ZN4core3num14overflow_panic3add17h817cf3f2303d83a9E
ffffff8040009d64 T _ZN4core3num14overflow_panic3sub17h479f2744096acad1E
ffffff8040009d8c T _ZN4core3num14overflow_panic3mul17h33301e28a4ea488aE
ffffff8040009db4 T _ZN4core3num14overflow_panic3div17h1d8f90febb0dff9dE
ffffff8040009ddc T _ZN4core3num14overflow_panic3rem17h21770acf570e1318E
ffffff8040009e04 T _ZN4core3num14overflow_panic3neg17h97789c34575b30d3E
ffffff8040009e2c T _ZN4core3num14overflow_panic3shr17h9d9a98b6e84b848bE
ffffff8040009e54 T _ZN4core3num14overflow_panic3shl17h2be8e4e87c7616c2E
ffffff8040009e7c T _ZN4core3num22from_ascii_radix_panic17h42cce531da1452beE
ffffff8040009e80 T _ZN76_$LT$core..mem..transmutability..Assume$u20$as$u20$core..ops..arith..Sub$GT$3sub17h51857a7b102aa924E
ffffff8040009e8c T _ZN68_$LT$core..ptr..alignment..Alignment$u20$as$u20$core..fmt..Debug$GT$3fmt17h5d289d794e8d87f3E
ffffff8040009f00 T _ZN69_$LT$core..ffi..c_str..CStr$u20$as$u20$core..clone..CloneToUninit$GT$15clone_to_uninit17h65a34586799ed1f7E
ffffff8040009f14 T _ZN57_$LT$core..error..Request$u20$as$u20$core..fmt..Debug$GT$3fmt17h70fa0959fb3c423bE
ffffff8040009f70 T _ZN78_$LT$core..error..Source$u20$as$u20$core..iter..traits..iterator..Iterator$GT$4next17hce91c12f890e8da4E
ffffff8040009fc0 T _ZN64_$LT$core..ops..range..RangeFull$u20$as$u20$core..fmt..Debug$GT$3fmt17h803f27902077b290E
ffffff8040009fdc t _ZN71_$LT$core..ops..range..Range$LT$Idx$GT$$u20$as$u20$core..fmt..Debug$GT$3fmt17h6a174eea35e2d4c2E
ffffff804000a1f0 T _ZN105_$LT$dyn$u20$core..any..Any$u2b$core..marker..Send$u2b$core..marker..Sync$u20$as$u20$core..fmt..Debug$GT$3fmt17h9fe1a0bd5fb7ac2fE
ffffff804000a1f0 T _ZN59_$LT$dyn$u20$core..any..Any$u20$as$u20$core..fmt..Debug$GT$3fmt17h7f3f60e3cbb7079dE
ffffff804000a1f0 T _ZN82_$LT$dyn$u20$core..any..Any$u2b$core..marker..Send$u20$as$u20$core..fmt..Debug$GT$3fmt17h708c1f77bdbe3565E
ffffff804000a24c T _ZN54_$LT$core..any..TypeId$u20$as$u20$core..fmt..Debug$GT$3fmt17h8295dce874b2c621E
ffffff804000a2ac T _ZN73_$LT$core..ascii..ascii_char..AsciiChar$u20$as$u20$core..fmt..Display$GT$3fmt17h8eb47e5a16a63ac9E
ffffff804000a2c0 T _ZN71_$LT$core..ascii..ascii_char..AsciiChar$u20$as$u20$core..fmt..Debug$GT$3fmt17h3a93551fe5df8bf1E
ffffff804000a40c T _ZN4core5ascii14escape_default17h2c34dfd60e8f0a14E
ffffff804000a480 T _ZN65_$LT$core..ascii..EscapeDefault$u20$as$u20$core..fmt..Display$GT$3fmt17h04cd3ae27b3a6c6dE
ffffff804000a4a0 T _ZN63_$LT$core..ascii..EscapeDefault$u20$as$u20$core..fmt..Debug$GT$3fmt17h381023caea73a9dcE
ffffff804000a4fc T _ZN56_$LT$core..bstr..ByteStr$u20$as$u20$core..fmt..Debug$GT$3fmt17h179cf423ccaef81eE
ffffff804000a7a0 T _ZN58_$LT$core..bstr..ByteStr$u20$as$u20$core..fmt..Display$GT$3fmt17h65d98398079d30f7E
ffffff804000abc8 T _ZN4core4cell4lazy14panic_poisoned17hba465acf5907ebf2E
ffffff804000abf4 T _ZN62_$LT$core..cell..BorrowError$u20$as$u20$core..fmt..Display$GT$3fmt17hfc048b1c6d750ae9E
ffffff804000ac08 T _ZN65_$LT$core..cell..BorrowMutError$u20$as$u20$core..fmt..Display$GT$3fmt17h67d28ded902deb88E
ffffff804000ac1c T _ZN4core4cell22panic_already_borrowed17hb36eaebd5cc59516E
ffffff804000ac20 T _ZN4core4cell30panic_already_mutably_borrowed17ha430fdc04df1f571E
ffffff804000ac24 T _ZN74_$LT$core..char..convert..ParseCharError$u20$as$u20$core..fmt..Display$GT$3fmt17he0e23895de32e123E
ffffff804000ac54 T _ZN76_$LT$core..char..convert..CharTryFromError$u20$as$u20$core..fmt..Display$GT$3fmt17h66229b5766f02c39E
ffffff804000ac68 T _ZN75_$LT$core..char..decode..DecodeUtf16Error$u20$as$u20$core..fmt..Display$GT$3fmt17h6cfd049de1e1fe1fE
ffffff804000acb0 t _ZN4core4char7methods22_$LT$impl$u20$char$GT$16escape_debug_ext17hd6369d9ad5c4c9efE
ffffff804000af70 T _ZN64_$LT$core..char..EscapeUnicode$u20$as$u20$core..fmt..Display$GT$3fmt17h390b4af6b6cd772bE
ffffff804000af90 t _ZN62_$LT$core..char..EscapeDebug$u20$as$u20$core..fmt..Display$GT$3fmt17h3cf5f0bff34d9339E
ffffff804000afc8 T _ZN86_$LT$core..char..CaseMappingIter$u20$as$u20$core..iter..traits..iterator..Iterator$GT$4next17h82ec9af9156a4d1aE
ffffff804000aff4 T _ZN86_$LT$core..char..CaseMappingIter$u20$as$u20$core..iter..traits..iterator..Iterator$GT$5count17h8cf4f3100156d7d1E
ffffff804000b000 T _ZN86_$LT$core..char..CaseMappingIter$u20$as$u20$core..iter..traits..iterator..Iterator$GT$4last17hb1b397075f6aa274E
ffffff804000b040 T _ZN86_$LT$core..char..CaseMappingIter$u20$as$u20$core..iter..traits..iterator..Iterator$GT$10advance_by17h3d3e8f0b9ea1105aE
ffffff804000b064 T _ZN86_$LT$core..char..CaseMappingIter$u20$as$u20$core..iter..traits..iterator..Iterator$GT$24__iterator_get_unchecked17h7ea43e133c87ffebE
ffffff804000b078 T _ZN101_$LT$core..char..CaseMappingIter$u20$as$u20$core..iter..traits..double_ended..DoubleEndedIterator$GT$9next_back17hd5ea6e4b1cecb208E
ffffff804000b0a0 T _ZN101_$LT$core..char..CaseMappingIter$u20$as$u20$core..iter..traits..double_ended..DoubleEndedIterator$GT$15advance_back_by17h4f47dd061a9992f5E
ffffff804000b0c8 T _ZN67_$LT$core..char..TryFromCharError$u20$as$u20$core..fmt..Display$GT$3fmt17h1fe4f6b933efd67bE
ffffff804000b0dc T _ZN79_$LT$core..ffi..c_str..FromBytesUntilNulError$u20$as$u20$core..fmt..Display$GT$3fmt17hd1065665f364340bE
ffffff804000b0f8 T _ZN59_$LT$core..ffi..c_str..CStr$u20$as$u20$core..fmt..Debug$GT$3fmt17hfd8f3911846cfb70E
ffffff804000b100 T _ZN78_$LT$core..ffi..c_str..FromBytesWithNulError$u20$as$u20$core..fmt..Display$GT$3fmt17h9e3a8ab2a8ac9847E
ffffff804000b1c0 T _ZN4core3ffi5c_str4CStr20from_bytes_until_nul17hceebac69e4bb07ecE
ffffff804000b298 T _ZN4core3ffi5c_str4CStr19from_bytes_with_nul17h379f04a9fcbdf113E
ffffff804000b388 T _ZN4core3ffi5c_str4CStr6to_str17h44fc5c421937edd8E
ffffff804000b390 T _ZN54_$LT$core..ffi..c_void$u20$as$u20$core..fmt..Debug$GT$3fmt17hd87d045869b062a1E
ffffff804000b3ac T _ZN72_$LT$core..io..borrowed_buf..BorrowedBuf$u20$as$u20$core..fmt..Debug$GT$3fmt17h45a94e64a10aba3aE
ffffff804000b4b0 t _ZN86_$LT$core..net..display_buffer..DisplayBuffer$LT$_$GT$$u20$as$u20$core..fmt..Write$GT$9write_str17h2e0a538da14868e6E
ffffff804000b4f4 t _ZN86_$LT$core..net..display_buffer..DisplayBuffer$LT$_$GT$$u20$as$u20$core..fmt..Write$GT$9write_str17haacbbbb0fc98aff7E
ffffff804000b538 t _ZN86_$LT$core..net..display_buffer..DisplayBuffer$LT$_$GT$$u20$as$u20$core..fmt..Write$GT$9write_str17hc49c42b12c1f50fbE
ffffff804000b57c t _ZN86_$LT$core..net..display_buffer..DisplayBuffer$LT$_$GT$$u20$as$u20$core..fmt..Write$GT$9write_str17hf443b9ead68498d7E
ffffff804000b5c0 T _ZN65_$LT$core..net..ip_addr..IpAddr$u20$as$u20$core..fmt..Display$GT$3fmt17h897b79db26cb21fbE
ffffff804000b5d4 T _ZN63_$LT$core..net..ip_addr..IpAddr$u20$as$u20$core..fmt..Debug$GT$3fmt17h2966bfcdf3a2de38E
ffffff804000b5e8 T _ZN67_$LT$core..net..ip_addr..Ipv4Addr$u20$as$u20$core..fmt..Display$GT$3fmt17h95483a9b54080c35E
ffffff804000b738 T _ZN65_$LT$core..net..ip_addr..Ipv4Addr$u20$as$u20$core..fmt..Debug$GT$3fmt17ha5294385c8e4aaefE
ffffff804000b73c T _ZN67_$LT$core..net..ip_addr..Ipv6Addr$u20$as$u20$core..fmt..Display$GT$3fmt17hd16a0d3d9e77d195E
ffffff804000bde8 t _ZN67_$LT$core..net..ip_addr..Ipv6Addr$u20$as$u20$core..fmt..Display$GT$3fmt12fmt_subslice17h4cd722957997908eE
ffffff804000bee4 T _ZN65_$LT$core..net..ip_addr..Ipv6Addr$u20$as$u20$core..fmt..Debug$GT$3fmt17h03b4d8f362bdb001E
ffffff804000bee8 t _ZN4core3net6parser6Parser11read_number28_$u7b$$u7b$closure$u7d$$u7d$17h99af55fc9731f27aE
ffffff804000c17c t _ZN4core3net6parser6Parser14read_ipv4_addr17h97b882ca959a7d9dE
ffffff804000c444 t _ZN4core3net6parser6Parser14read_ipv6_addr17h31f22ae3a0def6a8E
ffffff804000c590 t _ZN4core3net6parser6Parser14read_ipv6_addr11read_groups17h2cb43cac1df793c9E
ffffff804000c7b4 t _ZN4core3net6parser6Parser19read_socket_addr_v617hffebd29faea60e04E
ffffff804000c984 T _ZN4core3net6parser44_$LT$impl$u20$core..net..ip_addr..IpAddr$GT$11parse_ascii17hf9bddc5043bd207bE
ffffff804000ca38 T _ZN4core3net6parser83_$LT$impl$u20$core..str..traits..FromStr$u20$for$u20$core..net..ip_addr..IpAddr$GT$8from_str17hc50f48a5ceae1f95E
ffffff804000caec T _ZN4core3net6parser46_$LT$impl$u20$core..net..ip_addr..Ipv4Addr$GT$11parse_ascii17hbbad129791eaf40dE
ffffff804000cb60 T _ZN4core3net6parser85_$LT$impl$u20$core..str..traits..FromStr$u20$for$u20$core..net..ip_addr..Ipv4Addr$GT$8from_str17h25d5b7387ef579a9E
ffffff804000cbd4 T _ZN4core3net6parser46_$LT$impl$u20$core..net..ip_addr..Ipv6Addr$GT$11parse_ascii17h8175b6b0767be9b3E
ffffff804000cc50 T _ZN4core3net6parser85_$LT$impl$u20$core..str..traits..FromStr$u20$for$u20$core..net..ip_addr..Ipv6Addr$GT$8from_str17h281d77990fec7ed7E
ffffff804000cccc T _ZN4core3net6parser54_$LT$impl$u20$core..net..socket_addr..SocketAddrV4$GT$11parse_ascii17h5cad4e98f67a7b42E
ffffff804000cdd8 T _ZN4core3net6parser93_$LT$impl$u20$core..str..traits..FromStr$u20$for$u20$core..net..socket_addr..SocketAddrV4$GT$8from_str17h5d738d4c0fd615c5E
ffffff804000cee0 T _ZN4core3net6parser54_$LT$impl$u20$core..net..socket_addr..SocketAddrV6$GT$11parse_ascii17hdb2c79ee4ce13d99E
ffffff804000cf48 T _ZN4core3net6parser93_$LT$impl$u20$core..str..traits..FromStr$u20$for$u20$core..net..socket_addr..SocketAddrV6$GT$8from_str17h806feef643392c3bE
ffffff804000cfb0 T _ZN4core3net6parser52_$LT$impl$u20$core..net..socket_addr..SocketAddr$GT$11parse_ascii17h8db9a54e8632dd7cE
ffffff804000d148 T _ZN4core3net6parser91_$LT$impl$u20$core..str..traits..FromStr$u20$for$u20$core..net..socket_addr..SocketAddr$GT$8from_str17h22bcace1bd4e7c24E
ffffff804000d14c T _ZN72_$LT$core..net..parser..AddrParseError$u20$as$u20$core..fmt..Display$GT$3fmt17he6c704232a3ef4aaE
ffffff804000d174 T _ZN73_$LT$core..net..socket_addr..SocketAddr$u20$as$u20$core..fmt..Display$GT$3fmt17h143cf6c0a0fdc214E
ffffff804000d190 T _ZN71_$LT$core..net..socket_addr..SocketAddr$u20$as$u20$core..fmt..Debug$GT$3fmt17ha5eb355caf1eb67dE
ffffff804000d1ac T _ZN75_$LT$core..net..socket_addr..SocketAddrV4$u20$as$u20$core..fmt..Display$GT$3fmt17h8fea80355745920eE
ffffff804000d2f8 T _ZN73_$LT$core..net..socket_addr..SocketAddrV4$u20$as$u20$core..fmt..Debug$GT$3fmt17h97abf5cccd3aedb7E
ffffff804000d2fc T _ZN75_$LT$core..net..socket_addr..SocketAddrV6$u20$as$u20$core..fmt..Display$GT$3fmt17hf8ab53aa35f7d752E
ffffff804000d530 T _ZN73_$LT$core..net..socket_addr..SocketAddrV6$u20$as$u20$core..fmt..Debug$GT$3fmt17hd779b336b013de13E
ffffff804000d534 T _ZN4core6option13unwrap_failed17h15e7b5e971479c92E
ffffff804000d548 T _ZN4core6option13expect_failed17h374e75a3236f9109E
ffffff804000d584 T _ZN68_$LT$core..panic..location..Location$u20$as$u20$core..fmt..Debug$GT$3fmt17h7389c3456ac761d8E
ffffff804000d68c T _ZN73_$LT$core..panic..panic_info..PanicInfo$u20$as$u20$core..fmt..Display$GT$3fmt17h365b766110bcf5deE
ffffff804000d7c4 T _ZN4core9panicking9panic_fmt17he8d120d80aa36f13E
ffffff804000d7dc T _ZN4core9panicking18panic_nounwind_fmt17h2ada5125f2e3dba9E
ffffff804000d7f4 T _ZN4core9panicking5panic17h2002b76cd5dcfe5bE
ffffff804000d820 T _ZN4core9panicking14panic_nounwind17heea82b92ad71427cE
ffffff804000d854 T _ZN4core9panicking26panic_nounwind_nobacktrace17hcf2d0875aefa226aE
ffffff804000d888 T _ZN4core9panicking14panic_explicit17ha4db60801be4261fE
ffffff804000d8c8 T _ZN4core9panicking18panic_bounds_check17h6d7e9f8884ae5880E
ffffff804000d90c T _ZN4core9panicking36panic_misaligned_pointer_dereference17h1dc50879f98d3b34E
ffffff804000d94c T _ZN4core9panicking30panic_null_pointer_dereference17he81286976f4f23cbE
ffffff804000d978 T _ZN4core9panicking31panic_invalid_enum_construction17hd544a9d7e3254fcdE
ffffff804000d9b0 T _ZN4core9panicking19panic_cannot_unwind17h495ce52ca0990e97E
ffffff804000d9c0 T _ZN4core9panicking16panic_in_cleanup17h9f59675bdc00dc92E
ffffff804000d9d0 T _ZN4core9panicking15const_panic_fmt17h582dd1ac0c156f83E
ffffff804000da28 T _ZN4core9panicking13assert_failed17h07cf1c1d81e487a7E
ffffff804000da38 T _ZN4core9panicking13assert_failed17h9e3867eaa47a3703E
ffffff804000da48 T _ZN84_$LT$core..panicking..assert_matches_failed..Pattern$u20$as$u20$core..fmt..Debug$GT$3fmt17h739e92baeec77311E
ffffff804000da5c T _ZN4core9panicking19assert_failed_inner17h29331d9f4091fd62E
ffffff804000db34 T _ZN48_$LT$char$u20$as$u20$core..pat..RangePattern$GT$7sub_one17ha11e3193bfd2e129E
ffffff804000db7c T _ZN4core6result13unwrap_failed17haba7613202ba9c17E
ffffff804000dbd0 T _ZN67_$LT$core..sync..atomic..AtomicBool$u20$as$u20$core..fmt..Debug$GT$3fmt17hc1f435f74833e794E
ffffff804000dbfc T _ZN4core3fmt8builders10PadAdapter4wrap17h51fa483a71ce4e13E
ffffff804000dc20 T _ZN68_$LT$core..fmt..builders..PadAdapter$u20$as$u20$core..fmt..Write$GT$9write_str17h751e068c1a41513fE
ffffff804000de68 T _ZN68_$LT$core..fmt..builders..PadAdapter$u20$as$u20$core..fmt..Write$GT$10write_char17h7887f123cf109b14E
ffffff804000dee4 T _ZN4core3fmt8builders11DebugStruct5field17h2d3bafa32eaaf0bdE
ffffff804000e084 T _ZN4core3fmt8builders11DebugStruct21finish_non_exhaustive17h325e7461ed91ade0E
ffffff804000e14c T _ZN4core3fmt8builders11DebugStruct6finish17h0753941365663f70E
ffffff804000e1bc T _ZN4core3fmt8builders10DebugTuple5field17h4f016396cba5c7fcE
ffffff804000e2f0 T _ZN4core3fmt8builders10DebugTuple21finish_non_exhaustive17hfcdcf1425d7618a9E
ffffff804000e3b4 T _ZN4core3fmt8builders10DebugTuple6finish17h2ad96e8a1d81e9ffE
ffffff804000e460 T _ZN4core3fmt8builders8DebugSet5entry17h68d0794d82519fc6E
ffffff804000e460 T _ZN4core3fmt8builders9DebugList5entry17h717962f9553d12e9E
ffffff804000e590 T _ZN4core3fmt8builders8DebugSet21finish_non_exhaustive17hd3642385b17d5662E
ffffff804000e658 T _ZN4core3fmt8builders8DebugSet6finish17ha035ca227ab8ada3E
ffffff804000e6a0 T _ZN4core3fmt8builders9DebugList21finish_non_exhaustive17h8adae3f69cc02758E
ffffff804000e778 T _ZN4core3fmt8builders9DebugList6finish17hdbab8d6dc94e4a26E
ffffff804000e7c0 T _ZN4core3fmt8builders8DebugMap5entry17hb77db4b5ba3a9538E
ffffff804000e8cc T _ZN4core3fmt8builders8DebugMap3key17h4209cd4bb25b5d82E
ffffff804000ea54 T _ZN4core3fmt8builders8DebugMap5value17h26fa3f95971dec66E
ffffff804000eb50 T _ZN4core3fmt8builders8DebugMap21finish_non_exhaustive17he4a17ed8d38ce548E
ffffff804000ec4c T _ZN4core3fmt8builders8DebugMap6finish17h03ec852f893bc087E
ffffff804000ecd4 t _ZN4core3fmt5float29float_to_decimal_common_exact17h79fe1d4786b1e06fE
ffffff804000effc t _ZN4core3fmt5float29float_to_decimal_common_exact17h90dcb30068f4a320E
ffffff804000f320 t _ZN4core3fmt5float29float_to_decimal_common_exact17hc5ae32e7e52d39f6E
ffffff804000f648 t _ZN4core3fmt5float32float_to_decimal_common_shortest17hce89490f71684e91E
ffffff804000f888 t _ZN4core3fmt5float32float_to_decimal_common_shortest17hf70fa416b72c0591E
ffffff804000fac4 t _ZN4core3fmt5float32float_to_decimal_common_shortest17hf83b0d40e8f55e07E
ffffff804000fd04 t _ZN4core3fmt5float33float_to_exponential_common_exact17h33a3149108fca73eE
ffffff804001004c t _ZN4core3fmt5float33float_to_exponential_common_exact17hdba192387ea1871bE
ffffff8040010394 t _ZN4core3fmt5float33float_to_exponential_common_exact17hde5b8c97f64ca4a6E
ffffff80400106d8 t _ZN4core3fmt5float36float_to_exponential_common_shortest17h20b6330652a74cd9E
ffffff80400109d8 t _ZN4core3fmt5float36float_to_exponential_common_shortest17hc61b39f32ea633e9E
ffffff8040010cd4 t _ZN4core3fmt5float36float_to_exponential_common_shortest17hedfdaddf73f6834aE
ffffff8040010fd4 T _ZN4core3fmt3num53_$LT$impl$u20$core..fmt..Display$u20$for$u20$u128$GT$3fmt17h29ef91d59db0cc7aE
ffffff804001101c T _ZN4core3fmt3num53_$LT$impl$u20$core..fmt..Display$u20$for$u20$i128$GT$3fmt17ha4ebaa0450d055a1E
ffffff8040011080 T _ZN4core3fmt3num22_$LT$impl$u20$u128$GT$4_fmt17h07c8554b886b8299E
ffffff804001152c t _ZN4core3fmt5Write10write_char17h29d168ee4a5e5111E
ffffff804001166c t _ZN4core3fmt5Write10write_char17h81d1c949fac4dde7E
ffffff80400117ac t _ZN4core3fmt5Write10write_char17ha6a6092d36a32344E
ffffff80400118ec t _ZN4core3fmt5Write10write_char17hde5770215ccc2f05E
ffffff8040011a2c t _ZN4core3fmt5Write9write_fmt17h1b1d5b4bfbda85f8E
ffffff8040011a3c t _ZN4core3fmt5Write9write_fmt17h83321c3c4db374c0E
ffffff8040011a4c t _ZN4core3fmt5Write9write_fmt17h9863c9a27c802c62E
ffffff8040011a5c t _ZN4core3fmt5Write9write_fmt17hdbb83a5359dcd5a3E
ffffff8040011a6c t _ZN4core3fmt5Write9write_fmt17he610362c6b33a706E
ffffff8040011a7c T _ZN4core3fmt17FormattingOptions8get_fill17heb2ce51176cdb28dE
ffffff8040011a88 T _ZN57_$LT$core..fmt..Arguments$u20$as$u20$core..fmt..Debug$GT$3fmt17h4f11b546d9d7fb91E
ffffff8040011a98 T _ZN59_$LT$core..fmt..Arguments$u20$as$u20$core..fmt..Display$GT$3fmt17h2f88c2f82cac260fE
ffffff8040011aa8 T _ZN4core3fmt5write17h937f6a04620126d1E
ffffff8040011ccc T _ZN4core3fmt9Formatter12pad_integral17h5f0f893b88f49082E
ffffff804001207c t _ZN4core3fmt9Formatter12pad_integral12write_prefix17hdfd9c763b54fe988E
ffffff8040012100 T _ZN4core3fmt9Formatter3pad17hcb414556739de11eE
ffffff8040012410 t _ZN4core3fmt9Formatter19pad_formatted_parts17hb48159e7c478c0d0E
ffffff804001263c t _ZN4core3fmt9Formatter21write_formatted_parts17hd61c275036af5436E
ffffff804001287c T _ZN4core3fmt9Formatter9write_str17h7e89e346dc1a0a3dE
ffffff804001287c T _ZN57_$LT$core..fmt..Formatter$u20$as$u20$core..fmt..Write$GT$9write_str17h1a5bce4bff077f4eE
ffffff8040012888 T _ZN4core3fmt9Formatter4fill17h593b665ac9e92b26E
ffffff8040012894 T _ZN4core3fmt9Formatter12debug_struct17hea98aea8202911b7E
ffffff80400128c8 T _ZN4core3fmt9Formatter26debug_struct_field1_finish17hd0f3d708dccac391E
ffffff8040012984 T _ZN4core3fmt9Formatter26debug_struct_field2_finish17h2f0e810bda790585E
ffffff8040012a74 T _ZN4core3fmt9Formatter26debug_struct_field3_finish17he403abde01558adbE
ffffff8040012b90 T _ZN4core3fmt9Formatter26debug_struct_field4_finish17h86b7a0496d741e29E
ffffff8040012ccc T _ZN4core3fmt9Formatter26debug_struct_field5_finish17he7384bc368479982E
ffffff8040012e24 T _ZN4core3fmt9Formatter26debug_struct_fields_finish17h3df784f37a8d4f9eE
ffffff8040012f20 T _ZN4core3fmt9Formatter11debug_tuple17h6e5e412271ef4636E
ffffff8040012f60 T _ZN4core3fmt9Formatter25debug_tuple_field1_finish17h5c35e54d3a64a5f3E
ffffff80400130bc T _ZN4core3fmt9Formatter25debug_tuple_field2_finish17h90b09176b44fd914E
ffffff8040013288 T _ZN4core3fmt9Formatter25debug_tuple_field3_finish17hbfaef2c1f8496358E
ffffff8040013500 T _ZN4core3fmt9Formatter25debug_tuple_field4_finish17h06d2ff2d2fdbda5fE
ffffff8040013818 T _ZN4core3fmt9Formatter25debug_tuple_field5_finish17h7c577eca8eefc866E
ffffff8040013bd0 T _ZN4core3fmt9Formatter25debug_tuple_fields_finish17h538e7a1f36425bd9E
ffffff8040013e34 T _ZN4core3fmt9Formatter10debug_list17ha163e63736cc6ecaE
ffffff8040013e74 T _ZN4core3fmt9Formatter9debug_set17h0b0dde610fd56875E
ffffff8040013eb4 T _ZN4core3fmt9Formatter9debug_map17h5245ca9881efcbe2E
ffffff8040013efc T _ZN57_$LT$core..fmt..Formatter$u20$as$u20$core..fmt..Write$GT$10write_char17h19966732c23a6de5E
ffffff8040013f08 T _ZN55_$LT$core..fmt..Error$u20$as$u20$core..fmt..Display$GT$3fmt17h7b31fe9dcfdbf41eE
ffffff8040013f1c T _ZN43_$LT$bool$u20$as$u20$core..fmt..Display$GT$3fmt17h266267a1a57448a8E
ffffff8040013f48 T _ZN40_$LT$str$u20$as$u20$core..fmt..Debug$GT$3fmt17h04cfc72aaf57712dE
ffffff80400142d8 T _ZN42_$LT$str$u20$as$u20$core..fmt..Display$GT$3fmt17hbea66e07534e1bc6E
ffffff80400142ec T _ZN41_$LT$char$u20$as$u20$core..fmt..Debug$GT$3fmt17h303134582caedf5eE
ffffff80400143cc T _ZN43_$LT$char$u20$as$u20$core..fmt..Display$GT$3fmt17h41175eae8ca36814E
ffffff80400144dc T _ZN4core3fmt17pointer_fmt_inner17h7633797b7100b89dE
ffffff8040014598 t _ZN52_$LT$$BP$const$u20$T$u20$as$u20$core..fmt..Debug$GT$3fmt17hadc0b1411991d8edE
ffffff8040014658 T _ZN4core5slice6memchr14memchr_aligned17h85c41674e90bb4d5E
ffffff8040014734 T _ZN4core5slice6memchr7memrchr17h52139f634297d913E
ffffff8040014854 T _ZN4core5slice4sort6stable5drift11sqrt_approx17h71285a4b5423f3baE
ffffff8040014880 T _ZN4core5slice4sort6shared9smallsort22panic_on_ord_violation17h664f9b6324b346feE
ffffff80400148ac T _ZN105_$LT$core..slice..ascii..EscapeAscii$u20$as$u20$core..iter..traits..double_ended..DoubleEndedIterator$GT$9next_back17h1077a110340ffa7cE
ffffff80400149cc T _ZN70_$LT$core..slice..ascii..EscapeAscii$u20$as$u20$core..fmt..Display$GT$3fmt17h0c3c48ee98240408E
ffffff8040014c04 T _ZN68_$LT$core..slice..ascii..EscapeAscii$u20$as$u20$core..fmt..Debug$GT$3fmt17h9d150127175229e7E
ffffff8040014c60 T _ZN4core5slice5index26slice_start_index_len_fail17he0151a275fc9bb38E
ffffff8040014c64 T _ZN4core5slice5index24slice_end_index_len_fail17hdf4eaa801ec50b53E
ffffff8040014c68 T _ZN4core5slice5index22slice_index_order_fail17h8c1f1fcb307def94E
ffffff8040014c6c T _ZN4core5slice5index31slice_start_index_overflow_fail17h266f44476281796eE
ffffff8040014c94 T _ZN4core5slice5index29slice_end_index_overflow_fail17hfcf29d8c4351cff6E
ffffff8040014cbc T _ZN4core5slice5index10into_range17h864ce57d5684f5f3E
ffffff8040014d28 T _ZN4core5slice5index16into_slice_range17hd9e595041e5b5ce9E
ffffff8040014d94 T _ZN4core5slice29_$LT$impl$u20$$u5b$T$u5d$$GT$15copy_from_slice17len_mismatch_fail17h32a65d4019321629E
ffffff8040014da4 T _ZN4core5slice29_$LT$impl$u20$$u5b$T$u5d$$GT$16align_to_offsets3gcd17hed1e22de3538bb75E
ffffff8040014dc8 T _ZN71_$LT$core..slice..GetDisjointMutError$u20$as$u20$core..fmt..Display$GT$3fmt17hf49376261c355796E
ffffff8040014df8 T _ZN4core3str8converts9from_utf817heaf1273a67f6b439E
ffffff8040015068 T _ZN4core3str8converts13from_utf8_mut17h1495ca8270d93260E
ffffff80400152d8 T _ZN4core3str5count14do_count_chars17hb0e7e20f16a05111E
ffffff80400157c4 T _ZN4core3str5count23char_count_general_case17hea5f5e15862e885bE
ffffff8040015a78 T _ZN66_$LT$core..str..error..Utf8Error$u20$as$u20$core..fmt..Display$GT$3fmt17h6339f134f6531655E
ffffff8040015b00 T _ZN71_$LT$core..str..error..ParseBoolError$u20$as$u20$core..fmt..Display$GT$3fmt17h8634bbe5c33723afE
ffffff8040015b14 T _ZN59_$LT$core..str..iter..Chars$u20$as$u20$core..fmt..Debug$GT$3fmt17h7a3d28cfc468c1ceE
ffffff8040016110 T _ZN65_$LT$core..str..iter..EncodeUtf16$u20$as$u20$core..fmt..Debug$GT$3fmt17h73dbc39ec0252393E
ffffff804001616c T _ZN4core3str6traits23str_index_overflow_fail17hc92402bb7093fa80E
ffffff8040016194 T _ZN4core3str7pattern11StrSearcher3new17hbec253f49c558ba2E
ffffff8040016a68 T _ZN60_$LT$core..str..lossy..Debug$u20$as$u20$core..fmt..Debug$GT$3fmt17h17d7d0d3dbe38695E
ffffff8040016dd0 T _ZN87_$LT$core..str..lossy..Utf8Chunks$u20$as$u20$core..iter..traits..iterator..Iterator$GT$4next17h577957f1e642e3a5E
ffffff8040016f90 T _ZN65_$LT$core..str..lossy..Utf8Chunks$u20$as$u20$core..fmt..Debug$GT$3fmt17h4cc463ac34d20362E
ffffff8040017058 T _ZN4core3str16slice_error_fail17h24aa1bcfd03a3ce1E
ffffff804001705c T _ZN4core3str19slice_error_fail_ct17hed5e61587581ad4eE
ffffff8040017084 T _ZN4core3str19slice_error_fail_rt17h5d9ea2ef0a20d94eE
ffffff80400173b8 T _ZN4core3str21_$LT$impl$u20$str$GT$9from_utf817h14300949a8f21f0eE
ffffff80400173bc T _ZN4core3str21_$LT$impl$u20$str$GT$13from_utf8_mut17hb5a42b5405e899a1E
ffffff80400173c0 T _ZN4core3str21_$LT$impl$u20$str$GT$18split_at_unchecked17h8acbd185ba3320d9E
ffffff80400173d4 T _ZN4core3str21_$LT$impl$u20$str$GT$22split_at_mut_unchecked17hfc0c3b4d9ee2e69bE
ffffff80400173e8 T _ZN4core3str21_$LT$impl$u20$str$GT$12escape_debug17hb8ae37af2b91d9b9E
ffffff80400174c8 T _ZN4core3str21_$LT$impl$u20$str$GT$12substr_range17h838fd87ee5a68d57E
ffffff80400174f4 T _ZN57_$LT$core..time..Duration$u20$as$u20$core..fmt..Debug$GT$3fmt17hcb95a60bcd6ef371E
ffffff80400175d8 t _ZN57_$LT$core..time..Duration$u20$as$u20$core..fmt..Debug$GT$3fmt11fmt_decimal17h35d635cb9cb9bc40E
ffffff8040017b34 t _ZN57_$LT$core..time..Duration$u20$as$u20$core..fmt..Debug$GT$3fmt11fmt_decimal28_$u7b$$u7b$closure$u7d$$u7d$17h2ca75b84ccf873e8E
ffffff8040017d4c T _ZN72_$LT$core..time..TryFromFloatSecsError$u20$as$u20$core..fmt..Display$GT$3fmt17h6ee5f1cbf9efdb94E
ffffff8040017d7c T _ZN4core7unicode9printable12is_printable17hde413b9545e8a25dE
ffffff8040018044 T _ZN62_$LT$core..task..wake..Context$u20$as$u20$core..fmt..Debug$GT$3fmt17h80aa4d259d0c4740E
ffffff8040018104 T _ZN60_$LT$core..task..wake..Waker$u20$as$u20$core..fmt..Debug$GT$3fmt17h4a432612eeb40140E
ffffff80400181e4 T _ZN65_$LT$core..task..wake..LocalWaker$u20$as$u20$core..fmt..Debug$GT$3fmt17hbf6859b1115e972bE
ffffff80400182c4 T _ZN4core5alloc6layout6Layout19is_size_align_valid17h204a9cdc9ce1c17eE
ffffff80400182e4 T _ZN71_$LT$core..alloc..layout..LayoutError$u20$as$u20$core..fmt..Display$GT$3fmt17h69c41e8cf0580641E
ffffff8040018300 T _ZN62_$LT$core..alloc..AllocError$u20$as$u20$core..fmt..Display$GT$3fmt17hd7d697a87ed9ca5fE
ffffff804001831c T _ZN4core3f3221_$LT$impl$u20$f32$GT$5clamp8do_panic7runtime17h78185ae190406359E
ffffff8040018364 T _ZN4core3f6421_$LT$impl$u20$f64$GT$5clamp8do_panic7runtime17he34628ae3f4fcf33E
ffffff80400183a8 T _ZN49_$LT$u8$u20$as$u20$core..num..bignum..FullOps$GT$12full_div_rem17h16d9b4db2aae0aa8E
ffffff80400183d8 T _ZN50_$LT$u16$u20$as$u20$core..num..bignum..FullOps$GT$12full_div_rem17h79191acbf50b6398E
ffffff8040018404 T _ZN50_$LT$u32$u20$as$u20$core..num..bignum..FullOps$GT$12full_div_rem17hfef5016afbb443a3E
ffffff8040018430 T _ZN4core3num6bignum8Big32x408from_u6417hf5043f9a3a9594feE
ffffff8040018488 T _ZN4core3num6bignum8Big32x406digits17hdf20896ef744182dE
ffffff80400184ac T _ZN4core3num6bignum8Big32x407get_bit17h42daa4c27bc5f950E
ffffff80400184dc T _ZN4core3num6bignum8Big32x407is_zero17h7a49f1a57f618c85E
ffffff8040018520 T _ZN4core3num6bignum8Big32x4010bit_length17hbcc59e64f20a815cE
ffffff8040018594 T _ZN4core3num6bignum8Big32x403add17h67bc475606a919eeE
ffffff8040018628 T _ZN4core3num6bignum8Big32x409add_small17h8401591598c6ab29E
ffffff8040018a0c T _ZN4core3num6bignum8Big32x403sub17hb8227239444fefe8E
ffffff8040018a94 T _ZN4core3num6bignum8Big32x409mul_small17hbc4ce8bd971a634dE
ffffff8040018b10 T _ZN4core3num6bignum8Big32x408mul_pow217h3044b3edde978561E
ffffff8040018ebc T _ZN4core3num6bignum8Big32x408mul_pow517h98761063ad61bff2E
ffffff804001903c T _ZN4core3num6bignum8Big32x4010mul_digits17h6ad787e64fc368a4E
ffffff80400190fc t _ZN4core3num6bignum8Big32x4010mul_digits9mul_inner17hd1999631a54dde8dE
ffffff8040019280 T _ZN4core3num6bignum8Big32x4013div_rem_small17ha526c8fd50d4745cE
ffffff80400192fc T _ZN4core3num6bignum8Big32x407div_rem17hacf908e137910125E
ffffff8040019560 T _ZN68_$LT$core..num..bignum..Big32x40$u20$as$u20$core..cmp..PartialEq$GT$2eq17h9e1ebc0e263667cbE
ffffff804001957c T _ZN69_$LT$core..num..bignum..Big32x40$u20$as$u20$core..cmp..PartialOrd$GT$11partial_cmp17h4a65a5dfab4ccb18E
ffffff80400195e4 T _ZN62_$LT$core..num..bignum..Big32x40$u20$as$u20$core..cmp..Ord$GT$3cmp17h7338a74ba9837e2bE
ffffff804001964c T _ZN64_$LT$core..num..bignum..Big32x40$u20$as$u20$core..fmt..Debug$GT$3fmt17h9010fb50de2a9200E
ffffff8040019794 T _ZN4core3num6bignum5tests6Big8x38from_u6417hbf6043224d05f9b3E
ffffff804001983c T _ZN4core3num6bignum5tests6Big8x36digits17hfce4f0de63a6eebaE
ffffff8040019864 T _ZN4core3num6bignum5tests6Big8x37get_bit17h723261793d769e6cE
ffffff804001989c T _ZN4core3num6bignum5tests6Big8x37is_zero17h63eaa4f64ee5de5fE
ffffff804001990c T _ZN4core3num6bignum5tests6Big8x310bit_length17h9ac5280e06240799E
ffffff80400199c0 T _ZN4core3num6bignum5tests6Big8x33add17h13d199e5b160a0f3E
ffffff8040019a68 T _ZN4core3num6bignum5tests6Big8x39add_small17h906bcdf13e3c2be7E
ffffff8040019aec T _ZN4core3num6bignum5tests6Big8x33sub17h70b86fa429bc700bE
ffffff8040019b84 T _ZN4core3num6bignum5tests6Big8x39mul_small17hbe20f39958d6683bE
ffffff8040019c20 T _ZN4core3num6bignum5tests6Big8x38mul_pow217hd6d839d4ae60928eE
ffffff8040019e74 T _ZN4core3num6bignum5tests6Big8x38mul_pow517h53fca4cb08aee874E
ffffff8040019fe0 T _ZN4core3num6bignum5tests6Big8x310mul_digits17h27cd9e25b1dd47e7E
ffffff804001a34c T _ZN4core3num6bignum5tests6Big8x313div_rem_small17hd045da9505fa5f47E
ffffff804001a3fc T _ZN4core3num6bignum5tests6Big8x37div_rem17h3845e71db0a61bb3E
ffffff804001a6d4 T _ZN73_$LT$core..num..bignum..tests..Big8x3$u20$as$u20$core..cmp..PartialEq$GT$2eq17hef62feae9cc459e2E
ffffff804001a6f4 T _ZN74_$LT$core..num..bignum..tests..Big8x3$u20$as$u20$core..cmp..PartialOrd$GT$11partial_cmp17h878966c6ed08ee68E
ffffff804001a79c T _ZN67_$LT$core..num..bignum..tests..Big8x3$u20$as$u20$core..cmp..Ord$GT$3cmp17h048593f8ac0ff378E
ffffff804001a844 T _ZN69_$LT$core..num..bignum..tests..Big8x3$u20$as$u20$core..fmt..Debug$GT$3fmt17he0aa076f912fc293E
ffffff804001a97c T _ZN4core3num7dec2flt60_$LT$impl$u20$core..str..traits..FromStr$u20$for$u20$f16$GT$8from_str17he8687fc8b8e07df3E
ffffff804001ae18 T _ZN4core3num7dec2flt60_$LT$impl$u20$core..str..traits..FromStr$u20$for$u20$f32$GT$8from_str17he638adda4d59a291E
ffffff804001b284 T _ZN4core3num7dec2flt60_$LT$impl$u20$core..str..traits..FromStr$u20$for$u20$f64$GT$8from_str17h86b0334b93711db4E
ffffff804001b6c8 t _ZN73_$LT$core..num..nonzero..NonZero$LT$T$GT$$u20$as$u20$core..fmt..Debug$GT$3fmt17h9a91cded506bb271E
ffffff804001b7a4 T _ZN84_$LT$core..num..nonzero..NonZero$LT$u8$GT$$u20$as$u20$core..str..traits..FromStr$GT$8from_str17h7f5bfe01c02efa4aE
ffffff804001b8b0 T _ZN85_$LT$core..num..nonzero..NonZero$LT$u16$GT$$u20$as$u20$core..str..traits..FromStr$GT$8from_str17hc6e93228242286ecE
ffffff804001b9c4 T _ZN85_$LT$core..num..nonzero..NonZero$LT$u32$GT$$u20$as$u20$core..str..traits..FromStr$GT$8from_str17hb5774c82020dcfc7E
ffffff804001bb0c T _ZN85_$LT$core..num..nonzero..NonZero$LT$u64$GT$$u20$as$u20$core..str..traits..FromStr$GT$8from_str17h6f6593c9903ddb94E
ffffff804001bb0c T _ZN87_$LT$core..num..nonzero..NonZero$LT$usize$GT$$u20$as$u20$core..str..traits..FromStr$GT$8from_str17hb5ba07ee8ea1ac74E
ffffff804001bc1c T _ZN86_$LT$core..num..nonzero..NonZero$LT$u128$GT$$u20$as$u20$core..str..traits..FromStr$GT$8from_str17ha1c0d2e884c5cf52E
ffffff804001bd60 T _ZN84_$LT$core..num..nonzero..NonZero$LT$i8$GT$$u20$as$u20$core..str..traits..FromStr$GT$8from_str17h27b349a80a517152E
ffffff804001bf70 T _ZN85_$LT$core..num..nonzero..NonZero$LT$i16$GT$$u20$as$u20$core..str..traits..FromStr$GT$8from_str17ha884fa64533b5ffbE
ffffff804001c178 T _ZN85_$LT$core..num..nonzero..NonZero$LT$i32$GT$$u20$as$u20$core..str..traits..FromStr$GT$8from_str17h9fb1451d283cda17E
ffffff804001c368 T _ZN85_$LT$core..num..nonzero..NonZero$LT$i64$GT$$u20$as$u20$core..str..traits..FromStr$GT$8from_str17he149e67f50e7f599E
ffffff804001c368 T _ZN87_$LT$core..num..nonzero..NonZero$LT$isize$GT$$u20$as$u20$core..str..traits..FromStr$GT$8from_str17hcfab2c7e54292380E
ffffff804001c538 T _ZN86_$LT$core..num..nonzero..NonZero$LT$i128$GT$$u20$as$u20$core..str..traits..FromStr$GT$8from_str17hf3a19aab9773a9d5E
ffffff804001c788 T _ZN72_$LT$core..num..niche_types..Nanoseconds$u20$as$u20$core..fmt..Debug$GT$3fmt17hf2ad668c0e9968cdE
ffffff804001c868 T _ZN75_$LT$core..num..niche_types..NonZeroU8Inner$u20$as$u20$core..fmt..Debug$GT$3fmt17h1a16fe04eebf0a83E
ffffff804001c870 T _ZN76_$LT$core..num..niche_types..NonZeroU16Inner$u20$as$u20$core..fmt..Debug$GT$3fmt17h191e89cc75ebcd63E
ffffff804001c950 T _ZN76_$LT$core..num..niche_types..NonZeroU32Inner$u20$as$u20$core..fmt..Debug$GT$3fmt17h7c5f1635a044bf07E
ffffff804001ca30 T _ZN76_$LT$core..num..niche_types..NonZeroU64Inner$u20$as$u20$core..fmt..Debug$GT$3fmt17h39e10c37aaf28ff1E
ffffff804001ca30 T _ZN78_$LT$core..num..niche_types..NonZeroUsizeInner$u20$as$u20$core..fmt..Debug$GT$3fmt17h2155823c137a6cb0E
ffffff804001cb0c T _ZN77_$LT$core..num..niche_types..NonZeroU128Inner$u20$as$u20$core..fmt..Debug$GT$3fmt17hcc4b587c29524bf2E
ffffff804001cc4c T _ZN75_$LT$core..num..niche_types..NonZeroI8Inner$u20$as$u20$core..fmt..Debug$GT$3fmt17h2d3c12ce880c128cE
ffffff804001cc54 T _ZN76_$LT$core..num..niche_types..NonZeroI16Inner$u20$as$u20$core..fmt..Debug$GT$3fmt17hb2e523c60a7fa4efE
ffffff804001cd34 T _ZN76_$LT$core..num..niche_types..NonZeroI32Inner$u20$as$u20$core..fmt..Debug$GT$3fmt17h447df2a15f14e543E
ffffff804001ce14 T _ZN76_$LT$core..num..niche_types..NonZeroI64Inner$u20$as$u20$core..fmt..Debug$GT$3fmt17h4b522a55dd8ef83bE
ffffff804001ce14 T _ZN78_$LT$core..num..niche_types..NonZeroIsizeInner$u20$as$u20$core..fmt..Debug$GT$3fmt17haabe716e7cde574cE
ffffff804001cef0 T _ZN77_$LT$core..num..niche_types..NonZeroI128Inner$u20$as$u20$core..fmt..Debug$GT$3fmt17ha5e1091e787ae487E
ffffff804001d050 T _ZN77_$LT$core..num..niche_types..NonZeroCharInner$u20$as$u20$core..fmt..Debug$GT$3fmt17hf224008385a7ee05E
ffffff804001d130 T _ZN75_$LT$core..num..niche_types..UsizeNoHighBit$u20$as$u20$core..fmt..Debug$GT$3fmt17h599184386374adfdE
ffffff804001d20c T _ZN74_$LT$core..num..niche_types..U32NotAllOnes$u20$as$u20$core..fmt..Debug$GT$3fmt17hf33b72eab656b4d6E
ffffff804001d2ec T _ZN74_$LT$core..num..niche_types..I32NotAllOnes$u20$as$u20$core..fmt..Debug$GT$3fmt17h752ec3dfb0b4e74cE
ffffff804001d3cc T _ZN74_$LT$core..num..niche_types..U64NotAllOnes$u20$as$u20$core..fmt..Debug$GT$3fmt17h3036338939828f94E
ffffff804001d4a8 T _ZN74_$LT$core..num..niche_types..I64NotAllOnes$u20$as$u20$core..fmt..Debug$GT$3fmt17h7754d4921f85d888E
ffffff804001d584 T _ZN4core3num22from_ascii_radix_panic8do_panic7runtime17h3cd63e454bee2db8E
ffffff804001d5c0 T _ZN4core10intrinsics3mir11PtrMetadata19panic_cold_explicit17h7bbf0be4843b8b2bE
ffffff804001d5c0 T _ZN4core10intrinsics3mir11StorageDead19panic_cold_explicit17hacfcec76c250655dE
ffffff804001d5c0 T _ZN4core10intrinsics3mir11StorageLive19panic_cold_explicit17h58b64f605b72088aE
ffffff804001d5c0 T _ZN4core10intrinsics3mir11Unreachable19panic_cold_explicit17h57448f7047626fd9E
ffffff804001d5c0 T _ZN4core10intrinsics3mir11__debuginfo19panic_cold_explicit17h5a5fd2c5a5ba3a2fE
ffffff804001d5c0 T _ZN4core10intrinsics3mir12CastPtrToPtr19panic_cold_explicit17h63e708bd080852bdE
ffffff804001d5c0 T _ZN4core10intrinsics3mir12CopyForDeref19panic_cold_explicit17h8fe7a2f220955ce5E
ffffff804001d5c0 T _ZN4core10intrinsics3mir12Discriminant19panic_cold_explicit17h38d47887a3c77a5bE
ffffff804001d5c0 T _ZN4core10intrinsics3mir12UnwindResume19panic_cold_explicit17h9fd7f313fa887137E
ffffff804001d5c0 T _ZN4core10intrinsics3mir13CastTransmute19panic_cold_explicit17h6a57ce9fbee91985E
ffffff804001d5c0 T _ZN4core10intrinsics3mir13UnwindCleanup19panic_cold_explicit17h8d713c69ed2af0a8E
ffffff804001d5c0 T _ZN4core10intrinsics3mir14UnwindContinue19panic_cold_explicit17hc98bdc38fdae42afE
ffffff804001d5c0 T _ZN4core10intrinsics3mir15SetDiscriminant19panic_cold_explicit17hd9cf77e43eaad0f2E
ffffff804001d5c0 T _ZN4core10intrinsics3mir15UnwindTerminate19panic_cold_explicit17h361468fa8fa64159E
ffffff804001d5c0 T _ZN4core10intrinsics3mir17UnwindUnreachable19panic_cold_explicit17h9c7258c40af9da5cE
ffffff804001d5c0 T _ZN4core10intrinsics3mir21__internal_make_place19panic_cold_explicit17h737b7dbeffb1ceeaE
ffffff804001d5c0 T _ZN4core10intrinsics3mir3Len19panic_cold_explicit17ha491f5505ef5627eE
ffffff804001d5c0 T _ZN4core10intrinsics3mir4Call19panic_cold_explicit17h29b2ed69edf08090E
ffffff804001d5c0 T _ZN4core10intrinsics3mir4Drop19panic_cold_explicit17hf10044fb92f94381E
ffffff804001d5c0 T _ZN4core10intrinsics3mir4Goto19panic_cold_explicit17h36302ab255a1015bE
ffffff804001d5c0 T _ZN4core10intrinsics3mir4Move19panic_cold_explicit17h5603bcda4a0141f1E
ffffff804001d5c0 T _ZN4core10intrinsics3mir5Field19panic_cold_explicit17h56d8dca85d5f917dE
ffffff804001d5c0 T _ZN4core10intrinsics3mir5Retag19panic_cold_explicit17hdfac2fd919440cecE
ffffff804001d5c0 T _ZN4core10intrinsics3mir6Assume19panic_cold_explicit17h26585dda045fad73E
ffffff804001d5c0 T _ZN4core10intrinsics3mir6Deinit19panic_cold_explicit17h98209523939bb763E
ffffff804001d5c0 T _ZN4core10intrinsics3mir6Offset19panic_cold_explicit17h1406001c9ffb444cE
ffffff804001d5c0 T _ZN4core10intrinsics3mir6Return19panic_cold_explicit17h649fca74d89050c9E
ffffff804001d5c0 T _ZN4core10intrinsics3mir6Static19panic_cold_explicit17h556235d9cd94da42E
ffffff804001d5c0 T _ZN4core10intrinsics3mir7Checked19panic_cold_explicit17h5b59249bfabb61ecE
ffffff804001d5c0 T _ZN4core10intrinsics3mir7Variant19panic_cold_explicit17h1e6b522798be5db0E
ffffff804001d5c0 T _ZN4core10intrinsics3mir8ReturnTo19panic_cold_explicit17h572cfdf01e9c50c4E
ffffff804001d5c0 T _ZN4core10intrinsics3mir8TailCall19panic_cold_explicit17h8109990dece7da98E
ffffff804001d5c0 T _ZN4core10intrinsics3mir9StaticMut19panic_cold_explicit17h5fd6e03eb0011d3eE
ffffff804001d5c4 T _ZN85_$LT$core..marker..variance..PhantomCovariantLifetime$u20$as$u20$core..fmt..Debug$GT$3fmt17ha5ea0b298eb8cf90E
ffffff804001d5e0 T _ZN89_$LT$core..marker..variance..PhantomContravariantLifetime$u20$as$u20$core..fmt..Debug$GT$3fmt17hce3f6baba661006eE
ffffff804001d5fc T _ZN85_$LT$core..marker..variance..PhantomInvariantLifetime$u20$as$u20$core..fmt..Debug$GT$3fmt17h9c6c90d895f2b042E
ffffff804001d618 T _ZN4core4cell22panic_already_borrowed8do_panic7runtime17h8e391475530c2713E
ffffff804001d654 T _ZN4core4cell30panic_already_mutably_borrowed8do_panic7runtime17hd5b5fd16d0f3284eE
ffffff804001d690 T _ZN4core4char7methods15encode_utf8_raw8do_panic7runtime17h8e83dfdeae1b3f9aE
ffffff804001d6f4 T _ZN4core4char7methods16encode_utf16_raw8do_panic7runtime17h4792a02949513c8aE
ffffff804001d758 T _ZN82_$LT$core..char..ToLowercase$u20$as$u20$core..iter..traits..iterator..Iterator$GT$4next17h2fcfc74de6dc3b9bE
ffffff804001d758 T _ZN82_$LT$core..char..ToUppercase$u20$as$u20$core..iter..traits..iterator..Iterator$GT$4next17h29f4cfddd2b95a76E
ffffff804001d784 T _ZN82_$LT$core..char..ToLowercase$u20$as$u20$core..iter..traits..iterator..Iterator$GT$5count17hbc45cf2f10e0fabcE
ffffff804001d784 T _ZN82_$LT$core..char..ToUppercase$u20$as$u20$core..iter..traits..iterator..Iterator$GT$5count17h790fc6631dd4ec99E
ffffff804001d790 T _ZN82_$LT$core..char..ToLowercase$u20$as$u20$core..iter..traits..iterator..Iterator$GT$4last17h1ec3a13fd0d0a638E
ffffff804001d790 T _ZN82_$LT$core..char..ToUppercase$u20$as$u20$core..iter..traits..iterator..Iterator$GT$4last17h3d056825fe3849b1E
ffffff804001d7d0 T _ZN82_$LT$core..char..ToLowercase$u20$as$u20$core..iter..traits..iterator..Iterator$GT$10advance_by17hc637663afda6830eE
ffffff804001d7d0 T _ZN82_$LT$core..char..ToUppercase$u20$as$u20$core..iter..traits..iterator..Iterator$GT$10advance_by17h10d553bb8d2d6abaE
ffffff804001d7f4 T _ZN82_$LT$core..char..ToLowercase$u20$as$u20$core..iter..traits..iterator..Iterator$GT$24__iterator_get_unchecked17ha99d3e3e7fee5d60E
ffffff804001d7f4 T _ZN82_$LT$core..char..ToUppercase$u20$as$u20$core..iter..traits..iterator..Iterator$GT$24__iterator_get_unchecked17h4011dfba7d7e8764E
ffffff804001d808 T _ZN97_$LT$core..char..ToLowercase$u20$as$u20$core..iter..traits..double_ended..DoubleEndedIterator$GT$9next_back17hebf2ef059c0051d8E
ffffff804001d808 T _ZN97_$LT$core..char..ToUppercase$u20$as$u20$core..iter..traits..double_ended..DoubleEndedIterator$GT$9next_back17hb7416ca65e55e653E
ffffff804001d830 T _ZN97_$LT$core..char..ToLowercase$u20$as$u20$core..iter..traits..double_ended..DoubleEndedIterator$GT$15advance_back_by17hbe02af8ea764cd5bE
ffffff804001d830 T _ZN97_$LT$core..char..ToUppercase$u20$as$u20$core..iter..traits..double_ended..DoubleEndedIterator$GT$15advance_back_by17hba0fa11bceb6aeb4E
ffffff804001d858 T _ZN77_$LT$core..net..ip_addr..Ipv4Addr$u20$as$u20$core..ops..bit..BitAndAssign$GT$13bitand_assign17hc26f64c4e09418a3E
ffffff804001d88c T _ZN117_$LT$core..net..ip_addr..Ipv4Addr$u20$as$u20$core..ops..bit..BitAndAssign$LT$$RF$core..net..ip_addr..Ipv4Addr$GT$$GT$13bitand_assign17h99e0919d4caa3e27E
ffffff804001d8c8 T _ZN76_$LT$core..net..ip_addr..Ipv4Addr$u20$as$u20$core..ops..bit..BitOrAssign$GT$12bitor_assign17h19e0605905a29537E
ffffff804001d8fc T _ZN116_$LT$core..net..ip_addr..Ipv4Addr$u20$as$u20$core..ops..bit..BitOrAssign$LT$$RF$core..net..ip_addr..Ipv4Addr$GT$$GT$12bitor_assign17hae82a04157f286c2E
ffffff804001d938 T _ZN77_$LT$core..net..ip_addr..Ipv6Addr$u20$as$u20$core..ops..bit..BitAndAssign$GT$13bitand_assign17hfa5787352514de1cE
ffffff804001d9cc T _ZN117_$LT$core..net..ip_addr..Ipv6Addr$u20$as$u20$core..ops..bit..BitAndAssign$LT$$RF$core..net..ip_addr..Ipv6Addr$GT$$GT$13bitand_assign17h5af867f4e3b7ff94E
ffffff804001d9e0 T _ZN76_$LT$core..net..ip_addr..Ipv6Addr$u20$as$u20$core..ops..bit..BitOrAssign$GT$12bitor_assign17h50411cb0fff70ee4E
ffffff804001da74 T _ZN116_$LT$core..net..ip_addr..Ipv6Addr$u20$as$u20$core..ops..bit..BitOrAssign$LT$$RF$core..net..ip_addr..Ipv6Addr$GT$$GT$12bitor_assign17hf80fbacf432ebd54E
ffffff804001da88 T _ZN4core9panicking11panic_const24panic_const_add_overflow17h3a95c8ba2cbe39deE
ffffff804001dab0 T _ZN4core9panicking11panic_const24panic_const_sub_overflow17hc873bdee3ea2b206E
ffffff804001dad8 T _ZN4core9panicking11panic_const24panic_const_mul_overflow17hc353d4b63cc8a724E
ffffff804001db00 T _ZN4core9panicking11panic_const24panic_const_div_overflow17h59b3cd97eb4fe458E
ffffff804001db28 T _ZN4core9panicking11panic_const24panic_const_rem_overflow17he4866561a7b734cdE
ffffff804001db50 T _ZN4core9panicking11panic_const24panic_const_neg_overflow17hcb5452671e0887feE
ffffff804001db78 T _ZN4core9panicking11panic_const24panic_const_shr_overflow17h79371ebae6ea74bbE
ffffff804001dba0 T _ZN4core9panicking11panic_const24panic_const_shl_overflow17h01f50ddfbd8dd4e8E
ffffff804001dbc8 T _ZN4core9panicking11panic_const23panic_const_div_by_zero17h7d2b7894e20a57e3E
ffffff804001dbf0 T _ZN4core9panicking11panic_const23panic_const_rem_by_zero17h2ec2151a23f893d4E
ffffff804001dc18 T _ZN4core9panicking11panic_const29panic_const_coroutine_resumed17h67cf8e60f9c65d7dE
ffffff804001dc40 T _ZN4core9panicking11panic_const28panic_const_async_fn_resumed17h9f5c6fd353c61f53E
ffffff804001dc68 T _ZN4core9panicking11panic_const32panic_const_async_gen_fn_resumed17h54fdbc81c86173ecE
ffffff804001dc90 T _ZN4core9panicking11panic_const23panic_const_gen_fn_none17h816d91d5de81b1c1E
ffffff804001dcb8 T _ZN4core9panicking11panic_const35panic_const_coroutine_resumed_panic17hc41798b5fc0e5ed8E
ffffff804001dce0 T _ZN4core9panicking11panic_const34panic_const_async_fn_resumed_panic17h374e23ca9e5dda28E
ffffff804001dd08 T _ZN4core9panicking11panic_const38panic_const_async_gen_fn_resumed_panic17h951de74929bb4c49E
ffffff804001dd30 T _ZN4core9panicking11panic_const29panic_const_gen_fn_none_panic17ha3d37a0055b5a291E
ffffff804001dd58 T _ZN4core9panicking11panic_const34panic_const_coroutine_resumed_drop17h9cc13c49716e7715E
ffffff804001dd80 T _ZN4core9panicking11panic_const33panic_const_async_fn_resumed_drop17h051e484b434f0570E
ffffff804001dda8 T _ZN4core9panicking11panic_const37panic_const_async_gen_fn_resumed_drop17hab371c59f75a8cf5E
ffffff804001ddd0 T _ZN4core9panicking11panic_const28panic_const_gen_fn_none_drop17heaf655cc1455498aE
ffffff804001ddf8 T _ZN46_$LT$i8$u20$as$u20$core..pat..RangePattern$GT$7sub_one17hf718ca732226ad7cE
ffffff804001de34 T _ZN47_$LT$i16$u20$as$u20$core..pat..RangePattern$GT$7sub_one17h5942040514959461E
ffffff804001de70 T _ZN47_$LT$i32$u20$as$u20$core..pat..RangePattern$GT$7sub_one17hf38d07884fa51ab7E
ffffff804001dea0 T _ZN47_$LT$i64$u20$as$u20$core..pat..RangePattern$GT$7sub_one17h4ef8f0f7e9863472E
ffffff804001dea0 T _ZN49_$LT$isize$u20$as$u20$core..pat..RangePattern$GT$7sub_one17hc9da2bfc569659c3E
ffffff804001ded0 T _ZN48_$LT$i128$u20$as$u20$core..pat..RangePattern$GT$7sub_one17h789c8c1b8dbec92dE
ffffff804001df10 T _ZN46_$LT$u8$u20$as$u20$core..pat..RangePattern$GT$7sub_one17h68452fe806aeda66E
ffffff804001df44 T _ZN47_$LT$u16$u20$as$u20$core..pat..RangePattern$GT$7sub_one17h47d2eb7a2101cd0aE
ffffff804001df78 T _ZN47_$LT$u32$u20$as$u20$core..pat..RangePattern$GT$7sub_one17h6d13d020814d7415E
ffffff804001dfa8 T _ZN47_$LT$u64$u20$as$u20$core..pat..RangePattern$GT$7sub_one17hec7bbe2b64419acbE
ffffff804001dfa8 T _ZN49_$LT$usize$u20$as$u20$core..pat..RangePattern$GT$7sub_one17h22f1bd8f813627a0E
ffffff804001dfd8 T _ZN48_$LT$u128$u20$as$u20$core..pat..RangePattern$GT$7sub_one17h9f61be225ab40a9bE
ffffff804001e018 T _ZN65_$LT$core..sync..atomic..AtomicI8$u20$as$u20$core..fmt..Debug$GT$3fmt17h43094a139240b9baE
ffffff804001e020 T _ZN65_$LT$core..sync..atomic..AtomicU8$u20$as$u20$core..fmt..Debug$GT$3fmt17hf6407412d8206c1eE
ffffff804001e028 T _ZN66_$LT$core..sync..atomic..AtomicI16$u20$as$u20$core..fmt..Debug$GT$3fmt17h49ef7ab218fb4f68E
ffffff804001e108 T _ZN66_$LT$core..sync..atomic..AtomicU16$u20$as$u20$core..fmt..Debug$GT$3fmt17h13f0f734f4880f49E
ffffff804001e1e8 T _ZN66_$LT$core..sync..atomic..AtomicI32$u20$as$u20$core..fmt..Debug$GT$3fmt17h2d8559e531ffd047E
ffffff804001e2c8 T _ZN66_$LT$core..sync..atomic..AtomicU32$u20$as$u20$core..fmt..Debug$GT$3fmt17h5d7fdacd7406a7a7E
ffffff804001e3a8 T _ZN66_$LT$core..sync..atomic..AtomicI64$u20$as$u20$core..fmt..Debug$GT$3fmt17hcf480157511fa472E
ffffff804001e3a8 T _ZN68_$LT$core..sync..atomic..AtomicIsize$u20$as$u20$core..fmt..Debug$GT$3fmt17h485ef27802f7ac89E
ffffff804001e484 T _ZN66_$LT$core..sync..atomic..AtomicU64$u20$as$u20$core..fmt..Debug$GT$3fmt17h23470765353ffae7E
ffffff804001e484 T _ZN68_$LT$core..sync..atomic..AtomicUsize$u20$as$u20$core..fmt..Debug$GT$3fmt17h57855088c14b9571E
ffffff804001e560 T _ZN55_$LT$f32$u20$as$u20$core..fmt..float..GeneralFormat$GT$44already_rounded_value_should_use_exponential17h5092475a63b6b7feE
ffffff804001e5a0 T _ZN55_$LT$f64$u20$as$u20$core..fmt..float..GeneralFormat$GT$44already_rounded_value_should_use_exponential17h46f5e2e873907ba0E
ffffff804001e5d4 T _ZN4core3fmt5float50_$LT$impl$u20$core..fmt..Debug$u20$for$u20$f32$GT$3fmt17hb8b4fc1b6862417fE
ffffff804001e64c T _ZN4core3fmt5float52_$LT$impl$u20$core..fmt..Display$u20$for$u20$f32$GT$3fmt17h519598e6bbb41326E
ffffff804001e678 T _ZN4core3fmt5float53_$LT$impl$u20$core..fmt..LowerExp$u20$for$u20$f32$GT$3fmt17h849cbe1ca5e45075E
ffffff804001e6b0 T _ZN4core3fmt5float53_$LT$impl$u20$core..fmt..UpperExp$u20$for$u20$f32$GT$3fmt17h1b2f2719b9e04eb6E
ffffff804001e6e8 T _ZN4core3fmt5float50_$LT$impl$u20$core..fmt..Debug$u20$for$u20$f64$GT$3fmt17hd29a90915601ba19E
ffffff804001e758 T _ZN4core3fmt5float52_$LT$impl$u20$core..fmt..Display$u20$for$u20$f64$GT$3fmt17hdd8d1a4343c10890E
ffffff804001e784 T _ZN4core3fmt5float53_$LT$impl$u20$core..fmt..LowerExp$u20$for$u20$f64$GT$3fmt17hc18bf8f7057ade19E
ffffff804001e7bc T _ZN4core3fmt5float53_$LT$impl$u20$core..fmt..UpperExp$u20$for$u20$f64$GT$3fmt17hcf2d401b39855808E
ffffff804001e7f4 T _ZN4core3fmt5float50_$LT$impl$u20$core..fmt..Debug$u20$for$u20$f16$GT$3fmt17h9be2172a7a80b9feE
ffffff804001e878 T _ZN4core3fmt5float52_$LT$impl$u20$core..fmt..Display$u20$for$u20$f16$GT$3fmt17h3164c69d4094b3b6E
ffffff804001e8a4 T _ZN4core3fmt5float53_$LT$impl$u20$core..fmt..LowerExp$u20$for$u20$f16$GT$3fmt17h740cfff13fedbc73E
ffffff804001e8dc T _ZN4core3fmt5float53_$LT$impl$u20$core..fmt..UpperExp$u20$for$u20$f16$GT$3fmt17h655c180106d9d8d9E
ffffff804001e914 T _ZN71_$LT$core..fmt..num..Binary$u20$as$u20$core..fmt..num..GenericRadix$GT$5digit17hb280b2b485f0147bE
ffffff804001e97c T _ZN70_$LT$core..fmt..num..Octal$u20$as$u20$core..fmt..num..GenericRadix$GT$5digit17h2d13da13cd3b6c91E
ffffff804001e9e4 T _ZN73_$LT$core..fmt..num..LowerHex$u20$as$u20$core..fmt..num..GenericRadix$GT$5digit17h9fbda22d46caca41E
ffffff804001ea60 T _ZN73_$LT$core..fmt..num..UpperHex$u20$as$u20$core..fmt..num..GenericRadix$GT$5digit17h958a5ef5c83bdb87E
ffffff804001eadc T _ZN4core3fmt3num50_$LT$impl$u20$core..fmt..Binary$u20$for$u20$i8$GT$3fmt17h483ede89af433637E
ffffff804001eadc T _ZN4core3fmt3num50_$LT$impl$u20$core..fmt..Binary$u20$for$u20$u8$GT$3fmt17h616337c50625a46bE
ffffff804001eb48 T _ZN4core3fmt3num49_$LT$impl$u20$core..fmt..Octal$u20$for$u20$i8$GT$3fmt17hc103ed28031a48bbE
ffffff804001eb48 T _ZN4core3fmt3num49_$LT$impl$u20$core..fmt..Octal$u20$for$u20$u8$GT$3fmt17h0561861dedf0f855E
ffffff804001ebb4 T _ZN4core3fmt3num52_$LT$impl$u20$core..fmt..LowerHex$u20$for$u20$i8$GT$3fmt17h319cde223e9f80adE
ffffff804001ebb4 T _ZN4core3fmt3num52_$LT$impl$u20$core..fmt..LowerHex$u20$for$u20$u8$GT$3fmt17haa56168fdf727774E
ffffff804001ec30 T _ZN4core3fmt3num52_$LT$impl$u20$core..fmt..UpperHex$u20$for$u20$i8$GT$3fmt17h1d9c902371f06cb9E
ffffff804001ec30 T _ZN4core3fmt3num52_$LT$impl$u20$core..fmt..UpperHex$u20$for$u20$u8$GT$3fmt17h591caf4c8c8916eaE
ffffff804001ecac T _ZN4core3fmt3num51_$LT$impl$u20$core..fmt..Binary$u20$for$u20$i16$GT$3fmt17h441e69e1513fdaedE
ffffff804001ecac T _ZN4core3fmt3num51_$LT$impl$u20$core..fmt..Binary$u20$for$u20$u16$GT$3fmt17h6e0483d50d29855aE
ffffff804001ed18 T _ZN4core3fmt3num50_$LT$impl$u20$core..fmt..Octal$u20$for$u20$i16$GT$3fmt17h33d9436435676664E
ffffff804001ed18 T _ZN4core3fmt3num50_$LT$impl$u20$core..fmt..Octal$u20$for$u20$u16$GT$3fmt17hd7e13b60bc3a9ba5E
ffffff804001ed84 T _ZN4core3fmt3num53_$LT$impl$u20$core..fmt..LowerHex$u20$for$u20$i16$GT$3fmt17h2f0460f521babab5E
ffffff804001ed84 T _ZN4core3fmt3num53_$LT$impl$u20$core..fmt..LowerHex$u20$for$u20$u16$GT$3fmt17ha352e9bee0c8ff39E
ffffff804001ee00 T _ZN4core3fmt3num53_$LT$impl$u20$core..fmt..UpperHex$u20$for$u20$i16$GT$3fmt17h2858768ad0311073E
ffffff804001ee00 T _ZN4core3fmt3num53_$LT$impl$u20$core..fmt..UpperHex$u20$for$u20$u16$GT$3fmt17h76ef8b92a9c9cb7cE
ffffff804001ee7c T _ZN4core3fmt3num51_$LT$impl$u20$core..fmt..Binary$u20$for$u20$i32$GT$3fmt17h9639ca40e1de7e04E
ffffff804001ee7c T _ZN4core3fmt3num51_$LT$impl$u20$core..fmt..Binary$u20$for$u20$u32$GT$3fmt17h800e5d261263dcf6E
ffffff804001eee8 T _ZN4core3fmt3num50_$LT$impl$u20$core..fmt..Octal$u20$for$u20$i32$GT$3fmt17h29145aa7ac900565E
ffffff804001eee8 T _ZN4core3fmt3num50_$LT$impl$u20$core..fmt..Octal$u20$for$u20$u32$GT$3fmt17hd251b2515800dae2E
ffffff804001ef54 T _ZN4core3fmt3num53_$LT$impl$u20$core..fmt..LowerHex$u20$for$u20$i32$GT$3fmt17hb11aa65a71fc8c53E
ffffff804001ef54 T _ZN4core3fmt3num53_$LT$impl$u20$core..fmt..LowerHex$u20$for$u20$u32$GT$3fmt17h6760f3b6f0a0b0dbE
ffffff804001efd0 T _ZN4core3fmt3num53_$LT$impl$u20$core..fmt..UpperHex$u20$for$u20$i32$GT$3fmt17h7b0a4690284af691E
ffffff804001efd0 T _ZN4core3fmt3num53_$LT$impl$u20$core..fmt..UpperHex$u20$for$u20$u32$GT$3fmt17h5fc94cafe3843626E
ffffff804001f04c T _ZN4core3fmt3num51_$LT$impl$u20$core..fmt..Binary$u20$for$u20$i64$GT$3fmt17h63173a48486873afE
ffffff804001f04c T _ZN4core3fmt3num51_$LT$impl$u20$core..fmt..Binary$u20$for$u20$u64$GT$3fmt17ha7dfb19817bfa725E
ffffff804001f04c T _ZN4core3fmt3num53_$LT$impl$u20$core..fmt..Binary$u20$for$u20$isize$GT$3fmt17hebc26da16e87ade5E
ffffff804001f04c T _ZN4core3fmt3num53_$LT$impl$u20$core..fmt..Binary$u20$for$u20$usize$GT$3fmt17h82e62d6c4ccefc3aE
ffffff804001f0b8 T _ZN4core3fmt3num50_$LT$impl$u20$core..fmt..Octal$u20$for$u20$i64$GT$3fmt17h90d8635d25ffa8bfE
ffffff804001f0b8 T _ZN4core3fmt3num50_$LT$impl$u20$core..fmt..Octal$u20$for$u20$u64$GT$3fmt17hbfb7e9c2d8a662cbE
ffffff804001f0b8 T _ZN4core3fmt3num52_$LT$impl$u20$core..fmt..Octal$u20$for$u20$isize$GT$3fmt17h356a817714333826E
ffffff804001f0b8 T _ZN4core3fmt3num52_$LT$impl$u20$core..fmt..Octal$u20$for$u20$usize$GT$3fmt17he54d6ba721e474b5E
ffffff804001f124 T _ZN4core3fmt3num53_$LT$impl$u20$core..fmt..LowerHex$u20$for$u20$i64$GT$3fmt17hb37a783f8afff6b7E
ffffff804001f124 T _ZN4core3fmt3num53_$LT$impl$u20$core..fmt..LowerHex$u20$for$u20$u64$GT$3fmt17ha732cb8a0af18d5bE
ffffff804001f124 T _ZN4core3fmt3num55_$LT$impl$u20$core..fmt..LowerHex$u20$for$u20$isize$GT$3fmt17h8f7a80efc1252b27E
ffffff804001f124 T _ZN4core3fmt3num55_$LT$impl$u20$core..fmt..LowerHex$u20$for$u20$usize$GT$3fmt17he1171bbf31db72e6E
ffffff804001f1a0 T _ZN4core3fmt3num53_$LT$impl$u20$core..fmt..UpperHex$u20$for$u20$i64$GT$3fmt17hda3913d94e23bd81E
ffffff804001f1a0 T _ZN4core3fmt3num53_$LT$impl$u20$core..fmt..UpperHex$u20$for$u20$u64$GT$3fmt17h65c84b9591bbebcfE
ffffff804001f1a0 T _ZN4core3fmt3num55_$LT$impl$u20$core..fmt..UpperHex$u20$for$u20$isize$GT$3fmt17h86928bd871c09844E
ffffff804001f1a0 T _ZN4core3fmt3num55_$LT$impl$u20$core..fmt..UpperHex$u20$for$u20$usize$GT$3fmt17he4b0054faa5af10eE
ffffff804001f21c T _ZN4core3fmt3num52_$LT$impl$u20$core..fmt..Binary$u20$for$u20$i128$GT$3fmt17h7fd94b4e1d0f9c07E
ffffff804001f21c T _ZN4core3fmt3num52_$LT$impl$u20$core..fmt..Binary$u20$for$u20$u128$GT$3fmt17haee02eb3dbffedb4E
ffffff804001f2ac T _ZN4core3fmt3num51_$LT$impl$u20$core..fmt..Octal$u20$for$u20$i128$GT$3fmt17h7aa157815e6ac88fE
ffffff804001f2ac T _ZN4core3fmt3num51_$LT$impl$u20$core..fmt..Octal$u20$for$u20$u128$GT$3fmt17ha2cc69c124532085E
ffffff804001f33c T _ZN4core3fmt3num54_$LT$impl$u20$core..fmt..LowerHex$u20$for$u20$i128$GT$3fmt17he7b5decaf6a13e18E
ffffff804001f33c T _ZN4core3fmt3num54_$LT$impl$u20$core..fmt..LowerHex$u20$for$u20$u128$GT$3fmt17hf3db1fa071a61bebE
ffffff804001f3dc T _ZN4core3fmt3num54_$LT$impl$u20$core..fmt..UpperHex$u20$for$u20$i128$GT$3fmt17h3ebb96d6fcc66726E
ffffff804001f3dc T _ZN4core3fmt3num54_$LT$impl$u20$core..fmt..UpperHex$u20$for$u20$u128$GT$3fmt17h91fd59fa7c168355E
ffffff804001f47c t _ZN4core3fmt3num49_$LT$impl$u20$core..fmt..Debug$u20$for$u20$i8$GT$3fmt17h04367830fe2de6ccE
ffffff804001f5fc t _ZN4core3fmt3num49_$LT$impl$u20$core..fmt..Debug$u20$for$u20$u8$GT$3fmt17h7310ebb83fd76b84E
ffffff804001f764 t _ZN4core3fmt3num50_$LT$impl$u20$core..fmt..Debug$u20$for$u20$u32$GT$3fmt17h75a6ca236b9e910fE
ffffff804001f83c t _ZN4core3fmt3num52_$LT$impl$u20$core..fmt..Debug$u20$for$u20$usize$GT$3fmt17h28296464ae1f5e11E
ffffff804001f914 T _ZN4core3fmt3num3imp51_$LT$impl$u20$core..fmt..Display$u20$for$u20$u8$GT$3fmt17hc0f6e25fabfb6ad4E
ffffff804001f9ac T _ZN4core3fmt3num3imp51_$LT$impl$u20$core..fmt..Display$u20$for$u20$i8$GT$3fmt17h4bc21505c5d01c0eE
ffffff804001fa60 T _ZN4core3fmt3num3imp20_$LT$impl$u20$u8$GT$4_fmt17h508525c4ab2c64e7E
ffffff804001fae4 T _ZN4core3fmt3num3imp52_$LT$impl$u20$core..fmt..Display$u20$for$u20$u16$GT$3fmt17hcb9431fc7a71de29E
ffffff804001fbd8 T _ZN4core3fmt3num3imp52_$LT$impl$u20$core..fmt..Display$u20$for$u20$i16$GT$3fmt17h7c9763723fff64f6E
ffffff804001fce4 T _ZN4core3fmt3num3imp21_$LT$impl$u20$u16$GT$4_fmt17hbe219353493890c9E
ffffff804001fde0 T _ZN4core3fmt3num3imp52_$LT$impl$u20$core..fmt..Display$u20$for$u20$u32$GT$3fmt17hcc455e50e2f0a290E
ffffff804001ff08 T _ZN4core3fmt3num3imp52_$LT$impl$u20$core..fmt..Display$u20$for$u20$i32$GT$3fmt17hc14210af653222ffE
ffffff804002003c T _ZN4core3fmt3num3imp21_$LT$impl$u20$u32$GT$4_fmt17h0600b8fd06c591f8E
ffffff8040020144 T _ZN4core3fmt3num3imp52_$LT$impl$u20$core..fmt..Display$u20$for$u20$u64$GT$3fmt17h416dde9b4b375285E
ffffff8040020144 T _ZN4core3fmt3num3imp54_$LT$impl$u20$core..fmt..Display$u20$for$u20$usize$GT$3fmt17h68e87c043eaa76e7E
ffffff8040020278 T _ZN4core3fmt3num3imp52_$LT$impl$u20$core..fmt..Display$u20$for$u20$i64$GT$3fmt17habb7e7d25cf14dffE
ffffff8040020278 T _ZN4core3fmt3num3imp54_$LT$impl$u20$core..fmt..Display$u20$for$u20$isize$GT$3fmt17h2565ba264353d641E
ffffff80400203b4 T _ZN4core3fmt3num3imp21_$LT$impl$u20$u64$GT$4_fmt17h0cb10e4a46b0e6b3E
ffffff80400203b4 T _ZN4core3fmt3num3imp23_$LT$impl$u20$usize$GT$4_fmt17h7d795591828e2034E
ffffff80400204c4 t _ZN4core3fmt3num3imp7exp_u6417heb943cdc4b945880E
ffffff8040020930 T _ZN4core3fmt3num3imp52_$LT$impl$u20$core..fmt..LowerExp$u20$for$u20$i8$GT$3fmt17heda7c089b1f02fbaE
ffffff8040020950 T _ZN4core3fmt3num3imp52_$LT$impl$u20$core..fmt..LowerExp$u20$for$u20$u8$GT$3fmt17hfa2b76341bb50e3eE
ffffff8040020964 T _ZN4core3fmt3num3imp53_$LT$impl$u20$core..fmt..LowerExp$u20$for$u20$i16$GT$3fmt17haa8528cf72f9f3a6E
ffffff8040020984 T _ZN4core3fmt3num3imp53_$LT$impl$u20$core..fmt..LowerExp$u20$for$u20$u16$GT$3fmt17h54c79527c47c0cfeE
ffffff8040020998 T _ZN4core3fmt3num3imp53_$LT$impl$u20$core..fmt..LowerExp$u20$for$u20$i32$GT$3fmt17h158ee122974e8ac9E
ffffff80400209bc T _ZN4core3fmt3num3imp53_$LT$impl$u20$core..fmt..LowerExp$u20$for$u20$u32$GT$3fmt17hcf7cbc798017c6eeE
ffffff80400209d0 T _ZN4core3fmt3num3imp53_$LT$impl$u20$core..fmt..LowerExp$u20$for$u20$i64$GT$3fmt17h4b9ce8c5ade435caE
ffffff80400209d0 T _ZN4core3fmt3num3imp55_$LT$impl$u20$core..fmt..LowerExp$u20$for$u20$isize$GT$3fmt17hc416947ca1e829f3E
ffffff80400209f0 T _ZN4core3fmt3num3imp53_$LT$impl$u20$core..fmt..LowerExp$u20$for$u20$u64$GT$3fmt17h757e7b2f9333cb54E
ffffff80400209f0 T _ZN4core3fmt3num3imp55_$LT$impl$u20$core..fmt..LowerExp$u20$for$u20$usize$GT$3fmt17hc99d287e09546511E
ffffff8040020a04 T _ZN4core3fmt3num3imp52_$LT$impl$u20$core..fmt..UpperExp$u20$for$u20$i8$GT$3fmt17haa451ca54a0c8bf3E
ffffff8040020a24 T _ZN4core3fmt3num3imp52_$LT$impl$u20$core..fmt..UpperExp$u20$for$u20$u8$GT$3fmt17hc054d2b0ece48210E
ffffff8040020a38 T _ZN4core3fmt3num3imp53_$LT$impl$u20$core..fmt..UpperExp$u20$for$u20$i16$GT$3fmt17h6301e65221cd4659E
ffffff8040020a58 T _ZN4core3fmt3num3imp53_$LT$impl$u20$core..fmt..UpperExp$u20$for$u20$u16$GT$3fmt17hd031f4cb91cc3c90E
ffffff8040020a6c T _ZN4core3fmt3num3imp53_$LT$impl$u20$core..fmt..UpperExp$u20$for$u20$i32$GT$3fmt17h19fb34be014ca386E
ffffff8040020a90 T _ZN4core3fmt3num3imp53_$LT$impl$u20$core..fmt..UpperExp$u20$for$u20$u32$GT$3fmt17h0a26b2bb83dbea50E
ffffff8040020aa4 T _ZN4core3fmt3num3imp53_$LT$impl$u20$core..fmt..UpperExp$u20$for$u20$i64$GT$3fmt17h1cce852f39412c10E
ffffff8040020aa4 T _ZN4core3fmt3num3imp55_$LT$impl$u20$core..fmt..UpperExp$u20$for$u20$isize$GT$3fmt17he5930e04a668d4c0E
ffffff8040020ac4 T _ZN4core3fmt3num3imp53_$LT$impl$u20$core..fmt..UpperExp$u20$for$u20$u64$GT$3fmt17he67922017a6b7531E
ffffff8040020ac4 T _ZN4core3fmt3num3imp55_$LT$impl$u20$core..fmt..UpperExp$u20$for$u20$usize$GT$3fmt17h53274cda6edef90bE
ffffff8040020ad8 t _ZN4core3fmt3num8exp_u12817h5653cff10583a892E
ffffff8040021300 T _ZN4core3fmt3num54_$LT$impl$u20$core..fmt..LowerExp$u20$for$u20$i128$GT$3fmt17h38fa7131bd44e67cE
ffffff804002132c T _ZN4core3fmt3num54_$LT$impl$u20$core..fmt..LowerExp$u20$for$u20$u128$GT$3fmt17h62d67a12ea057890E
ffffff8040021344 T _ZN4core3fmt3num54_$LT$impl$u20$core..fmt..UpperExp$u20$for$u20$i128$GT$3fmt17hae24501444972bd3E
ffffff8040021370 T _ZN4core3fmt3num54_$LT$impl$u20$core..fmt..UpperExp$u20$for$u20$u128$GT$3fmt17h6893052d44e92052E
ffffff8040021388 t _ZN53_$LT$core..fmt..Error$u20$as$u20$core..fmt..Debug$GT$3fmt17h82148d4613a66ac9E
ffffff80400213a4 t _ZN42_$LT$$RF$T$u20$as$u20$core..fmt..Debug$GT$3fmt17h2ab3267901bbadb2E
ffffff80400213b8 t _ZN42_$LT$$RF$T$u20$as$u20$core..fmt..Debug$GT$3fmt17h3b3b4ecfa003fd46E
ffffff80400213c0 t _ZN42_$LT$$RF$T$u20$as$u20$core..fmt..Debug$GT$3fmt17h7d45265096214c90E
ffffff804002149c t _ZN42_$LT$$RF$T$u20$as$u20$core..fmt..Debug$GT$3fmt17hd4c234104155b0d1E
ffffff80400214a8 t _ZN44_$LT$$RF$T$u20$as$u20$core..fmt..Display$GT$3fmt17h31bb6668c06f4526E
ffffff80400214b0 t _ZN44_$LT$$RF$T$u20$as$u20$core..fmt..Display$GT$3fmt17h6108937da463fa57E
ffffff80400214c0 t _ZN44_$LT$$RF$T$u20$as$u20$core..fmt..Display$GT$3fmt17h83e3b2e1394f6d48E
ffffff80400214c8 t _ZN44_$LT$$RF$T$u20$as$u20$core..fmt..Display$GT$3fmt17he9de16b21c86c5a7E
ffffff80400214d0 t _ZN45_$LT$$RF$T$u20$as$u20$core..fmt..LowerHex$GT$3fmt17he245862c6db33184E
ffffff8040021550 T _ZN4core5slice5index26slice_start_index_len_fail8do_panic7runtime17hf5d07aebdf6f0815E
ffffff8040021594 T _ZN4core5slice5index24slice_end_index_len_fail8do_panic7runtime17h22286a0cc5a90d24E
ffffff80400215d8 T _ZN4core5slice5index22slice_index_order_fail8do_panic7runtime17h5475cad574eff0d9E
ffffff804002161c T _ZN4core5slice29_$LT$impl$u20$$u5b$T$u5d$$GT$15copy_from_slice17len_mismatch_fail8do_panic7runtime17h9d4875b42f30caefE
ffffff8040021664 T _ZN67_$LT$core..str..iter..EscapeDebug$u20$as$u20$core..fmt..Display$GT$3fmt17h351cdc3f7e0b939dE
ffffff8040021e0c T _ZN69_$LT$core..str..iter..EscapeDefault$u20$as$u20$core..fmt..Display$GT$3fmt17hc587612ea3dd75ecE
ffffff804002228c T _ZN69_$LT$core..str..iter..EscapeUnicode$u20$as$u20$core..fmt..Display$GT$3fmt17hf16574d8f72a21dcE
ffffff80400225d0 T _ZN4core7unicode12unicode_data10alphabetic6lookup17hb356d0d27c15a9b1E
ffffff80400226d4 T _ZN4core7unicode12unicode_data14case_ignorable6lookup17h26336c5a58de0b01E
ffffff80400227e0 T _ZN4core7unicode12unicode_data5cased6lookup17hdab91e40a0074c57E
ffffff80400228d4 T _ZN4core7unicode12unicode_data2cc6lookup17hcca79ca65b7416d5E
ffffff80400228ec T _ZN4core7unicode12unicode_data15grapheme_extend11lookup_slow17h79b1a941fefb836aE
ffffff80400229f4 T _ZN4core7unicode12unicode_data9lowercase6lookup17hbc7513b69c627496E
ffffff8040022b00 T _ZN4core7unicode12unicode_data1n6lookup17h1b240732a6d53e6cE
ffffff8040022c0c T _ZN4core7unicode12unicode_data9uppercase6lookup17h3dc4669a483b48c8E
ffffff8040022d18 T _ZN4core7unicode12unicode_data11conversions8to_lower17h8aa5578af8075f37E
ffffff8040022e94 T _ZN4core7unicode12unicode_data11conversions8to_upper17hd0dc5f9a4be0f6eeE
ffffff804002302c t OUTLINED_FUNCTION_0
ffffff8040023044 t OUTLINED_FUNCTION_1
ffffff8040023054 t _ZN17compiler_builtins5float3add3add17h69336246fd60fa8bE
ffffff8040023444 t _ZN17compiler_builtins5float4conv12int_to_float16u32_to_f128_bits17h371c86eae178d4d2E
ffffff8040023484 t _ZN17compiler_builtins5float4conv12int_to_float16u64_to_f128_bits17hbb4d46f0b2145aa2E
ffffff80400234cc t _ZN17compiler_builtins5float4conv12int_to_float17u128_to_f128_bits17h78c91944301507d0E
ffffff8040023550 t _ZN84_$LT$compiler_builtins..int..big..u256$u20$as$u20$core..ops..bit..Shr$LT$u32$GT$$GT$3shr17h4102d957c237dd63E
ffffff8040023664 t _ZN17compiler_builtins3int3big71_$LT$impl$u20$compiler_builtins..int..traits..HInt$u20$for$u20$i128$GT$14zero_widen_mul17hefd58c1c9557d7b6E
ffffff8040023664 t _ZN17compiler_builtins3int3big71_$LT$impl$u20$compiler_builtins..int..traits..HInt$u20$for$u20$u128$GT$14zero_widen_mul17h10c7c15109e5c262E
ffffff8040023664 t _ZN17compiler_builtins3int3big71_$LT$impl$u20$compiler_builtins..int..traits..HInt$u20$for$u20$u128$GT$9widen_mul17hd6daad7672ad85adE
ffffff804002375c t _ZN17compiler_builtins3int3big71_$LT$impl$u20$compiler_builtins..int..traits..HInt$u20$for$u20$i128$GT$9widen_mul17h4022a5d4b796ab1eE
ffffff8040023760 t _ZN17compiler_builtins3int3big71_$LT$impl$u20$compiler_builtins..int..traits..HInt$u20$for$u20$i128$GT$8widen_hi17hee6e36d69ae9726eE
ffffff8040023760 t _ZN17compiler_builtins3int3big71_$LT$impl$u20$compiler_builtins..int..traits..HInt$u20$for$u20$u128$GT$8widen_hi17hd76f109268093e89E
ffffff8040023764 t _ZN90_$LT$compiler_builtins..int..big..i256$u20$as$u20$compiler_builtins..int..traits..DInt$GT$2lo17hd59f6ad130dde978E
ffffff8040023764 t _ZN90_$LT$compiler_builtins..int..big..u256$u20$as$u20$compiler_builtins..int..traits..DInt$GT$2lo17h3072870251ecc609E
ffffff8040023770 t _ZN90_$LT$compiler_builtins..int..big..i256$u20$as$u20$compiler_builtins..int..traits..DInt$GT$2hi17h01f7c7074f09fcb7E
ffffff8040023770 t _ZN90_$LT$compiler_builtins..int..big..u256$u20$as$u20$compiler_builtins..int..traits..DInt$GT$2hi17hd4b5a068833b9c58E
ffffff804002377c t _ZN17compiler_builtins5float3add8__addsf317h68859da614e784e6E
ffffff80400239b0 t __addsf3
ffffff80400239b4 t _ZN17compiler_builtins5float3add8__adddf317heba3db47f2e306faE
ffffff8040023bf0 t __adddf3
ffffff8040023bf4 t __addtf3
ffffff8040023bf8 t _ZN17compiler_builtins5float3cmp7__gesf217h00652c0e1e67742eE
ffffff8040023bf8 t _ZN17compiler_builtins5float3cmp7__gtsf217hb40d17077e49eabcE
ffffff8040023c54 t __gesf2
ffffff8040023c54 t __gtsf2
ffffff8040023cb0 t _ZN17compiler_builtins5float3cmp10__unordsf217h290dd5dd313edf4eE
ffffff8040023cd4 t __unordsf2
ffffff8040023cf8 t _ZN17compiler_builtins5float3cmp7__eqsf217h7faebce720790566E
ffffff8040023cf8 t _ZN17compiler_builtins5float3cmp7__lesf217h6cd96d6f45866f05E
ffffff8040023cf8 t _ZN17compiler_builtins5float3cmp7__ltsf217h915290b67e9c46b9E
ffffff8040023cf8 t _ZN17compiler_builtins5float3cmp7__nesf217h94f79362df06fe21E
ffffff8040023d60 t __eqsf2
ffffff8040023d60 t __lesf2
ffffff8040023d60 t __ltsf2
ffffff8040023d60 t __nesf2
ffffff8040023dc8 t _ZN17compiler_builtins5float3cmp7__gedf217h51c0bff9e8ba1bdeE
ffffff8040023dc8 t _ZN17compiler_builtins5float3cmp7__gtdf217h24ac1dd7151c9171E
ffffff8040023e24 t __gedf2
ffffff8040023e24 t __gtdf2
ffffff8040023e80 t _ZN17compiler_builtins5float3cmp10__unorddf217ha4f2b86032e1d7d3E
ffffff8040023ea4 t __unorddf2
ffffff8040023ec8 t _ZN17compiler_builtins5float3cmp7__eqdf217h0785a0def33fcd84E
ffffff8040023ec8 t _ZN17compiler_builtins5float3cmp7__ledf217h755df67e14a018e3E
ffffff8040023ec8 t _ZN17compiler_builtins5float3cmp7__ltdf217h5a3677ade6c23418E
ffffff8040023ec8 t _ZN17compiler_builtins5float3cmp7__nedf217h50cb60250295fbbcE
ffffff8040023f30 t __eqdf2
ffffff8040023f30 t __ledf2
ffffff8040023f30 t __ltdf2
ffffff8040023f30 t __nedf2
ffffff8040023f98 t __getf2
ffffff8040023f98 t __gttf2
ffffff8040024020 t __unordtf2
ffffff8040024068 t __eqtf2
ffffff8040024068 t __letf2
ffffff8040024068 t __lttf2
ffffff8040024068 t __netf2
ffffff8040024104 t _ZN17compiler_builtins5float4conv13__floatunsisf17hd3a70c54fd3a34ffE
ffffff8040024144 t __floatunsisf
ffffff8040024184 t _ZN17compiler_builtins5float4conv13__floatunsidf17hd62595b367374869E
ffffff80400241bc t __floatunsidf
ffffff80400241f4 t _ZN17compiler_builtins5float4conv13__floatundisf17h22442f766e06c477E
ffffff8040024238 t __floatundisf
ffffff804002427c t _ZN17compiler_builtins5float4conv13__floatundidf17h8def1f3e2cb2d861E
ffffff80400242bc t __floatundidf
ffffff80400242fc t _ZN17compiler_builtins5float4conv13__floatuntisf17h94ef4c6376f50056E
ffffff8040024384 t __floatuntisf
ffffff804002440c t _ZN17compiler_builtins5float4conv13__floatuntidf17he7fbf971a3251939E
ffffff8040024488 t __floatuntidf
ffffff8040024504 t __floatunsitf
ffffff8040024544 t __floatunditf
ffffff8040024598 t __floatuntitf
ffffff8040024624 t _ZN17compiler_builtins5float4conv11__floatsisf17h28241ede67fb748aE
ffffff804002467c t __floatsisf
ffffff80400246d4 t _ZN17compiler_builtins5float4conv11__floatsidf17he0042ad3cc01795aE
ffffff8040024720 t __floatsidf
ffffff804002476c t _ZN17compiler_builtins5float4conv11__floatdisf17h1621c787ed3d5910E
ffffff80400247c4 t __floatdisf
ffffff804002481c t _ZN17compiler_builtins5float4conv11__floatdidf17h93225d23eaa25e2aE
ffffff8040024874 t __floatdidf
ffffff80400248cc t _ZN17compiler_builtins5float4conv11__floattisf17ha70883b857463dcfE
ffffff8040024970 t __floattisf
ffffff8040024a14 t _ZN17compiler_builtins5float4conv11__floattidf17h56e7f0e21c44fed5E
ffffff8040024aa8 t __floattidf
ffffff8040024b3c t __floatsitf
ffffff8040024b94 t __floatditf
ffffff8040024c00 t __floattitf
ffffff8040024cac t _ZN17compiler_builtins5float4conv12__fixunssfsi17h5674e933272cfffeE
ffffff8040024cf8 t __fixunssfsi
ffffff8040024d44 t _ZN17compiler_builtins5float4conv12__fixunssfdi17h1a98b7a69aaa0a24E
ffffff8040024d90 t __fixunssfdi
ffffff8040024ddc t _ZN17compiler_builtins5float4conv12__fixunssfti17he027998c067f2a16E
ffffff8040024e44 t __fixunssfti
ffffff8040024eac t _ZN17compiler_builtins5float4conv12__fixunsdfsi17h7df3d5a33e68b50aE
ffffff8040024ef8 t __fixunsdfsi
ffffff8040024f44 t _ZN17compiler_builtins5float4conv12__fixunsdfdi17h04502261bc44edabE
ffffff8040024f90 t __fixunsdfdi
ffffff8040024fdc t _ZN17compiler_builtins5float4conv12__fixunsdfti17h0438550098390ea1E
ffffff8040025048 t __fixunsdfti
ffffff80400250b4 t __fixunstfsi
ffffff8040025118 t __fixunstfdi
ffffff804002517c t __fixunstfti
ffffff8040025210 t _ZN17compiler_builtins5float4conv9__fixsfsi17h9ca421eac9f99882E
ffffff8040025274 t __fixsfsi
ffffff80400252d8 t _ZN17compiler_builtins5float4conv9__fixsfdi17h3bc49095534ee939E
ffffff804002533c t __fixsfdi
ffffff80400253a0 t _ZN17compiler_builtins5float4conv9__fixsfti17ha312d0c91f1b64cfE
ffffff8040025430 t __fixsfti
ffffff80400254c0 t _ZN17compiler_builtins5float4conv9__fixdfsi17h6064cd37a5ca5f09E
ffffff8040025528 t __fixdfsi
ffffff8040025590 t _ZN17compiler_builtins5float4conv9__fixdfdi17h2407f07f8b453105E
ffffff80400255f4 t __fixdfdi
ffffff8040025658 t _ZN17compiler_builtins5float4conv9__fixdfti17h662e56b5da4f51a3E
ffffff80400256ec t __fixdfti
ffffff8040025780 t __fixtfsi
ffffff80400257fc t __fixtfdi
ffffff8040025874 t __fixtfti
ffffff8040025928 t _ZN17compiler_builtins5float3div8__divsf317h0e60df5dd4f58b24E
ffffff8040025b30 t __divsf3
ffffff8040025b34 t _ZN17compiler_builtins5float3div8__divdf317h58efc4ff08b224e9E
ffffff8040025d6c t __divdf3
ffffff8040025d70 t __divtf3
ffffff8040026394 t _ZN17compiler_builtins5float6extend13__extendsfdf217h7e24c3830b41b71dE
ffffff8040026428 t __extendsfdf2
ffffff80400264bc t __extendhfsf2
ffffff80400264bc t __gnu_h2f_ieee
ffffff8040026550 t __extendhfdf2
ffffff804002660c t __extendhftf2
ffffff80400266dc t __extendsftf2
ffffff80400267a8 t __extenddftf2
ffffff8040026880 t _ZN17compiler_builtins5float3mul8__mulsf317h079d9bb665be58b2E
ffffff8040026a30 t __mulsf3
ffffff8040026a34 t _ZN17compiler_builtins5float3mul8__muldf317h5f04bf225156b740E
ffffff8040026be0 t __muldf3
ffffff8040026be4 t __multf3
ffffff80400270b0 t _ZN17compiler_builtins5float3pow9__powisf217h9456c97d4a1b064aE
ffffff80400270fc t __powisf2
ffffff8040027148 t _ZN17compiler_builtins5float3pow9__powidf217h4deac59eaf1bbad9E
ffffff8040027194 t __powidf2
ffffff80400271e0 t __powitf2
ffffff8040027294 t _ZN17compiler_builtins5float3sub8__subsf317he73c8e8ed1c3f62fE
ffffff804002729c t __subsf3
ffffff80400272a4 t _ZN17compiler_builtins5float3sub8__subdf317h04b722edc2ff1fc6E
ffffff80400272ac t __subdf3
ffffff80400272b4 t __subtf3
ffffff80400272cc t _ZN63_$LT$f16$u20$as$u20$compiler_builtins..float..traits..Float$GT$9normalize17hfc06500439ba6139E
ffffff80400272cc t _ZN88_$LT$f16$u20$as$u20$compiler_builtins..math..libm_math..support..float_traits..Float$GT$9normalize17hb145f787f6d4e7e0E
ffffff80400272f4 t _ZN63_$LT$f32$u20$as$u20$compiler_builtins..float..traits..Float$GT$9normalize17hbaeb9a8e15d199e4E
ffffff80400272f4 t _ZN88_$LT$f32$u20$as$u20$compiler_builtins..math..libm_math..support..float_traits..Float$GT$9normalize17h08ba5401d3697130E
ffffff804002730c t _ZN63_$LT$f64$u20$as$u20$compiler_builtins..float..traits..Float$GT$9normalize17h1381dc3ecc0db70aE
ffffff804002730c t _ZN88_$LT$f64$u20$as$u20$compiler_builtins..math..libm_math..support..float_traits..Float$GT$9normalize17hd9a3caaeaed2cc80E
ffffff8040027324 t _ZN64_$LT$f128$u20$as$u20$compiler_builtins..float..traits..Float$GT$9normalize17hadaff514c47574afE
ffffff8040027324 t _ZN89_$LT$f128$u20$as$u20$compiler_builtins..math..libm_math..support..float_traits..Float$GT$9normalize17hfbfb243b0511a0e4E
ffffff8040027378 t _ZN17compiler_builtins5float5trunc12__truncdfsf217habd127b974388921E
ffffff80400274cc t __truncdfsf2
ffffff8040027620 t __gnu_f2h_ieee
ffffff8040027620 t __truncsfhf2
ffffff8040027728 t __truncdfhf2
ffffff8040027868 t __trunctfhf2
ffffff8040027a38 t __trunctfsf2
ffffff8040027c10 t __trunctfdf2
ffffff8040027dc0 t _ZN17compiler_builtins3int19specialized_div_rem12u128_div_rem17h7ab8c14317a4ba90E
ffffff80400280e4 t _ZN17compiler_builtins3int6addsub15__rust_i128_add17h624c556cc1d63a03E
ffffff80400280e4 t _ZN17compiler_builtins3int6addsub15__rust_u128_add17h56fd37c307328a0aE
ffffff80400280f0 t __rust_i128_add
ffffff80400280f0 t __rust_u128_add
ffffff80400280fc t _ZN17compiler_builtins3int6addsub16__rust_i128_addo17h9c24643cc97e9240E
ffffff804002812c t __rust_i128_addo
ffffff804002815c t _ZN17compiler_builtins3int6addsub16__rust_u128_addo17h4462a31aca6e9e71E
ffffff8040028180 t __rust_u128_addo
ffffff80400281a4 t _ZN17compiler_builtins3int6addsub15__rust_i128_sub17hef098e97ab258904E
ffffff80400281a4 t _ZN17compiler_builtins3int6addsub15__rust_u128_sub17hcc9c8497fb4a1c93E
ffffff80400281b0 t __rust_i128_sub
ffffff80400281b0 t __rust_u128_sub
ffffff80400281bc t _ZN17compiler_builtins3int6addsub16__rust_i128_subo17ha0dfecbbb40eb873E
ffffff80400281ec t __rust_i128_subo
ffffff804002821c t _ZN17compiler_builtins3int6addsub16__rust_u128_subo17h120147048624b8cdE
ffffff8040028240 t __rust_u128_subo
ffffff8040028264 t _ZN84_$LT$compiler_builtins..int..big..i256$u20$as$u20$core..ops..bit..Shl$LT$u32$GT$$GT$3shl17h91b02863e5f12f0cE
ffffff8040028264 t _ZN84_$LT$compiler_builtins..int..big..u256$u20$as$u20$core..ops..bit..Shl$LT$u32$GT$$GT$3shl17h7d59aecaa52abb98E
ffffff8040028268 t _ZN17compiler_builtins3int5bswap10__bswapsi217hf0766dd0f0576410E
ffffff8040028270 t __bswapsi2
ffffff8040028278 t _ZN17compiler_builtins3int5bswap10__bswapdi217h83d936f28dd41909E
ffffff8040028280 t __bswapdi2
ffffff8040028288 t _ZN17compiler_builtins3int5bswap10__bswapti217h26fa80b08fe1d5d1E
ffffff8040028298 t __bswapti2
ffffff80400282a8 t _ZN17compiler_builtins3int13leading_zeros8__clzsi217h256ea9791a6a4491E
ffffff8040028310 t __clzsi2
ffffff8040028378 t _ZN17compiler_builtins3int13leading_zeros8__clzdi217hafd4c4b6cce291ddE
ffffff80400283f4 t __clzdi2
ffffff8040028470 t _ZN17compiler_builtins3int13leading_zeros8__clzti217hbf6c33b5ee65c0e6E
ffffff8040028570 t __clzti2
ffffff8040028574 t _ZN17compiler_builtins3int3mul8__muldi317h8d304b9651dd48a1E
ffffff80400285b8 t __muldi3
ffffff80400285fc t _ZN17compiler_builtins3int3mul8__multi317hadd32ef3bdbb5fe3E
ffffff8040028640 t __multi3
ffffff8040028684 t _ZN17compiler_builtins3int3mul9__mulosi417h0885220fb1061e14E
ffffff804002873c t __mulosi4
ffffff80400287f4 t _ZN17compiler_builtins3int3mul9__mulodi417hace951465c83a14bE
ffffff80400288b4 t __mulodi4
ffffff8040028974 t __muloti4
ffffff8040028974 t __rust_i128_mulo
ffffff8040028a80 t _ZN17compiler_builtins3int3mul16__rust_i128_mulo17h9e9484a5de6af46bE
ffffff8040028a80 t _ZN17compiler_builtins3int3mul9__muloti417hc1e4a7a0328721d8E
ffffff8040028b8c t _ZN17compiler_builtins3int3mul16__rust_u128_mulo17h6ba8b34723c12bc8E
ffffff8040028c04 t __rust_u128_mulo
ffffff8040028c7c t _ZN17compiler_builtins3int4sdiv11__divmodsi417h502e093cffb6ee64E
ffffff8040028e50 t __divmodsi4
ffffff8040028e54 t _ZN17compiler_builtins3int4sdiv8__divsi317h7069cd30af8255bdE
ffffff8040028f40 t __divsi3
ffffff804002902c t _ZN17compiler_builtins3int4sdiv8__modsi317hdc1439bcff107c96E
ffffff8040029160 t __modsi3
ffffff8040029164 t _ZN17compiler_builtins3int4sdiv11__divmoddi417h1a351d5b082f4bccE
ffffff8040029340 t __divmoddi4
ffffff8040029344 t _ZN17compiler_builtins3int4sdiv8__divdi317hbc50631411a71021E
ffffff8040029434 t __divdi3
ffffff8040029524 t _ZN17compiler_builtins3int4sdiv8__moddi317h3409b4bff27ce007E
ffffff8040029660 t __moddi3
ffffff8040029664 t _ZN17compiler_builtins3int4sdiv11__divmodti417h58fda1778fba9f14E
ffffff8040029728 t __divmodti4
ffffff80400297ec t _ZN17compiler_builtins3int4sdiv8__divti317hfd1ea4f9f8bac14aE
ffffff8040029860 t __divti3
ffffff80400298d4 t _ZN17compiler_builtins3int4sdiv8__modti317hd3275f077cbd8917E
ffffff8040029950 t __modti3
ffffff80400299cc t _ZN17compiler_builtins3int5shift9__ashlsi317hf314696123e43764E
ffffff8040029a18 t __ashlsi3
ffffff8040029a64 t _ZN17compiler_builtins3int5shift9__ashldi317h157ef2d68651ad18E
ffffff8040029a9c t __ashldi3
ffffff8040029ad4 t _ZN17compiler_builtins3int5shift9__ashlti317h73a8a76af840a8d7E
ffffff8040029b08 t __ashlti3
ffffff8040029b3c t _ZN17compiler_builtins3int5shift9__ashrsi317hee851ce4d7fbce8fE
ffffff8040029b90 t __ashrsi3
ffffff8040029be4 t _ZN17compiler_builtins3int5shift9__ashrdi317h5cad590b70667ff8E
ffffff8040029c20 t __ashrdi3
ffffff8040029c5c t _ZN17compiler_builtins3int5shift9__ashrti317h23fb3726b2e7d96bE
ffffff8040029c94 t __ashrti3
ffffff8040029ccc t _ZN17compiler_builtins3int5shift9__lshrsi317h4cb9c1c2130d13a2E
ffffff8040029d14 t __lshrsi3
ffffff8040029d5c t _ZN17compiler_builtins3int5shift9__lshrdi317hbbf8a16161d1b19dE
ffffff8040029d90 t __lshrdi3
ffffff8040029dc4 t _ZN17compiler_builtins3int5shift9__lshrti317he7796e6e2418ba84E
ffffff8040029df8 t __lshrti3
ffffff8040029e2c t _ZN17compiler_builtins3int14trailing_zeros8__ctzsi217hb873c04722bfdf8eE
ffffff8040029ea4 t __ctzsi2
ffffff8040029f1c t _ZN17compiler_builtins3int14trailing_zeros8__ctzdi217h176b280ed7341af5E
ffffff8040029fa8 t __ctzdi2
ffffff804002a034 t _ZN17compiler_builtins3int14trailing_zeros8__ctzti217hf82a64b7aa55a76fE
ffffff804002a154 t __ctzti2
ffffff804002a158 t _ZN17compiler_builtins3int4udiv9__udivsi317hff13f329446ad6d3E
ffffff804002a210 t __udivsi3
ffffff804002a2c8 t _ZN17compiler_builtins3int4udiv9__umodsi317h4ecada7c8d494a5cE
ffffff804002a350 t __umodsi3
ffffff804002a3d8 t _ZN17compiler_builtins3int4udiv12__udivmodsi417h68fbd45934adff5dE
ffffff804002a4b0 t __udivmodsi4
ffffff804002a588 t _ZN17compiler_builtins3int4udiv9__udivdi317h2ad5e29b4891ba37E
ffffff804002a648 t __udivdi3
ffffff804002a708 t _ZN17compiler_builtins3int4udiv9__umoddi317h87f490e1b056e9b5E
ffffff804002a794 t __umoddi3
ffffff804002a820 t _ZN17compiler_builtins3int4udiv12__udivmoddi417hf0539cf72bc0dbf1E
ffffff804002a8fc t __udivmoddi4
ffffff804002a9d8 t _ZN17compiler_builtins3int4udiv9__udivti317ha5fe307b578b23caE
ffffff804002aa08 t __udivti3
ffffff804002aa38 t _ZN17compiler_builtins3int4udiv9__umodti317h6ed6ea0a7a28f633E
ffffff804002aa68 t __umodti3
ffffff804002aa98 t _ZN17compiler_builtins3int4udiv12__udivmodti417h36c6e68e3878ddbeE
ffffff804002aad8 t __udivmodti4
ffffff804002ab18 t _ZN17compiler_builtins4math9libm_math7support3big96_$LT$impl$u20$compiler_builtins..math..libm_math..support..int_traits..HInt$u20$for$u20$i128$GT$14zero_widen_mul17h3bf4e4b3a83f8f4aE
ffffff804002ab18 t _ZN17compiler_builtins4math9libm_math7support3big96_$LT$impl$u20$compiler_builtins..math..libm_math..support..int_traits..HInt$u20$for$u20$u128$GT$9widen_mul17h0a3f42eef02fdba1E
ffffff804002ab64 t _ZN17compiler_builtins4math9libm_math7support3big96_$LT$impl$u20$compiler_builtins..math..libm_math..support..int_traits..HInt$u20$for$u20$i128$GT$9widen_mul17hac50b8de5b7195f1E
ffffff804002ab68 t _ZN17compiler_builtins4math9libm_math7support3big96_$LT$impl$u20$compiler_builtins..math..libm_math..support..int_traits..HInt$u20$for$u20$i128$GT$8widen_hi17h025bd8da87f25c18E
ffffff804002ab68 t _ZN17compiler_builtins4math9libm_math7support3big96_$LT$impl$u20$compiler_builtins..math..libm_math..support..int_traits..HInt$u20$for$u20$u128$GT$8widen_hi17h595e680f2cc221e8E
ffffff804002ab6c t _ZN17compiler_builtins4math9libm_math7support9cold_path17h8cbd2399e947ef3fE
ffffff804002ab70 t _ZN17compiler_builtins4math9libm_math8rem_pio28rem_pio217hb7a68338e947563dE
ffffff804002af90 t _ZN17compiler_builtins4math9libm_math14rem_pio2_large14rem_pio2_large17h41afd1822a50df2cE
ffffff804002b778 t _ZN17compiler_builtins4math9libm_math4atan4atan17hcf896d2a57d795dfE
ffffff804002b97c t _ZN17compiler_builtins4math9libm_math5atanf5atanf17h21d02ca9aa6e94d4E
ffffff804002bb34 t _ZN17compiler_builtins4math9libm_math3erf5erfc217h9c525eec5a4d1fd3E
ffffff804002be44 t _ZN17compiler_builtins4math9libm_math4erff5erfc217h1f01b9db3b833cf7E
ffffff804002c1a0 t _ZN17compiler_builtins4math9libm_math3exp3exp17h911aead5573d1ad0E
ffffff804002c404 t _ZN17compiler_builtins4math9libm_math4expf4expf17h1d72c4fa7447b954E
ffffff804002c634 t _ZN17compiler_builtins4math9libm_math5expm15expm117h88df2944ba81dca2E
ffffff804002c904 t _ZN17compiler_builtins4math9libm_math6expm1f6expm1f17he0fc5581c17e078eE
ffffff804002cbc4 t _ZN17compiler_builtins4math9libm_math5floor5floor17haddb4a605b750985E
ffffff804002cc3c t _ZN17compiler_builtins4math9libm_math3log3log17h6841c6fe0efe4853E
ffffff804002cda0 t _ZN17compiler_builtins4math9libm_math4logf4logf17hbc640054a519c418E
ffffff804002cebc t _ZN17compiler_builtins4math9libm_math3pow3pow17ha37e0296ae910bbbE
ffffff804002d6f8 t _ZN17compiler_builtins4math9libm_math6scalbn7scalbnf17hfacc19266902753dE
ffffff804002d7c0 t _ZN17compiler_builtins4math9libm_math6scalbn6scalbn17ha26cce599d80c3c4E
ffffff804002d880 t _ZN17compiler_builtins4math9libm_math6tgamma6tgamma17h2cf49761ea9fe4faE
ffffff804002df1c t _ZN105_$LT$compiler_builtins..math..libm_math..support..big..i256$u20$as$u20$core..ops..bit..Shl$LT$u32$GT$$GT$3shl17h80e6dc4bcf8139edE
ffffff804002df1c t _ZN105_$LT$compiler_builtins..math..libm_math..support..big..u256$u20$as$u20$core..ops..bit..Shl$LT$u32$GT$$GT$3shl17h8bffe3fec8bfca84E
ffffff804002df20 t _ZN88_$LT$f32$u20$as$u20$compiler_builtins..math..libm_math..support..float_traits..Float$GT$3abs17hc4ff9c0f30378181E
ffffff804002df28 t _ZN88_$LT$f32$u20$as$u20$compiler_builtins..math..libm_math..support..float_traits..Float$GT$8copysign17h83b4b62992828448E
ffffff804002df34 t _ZN88_$LT$f32$u20$as$u20$compiler_builtins..math..libm_math..support..float_traits..Float$GT$3fma17h85c573a7a63c1966E
ffffff804002df3c t _ZN88_$LT$f64$u20$as$u20$compiler_builtins..math..libm_math..support..float_traits..Float$GT$3abs17h1ff34fda2a62013dE
ffffff804002df44 t _ZN88_$LT$f64$u20$as$u20$compiler_builtins..math..libm_math..support..float_traits..Float$GT$8copysign17hc53ddd9626241086E
ffffff804002df54 t _ZN88_$LT$f64$u20$as$u20$compiler_builtins..math..libm_math..support..float_traits..Float$GT$3fma17h0c3edee4f533fc27E
ffffff804002df5c t _ZN83_$LT$u8$u20$as$u20$compiler_builtins..math..libm_math..support..int_traits..Int$GT$12unsigned_abs17hdfc825b5f813f378E
ffffff804002df5c t _ZN83_$LT$u8$u20$as$u20$compiler_builtins..math..libm_math..support..int_traits..Int$GT$3abs17hba43e91e37b45434E
ffffff804002df60 t _ZN83_$LT$i8$u20$as$u20$compiler_builtins..math..libm_math..support..int_traits..Int$GT$3abs17h9322e69c0823cf01E
ffffff804002df70 t _ZN83_$LT$u8$u20$as$u20$compiler_builtins..math..libm_math..support..int_traits..Int$GT$11checked_add17h7d50fa562278e269E
ffffff804002df8c t _ZN83_$LT$u8$u20$as$u20$compiler_builtins..math..libm_math..support..int_traits..Int$GT$5ilog217h88a287c607c6c111E
ffffff804002dfa8 t _ZN83_$LT$i8$u20$as$u20$compiler_builtins..math..libm_math..support..int_traits..Int$GT$11checked_add17h92db5ad6870620e8E
ffffff804002dfbc t _ZN83_$LT$i8$u20$as$u20$compiler_builtins..math..libm_math..support..int_traits..Int$GT$11checked_sub17h0e9f7e8804a58637E
ffffff804002dfd0 t _ZN83_$LT$i8$u20$as$u20$compiler_builtins..math..libm_math..support..int_traits..Int$GT$11rotate_left17h10b5d46024e79919E
ffffff804002dfd0 t _ZN83_$LT$u8$u20$as$u20$compiler_builtins..math..libm_math..support..int_traits..Int$GT$11rotate_left17hc0ac370ad66297c7E
ffffff804002dff0 t _ZN83_$LT$i8$u20$as$u20$compiler_builtins..math..libm_math..support..int_traits..Int$GT$13leading_zeros17h9647970e406b68b1E
ffffff804002dff0 t _ZN83_$LT$u8$u20$as$u20$compiler_builtins..math..libm_math..support..int_traits..Int$GT$13leading_zeros17h67e8a57e71df63c9E
ffffff804002e004 t _ZN83_$LT$i8$u20$as$u20$compiler_builtins..math..libm_math..support..int_traits..Int$GT$5ilog217hc4b0e84277d1352eE
ffffff804002e024 t _ZN84_$LT$u16$u20$as$u20$compiler_builtins..math..libm_math..support..int_traits..Int$GT$12unsigned_abs17h70aa28afba589807E
ffffff804002e024 t _ZN84_$LT$u16$u20$as$u20$compiler_builtins..math..libm_math..support..int_traits..Int$GT$3abs17h414203b3c81bd859E
ffffff804002e028 t _ZN84_$LT$i16$u20$as$u20$compiler_builtins..math..libm_math..support..int_traits..Int$GT$3abs17h0e5f023c243db157E
ffffff804002e038 t _ZN84_$LT$u16$u20$as$u20$compiler_builtins..math..libm_math..support..int_traits..Int$GT$11checked_add17hda833c38a831353bE
ffffff804002e054 t _ZN84_$LT$u16$u20$as$u20$compiler_builtins..math..libm_math..support..int_traits..Int$GT$5ilog217h4e84a9ccfd80fffaE
ffffff804002e070 t _ZN84_$LT$i16$u20$as$u20$compiler_builtins..math..libm_math..support..int_traits..Int$GT$11checked_add17hf90fe00fcf9387faE
ffffff804002e084 t _ZN84_$LT$i16$u20$as$u20$compiler_builtins..math..libm_math..support..int_traits..Int$GT$11checked_sub17had04461301cd1c32E
ffffff804002e098 t _ZN84_$LT$i16$u20$as$u20$compiler_builtins..math..libm_math..support..int_traits..Int$GT$11rotate_left17h7f2e6aa2040bc247E
ffffff804002e098 t _ZN84_$LT$u16$u20$as$u20$compiler_builtins..math..libm_math..support..int_traits..Int$GT$11rotate_left17h6aff6abe060c23a5E
ffffff804002e0b8 t _ZN84_$LT$i16$u20$as$u20$compiler_builtins..math..libm_math..support..int_traits..Int$GT$13leading_zeros17h208ec3dfd414100dE
ffffff804002e0b8 t _ZN84_$LT$u16$u20$as$u20$compiler_builtins..math..libm_math..support..int_traits..Int$GT$13leading_zeros17h211f753feb5edf70E
ffffff804002e0cc t _ZN84_$LT$i16$u20$as$u20$compiler_builtins..math..libm_math..support..int_traits..Int$GT$5ilog217hca7a4e0b1eea1392E
ffffff804002e0ec t _ZN84_$LT$u32$u20$as$u20$compiler_builtins..math..libm_math..support..int_traits..Int$GT$12unsigned_abs17h684897c7d752044bE
ffffff804002e0ec t _ZN84_$LT$u32$u20$as$u20$compiler_builtins..math..libm_math..support..int_traits..Int$GT$3abs17h158725dd560ac61cE
ffffff804002e0f0 t _ZN84_$LT$i32$u20$as$u20$compiler_builtins..math..libm_math..support..int_traits..Int$GT$3abs17h8a4ab2e9b6419243E
ffffff804002e0fc t _ZN84_$LT$u32$u20$as$u20$compiler_builtins..math..libm_math..support..int_traits..Int$GT$11checked_add17h0add92e64ec44249E
ffffff804002e110 t _ZN84_$LT$u32$u20$as$u20$compiler_builtins..math..libm_math..support..int_traits..Int$GT$5ilog217hbb562b406436a980E
ffffff804002e124 t _ZN84_$LT$i32$u20$as$u20$compiler_builtins..math..libm_math..support..int_traits..Int$GT$11checked_add17h6e40b40ab234afc1E
ffffff804002e130 t _ZN84_$LT$i32$u20$as$u20$compiler_builtins..math..libm_math..support..int_traits..Int$GT$11checked_sub17h6858ea1e28acc708E
ffffff804002e13c t _ZN84_$LT$i32$u20$as$u20$compiler_builtins..math..libm_math..support..int_traits..Int$GT$11rotate_left17h4f9b3ad1549c3db1E
ffffff804002e13c t _ZN84_$LT$u32$u20$as$u20$compiler_builtins..math..libm_math..support..int_traits..Int$GT$11rotate_left17h801aea80d4f0bff7E
ffffff804002e148 t _ZN84_$LT$i32$u20$as$u20$compiler_builtins..math..libm_math..support..int_traits..Int$GT$13leading_zeros17h9f9d6eadbca542d9E
ffffff804002e148 t _ZN84_$LT$u32$u20$as$u20$compiler_builtins..math..libm_math..support..int_traits..Int$GT$13leading_zeros17h04b3ee63c4b4d88cE
ffffff804002e150 t _ZN84_$LT$i32$u20$as$u20$compiler_builtins..math..libm_math..support..int_traits..Int$GT$5ilog217hd6ed0e769b013113E
ffffff804002e168 t _ZN84_$LT$u64$u20$as$u20$compiler_builtins..math..libm_math..support..int_traits..Int$GT$12unsigned_abs17h274447537eaf73ccE
ffffff804002e168 t _ZN84_$LT$u64$u20$as$u20$compiler_builtins..math..libm_math..support..int_traits..Int$GT$3abs17hb52302182972b818E
ffffff804002e168 t _ZN86_$LT$usize$u20$as$u20$compiler_builtins..math..libm_math..support..int_traits..Int$GT$12unsigned_abs17h172e004ce9735f33E
ffffff804002e168 t _ZN86_$LT$usize$u20$as$u20$compiler_builtins..math..libm_math..support..int_traits..Int$GT$3abs17h97e268ae4556c62eE
ffffff804002e16c t _ZN84_$LT$i64$u20$as$u20$compiler_builtins..math..libm_math..support..int_traits..Int$GT$3abs17hfd31c6d288eb2510E
ffffff804002e16c t _ZN86_$LT$isize$u20$as$u20$compiler_builtins..math..libm_math..support..int_traits..Int$GT$3abs17h9a6c6d38858d77f7E
ffffff804002e178 t _ZN84_$LT$u64$u20$as$u20$compiler_builtins..math..libm_math..support..int_traits..Int$GT$11checked_add17hb1a28c0f1bd6b94dE
ffffff804002e178 t _ZN86_$LT$usize$u20$as$u20$compiler_builtins..math..libm_math..support..int_traits..Int$GT$11checked_add17h075c69512b49a0a4E
ffffff804002e18c t _ZN84_$LT$u64$u20$as$u20$compiler_builtins..math..libm_math..support..int_traits..Int$GT$5ilog217hf70992da88caf37aE
ffffff804002e18c t _ZN86_$LT$usize$u20$as$u20$compiler_builtins..math..libm_math..support..int_traits..Int$GT$5ilog217h06183cc22292424fE
ffffff804002e1a0 t _ZN84_$LT$i64$u20$as$u20$compiler_builtins..math..libm_math..support..int_traits..Int$GT$11checked_add17h83d860478d8171efE
ffffff804002e1a0 t _ZN86_$LT$isize$u20$as$u20$compiler_builtins..math..libm_math..support..int_traits..Int$GT$11checked_add17h58f92fa8128b6dbaE
ffffff804002e1ac t _ZN84_$LT$i64$u20$as$u20$compiler_builtins..math..libm_math..support..int_traits..Int$GT$11checked_sub17hff035a68550cd516E
ffffff804002e1ac t _ZN86_$LT$isize$u20$as$u20$compiler_builtins..math..libm_math..support..int_traits..Int$GT$11checked_sub17h386f97d565d7d3a6E
ffffff804002e1b8 t _ZN84_$LT$i64$u20$as$u20$compiler_builtins..math..libm_math..support..int_traits..Int$GT$11rotate_left17h8fbaecc07c92d0b4E
ffffff804002e1b8 t _ZN84_$LT$u64$u20$as$u20$compiler_builtins..math..libm_math..support..int_traits..Int$GT$11rotate_left17h8a0b06be6d2b3f88E
ffffff804002e1b8 t _ZN86_$LT$isize$u20$as$u20$compiler_builtins..math..libm_math..support..int_traits..Int$GT$11rotate_left17h507e66c3fb0d4c1cE
ffffff804002e1b8 t _ZN86_$LT$usize$u20$as$u20$compiler_builtins..math..libm_math..support..int_traits..Int$GT$11rotate_left17hf145f48689294b48E
ffffff804002e1c4 t _ZN84_$LT$i64$u20$as$u20$compiler_builtins..math..libm_math..support..int_traits..Int$GT$13leading_zeros17h8ea667e7e046e942E
ffffff804002e1c4 t _ZN84_$LT$u64$u20$as$u20$compiler_builtins..math..libm_math..support..int_traits..Int$GT$13leading_zeros17h0340edeaf6dc355aE
ffffff804002e1c4 t _ZN86_$LT$isize$u20$as$u20$compiler_builtins..math..libm_math..support..int_traits..Int$GT$13leading_zeros17hfc781bac3bb1dbddE
ffffff804002e1c4 t _ZN86_$LT$usize$u20$as$u20$compiler_builtins..math..libm_math..support..int_traits..Int$GT$13leading_zeros17ha63d488bc68394e5E
ffffff804002e1cc t _ZN84_$LT$i64$u20$as$u20$compiler_builtins..math..libm_math..support..int_traits..Int$GT$5ilog217h9fbe4959cbbf9ebeE
ffffff804002e1cc t _ZN86_$LT$isize$u20$as$u20$compiler_builtins..math..libm_math..support..int_traits..Int$GT$5ilog217h6ef20d8a5050f685E
ffffff804002e1e4 t _ZN85_$LT$u128$u20$as$u20$compiler_builtins..math..libm_math..support..int_traits..Int$GT$12unsigned_abs17hb9dcba8870adf2b3E
ffffff804002e1e4 t _ZN85_$LT$u128$u20$as$u20$compiler_builtins..math..libm_math..support..int_traits..Int$GT$3abs17hbf4a6892378d2e44E
ffffff804002e1e8 t _ZN85_$LT$i128$u20$as$u20$compiler_builtins..math..libm_math..support..int_traits..Int$GT$3abs17h4105d3d6543abda5E
ffffff804002e200 t _ZN85_$LT$u128$u20$as$u20$compiler_builtins..math..libm_math..support..int_traits..Int$GT$11checked_add17hfc844bc8f742905dE
ffffff804002e230 t _ZN85_$LT$u128$u20$as$u20$compiler_builtins..math..libm_math..support..int_traits..Int$GT$5ilog217h43494e206f86b1f7E
ffffff804002e258 t _ZN85_$LT$i128$u20$as$u20$compiler_builtins..math..libm_math..support..int_traits..Int$GT$11checked_add17he05c388b4dbf5fbaE
ffffff804002e280 t _ZN85_$LT$i128$u20$as$u20$compiler_builtins..math..libm_math..support..int_traits..Int$GT$11checked_sub17h6cd9ab32763d7c82E
ffffff804002e2a8 t _ZN85_$LT$i128$u20$as$u20$compiler_builtins..math..libm_math..support..int_traits..Int$GT$11rotate_left17ha93dccf4d2d92d00E
ffffff804002e2a8 t _ZN85_$LT$u128$u20$as$u20$compiler_builtins..math..libm_math..support..int_traits..Int$GT$11rotate_left17hcf16dd8cef108b25E
ffffff804002e2dc t _ZN85_$LT$i128$u20$as$u20$compiler_builtins..math..libm_math..support..int_traits..Int$GT$13leading_zeros17hafd9a2c6a9bcd5b6E
ffffff804002e2dc t _ZN85_$LT$u128$u20$as$u20$compiler_builtins..math..libm_math..support..int_traits..Int$GT$13leading_zeros17h7d1d467a11c1313dE
ffffff804002e2f4 t _ZN85_$LT$i128$u20$as$u20$compiler_builtins..math..libm_math..support..int_traits..Int$GT$5ilog217h5178a324a98eccf8E
ffffff804002e320 t ceilf16
ffffff804002e394 t copysignf16
ffffff804002e3ac t fabsf16
ffffff804002e3bc t fdimf16
ffffff804002e3dc t floorf16
ffffff804002e460 t fmaxf16
ffffff804002e478 t fmaximumf16
ffffff804002e4e4 t fminf16
ffffff804002e4fc t fminimumf16
ffffff804002e568 t fmodf16
ffffff804002e668 t rintf16
ffffff804002e668 t roundevenf16
ffffff804002e6e4 t roundf16
ffffff804002e73c t sqrtf16
ffffff804002e808 t truncf16
ffffff804002e840 t _ZN17compiler_builtins4math17full_availability5cbrtf17hd99d9503617d1e0dE
ffffff804002e900 t cbrtf
ffffff804002e9c0 t _ZN17compiler_builtins4math17full_availability5ceilf17h59b2b32c250ec386E
ffffff804002ea28 t ceilf
ffffff804002ea90 t _ZN17compiler_builtins4math17full_availability9copysignf17h0fb1141653921a76E
ffffff804002ea9c t copysignf
ffffff804002eaa8 t fabsf
ffffff804002eab0 t fdimf
ffffff804002eac4 t _ZN17compiler_builtins4math17full_availability6floorf17h09f4aa1f505c7297E
ffffff804002eb38 t floorf
ffffff804002ebac t fmaf
ffffff804002ebb4 t _ZN17compiler_builtins4math17full_availability5fmaxf17ha325686792095940E
ffffff804002ebc4 t fmaxf
ffffff804002ebd4 t _ZN17compiler_builtins4math17full_availability5fminf17hb6511a5ac6f11b1cE
ffffff804002ebe4 t fminf
ffffff804002ebf4 t _ZN17compiler_builtins4math17full_availability5fmodf17hed72e9b808ef3b70E
ffffff804002ecc4 t fmodf
ffffff804002ed94 t rintf
ffffff804002ed9c t _ZN17compiler_builtins4math17full_availability6roundf17h9b85477fe269ca9aE
ffffff804002ede8 t roundf
ffffff804002ee34 t sqrtf
ffffff804002ee3c t _ZN17compiler_builtins4math17full_availability6truncf17hc4269293dbec4a86E
ffffff804002ee74 t truncf
ffffff804002eeac t _ZN17compiler_builtins4math17full_availability4cbrt17h8caebebdcd2d0154E
ffffff804002f1b4 t cbrt
ffffff804002f1b8 t _ZN17compiler_builtins4math17full_availability4ceil17ha8ff614e24250064E
ffffff804002f224 t ceil
ffffff804002f290 t _ZN17compiler_builtins4math17full_availability8copysign17h365fd21347c8a744E
ffffff804002f2a0 t copysign
ffffff804002f2b0 t fabs
ffffff804002f2b8 t fdim
ffffff804002f2cc t _ZN17compiler_builtins4math17full_availability5floor17h5522d3924661f7c6E
ffffff804002f344 t floor
ffffff804002f3bc t fma
ffffff804002f3c4 t _ZN17compiler_builtins4math17full_availability4fmax17hd98798c20f97751cE
ffffff804002f3d4 t fmax
ffffff804002f3e4 t _ZN17compiler_builtins4math17full_availability4fmin17hf426f4d476d4fa88E
ffffff804002f3f4 t fmin
ffffff804002f404 t _ZN17compiler_builtins4math17full_availability4fmod17h195e2a2b3e76819cE
ffffff804002f4d8 t fmod
ffffff804002f5ac t rint
ffffff804002f5b4 t _ZN17compiler_builtins4math17full_availability5round17h42cfc897668b2949E
ffffff804002f604 t round
ffffff804002f654 t sqrt
ffffff804002f65c t _ZN17compiler_builtins4math17full_availability5trunc17h9775d374b0866805E
ffffff804002f694 t trunc
ffffff804002f6cc t _ZN17compiler_builtins4math17full_availability8fmaximum17hebd60c2ec4b779f0E
ffffff804002f70c t fmaximum
ffffff804002f74c t _ZN17compiler_builtins4math17full_availability9fmaximumf17h95c3e89c5da84d11E
ffffff804002f78c t fmaximumf
ffffff804002f7cc t _ZN17compiler_builtins4math17full_availability8fminimum17h592083b353902674E
ffffff804002f80c t fminimum
ffffff804002f84c t _ZN17compiler_builtins4math17full_availability9fminimumf17hf5d2425dd8933cc1E
ffffff804002f88c t fminimumf
ffffff804002f8cc t _ZN17compiler_builtins4math17full_availability9roundeven17h8f92c7af3841f2a6E
ffffff804002f928 t roundeven
ffffff804002f984 t _ZN17compiler_builtins4math17full_availability10roundevenf17h911da166e29fec38E
ffffff804002f9d4 t roundevenf
ffffff804002fa24 t ceilf128
ffffff804002fb10 t copysignf128
ffffff804002fb2c t fabsf128
ffffff804002fb44 t fdimf128
ffffff804002fb8c t floorf128
ffffff804002fc9c t fmaf128
ffffff804003043c t fmaxf128
ffffff8040030484 t fmaximumf128
ffffff804003050c t fminf128
ffffff8040030554 t fminimumf128
ffffff80400305d8 t fmodf128
ffffff8040030764 t rintf128
ffffff8040030764 t roundevenf128
ffffff804003080c t roundf128
ffffff80400308bc t sqrtf128
ffffff8040030ae8 t truncf128
ffffff8040030b6c t _ZN17compiler_builtins4math20partial_availability4acos17h5d7c157907773317E
ffffff8040030de8 t acos
ffffff8040030dec t _ZN17compiler_builtins4math20partial_availability5acosf17h325f2087ef2211a5E
ffffff8040031014 t acosf
ffffff8040031018 t _ZN17compiler_builtins4math20partial_availability4asin17h2a2d2ebac85a7de4E
ffffff8040031274 t asin
ffffff8040031278 t _ZN17compiler_builtins4math20partial_availability5asinf17h7c6e2ff42864923aE
ffffff80400313e8 t asinf
ffffff8040031558 t _ZN17compiler_builtins4math20partial_availability4atan17h60fe2f03cfb374cbE
ffffff804003155c t atan
ffffff8040031560 t _ZN17compiler_builtins4math20partial_availability5atan217h76ed438592db7d18E
ffffff80400316e0 t atan2
ffffff80400316e4 t _ZN17compiler_builtins4math20partial_availability6atan2f17h6963b215a8ad2fcbE
ffffff804003186c t atan2f
ffffff8040031870 t _ZN17compiler_builtins4math20partial_availability5atanf17h94404e2eed6d8305E
ffffff8040031874 t atanf
ffffff8040031878 t _ZN17compiler_builtins4math20partial_availability3cos17h5127048a0ab3748bE
ffffff8040031c0c t cos
ffffff8040031c10 t _ZN17compiler_builtins4math20partial_availability4cosf17h3aaf55125f214071E
ffffff8040031fc4 t cosf
ffffff8040031fc8 t _ZN17compiler_builtins4math20partial_availability4cosh17h598a3ce8ffb7a878E
ffffff804003208c t cosh
ffffff8040032150 t _ZN17compiler_builtins4math20partial_availability5coshf17h5e63e63ff7afeb38E
ffffff8040032214 t coshf
ffffff80400322d8 t _ZN17compiler_builtins4math20partial_availability3erf17h626b3aa46d98618cE
ffffff8040032428 t erf
ffffff8040032578 t _ZN17compiler_builtins4math20partial_availability4erfc17h3afa7ce41664845dE
ffffff8040032700 t erfc
ffffff8040032704 t _ZN17compiler_builtins4math20partial_availability5erfcf17h10acb7ae83e49fecE
ffffff80400328b0 t erfcf
ffffff80400328b4 t _ZN17compiler_builtins4math20partial_availability4erff17h330dd3b1ecd94365E
ffffff8040032a0c t erff
ffffff8040032b64 t _ZN17compiler_builtins4math20partial_availability3exp17hed42c9881d0b6594E
ffffff8040032b68 t exp
ffffff8040032b6c t _ZN17compiler_builtins4math20partial_availability4exp217h676a9c30568d9f8fE
ffffff8040032dc4 t exp2
ffffff8040032dc8 t _ZN17compiler_builtins4math20partial_availability5exp2f17he55519c1b4a7c85dE
ffffff8040032f24 t exp2f
ffffff8040033080 t _ZN17compiler_builtins4math20partial_availability4expf17hf98f1e3789d4cf1fE
ffffff8040033084 t expf
ffffff8040033088 t _ZN17compiler_builtins4math20partial_availability5expm117h8c82949017335f48E
ffffff804003308c t expm1
ffffff8040033090 t _ZN17compiler_builtins4math20partial_availability6expm1f17hc1592cb3aae1ecbeE
ffffff8040033094 t expm1f
ffffff8040033098 t _ZN17compiler_builtins4math20partial_availability5hypot17h8d7119c90350690fE
ffffff80400331b4 t hypot
ffffff80400332d0 t _ZN17compiler_builtins4math20partial_availability6hypotf17h02b5dd53d3dbd6fbE
ffffff804003339c t hypotf
ffffff8040033468 t _ZN17compiler_builtins4math20partial_availability5ldexp17h0ad131bc97926cf4E
ffffff8040033528 t ldexp
ffffff80400335e8 t _ZN17compiler_builtins4math20partial_availability6ldexpf17he1148d49fe234f4fE
ffffff80400336b0 t ldexpf
ffffff8040033778 t _ZN17compiler_builtins4math20partial_availability3log17h0ea506a3e44a971eE
ffffff804003377c t log
ffffff8040033780 t _ZN17compiler_builtins4math20partial_availability5log1017he506df962d79ba07E
ffffff8040033934 t log10
ffffff8040033938 t _ZN17compiler_builtins4math20partial_availability6log10f17h1cba725afc0503e6E
ffffff8040033a98 t log10f
ffffff8040033bf8 t _ZN17compiler_builtins4math20partial_availability5log1p17h7b25809025898a66E
ffffff8040033db8 t log1p
ffffff8040033dbc t _ZN17compiler_builtins4math20partial_availability6log1pf17hc10378545be94356E
ffffff8040033f4c t log1pf
ffffff8040033f50 t _ZN17compiler_builtins4math20partial_availability4log217hf2805664c8aad6afE
ffffff80400340e8 t log2
ffffff80400340ec t _ZN17compiler_builtins4math20partial_availability5log2f17h6226256605751620E
ffffff8040034228 t log2f
ffffff8040034364 t _ZN17compiler_builtins4math20partial_availability4logf17hb2ed767ff60e1e2aE
ffffff8040034480 t logf
ffffff804003459c t _ZN17compiler_builtins4math20partial_availability3pow17h25062a71a4a21b37E
ffffff80400345a0 t pow
ffffff80400345a4 t _ZN17compiler_builtins4math20partial_availability4powf17hb46b3c6951292355E
ffffff8040034cdc t powf
ffffff8040034ce0 t _ZN17compiler_builtins4math20partial_availability3sin17he30982c3b328783dE
ffffff8040035048 t sin
ffffff804003504c t _ZN17compiler_builtins4math20partial_availability4sinf17h7037e34676d2c1aaE
ffffff804003541c t sinf
ffffff8040035420 t _ZN17compiler_builtins4math20partial_availability4sinh17h1afa91dd73ffd8acE
ffffff80400354fc t sinh
ffffff80400355d8 t _ZN17compiler_builtins4math20partial_availability5sinhf17hd76c1dadba9faf2fE
ffffff80400356b0 t sinhf
ffffff8040035788 t _ZN17compiler_builtins4math20partial_availability3tan17h41e62c47e3e1ea50E
ffffff8040035b0c t tan
ffffff8040035b10 t _ZN17compiler_builtins4math20partial_availability4tanf17h6c425fdfb73ec207E
ffffff8040035ed8 t tanf
ffffff8040035edc t _ZN17compiler_builtins4math20partial_availability4tanh17hdcda7bacf93ad91eE
ffffff8040035fc8 t tanh
ffffff80400360b4 t _ZN17compiler_builtins4math20partial_availability5tanhf17h50da878e18a145cdE
ffffff8040036198 t tanhf
ffffff804003627c t _ZN17compiler_builtins4math20partial_availability6tgamma17h6c9a2766ceaa6340E
ffffff8040036280 t tgamma
ffffff8040036284 t _ZN17compiler_builtins4math20partial_availability7tgammaf17h2a1c238841d407f4E
ffffff804003629c t tgammaf
ffffff80400362b4 t _ZN17compiler_builtins4math20partial_availability8lgamma_r17h9af9d8a98a85dfaaE
ffffff8040036b50 t lgamma_r
ffffff8040036b54 t _ZN17compiler_builtins4math20partial_availability9lgammaf_r17h5459e5e4a843fed1E
ffffff8040037598 t lgammaf_r
ffffff804003759c t _ZN17compiler_builtins3mem6memcpy17hf978f337bfc672acE
ffffff8040037708 t memcpy
ffffff8040037868 t _ZN17compiler_builtins3mem7memmove17hd394a82a8d66745eE
ffffff8040037b4c t memmove
ffffff8040037b50 t _ZN17compiler_builtins3mem6memset17h0dbeb0ce60ab6727E
ffffff8040037c5c t memset
ffffff8040037d68 t _ZN17compiler_builtins3mem4bcmp17hf7e5c73911875331E
ffffff8040037d68 t _ZN17compiler_builtins3mem6memcmp17h418bc0ff98fce5c4E
ffffff8040037d90 t bcmp
ffffff8040037d90 t memcmp
ffffff8040037db8 t _ZN17compiler_builtins3mem6strlen17h0209aeb916429cf0E
ffffff8040037de4 t strlen
ffffff8040037e10 T __text_end
ffffff8040039000 r rodata_check_str
ffffff804003c0ac r _ZN4core7unicode12unicode_data10alphabetic7OFFSETS17h649482164be75659E
ffffff804003c697 r _ZN4core7unicode12unicode_data14case_ignorable7OFFSETS17hf8f43d57fc15a775E
ffffff804003ca20 r _ZN4core7unicode12unicode_data5cased7OFFSETS17h450ed481e9f5665aE
ffffff804003cb5f r _ZN4core7unicode12unicode_data15grapheme_extend7OFFSETS17h24d47a4b650dc11dE
ffffff804003ce4e R _ZN4core7unicode12unicode_data9lowercase17BITSET_CHUNKS_MAP17h535fcb0825b8f58cE
ffffff804003cec9 r _ZN4core7unicode12unicode_data1n7OFFSETS17h780a292767592f01E
ffffff804003cfea R _ZN4core7unicode12unicode_data9uppercase17BITSET_CHUNKS_MAP17he84b18c5f08f06e4E
ffffff804003d067 R _ZN4core7unicode12unicode_data11white_space14WHITESPACE_MAP17ha9d7c153b8ec9c4dE
ffffff804003da58 r _ZN4core3num7flt2dec8strategy6dragon8POW5TO1617h616d1db99b44ffdaE
ffffff804003da60 r _ZN4core3num7flt2dec8strategy6dragon8POW5TO3217hc9b99e5068474696E
ffffff804003da6c r _ZN4core3num7flt2dec8strategy6dragon8POW5TO6417h337f778b4339cd91E
ffffff804003da80 r _ZN4core3num7flt2dec8strategy6dragon9POW5TO12817h4076bb8cad95f156E
ffffff804003daa8 r _ZN4core3num7flt2dec8strategy6dragon9POW5TO25617h4fdd3be581ec0876E
ffffff804003ddc0 R _ZN4core3num7flt2dec8strategy5grisu12CACHED_POW1017hd88d8d2f4732937eE
ffffff8040040c08 r _ZN4core3num7dec2flt5table17POWER_OF_FIVE_12817h737eae1fd1af7f2eE
ffffff8040043c58 r _ZN4core7unicode12unicode_data10alphabetic17SHORT_OFFSET_RUNS17h67504183bb01ab5eE
ffffff8040043d2c r _ZN4core7unicode12unicode_data14case_ignorable17SHORT_OFFSET_RUNS17hc7e9169f5e7402c0E
ffffff8040043dc0 r _ZN4core7unicode12unicode_data5cased17SHORT_OFFSET_RUNS17h1ce054a902c9bb07E
ffffff8040043e18 r _ZN4core7unicode12unicode_data15grapheme_extend17SHORT_OFFSET_RUNS17hb45d4a43d5649a06E
ffffff8040043ea0 R _ZN4core7unicode12unicode_data9lowercase19BITSET_INDEX_CHUNKS17hab7af1abf27b8da3E
ffffff8040043fe0 R _ZN4core7unicode12unicode_data9lowercase16BITSET_CANONICAL17hb0157425c00a892cE
ffffff80400441a0 R _ZN4core7unicode12unicode_data9lowercase14BITSET_MAPPING17hd5cf6e65ff43d9deE
ffffff80400441cc r _ZN4core7unicode12unicode_data1n17SHORT_OFFSET_RUNS17h97b5a1862cd313cdE
ffffff8040044274 R _ZN4core7unicode12unicode_data9uppercase19BITSET_INDEX_CHUNKS17ha537536236173ed3E
ffffff8040044388 R _ZN4core7unicode12unicode_data9uppercase16BITSET_CANONICAL17hbce90996db1c160dE
ffffff80400444e8 R _ZN4core7unicode12unicode_data9uppercase14BITSET_MAPPING17h171670a4b7968c44E
ffffff804004b2a8 r _ZN17compiler_builtins4math9libm_math5exp2f6EXP2FT17he362875452c377caE
ffffff804004b4b0 R _ZN17compiler_builtins4math9libm_math7generic4sqrt9RSQRT_TAB17h371c6de76fcc4576E
ffffff804004b5b0 r _ZN17compiler_builtins4math9libm_math4exp23TBL17hcd0402cb726e48dfE
ffffff804004c5b0 R __rodata_end
ffffff804004d000 R __image_end
ffffff804004e000 D _ZN5alloc4sync18STATIC_INNER_SLICE17h810500bc015806a2E
ffffff804004e020 D __data_end
ffffff8040050000 b _ZN12cohesix_root9allocator6OFFSET17hd36be7dd6e5bd009E
ffffff8040050000 B __bss_start
ffffff8040050008 B VALIDATOR_HANDLE
ffffff8040050010 B SRV_HANDLE
ffffff8040050018 B CUDA_HANDLE
ffffff8040050020 B __bss_end
ffffff8040052000 B __heap_start
ffffff80400d2000 B __heap_end
ffffff80400d3000 B __stack_start
ffffff80400e3000 B __stack_end
