ffffff8040000000 T _start
ffffff8040000040 t _ZN44_$LT$$RF$T$u20$as$u20$core..fmt..Display$GT$3fmt17he31e0992e6a74402E
ffffff8040000054 t _ZN4core3fmt5Write10write_char17h4d2c2410dd8ff596E
ffffff8040000134 t _ZN4core3fmt5Write9write_fmt17hc38144632adbcaf8E
ffffff8040000144 t _ZN75_$LT$$RF$mut$u20$W$u20$as$u20$core..fmt..Write..write_fmt..SpecWriteFmt$GT$14spec_write_fmt17h5c055c4c4a3438edE
ffffff8040000154 t _ZN91_$LT$cohesix_root..allocator..BumpAllocator$u20$as$u20$core..alloc..global..GlobalAlloc$GT$5alloc17he91de9864bdfdd9eE
ffffff8040000cf4 t _RNvCs9km79j5joxb_7___rustc17rust_begin_unwind
ffffff8040000d64 t rust_eh_personality
ffffff8040000d68 T seL4_DebugPutChar
ffffff8040000d74 T seL4_Send
ffffff8040000d88 T seL4_Recv
ffffff8040000d9c T seL4_Yield
ffffff8040000da8 T coh_open
ffffff8040000db0 T coh_read
ffffff8040000db0 T coh_write
ffffff8040000db8 T coh_close
ffffff8040000dc0 T coh_exec
ffffff8040000dc8 T coh_getenv
ffffff8040000dd0 T coh_bind
ffffff8040000dd0 T coh_setenv
ffffff8040000dd8 t memcpy
ffffff8040000ddc t memmove
ffffff8040000de0 t memset
ffffff8040000de4 t memcmp
ffffff8040000e0c t strlen
ffffff8040000e38 t _ZN60_$LT$cohesix_root..CohLogger$u20$as$u20$core..fmt..Write$GT$9write_str17h9589bcaa5491e8d9E
ffffff8040000e64 t _ZN12cohesix_root7put_hex17h93aadff50db49dc5E
ffffff8040000f4c T boot_log_hex
ffffff8040001034 t _ZN12cohesix_root14check_heap_ptr17h5ed701fb815b688bE
ffffff80400014f8 t _ZN12cohesix_root7env_var17h1de99e9f50241d81E
ffffff8040001628 t _ZN12cohesix_root10write_role17hf927bcba0236b3e4E
ffffff80400016a4 t _ZN12cohesix_root15apply_namespace17hd13964f6dafcd103E
ffffff8040001708 t _ZN12cohesix_root17check_init_exists17hf33eb1982715a023E
ffffff8040001778 t _ZN12cohesix_root9exec_init17h66ad9bbda14e263aE
ffffff804000184c T main
ffffff80400039e0 t _RNvCs9km79j5joxb_7___rustc12___rust_alloc
ffffff80400039f0 t _RNvCs9km79j5joxb_7___rustc14___rust_dealloc
ffffff80400039f4 t _RNvCs9km79j5joxb_7___rustc14___rust_realloc
ffffff8040003a3c t _RNvCs9km79j5joxb_7___rustc19___rust_alloc_zeroed
ffffff8040003a6c t _ZN12cohesix_root10lang_items11alloc_error17h9dbc7d9f4827d2ceE
ffffff8040003af4 t _RNvCs9km79j5joxb_7___rustc8___rg_oom
ffffff8040003af8 T _RNvCs9km79j5joxb_7___rustc26___rust_alloc_error_handler
ffffff8040003afc T _RNvCs9km79j5joxb_7___rustc42___rust_alloc_error_handler_should_panic_v2
ffffff8040003b04 T _RNvCs9km79j5joxb_7___rustc35___rust_no_alloc_shim_is_unstable_v2
ffffff8040003b08 t _ZN42_$LT$$RF$T$u20$as$u20$core..fmt..Debug$GT$3fmt17h09383ef5d06f85eaE
ffffff8040003b1c t _ZN42_$LT$$RF$T$u20$as$u20$core..fmt..Debug$GT$3fmt17h5ae12f9be1e3e194E
ffffff8040003b6c t _ZN42_$LT$$RF$T$u20$as$u20$core..fmt..Debug$GT$3fmt17hbc7c31c3b213027bE
ffffff8040003b88 t _ZN4core3fmt5Write9write_fmt17h92232596320aa271E
ffffff8040003b98 t _ZN4core3ptr238drop_in_place$LT$alloc..boxed..convert..$LT$impl$u20$core..convert..From$LT$alloc..string..String$GT$$u20$for$u20$alloc..boxed..Box$LT$dyn$u20$core..error..Error$u2b$core..marker..Send$u2b$core..marker..Sync$GT$$GT$..from..StringError$GT$17hcc4c5d8568dd3cb5E
ffffff8040003bb0 t _ZN4core3ptr42drop_in_place$LT$alloc..string..String$GT$17h362e8ef598d81de3E
ffffff8040003bc8 t _ZN4core5error5Error5cause17h1dd6b3dc43fa012fE
ffffff8040003bd0 t _ZN4core5error5Error7provide17h159d551b33ee0ad4E
ffffff8040003bd4 t _ZN4core5error5Error7type_id17he826f969a69f7585E
ffffff8040003bf8 T _ZN4core9panicking13assert_failed17h321b342d279f65f6E
ffffff8040003c1c t _ZN53_$LT$core..fmt..Error$u20$as$u20$core..fmt..Debug$GT$3fmt17ha34f4527ee099dadE
ffffff8040003c30 t _ZN69_$LT$core..alloc..layout..LayoutError$u20$as$u20$core..fmt..Debug$GT$3fmt17he6ea112ea7c26a14E
ffffff8040003c44 t _ZN5alloc7raw_vec17capacity_overflow17h98b7283ce73d9b69E
ffffff8040003c6c T _ZN5alloc7raw_vec19RawVec$LT$T$C$A$GT$8grow_one17hd9aaab73d1761db1E
ffffff8040003d00 t _ZN5alloc7raw_vec20RawVecInner$LT$A$GT$7reserve21do_reserve_and_handle17he869621cd0276cddE
ffffff8040003dac t _ZN5alloc7raw_vec11finish_grow17h2a0e0990be8d8cf0E
ffffff8040003e20 T _ZN5alloc7raw_vec12handle_error17h5571c099d668cd6aE
ffffff8040003e30 T _ZN5alloc5alloc18handle_alloc_error17h9ee65e8d247105cbE
ffffff8040003e40 T _ZN5alloc5alloc18handle_alloc_error8ct_error17hdf7850d613e9319eE
ffffff8040003e6c T _RNvCs9km79j5joxb_7___rustc9___rdl_oom
ffffff8040003ef8 T _ZN92_$LT$alloc..borrow..Cow$LT$str$GT$$u20$as$u20$core..ops..arith..AddAssign$LT$$RF$str$GT$$GT$10add_assign17h6abd37b4d55324ddE
ffffff80400040e0 T _ZN77_$LT$alloc..borrow..Cow$LT$str$GT$$u20$as$u20$core..ops..arith..AddAssign$GT$10add_assign17hbb39e1f24c7f5fb0E
ffffff804000430c T _ZN256_$LT$alloc..boxed..convert..$LT$impl$u20$core..convert..From$LT$alloc..string..String$GT$$u20$for$u20$alloc..boxed..Box$LT$dyn$u20$core..error..Error$u2b$core..marker..Send$u2b$core..marker..Sync$GT$$GT$..from..StringError$u20$as$u20$core..error..Error$GT$11description17hc79dd857540476aeE
ffffff8040004318 T _ZN256_$LT$alloc..boxed..convert..$LT$impl$u20$core..convert..From$LT$alloc..string..String$GT$$u20$for$u20$alloc..boxed..Box$LT$dyn$u20$core..error..Error$u2b$core..marker..Send$u2b$core..marker..Sync$GT$$GT$..from..StringError$u20$as$u20$core..fmt..Display$GT$3fmt17hcf8c9343c570930bE
ffffff804000432c T _ZN254_$LT$alloc..boxed..convert..$LT$impl$u20$core..convert..From$LT$alloc..string..String$GT$$u20$for$u20$alloc..boxed..Box$LT$dyn$u20$core..error..Error$u2b$core..marker..Send$u2b$core..marker..Sync$GT$$GT$..from..StringError$u20$as$u20$core..fmt..Debug$GT$3fmt17hfc8f865369ec08e4E
ffffff8040004340 T _ZN5alloc5boxed7convert130_$LT$impl$u20$core..convert..From$LT$alloc..string..String$GT$$u20$for$u20$alloc..boxed..Box$LT$dyn$u20$core..error..Error$GT$$GT$4from17hcd9036b8d1f76b31E
ffffff8040004388 T _ZN5alloc5boxed7convert116_$LT$impl$u20$core..convert..From$LT$$RF$str$GT$$u20$for$u20$alloc..boxed..Box$LT$dyn$u20$core..error..Error$GT$$GT$4from17hc9b80fd6b61fc31fE
ffffff8040004430 T _ZN5alloc5boxed7convert138_$LT$impl$u20$core..convert..From$LT$alloc..borrow..Cow$LT$str$GT$$GT$$u20$for$u20$alloc..boxed..Box$LT$dyn$u20$core..error..Error$GT$$GT$4from17h073a2bc8268e13cbE
ffffff8040004430 T _ZN5alloc5boxed7convert184_$LT$impl$u20$core..convert..From$LT$alloc..borrow..Cow$LT$str$GT$$GT$$u20$for$u20$alloc..boxed..Box$LT$dyn$u20$core..error..Error$u2b$core..marker..Send$u2b$core..marker..Sync$GT$$GT$4from17h3bb62c814060d9e2E
ffffff80400044ec T _ZN67_$LT$alloc..boxed..Box$LT$str$GT$$u20$as$u20$core..clone..Clone$GT$5clone17h68464bc5303a7471E
ffffff8040004560 T _ZN88_$LT$alloc..collections..btree..map..UnorderedKeyError$u20$as$u20$core..fmt..Display$GT$3fmt17he07b389979d07896E
ffffff804000457c T _ZN93_$LT$alloc..collections..btree..mem..replace..PanicGuard$u20$as$u20$core..ops..drop..Drop$GT$4drop17haf4d687fb7ca86aeE
ffffff8040004580 T _ZN74_$LT$alloc..collections..TryReserveError$u20$as$u20$core..fmt..Display$GT$3fmt17h36c2250696285668E
ffffff80400045f0 T _ZN5alloc3ffi5c_str19FromVecWithNulError8as_bytes17h9a2bd2672b702c0fE
ffffff80400045fc T _ZN72_$LT$$RF$str$u20$as$u20$alloc..ffi..c_str..CString..new..SpecNewImpl$GT$13spec_new_impl17h03fe964b3734c604E
ffffff80400045fc T _ZN81_$LT$$RF$$u5b$u8$u5d$$u20$as$u20$alloc..ffi..c_str..CString..new..SpecNewImpl$GT$13spec_new_impl17hf97b8aeb7579a951E
ffffff8040004704 T _ZN89_$LT$$RF$mut$u20$$u5b$u8$u5d$$u20$as$u20$alloc..ffi..c_str..CString..new..SpecNewImpl$GT$13spec_new_impl17h6eaa2afc2b946c43E
ffffff804000480c T _ZN5alloc3ffi5c_str7CString18from_vec_unchecked17h9416275ae6e52c18E
ffffff8040004810 T _ZN5alloc3ffi5c_str7CString19_from_vec_unchecked17h34c9b4207f754341E
ffffff8040004930 T _ZN5alloc3ffi5c_str7CString8from_raw17ha60ac60ca74ebe57E
ffffff8040004950 T _ZN5alloc3ffi5c_str7CString11into_string17hbd894b21f1d27335E
ffffff80400049f8 T _ZN5alloc3ffi5c_str7CString10into_bytes17h07acf9d68b14ae75E
ffffff8040004a0c T _ZN5alloc3ffi5c_str7CString19into_bytes_with_nul17h1ebcb2dcec576251E
ffffff8040004a0c T _ZN97_$LT$alloc..string..String$u20$as$u20$core..convert..From$LT$alloc..boxed..Box$LT$str$GT$$GT$$GT$4from17hdfbb7841262a4768E
ffffff8040004a18 T _ZN5alloc3ffi5c_str7CString27from_vec_with_nul_unchecked17hf945590e7ef7c79dE
ffffff8040004a88 T _ZN5alloc3ffi5c_str7CString17from_vec_with_nul17h23359845123985b7E
ffffff8040004b8c T _ZN63_$LT$alloc..ffi..c_str..CString$u20$as$u20$core..fmt..Debug$GT$3fmt17h5fef0e9ad5a9fcb8E
ffffff8040004ba0 T _ZN69_$LT$alloc..ffi..c_str..CString$u20$as$u20$core..default..Default$GT$7default17he7db2cec0b2d5165E
ffffff8040004bd4 T _ZN5alloc3ffi5c_str100_$LT$impl$u20$core..default..Default$u20$for$u20$alloc..boxed..Box$LT$core..ffi..c_str..CStr$GT$$GT$7default17h469946020bb580fcE
ffffff8040004c08 T _ZN66_$LT$alloc..ffi..c_str..NulError$u20$as$u20$core..fmt..Display$GT$3fmt17h36433f46813cd9cfE
ffffff8040004c54 T _ZN77_$LT$alloc..ffi..c_str..FromVecWithNulError$u20$as$u20$core..fmt..Display$GT$3fmt17h500e07ba589805feE
ffffff8040004ccc T _ZN73_$LT$alloc..ffi..c_str..IntoStringError$u20$as$u20$core..fmt..Display$GT$3fmt17heebe1c19e8d8b14aE
ffffff8040004ce0 T _ZN5alloc3ffi5c_str75_$LT$impl$u20$alloc..borrow..ToOwned$u20$for$u20$core..ffi..c_str..CStr$GT$10clone_into17hf87d7d1efbbe5ffdE
ffffff8040004d9c T _ZN100_$LT$alloc..ffi..c_str..CString$u20$as$u20$core..convert..From$LT$$RF$core..ffi..c_str..CStr$GT$$GT$4from17h4d0699676972f3a4E
ffffff8040004d9c T _ZN5alloc3ffi5c_str131_$LT$impl$u20$core..convert..From$LT$$RF$core..ffi..c_str..CStr$GT$$u20$for$u20$alloc..boxed..Box$LT$core..ffi..c_str..CStr$GT$$GT$4from17hd514f5a4aa2c24fbE
ffffff8040004d9c T _ZN5alloc3ffi5c_str139_$LT$impl$u20$core..convert..From$LT$$RF$mut$u20$core..ffi..c_str..CStr$GT$$u20$for$u20$alloc..boxed..Box$LT$core..ffi..c_str..CStr$GT$$GT$4from17hf784e6122d178726E
ffffff8040004d9c T _ZN5alloc3ffi5c_str75_$LT$impl$u20$alloc..borrow..ToOwned$u20$for$u20$core..ffi..c_str..CStr$GT$8to_owned17h026364592ab43cfcE
ffffff8040004e10 T _ZN5alloc3ffi5c_str40_$LT$impl$u20$core..ffi..c_str..CStr$GT$15to_string_lossy17hcfb2e2ef45f36019E
ffffff8040004e18 T _ZN5alloc3ffi5c_str40_$LT$impl$u20$core..ffi..c_str..CStr$GT$13into_c_string17h87732b411671a85aE
ffffff8040004e18 T _ZN5alloc3ffi5c_str7CString16into_boxed_c_str17h6ba76c9e0ba3bcfaE
ffffff8040004e1c T _ZN5alloc3fmt6format12format_inner17hd1daad04f1046b28E
ffffff8040004f84 T _ZN5alloc2rc32rc_inner_layout_for_value_layout17hb24d98443dcfb586E
ffffff8040004fec T _ZN5alloc3str21_$LT$impl$u20$str$GT$12to_lowercase17h772dc9f3eec2972bE
ffffff8040005b4c T _ZN5alloc3str21_$LT$impl$u20$str$GT$12to_uppercase17h654ee71261f6e918E
ffffff8040006358 T _ZN5alloc6string6String15from_utf8_lossy17h6f4ad338d2c5ef0fE
ffffff8040006590 T _ZN5alloc6string6String21from_utf8_lossy_owned17h8a111902375172f0E
ffffff8040006618 T _ZN5alloc6string6String10from_utf1617h1a54606cf2951c7bE
ffffff80400068a4 T _ZN5alloc6string6String12from_utf16le17h3925a43cb07f9362E
ffffff8040006cb0 T _ZN5alloc6string6String18from_utf16le_lossy17h4d39b9cbd3659ddcE
ffffff804000703c T _ZN5alloc6string6String12from_utf16be17h7bfb44a785317507E
ffffff804000741c T _ZN5alloc6string6String18from_utf16be_lossy17h933eb01aa11566ebE
ffffff80400076f8 T _ZN5alloc6string6String14into_raw_parts17hcbd9026015935a3dE
ffffff804000770c T _ZN5alloc6string6String11try_reserve17h52a01fdffe174464E
ffffff80400077e4 T _ZN5alloc6string6String17try_reserve_exact17h185429f962534c7aE
ffffff80400078a4 T _ZN5alloc6string13FromUtf8Error8as_bytes17he757fbeae247ad8cE
ffffff80400078b0 T _ZN5alloc6string13FromUtf8Error15into_utf8_lossy17h2c786777d7095ae8E
ffffff8040007a74 T _ZN67_$LT$alloc..string..FromUtf8Error$u20$as$u20$core..fmt..Display$GT$3fmt17hb1882865d8baebfcE
ffffff8040007a7c T _ZN68_$LT$alloc..string..FromUtf16Error$u20$as$u20$core..fmt..Display$GT$3fmt17hf16ca429ccee1028E
ffffff8040007a90 T _ZN60_$LT$alloc..string..String$u20$as$u20$core..clone..Clone$GT$5clone17h0ee1c8ca3859a612E
ffffff8040007b14 T _ZN60_$LT$alloc..string..String$u20$as$u20$core..clone..Clone$GT$10clone_from17h7b5ed50eb86fbe05E
ffffff8040007b7c t _ZN89_$LT$alloc..string..String$u20$as$u20$core..iter..traits..collect..Extend$LT$char$GT$$GT$6extend17h0ec8a83f66c91f3eE
ffffff8040007dc0 T _ZN73_$LT$$RF$alloc..string..String$u20$as$u20$core..str..pattern..Pattern$GT$13into_searcher17hf0c2f8d284e5ce53E
ffffff8040007dd4 T _ZN5alloc6string107_$LT$impl$u20$core..convert..From$LT$alloc..string..String$GT$$u20$for$u20$alloc..boxed..Box$LT$str$GT$$GT$4from17h07707c6a80006b3eE
ffffff8040007e28 T _ZN98_$LT$alloc..string..String$u20$as$u20$core..convert..From$LT$alloc..borrow..Cow$LT$str$GT$$GT$$GT$4from17h1fb1e435195c84f7E
ffffff8040007edc T _ZN97_$LT$alloc..string..String$u20$as$u20$core..convert..TryFrom$LT$alloc..vec..Vec$LT$u8$GT$$GT$$GT$8try_from17h4792a7b54ec6b77dE
ffffff8040007f68 t _ZN58_$LT$alloc..string..String$u20$as$u20$core..fmt..Write$GT$9write_str17h6e7a270127f56dc5E
ffffff8040007fdc t _ZN58_$LT$alloc..string..String$u20$as$u20$core..fmt..Write$GT$10write_char17h936798288afc72f4E
ffffff804000810c T _ZN61_$LT$alloc..string..IntoChars$u20$as$u20$core..fmt..Debug$GT$3fmt17h86fbe77eee6cd5d1E
ffffff8040008168 T _ZN57_$LT$alloc..string..Drain$u20$as$u20$core..fmt..Debug$GT$3fmt17hfd764db2c96c810fE
ffffff80400081c0 T _ZN62_$LT$alloc..string..Drain$u20$as$u20$core..ops..drop..Drop$GT$4drop17h95981b24fe7e03bfE
ffffff8040008234 T _ZN5alloc6string5Drain6as_str17hd843952bb94ab5b1E
ffffff8040008244 T _ZN72_$LT$alloc..string..Drain$u20$as$u20$core..convert..AsRef$LT$str$GT$$GT$6as_ref17h7aa44462f59ec952E
ffffff8040008244 T _ZN81_$LT$alloc..string..Drain$u20$as$u20$core..convert..AsRef$LT$$u5b$u8$u5d$$GT$$GT$6as_ref17h879c3d6ced2bc7b2E
ffffff8040008254 T _ZN79_$LT$alloc..string..Drain$u20$as$u20$core..iter..traits..iterator..Iterator$GT$9size_hint17h321ba137f1cf1423E
ffffff8040008274 T _ZN5alloc4sync32arcinner_layout_for_value_layout17h2acc4e12e9c394d8E
ffffff80400082dc T _ZN5alloc3vec16Vec$LT$T$C$A$GT$11swap_remove13assert_failed17hf59bfaf61886b2d6E
ffffff80400082f8 T _ZN5alloc3vec16Vec$LT$T$C$A$GT$6insert13assert_failed17hcf8d52657225fc26E
ffffff8040008314 T _ZN5alloc3vec16Vec$LT$T$C$A$GT$6remove13assert_failed17h1be45326b98e3894E
ffffff8040008330 T _ZN5alloc3vec16Vec$LT$T$C$A$GT$9split_off13assert_failed17h3354e76b2a683546E
ffffff804000834c T _ZN80_$LT$alloc..vec..Vec$LT$u8$GT$$u20$as$u20$core..convert..From$LT$$RF$str$GT$$GT$4from17h9b6c139265c23d77E
ffffff80400083d0 t OUTLINED_FUNCTION_0
ffffff80400083f0 t OUTLINED_FUNCTION_1
ffffff8040008410 T _ZN4core3num7dec2flt11decimal_seq10DecimalSeq4trim17h6f0aa4b9613e77a3E
ffffff8040008458 T _ZN4core3num7dec2flt11decimal_seq10DecimalSeq5round17h4664f5e27df69d85E
ffffff804000850c T _ZN4core3num7dec2flt11decimal_seq10DecimalSeq10left_shift17hc1583588e5bf87e9E
ffffff8040008700 T _ZN4core3num7dec2flt11decimal_seq10DecimalSeq11right_shift17h00ae1c4acd5410a6E
ffffff80400088b0 T _ZN4core3num7dec2flt11decimal_seq17parse_decimal_seq17hfd4d46f51a1222ceE
ffffff8040008c7c T _ZN59_$LT$f32$u20$as$u20$core..num..dec2flt..float..RawFloat$GT$15pow10_fast_path17h9f0a4ab334c61086E
ffffff8040008c90 T _ZN59_$LT$f64$u20$as$u20$core..num..dec2flt..float..RawFloat$GT$15pow10_fast_path17h556ca31aaa6b5cedE
ffffff8040008ca4 t _ZN4core3num7dec2flt6lemire13compute_float17h268332bb272b0da9E
ffffff8040008df4 t _ZN4core3num7dec2flt6lemire13compute_float17h2e37258977e3bfceE
ffffff8040008f44 t _ZN4core3num7dec2flt6lemire13compute_float17ha6c75a7db3dc2cabE
ffffff8040009070 T _ZN4core3num7dec2flt6lemire22compute_product_approx17hd1b5bf7abdf73b56E
ffffff80400090d4 T _ZN4core3num7dec2flt5parse12parse_number17hf081a0c314266d55E
ffffff8040009508 T _ZN74_$LT$core..num..dec2flt..ParseFloatError$u20$as$u20$core..fmt..Display$GT$3fmt17h4ee821e4f2c13606E
ffffff8040009538 T _ZN4core3num9diy_float2Fp3mul17hc76fb9c1b690c1cfE
ffffff8040009550 T _ZN4core3num9diy_float2Fp9normalize17h40d4cfc8ffc3b904E
ffffff8040009560 T _ZN4core3num9diy_float2Fp12normalize_to17h3362b799a799f458E
ffffff80400095d4 T _ZN4core3num7flt2dec9estimator23estimate_scaling_factor17h2a00acfc6d3cd17bE
ffffff8040009604 T _ZN4core3num7flt2dec8strategy6dragon9mul_pow1017ha39f289686c22dcfE
ffffff804000a228 T _ZN4core3num7flt2dec8strategy6dragon15format_shortest17h825950a282893731E
ffffff804000ae24 T _ZN4core3num7flt2dec8strategy6dragon12format_exact17hdfae75d3d6ebd61eE
ffffff804000b8b4 T _ZN4core3num7flt2dec8strategy5grisu12cached_power17h670519b7d04f4ca9E
ffffff804000b920 T _ZN4core3num7flt2dec8strategy5grisu19format_shortest_opt17h50ffe8577c191470E
ffffff804000bf08 T _ZN4core3num7flt2dec8strategy5grisu15format_shortest17h9298e97344b1df46E
ffffff804000bf7c T _ZN4core3num7flt2dec8strategy5grisu16format_exact_opt17h0d958a2944583546E
ffffff804000c2fc t _ZN4core3num7flt2dec8strategy5grisu16format_exact_opt14possibly_round17h9eaa272b6d96ec9cE
ffffff804000c4e8 T _ZN4core3num7flt2dec8strategy5grisu12format_exact17h1e917f1ccc58d16dE
ffffff804000c568 T _ZN4core3num7flt2dec8round_up17h0489f4cfb3db4d6dE
ffffff804000c640 T _ZN4core3num7flt2dec17digits_to_dec_str17h8427001af91e3adaE
ffffff804000c7a8 T _ZN4core3num7flt2dec17digits_to_exp_str17hfa72fbcd2485a78cE
ffffff804000c904 T _ZN4core3num3fmt4Part5write17h127103e135baf8feE
ffffff804000ca8c T _ZN4core3num3fmt9Formatted3len17h7239749596072ecfE
ffffff804000cb20 T _ZN4core3num3fmt9Formatted5write17h5cd456a146c91bb8E
ffffff804000cbd8 T _ZN72_$LT$core..num..error..TryFromIntError$u20$as$u20$core..fmt..Display$GT$3fmt17h47bee3b7dbdd2e8cE
ffffff804000cbec T _ZN70_$LT$core..num..error..ParseIntError$u20$as$u20$core..fmt..Display$GT$3fmt17h6065fabac1ffb0bfE
ffffff804000cc14 T _ZN4core3num9int_log1030panic_for_nonpositive_argument17ha0ae92bb6a64a73bE
ffffff804000cc3c T _ZN4core3num8int_sqrt27panic_for_negative_argument17hc409d208b7cb0152E
ffffff804000cc64 T _ZN4core3num14overflow_panic3add17h564f1e618133fbf0E
ffffff804000cc8c T _ZN4core3num14overflow_panic3sub17hee7d8ca950e2e679E
ffffff804000ccb4 T _ZN4core3num14overflow_panic3mul17hd9f99fc39cbdcedbE
ffffff804000ccdc T _ZN4core3num14overflow_panic3div17h2b8c49d65303f152E
ffffff804000cd04 T _ZN4core3num14overflow_panic3rem17h23d2c4e2165f3d64E
ffffff804000cd2c T _ZN4core3num14overflow_panic3neg17h5d1753b52366baeeE
ffffff804000cd54 T _ZN4core3num14overflow_panic3shr17h2c4c263046c43a5cE
ffffff804000cd7c T _ZN4core3num14overflow_panic3shl17h4b3810cbbbb04181E
ffffff804000cda4 T _ZN4core3num22from_ascii_radix_panic17h9b83d4b8c520d464E
ffffff804000cda8 T _ZN76_$LT$core..mem..transmutability..Assume$u20$as$u20$core..ops..arith..Sub$GT$3sub17he30ab1060f97e712E
ffffff804000cdb4 T _ZN68_$LT$core..ptr..alignment..Alignment$u20$as$u20$core..fmt..Debug$GT$3fmt17h0e7429363ac19742E
ffffff804000ce28 T _ZN69_$LT$core..ffi..c_str..CStr$u20$as$u20$core..clone..CloneToUninit$GT$15clone_to_uninit17h164099f3faf38158E
ffffff804000ce3c T _ZN57_$LT$core..error..Request$u20$as$u20$core..fmt..Debug$GT$3fmt17h40bf00de69ae0f5bE
ffffff804000ce98 T _ZN78_$LT$core..error..Source$u20$as$u20$core..iter..traits..iterator..Iterator$GT$4next17h5b02a9e40da92adeE
ffffff804000cee8 T _ZN64_$LT$core..ops..range..RangeFull$u20$as$u20$core..fmt..Debug$GT$3fmt17h15bc462951464024E
ffffff804000cf04 t _ZN71_$LT$core..ops..range..Range$LT$Idx$GT$$u20$as$u20$core..fmt..Debug$GT$3fmt17h6f3d04e7c0749038E
ffffff804000d118 T _ZN105_$LT$dyn$u20$core..any..Any$u2b$core..marker..Send$u2b$core..marker..Sync$u20$as$u20$core..fmt..Debug$GT$3fmt17h37d1c98fc5c70affE
ffffff804000d118 T _ZN59_$LT$dyn$u20$core..any..Any$u20$as$u20$core..fmt..Debug$GT$3fmt17hc3e6f49829b5370fE
ffffff804000d118 T _ZN82_$LT$dyn$u20$core..any..Any$u2b$core..marker..Send$u20$as$u20$core..fmt..Debug$GT$3fmt17hc491710f47bedd58E
ffffff804000d174 T _ZN54_$LT$core..any..TypeId$u20$as$u20$core..fmt..Debug$GT$3fmt17h6baab3c5b83010a6E
ffffff804000d1d4 T _ZN73_$LT$core..ascii..ascii_char..AsciiChar$u20$as$u20$core..fmt..Display$GT$3fmt17hc36b6d097315ee9dE
ffffff804000d1e8 T _ZN71_$LT$core..ascii..ascii_char..AsciiChar$u20$as$u20$core..fmt..Debug$GT$3fmt17h05dbed99b02af444E
ffffff804000d334 T _ZN4core5ascii14escape_default17h035a0e11067e7ec2E
ffffff804000d3a8 T _ZN65_$LT$core..ascii..EscapeDefault$u20$as$u20$core..fmt..Display$GT$3fmt17hef35cc68d33cad93E
ffffff804000d3c8 T _ZN63_$LT$core..ascii..EscapeDefault$u20$as$u20$core..fmt..Debug$GT$3fmt17h6fa3a5e528caf0afE
ffffff804000d424 T _ZN56_$LT$core..bstr..ByteStr$u20$as$u20$core..fmt..Debug$GT$3fmt17hdf7d75213ab5aaa1E
ffffff804000d6c8 T _ZN58_$LT$core..bstr..ByteStr$u20$as$u20$core..fmt..Display$GT$3fmt17hcc2406a97ad8d8a6E
ffffff804000daf0 T _ZN4core4cell4lazy14panic_poisoned17hb2720c1bdfdbd82fE
ffffff804000db1c T _ZN62_$LT$core..cell..BorrowError$u20$as$u20$core..fmt..Display$GT$3fmt17h171b7df2e3be9a8aE
ffffff804000db30 T _ZN65_$LT$core..cell..BorrowMutError$u20$as$u20$core..fmt..Display$GT$3fmt17hddfa74f3b1ca9fc3E
ffffff804000db44 T _ZN4core4cell22panic_already_borrowed17hf23ad73a0b1efc82E
ffffff804000db48 T _ZN4core4cell30panic_already_mutably_borrowed17hb1398d5d1c8be496E
ffffff804000db4c T _ZN74_$LT$core..char..convert..ParseCharError$u20$as$u20$core..fmt..Display$GT$3fmt17hbb6ad078e5793af0E
ffffff804000db7c T _ZN76_$LT$core..char..convert..CharTryFromError$u20$as$u20$core..fmt..Display$GT$3fmt17ha5b33986782d5b92E
ffffff804000db90 T _ZN75_$LT$core..char..decode..DecodeUtf16Error$u20$as$u20$core..fmt..Display$GT$3fmt17h75edb2b6e0e43994E
ffffff804000dbd8 t _ZN4core4char7methods22_$LT$impl$u20$char$GT$16escape_debug_ext17h9eb62cbb39352d94E
ffffff804000de98 T _ZN64_$LT$core..char..EscapeUnicode$u20$as$u20$core..fmt..Display$GT$3fmt17he9921f1eef17b205E
ffffff804000deb8 t _ZN62_$LT$core..char..EscapeDebug$u20$as$u20$core..fmt..Display$GT$3fmt17h6f20517951597df5E
ffffff804000def0 T _ZN86_$LT$core..char..CaseMappingIter$u20$as$u20$core..iter..traits..iterator..Iterator$GT$4next17h733e46d2ceab78a6E
ffffff804000df1c T _ZN86_$LT$core..char..CaseMappingIter$u20$as$u20$core..iter..traits..iterator..Iterator$GT$5count17h20ad299e8a32bbb2E
ffffff804000df28 T _ZN86_$LT$core..char..CaseMappingIter$u20$as$u20$core..iter..traits..iterator..Iterator$GT$4last17h6561ccf0405868bdE
ffffff804000df68 T _ZN86_$LT$core..char..CaseMappingIter$u20$as$u20$core..iter..traits..iterator..Iterator$GT$10advance_by17h2ff319524e34d454E
ffffff804000df8c T _ZN86_$LT$core..char..CaseMappingIter$u20$as$u20$core..iter..traits..iterator..Iterator$GT$24__iterator_get_unchecked17ha6cef0cacb84277fE
ffffff804000dfa0 T _ZN101_$LT$core..char..CaseMappingIter$u20$as$u20$core..iter..traits..double_ended..DoubleEndedIterator$GT$9next_back17h6f498fc1df0a7242E
ffffff804000dfc8 T _ZN101_$LT$core..char..CaseMappingIter$u20$as$u20$core..iter..traits..double_ended..DoubleEndedIterator$GT$15advance_back_by17hb0049ebccedcea75E
ffffff804000dff0 T _ZN67_$LT$core..char..TryFromCharError$u20$as$u20$core..fmt..Display$GT$3fmt17h67d1df193ec5ef21E
ffffff804000e004 T _ZN79_$LT$core..ffi..c_str..FromBytesUntilNulError$u20$as$u20$core..fmt..Display$GT$3fmt17h642f223d23b385c1E
ffffff804000e020 T _ZN59_$LT$core..ffi..c_str..CStr$u20$as$u20$core..fmt..Debug$GT$3fmt17h29b47f19969ca4abE
ffffff804000e028 T _ZN78_$LT$core..ffi..c_str..FromBytesWithNulError$u20$as$u20$core..fmt..Display$GT$3fmt17hb34861b9a05110abE
ffffff804000e0e8 T _ZN4core3ffi5c_str4CStr20from_bytes_until_nul17h1ab365aed6b90ac4E
ffffff804000e1c0 T _ZN4core3ffi5c_str4CStr19from_bytes_with_nul17hb72a5b55d88811d5E
ffffff804000e2b0 T _ZN4core3ffi5c_str4CStr6to_str17h7d207fd6f69cc3a4E
ffffff804000e2b8 T _ZN54_$LT$core..ffi..c_void$u20$as$u20$core..fmt..Debug$GT$3fmt17ha1718fea2dae8a30E
ffffff804000e2d4 T _ZN72_$LT$core..io..borrowed_buf..BorrowedBuf$u20$as$u20$core..fmt..Debug$GT$3fmt17h85c5f865ad79b3f4E
ffffff804000e3d8 t _ZN86_$LT$core..net..display_buffer..DisplayBuffer$LT$_$GT$$u20$as$u20$core..fmt..Write$GT$9write_str17h6a474af8e086f8dcE
ffffff804000e41c t _ZN86_$LT$core..net..display_buffer..DisplayBuffer$LT$_$GT$$u20$as$u20$core..fmt..Write$GT$9write_str17h9577b60d1b45b265E
ffffff804000e460 t _ZN86_$LT$core..net..display_buffer..DisplayBuffer$LT$_$GT$$u20$as$u20$core..fmt..Write$GT$9write_str17hc84fa19bd706db01E
ffffff804000e4a4 t _ZN86_$LT$core..net..display_buffer..DisplayBuffer$LT$_$GT$$u20$as$u20$core..fmt..Write$GT$9write_str17hd3a4b2f39b9aefa5E
ffffff804000e4e8 T _ZN65_$LT$core..net..ip_addr..IpAddr$u20$as$u20$core..fmt..Display$GT$3fmt17hb67b2937223d1790E
ffffff804000e4fc T _ZN63_$LT$core..net..ip_addr..IpAddr$u20$as$u20$core..fmt..Debug$GT$3fmt17h8a68d4f7e227ec3aE
ffffff804000e510 T _ZN67_$LT$core..net..ip_addr..Ipv4Addr$u20$as$u20$core..fmt..Display$GT$3fmt17h284b4d9f366888b0E
ffffff804000e660 T _ZN65_$LT$core..net..ip_addr..Ipv4Addr$u20$as$u20$core..fmt..Debug$GT$3fmt17h1f9d092e4f2f7605E
ffffff804000e664 T _ZN67_$LT$core..net..ip_addr..Ipv6Addr$u20$as$u20$core..fmt..Display$GT$3fmt17hc839e7a322fa656aE
ffffff804000ed10 t _ZN67_$LT$core..net..ip_addr..Ipv6Addr$u20$as$u20$core..fmt..Display$GT$3fmt12fmt_subslice17hb0d857be1fa02614E
ffffff804000ee0c T _ZN65_$LT$core..net..ip_addr..Ipv6Addr$u20$as$u20$core..fmt..Debug$GT$3fmt17h333eb98b46e1769eE
ffffff804000ee10 t _ZN4core3net6parser6Parser11read_number28_$u7b$$u7b$closure$u7d$$u7d$17ha51ce3a2097f810bE
ffffff804000f0a4 t _ZN4core3net6parser6Parser14read_ipv4_addr17h9978df44beecd603E
ffffff804000f36c t _ZN4core3net6parser6Parser14read_ipv6_addr17h8cbe2f632062fde2E
ffffff804000f4b8 t _ZN4core3net6parser6Parser14read_ipv6_addr11read_groups17hfba04a6a986430ddE
ffffff804000f6dc t _ZN4core3net6parser6Parser19read_socket_addr_v617hd4ee43fcf80bf13dE
ffffff804000f8ac T _ZN4core3net6parser44_$LT$impl$u20$core..net..ip_addr..IpAddr$GT$11parse_ascii17h172104079b7504c0E
ffffff804000f960 T _ZN4core3net6parser83_$LT$impl$u20$core..str..traits..FromStr$u20$for$u20$core..net..ip_addr..IpAddr$GT$8from_str17hbf1a3e6767deeab1E
ffffff804000fa14 T _ZN4core3net6parser46_$LT$impl$u20$core..net..ip_addr..Ipv4Addr$GT$11parse_ascii17hf2fea780cf33f045E
ffffff804000fa88 T _ZN4core3net6parser85_$LT$impl$u20$core..str..traits..FromStr$u20$for$u20$core..net..ip_addr..Ipv4Addr$GT$8from_str17h3c807c458c9408afE
ffffff804000fafc T _ZN4core3net6parser46_$LT$impl$u20$core..net..ip_addr..Ipv6Addr$GT$11parse_ascii17h8bbc8470c3b39eb6E
ffffff804000fb78 T _ZN4core3net6parser85_$LT$impl$u20$core..str..traits..FromStr$u20$for$u20$core..net..ip_addr..Ipv6Addr$GT$8from_str17h8256fd06b362b4fcE
ffffff804000fbf4 T _ZN4core3net6parser54_$LT$impl$u20$core..net..socket_addr..SocketAddrV4$GT$11parse_ascii17habeca9e3144f9197E
ffffff804000fd00 T _ZN4core3net6parser93_$LT$impl$u20$core..str..traits..FromStr$u20$for$u20$core..net..socket_addr..SocketAddrV4$GT$8from_str17haa4e35f8de8bf5e4E
ffffff804000fe08 T _ZN4core3net6parser54_$LT$impl$u20$core..net..socket_addr..SocketAddrV6$GT$11parse_ascii17hd20fe4a86fbcde2dE
ffffff804000fe70 T _ZN4core3net6parser93_$LT$impl$u20$core..str..traits..FromStr$u20$for$u20$core..net..socket_addr..SocketAddrV6$GT$8from_str17h3ba4857cb461f3b2E
ffffff804000fed8 T _ZN4core3net6parser52_$LT$impl$u20$core..net..socket_addr..SocketAddr$GT$11parse_ascii17h7d62205490d435dfE
ffffff8040010070 T _ZN4core3net6parser91_$LT$impl$u20$core..str..traits..FromStr$u20$for$u20$core..net..socket_addr..SocketAddr$GT$8from_str17hf31ddc1bd93c647dE
ffffff8040010074 T _ZN72_$LT$core..net..parser..AddrParseError$u20$as$u20$core..fmt..Display$GT$3fmt17h13fc100e65b7dc4dE
ffffff804001009c T _ZN73_$LT$core..net..socket_addr..SocketAddr$u20$as$u20$core..fmt..Display$GT$3fmt17hcc1bd9e6f0a0a077E
ffffff80400100b8 T _ZN71_$LT$core..net..socket_addr..SocketAddr$u20$as$u20$core..fmt..Debug$GT$3fmt17h05e6cca1b2756833E
ffffff80400100d4 T _ZN75_$LT$core..net..socket_addr..SocketAddrV4$u20$as$u20$core..fmt..Display$GT$3fmt17h5b7a83bfe90dc160E
ffffff8040010220 T _ZN73_$LT$core..net..socket_addr..SocketAddrV4$u20$as$u20$core..fmt..Debug$GT$3fmt17hc52406769a9d1ad9E
ffffff8040010224 T _ZN75_$LT$core..net..socket_addr..SocketAddrV6$u20$as$u20$core..fmt..Display$GT$3fmt17h1a5e2ddfceb4fc7bE
ffffff8040010458 T _ZN73_$LT$core..net..socket_addr..SocketAddrV6$u20$as$u20$core..fmt..Debug$GT$3fmt17h9851b03b97525e28E
ffffff804001045c T _ZN4core6option13unwrap_failed17hf44311adf7f39d8eE
ffffff8040010470 T _ZN4core6option13expect_failed17hed37371e60387d24E
ffffff80400104ac T _ZN68_$LT$core..panic..location..Location$u20$as$u20$core..fmt..Debug$GT$3fmt17habd528d5e82eacb3E
ffffff80400105b4 T _ZN73_$LT$core..panic..panic_info..PanicInfo$u20$as$u20$core..fmt..Display$GT$3fmt17h2e3684221ecbef36E
ffffff80400106ec T _ZN4core9panicking9panic_fmt17h7d517165f18ec517E
ffffff8040010704 T _ZN4core9panicking18panic_nounwind_fmt17he57db48c490aa6bfE
ffffff804001071c T _ZN4core9panicking5panic17hc496a0370789df7fE
ffffff8040010748 T _ZN4core9panicking14panic_nounwind17h0d6c7254c9b39ab1E
ffffff804001077c T _ZN4core9panicking26panic_nounwind_nobacktrace17h585e3bd793718d15E
ffffff80400107b0 T _ZN4core9panicking14panic_explicit17h7336dd098e1bc89eE
ffffff80400107f0 T _ZN4core9panicking18panic_bounds_check17h7229255735c636a7E
ffffff8040010834 T _ZN4core9panicking36panic_misaligned_pointer_dereference17h9ab9eecbbe640156E
ffffff8040010874 T _ZN4core9panicking30panic_null_pointer_dereference17h3d680c7dc9b00fc9E
ffffff80400108a0 T _ZN4core9panicking31panic_invalid_enum_construction17h477da5f751b1bb16E
ffffff80400108d8 T _ZN4core9panicking19panic_cannot_unwind17h84020d8eb8c44900E
ffffff80400108e8 T _ZN4core9panicking16panic_in_cleanup17hd27ee0ecb98a3acaE
ffffff80400108f8 T _ZN4core9panicking15const_panic_fmt17hb7a0404995520da5E
ffffff8040010950 T _ZN4core9panicking13assert_failed17h8283170e254e700aE
ffffff8040010960 T _ZN4core9panicking13assert_failed17hbcc6df6ffc683f02E
ffffff8040010970 T _ZN84_$LT$core..panicking..assert_matches_failed..Pattern$u20$as$u20$core..fmt..Debug$GT$3fmt17h6948eeb4d1a44229E
ffffff8040010984 T _ZN4core9panicking19assert_failed_inner17hde017f7fae2146c3E
ffffff8040010a5c T _ZN48_$LT$char$u20$as$u20$core..pat..RangePattern$GT$7sub_one17h180de4b6e2087bbbE
ffffff8040010aa4 T _ZN4core6result13unwrap_failed17h1c3ec183ec56dc60E
ffffff8040010af8 T _ZN67_$LT$core..sync..atomic..AtomicBool$u20$as$u20$core..fmt..Debug$GT$3fmt17ha9eeb98af1242554E
ffffff8040010b24 T _ZN4core3fmt8builders10PadAdapter4wrap17hd761f28e7da99bfdE
ffffff8040010b48 T _ZN68_$LT$core..fmt..builders..PadAdapter$u20$as$u20$core..fmt..Write$GT$9write_str17h5fb28b2e1d7322f1E
ffffff8040010d90 T _ZN68_$LT$core..fmt..builders..PadAdapter$u20$as$u20$core..fmt..Write$GT$10write_char17h8cdaaf8bef67ca5fE
ffffff8040010e0c T _ZN4core3fmt8builders11DebugStruct5field17h934b991c8c839b55E
ffffff8040010fac T _ZN4core3fmt8builders11DebugStruct21finish_non_exhaustive17hceff5e17cf10f0c8E
ffffff8040011074 T _ZN4core3fmt8builders11DebugStruct6finish17h6eb890561b487d1fE
ffffff80400110e4 T _ZN4core3fmt8builders10DebugTuple5field17hf5623338161fe8e3E
ffffff8040011218 T _ZN4core3fmt8builders10DebugTuple21finish_non_exhaustive17h0a47f22cfc3179ecE
ffffff80400112dc T _ZN4core3fmt8builders10DebugTuple6finish17h82f71878c7c7edb6E
ffffff8040011388 T _ZN4core3fmt8builders8DebugSet5entry17ha4c61207a3c35fecE
ffffff8040011388 T _ZN4core3fmt8builders9DebugList5entry17h7d1db1820402c52aE
ffffff80400114b8 T _ZN4core3fmt8builders8DebugSet21finish_non_exhaustive17h6d1c2cb2087bb77aE
ffffff8040011580 T _ZN4core3fmt8builders8DebugSet6finish17h2510902b21f7f04cE
ffffff80400115c8 T _ZN4core3fmt8builders9DebugList21finish_non_exhaustive17he69ff9c430adc8acE
ffffff80400116a0 T _ZN4core3fmt8builders9DebugList6finish17hd997e39e075c0f95E
ffffff80400116e8 T _ZN4core3fmt8builders8DebugMap5entry17h6635330f1d51a954E
ffffff80400117f4 T _ZN4core3fmt8builders8DebugMap3key17h8adb87713c3c81deE
ffffff804001197c T _ZN4core3fmt8builders8DebugMap5value17h31398227b27dbfa6E
ffffff8040011a78 T _ZN4core3fmt8builders8DebugMap21finish_non_exhaustive17hf04fdb2d0691e172E
ffffff8040011b74 T _ZN4core3fmt8builders8DebugMap6finish17h2ac2121f4fbebce5E
ffffff8040011bfc t _ZN4core3fmt5float29float_to_decimal_common_exact17h3d665c8edb529c48E
ffffff8040011f24 t _ZN4core3fmt5float29float_to_decimal_common_exact17h7cbc82db620eebe7E
ffffff8040012248 t _ZN4core3fmt5float29float_to_decimal_common_exact17haa49e282a72db4c8E
ffffff8040012570 t _ZN4core3fmt5float32float_to_decimal_common_shortest17h1bf774420e251d92E
ffffff80400127b0 t _ZN4core3fmt5float32float_to_decimal_common_shortest17h8eacbc76e5673ab9E
ffffff80400129ec t _ZN4core3fmt5float32float_to_decimal_common_shortest17hdb86b5c0e21e82d4E
ffffff8040012c2c t _ZN4core3fmt5float33float_to_exponential_common_exact17ha9b7a262e6b8ccd4E
ffffff8040012f70 t _ZN4core3fmt5float33float_to_exponential_common_exact17hbc6027559bd0f211E
ffffff80400132b8 t _ZN4core3fmt5float33float_to_exponential_common_exact17he7c55db3a953867aE
ffffff8040013600 t _ZN4core3fmt5float36float_to_exponential_common_shortest17h509b4cd866d022aaE
ffffff8040013900 t _ZN4core3fmt5float36float_to_exponential_common_shortest17h98d8bef782ed675bE
ffffff8040013bfc t _ZN4core3fmt5float36float_to_exponential_common_shortest17he0be3f6b979be94cE
ffffff8040013efc T _ZN4core3fmt3num53_$LT$impl$u20$core..fmt..Display$u20$for$u20$u128$GT$3fmt17h5458a9591129ddafE
ffffff8040013f44 T _ZN4core3fmt3num53_$LT$impl$u20$core..fmt..Display$u20$for$u20$i128$GT$3fmt17ha1c04cd997499b2bE
ffffff8040013fa8 T _ZN4core3fmt3num22_$LT$impl$u20$u128$GT$4_fmt17h7369391f203523acE
ffffff8040014454 t _ZN4core3fmt5Write10write_char17h0bbe4e31c75bafe8E
ffffff8040014594 t _ZN4core3fmt5Write10write_char17h1a9846a7d6368731E
ffffff80400146d4 t _ZN4core3fmt5Write10write_char17hefb1eafd83b1f467E
ffffff8040014814 t _ZN4core3fmt5Write10write_char17hfdb0b3b6f8a93d26E
ffffff8040014954 t _ZN4core3fmt5Write9write_fmt17h1c9832ffafa81045E
ffffff8040014964 t _ZN4core3fmt5Write9write_fmt17h2d3920f209b40a1cE
ffffff8040014974 t _ZN4core3fmt5Write9write_fmt17haece6d7b10624a6bE
ffffff8040014984 t _ZN4core3fmt5Write9write_fmt17hbcdb19dac4cb9340E
ffffff8040014994 t _ZN4core3fmt5Write9write_fmt17hec6377a8385e496cE
ffffff80400149a4 T _ZN4core3fmt17FormattingOptions8get_fill17h5431cbc0084ab89fE
ffffff80400149b0 T _ZN57_$LT$core..fmt..Arguments$u20$as$u20$core..fmt..Debug$GT$3fmt17had96227d4b529504E
ffffff80400149c0 T _ZN59_$LT$core..fmt..Arguments$u20$as$u20$core..fmt..Display$GT$3fmt17he4b937258d39bb4bE
ffffff80400149d0 T _ZN4core3fmt5write17hb8b00f424e937dc3E
ffffff8040014bf4 T _ZN4core3fmt9Formatter12pad_integral17hc2615626e536785cE
ffffff8040014fa4 t _ZN4core3fmt9Formatter12pad_integral12write_prefix17h4b36def068fc1b84E
ffffff8040015028 T _ZN4core3fmt9Formatter3pad17haf31b78ddc2012b6E
ffffff8040015338 t _ZN4core3fmt9Formatter19pad_formatted_parts17ha2ca24fdb029cc71E
ffffff8040015564 t _ZN4core3fmt9Formatter21write_formatted_parts17h8d3459aa7dd4a43bE
ffffff80400157a4 T _ZN4core3fmt9Formatter9write_str17hbaf8ef4d08561f26E
ffffff80400157a4 T _ZN57_$LT$core..fmt..Formatter$u20$as$u20$core..fmt..Write$GT$9write_str17hd422c24649535bafE
ffffff80400157b0 T _ZN4core3fmt9Formatter4fill17h001304c648b1925dE
ffffff80400157bc T _ZN4core3fmt9Formatter12debug_struct17hee49ab4625127120E
ffffff80400157f0 T _ZN4core3fmt9Formatter26debug_struct_field1_finish17h68b8e2938a81e049E
ffffff80400158ac T _ZN4core3fmt9Formatter26debug_struct_field2_finish17h3caa16819a5c8643E
ffffff804001599c T _ZN4core3fmt9Formatter26debug_struct_field3_finish17h9fe230c8a3778457E
ffffff8040015ab8 T _ZN4core3fmt9Formatter26debug_struct_field4_finish17h1af672da19ce9c71E
ffffff8040015bf4 T _ZN4core3fmt9Formatter26debug_struct_field5_finish17h0dafaca4560190e9E
ffffff8040015d4c T _ZN4core3fmt9Formatter26debug_struct_fields_finish17h04eb67fe3be9ef01E
ffffff8040015e48 T _ZN4core3fmt9Formatter11debug_tuple17h01ec6e4cad6ddb19E
ffffff8040015e88 T _ZN4core3fmt9Formatter25debug_tuple_field1_finish17hc1d74db5b23bb6a3E
ffffff8040015fe4 T _ZN4core3fmt9Formatter25debug_tuple_field2_finish17hb4e44fd9aeff3d31E
ffffff80400161b0 T _ZN4core3fmt9Formatter25debug_tuple_field3_finish17h7c47868462011ed3E
ffffff8040016428 T _ZN4core3fmt9Formatter25debug_tuple_field4_finish17h488e30944a3cac62E
ffffff8040016740 T _ZN4core3fmt9Formatter25debug_tuple_field5_finish17h909bd439728a93baE
ffffff8040016af8 T _ZN4core3fmt9Formatter25debug_tuple_fields_finish17h3c9bb44b676150adE
ffffff8040016d5c T _ZN4core3fmt9Formatter10debug_list17h9dfe513fa17aaa18E
ffffff8040016d9c T _ZN4core3fmt9Formatter9debug_set17hfe110eab3c8b6441E
ffffff8040016ddc T _ZN4core3fmt9Formatter9debug_map17h490423b0f334a93aE
ffffff8040016e24 T _ZN57_$LT$core..fmt..Formatter$u20$as$u20$core..fmt..Write$GT$10write_char17h1c34bd64eeaf2accE
ffffff8040016e30 T _ZN55_$LT$core..fmt..Error$u20$as$u20$core..fmt..Display$GT$3fmt17hd793861b2c6a1c2aE
ffffff8040016e44 T _ZN43_$LT$bool$u20$as$u20$core..fmt..Display$GT$3fmt17hd5edc85204cccebbE
ffffff8040016e70 T _ZN40_$LT$str$u20$as$u20$core..fmt..Debug$GT$3fmt17h18dcbd0183f4d55eE
ffffff8040017200 T _ZN42_$LT$str$u20$as$u20$core..fmt..Display$GT$3fmt17h970be8283cf03b3eE
ffffff8040017214 T _ZN41_$LT$char$u20$as$u20$core..fmt..Debug$GT$3fmt17h3fcec0bded3a9beaE
ffffff80400172f4 T _ZN43_$LT$char$u20$as$u20$core..fmt..Display$GT$3fmt17hd863300fb2901630E
ffffff8040017404 T _ZN4core3fmt17pointer_fmt_inner17hec189f0f374eb1abE
ffffff80400174c0 t _ZN52_$LT$$BP$const$u20$T$u20$as$u20$core..fmt..Debug$GT$3fmt17h5029a5e613b48339E
ffffff8040017580 T _ZN4core5slice6memchr14memchr_aligned17hcf7c4c7a92a36b33E
ffffff804001765c T _ZN4core5slice6memchr7memrchr17h6fc42ddd60cb9bf0E
ffffff804001777c T _ZN4core5slice4sort6stable5drift11sqrt_approx17hf12d01268429eb7cE
ffffff80400177a8 T _ZN4core5slice4sort6shared9smallsort22panic_on_ord_violation17h1d05802e7274aabeE
ffffff80400177d4 T _ZN105_$LT$core..slice..ascii..EscapeAscii$u20$as$u20$core..iter..traits..double_ended..DoubleEndedIterator$GT$9next_back17h0cfec1b07f57fa13E
ffffff80400178f4 T _ZN70_$LT$core..slice..ascii..EscapeAscii$u20$as$u20$core..fmt..Display$GT$3fmt17h219d4f35976908a2E
ffffff8040017b2c T _ZN68_$LT$core..slice..ascii..EscapeAscii$u20$as$u20$core..fmt..Debug$GT$3fmt17h0dd653fdfa877001E
ffffff8040017b88 T _ZN4core5slice5index26slice_start_index_len_fail17ha7239861d6a7edd0E
ffffff8040017b8c T _ZN4core5slice5index24slice_end_index_len_fail17hf4b75616079506e9E
ffffff8040017b90 T _ZN4core5slice5index22slice_index_order_fail17h0ed98543deae06f2E
ffffff8040017b94 T _ZN4core5slice5index31slice_start_index_overflow_fail17hf665f2c76aae4c3fE
ffffff8040017bbc T _ZN4core5slice5index29slice_end_index_overflow_fail17hcc10f3d6fd59276bE
ffffff8040017be4 T _ZN4core5slice5index10into_range17h5d30e0e5930ceab5E
ffffff8040017c50 T _ZN4core5slice5index16into_slice_range17h77e6bf0b7f818f62E
ffffff8040017cbc T _ZN4core5slice29_$LT$impl$u20$$u5b$T$u5d$$GT$15copy_from_slice17len_mismatch_fail17h82ad01f65c64cb8bE
ffffff8040017ccc T _ZN4core5slice29_$LT$impl$u20$$u5b$T$u5d$$GT$16align_to_offsets3gcd17he9e41e9474d294a2E
ffffff8040017cf0 T _ZN71_$LT$core..slice..GetDisjointMutError$u20$as$u20$core..fmt..Display$GT$3fmt17h86501b3b1cd88310E
ffffff8040017d20 T _ZN4core3str8converts9from_utf817h99fae39dcbc840edE
ffffff8040017f90 T _ZN4core3str8converts13from_utf8_mut17hd15ec65a15300fcfE
ffffff8040018200 T _ZN4core3str5count14do_count_chars17haba955a83f861e19E
ffffff80400186ec T _ZN4core3str5count23char_count_general_case17h34ff18390419b025E
ffffff80400189a0 T _ZN66_$LT$core..str..error..Utf8Error$u20$as$u20$core..fmt..Display$GT$3fmt17h172bfc2ecf38b58eE
ffffff8040018a28 T _ZN71_$LT$core..str..error..ParseBoolError$u20$as$u20$core..fmt..Display$GT$3fmt17h5b7ea7c84cf50c0dE
ffffff8040018a3c T _ZN59_$LT$core..str..iter..Chars$u20$as$u20$core..fmt..Debug$GT$3fmt17hb322e019a2055c5dE
ffffff8040019038 T _ZN65_$LT$core..str..iter..EncodeUtf16$u20$as$u20$core..fmt..Debug$GT$3fmt17h224693ceaf857776E
ffffff8040019094 T _ZN4core3str6traits23str_index_overflow_fail17hf20568b96d5318cbE
ffffff80400190bc T _ZN4core3str7pattern11StrSearcher3new17h4e2b1022662a28bbE
ffffff8040019990 T _ZN60_$LT$core..str..lossy..Debug$u20$as$u20$core..fmt..Debug$GT$3fmt17h038534ec75de740bE
ffffff8040019cf8 T _ZN87_$LT$core..str..lossy..Utf8Chunks$u20$as$u20$core..iter..traits..iterator..Iterator$GT$4next17hdb2f16ccaeba50cfE
ffffff8040019eb8 T _ZN65_$LT$core..str..lossy..Utf8Chunks$u20$as$u20$core..fmt..Debug$GT$3fmt17hebc9d40194c7c470E
ffffff8040019f80 T _ZN4core3str16slice_error_fail17hf614b958363dd074E
ffffff8040019f84 T _ZN4core3str19slice_error_fail_ct17h96cb096a1d1f028dE
ffffff8040019fac T _ZN4core3str19slice_error_fail_rt17hcc3f95bb66c04496E
ffffff804001a2e0 T _ZN4core3str21_$LT$impl$u20$str$GT$9from_utf817he68d46f85bad3510E
ffffff804001a2e4 T _ZN4core3str21_$LT$impl$u20$str$GT$13from_utf8_mut17h88950c129b653508E
ffffff804001a2e8 T _ZN4core3str21_$LT$impl$u20$str$GT$18split_at_unchecked17hb69b01142c009e3eE
ffffff804001a2fc T _ZN4core3str21_$LT$impl$u20$str$GT$22split_at_mut_unchecked17he3074ecd2d713241E
ffffff804001a310 T _ZN4core3str21_$LT$impl$u20$str$GT$12escape_debug17h2e06ad2365c14387E
ffffff804001a3f0 T _ZN4core3str21_$LT$impl$u20$str$GT$12substr_range17h85297b611256dfebE
ffffff804001a41c T _ZN57_$LT$core..time..Duration$u20$as$u20$core..fmt..Debug$GT$3fmt17h4427e697f70bf9ffE
ffffff804001a500 t _ZN57_$LT$core..time..Duration$u20$as$u20$core..fmt..Debug$GT$3fmt11fmt_decimal17h0b792353869496acE
ffffff804001aa5c t _ZN57_$LT$core..time..Duration$u20$as$u20$core..fmt..Debug$GT$3fmt11fmt_decimal28_$u7b$$u7b$closure$u7d$$u7d$17h41069b8b3240ba77E
ffffff804001ac74 T _ZN72_$LT$core..time..TryFromFloatSecsError$u20$as$u20$core..fmt..Display$GT$3fmt17hb40b7af38e66a126E
ffffff804001aca4 T _ZN4core7unicode9printable12is_printable17h5f7fc69f35ee8403E
ffffff804001af6c T _ZN62_$LT$core..task..wake..Context$u20$as$u20$core..fmt..Debug$GT$3fmt17hdd9b1f20e3ccb258E
ffffff804001b02c T _ZN60_$LT$core..task..wake..Waker$u20$as$u20$core..fmt..Debug$GT$3fmt17hc063c66e66ff9a29E
ffffff804001b10c T _ZN65_$LT$core..task..wake..LocalWaker$u20$as$u20$core..fmt..Debug$GT$3fmt17h9072c09fdae665ceE
ffffff804001b1ec T _ZN4core5alloc6layout6Layout19is_size_align_valid17h91f20f44008bb800E
ffffff804001b20c T _ZN71_$LT$core..alloc..layout..LayoutError$u20$as$u20$core..fmt..Display$GT$3fmt17h08edb96a0882d9beE
ffffff804001b228 T _ZN62_$LT$core..alloc..AllocError$u20$as$u20$core..fmt..Display$GT$3fmt17h43f2b542b1b543e4E
ffffff804001b244 T _ZN4core3f3221_$LT$impl$u20$f32$GT$5clamp8do_panic7runtime17hd55e49d273f99ecaE
ffffff804001b28c T _ZN4core3f6421_$LT$impl$u20$f64$GT$5clamp8do_panic7runtime17h31044026d3c26c83E
ffffff804001b2d0 T _ZN49_$LT$u8$u20$as$u20$core..num..bignum..FullOps$GT$12full_div_rem17hf58501bf3b9471feE
ffffff804001b300 T _ZN50_$LT$u16$u20$as$u20$core..num..bignum..FullOps$GT$12full_div_rem17h45d369d26c5312ecE
ffffff804001b32c T _ZN50_$LT$u32$u20$as$u20$core..num..bignum..FullOps$GT$12full_div_rem17h203df7d4d27e3d55E
ffffff804001b358 T _ZN4core3num6bignum8Big32x408from_u6417h148acfa7b0eeb87fE
ffffff804001b3b0 T _ZN4core3num6bignum8Big32x406digits17h8f0115b90a6d5085E
ffffff804001b3d4 T _ZN4core3num6bignum8Big32x407get_bit17hcd91a3f4d94ed5ffE
ffffff804001b404 T _ZN4core3num6bignum8Big32x407is_zero17h8ea5d5ed6f0464eeE
ffffff804001b448 T _ZN4core3num6bignum8Big32x4010bit_length17h5eb560df3587cc9eE
ffffff804001b4bc T _ZN4core3num6bignum8Big32x403add17ha89cb358440d8e6bE
ffffff804001b550 T _ZN4core3num6bignum8Big32x409add_small17h7b0e17d8a4f1fbe1E
ffffff804001b934 T _ZN4core3num6bignum8Big32x403sub17h7eae4cd7f6f16750E
ffffff804001b9bc T _ZN4core3num6bignum8Big32x409mul_small17h6697abe2f8115757E
ffffff804001ba38 T _ZN4core3num6bignum8Big32x408mul_pow217h2d835f1a72888eb1E
ffffff804001bde4 T _ZN4core3num6bignum8Big32x408mul_pow517h54235c2a2f0eeccbE
ffffff804001bf64 T _ZN4core3num6bignum8Big32x4010mul_digits17h63dee88a2f237915E
ffffff804001c024 t _ZN4core3num6bignum8Big32x4010mul_digits9mul_inner17h8425b8f805779dffE
ffffff804001c1a8 T _ZN4core3num6bignum8Big32x4013div_rem_small17h76a751dd6fedea10E
ffffff804001c224 T _ZN4core3num6bignum8Big32x407div_rem17h1895cc1e2b4ba4c9E
ffffff804001c488 T _ZN68_$LT$core..num..bignum..Big32x40$u20$as$u20$core..cmp..PartialEq$GT$2eq17h6148d7408d9ca81aE
ffffff804001c4a4 T _ZN69_$LT$core..num..bignum..Big32x40$u20$as$u20$core..cmp..PartialOrd$GT$11partial_cmp17hf1a96083e772b86eE
ffffff804001c50c T _ZN62_$LT$core..num..bignum..Big32x40$u20$as$u20$core..cmp..Ord$GT$3cmp17h3fc93330aa788041E
ffffff804001c574 T _ZN64_$LT$core..num..bignum..Big32x40$u20$as$u20$core..fmt..Debug$GT$3fmt17h371b1b9142e38a2aE
ffffff804001c6bc T _ZN4core3num6bignum5tests6Big8x38from_u6417h732d81b8476b3604E
ffffff804001c764 T _ZN4core3num6bignum5tests6Big8x36digits17h4ac28f1756a012d7E
ffffff804001c78c T _ZN4core3num6bignum5tests6Big8x37get_bit17h8df8debe1704f4a6E
ffffff804001c7c4 T _ZN4core3num6bignum5tests6Big8x37is_zero17h0a4b0209a0d651a5E
ffffff804001c834 T _ZN4core3num6bignum5tests6Big8x310bit_length17he126c56e3edfd7b5E
ffffff804001c8e8 T _ZN4core3num6bignum5tests6Big8x33add17h5a59aea7ce0cf935E
ffffff804001c990 T _ZN4core3num6bignum5tests6Big8x39add_small17h652a32085b52de21E
ffffff804001ca14 T _ZN4core3num6bignum5tests6Big8x33sub17hc45b2454e62f3f10E
ffffff804001caac T _ZN4core3num6bignum5tests6Big8x39mul_small17h1a46c4ac38985cc1E
ffffff804001cb48 T _ZN4core3num6bignum5tests6Big8x38mul_pow217h34a4a35a1c0a9ad8E
ffffff804001cd9c T _ZN4core3num6bignum5tests6Big8x38mul_pow517h3cac0e405db23275E
ffffff804001cf08 T _ZN4core3num6bignum5tests6Big8x310mul_digits17h04e5efe1cc365287E
ffffff804001d274 T _ZN4core3num6bignum5tests6Big8x313div_rem_small17h63217d7a0e48cb69E
ffffff804001d324 T _ZN4core3num6bignum5tests6Big8x37div_rem17hd83bea0347a04d34E
ffffff804001d5fc T _ZN73_$LT$core..num..bignum..tests..Big8x3$u20$as$u20$core..cmp..PartialEq$GT$2eq17heb748a29770b43aeE
ffffff804001d61c T _ZN74_$LT$core..num..bignum..tests..Big8x3$u20$as$u20$core..cmp..PartialOrd$GT$11partial_cmp17h9faf963990452e57E
ffffff804001d6c4 T _ZN67_$LT$core..num..bignum..tests..Big8x3$u20$as$u20$core..cmp..Ord$GT$3cmp17h0e44aa75c7871184E
ffffff804001d76c T _ZN69_$LT$core..num..bignum..tests..Big8x3$u20$as$u20$core..fmt..Debug$GT$3fmt17h7196b5c5e8942201E
ffffff804001d8a4 T _ZN4core3num7dec2flt60_$LT$impl$u20$core..str..traits..FromStr$u20$for$u20$f16$GT$8from_str17hd266c3370672336fE
ffffff804001dd40 T _ZN4core3num7dec2flt60_$LT$impl$u20$core..str..traits..FromStr$u20$for$u20$f32$GT$8from_str17h01f6addd4ba682d9E
ffffff804001e1ac T _ZN4core3num7dec2flt60_$LT$impl$u20$core..str..traits..FromStr$u20$for$u20$f64$GT$8from_str17h8695df53f55cd0c7E
ffffff804001e5f0 t _ZN73_$LT$core..num..nonzero..NonZero$LT$T$GT$$u20$as$u20$core..fmt..Debug$GT$3fmt17h9c9ec1b97a8a03ccE
ffffff804001e6cc T _ZN84_$LT$core..num..nonzero..NonZero$LT$u8$GT$$u20$as$u20$core..str..traits..FromStr$GT$8from_str17h775130d2d90804e8E
ffffff804001e7d8 T _ZN85_$LT$core..num..nonzero..NonZero$LT$u16$GT$$u20$as$u20$core..str..traits..FromStr$GT$8from_str17hdfb0cb6c11da7ff6E
ffffff804001e8ec T _ZN85_$LT$core..num..nonzero..NonZero$LT$u32$GT$$u20$as$u20$core..str..traits..FromStr$GT$8from_str17hc56f699b96d6892fE
ffffff804001ea34 T _ZN85_$LT$core..num..nonzero..NonZero$LT$u64$GT$$u20$as$u20$core..str..traits..FromStr$GT$8from_str17hbcc97fdcd8aa69c6E
ffffff804001ea34 T _ZN87_$LT$core..num..nonzero..NonZero$LT$usize$GT$$u20$as$u20$core..str..traits..FromStr$GT$8from_str17h3160f5f4f86474bdE
ffffff804001eb44 T _ZN86_$LT$core..num..nonzero..NonZero$LT$u128$GT$$u20$as$u20$core..str..traits..FromStr$GT$8from_str17hd9245678ec830680E
ffffff804001ec88 T _ZN84_$LT$core..num..nonzero..NonZero$LT$i8$GT$$u20$as$u20$core..str..traits..FromStr$GT$8from_str17h441d41c54c999bd5E
ffffff804001ee98 T _ZN85_$LT$core..num..nonzero..NonZero$LT$i16$GT$$u20$as$u20$core..str..traits..FromStr$GT$8from_str17h2aac9115286ef00dE
ffffff804001f0a0 T _ZN85_$LT$core..num..nonzero..NonZero$LT$i32$GT$$u20$as$u20$core..str..traits..FromStr$GT$8from_str17h736d9fca226b7547E
ffffff804001f290 T _ZN85_$LT$core..num..nonzero..NonZero$LT$i64$GT$$u20$as$u20$core..str..traits..FromStr$GT$8from_str17h02f78b9d79af5381E
ffffff804001f290 T _ZN87_$LT$core..num..nonzero..NonZero$LT$isize$GT$$u20$as$u20$core..str..traits..FromStr$GT$8from_str17h1ac69cd3050bc63dE
ffffff804001f460 T _ZN86_$LT$core..num..nonzero..NonZero$LT$i128$GT$$u20$as$u20$core..str..traits..FromStr$GT$8from_str17h16ef080badf7479aE
ffffff804001f6b0 T _ZN72_$LT$core..num..niche_types..Nanoseconds$u20$as$u20$core..fmt..Debug$GT$3fmt17h226ce07da6b4a14fE
ffffff804001f790 T _ZN75_$LT$core..num..niche_types..NonZeroU8Inner$u20$as$u20$core..fmt..Debug$GT$3fmt17hc42e38cb03920e7eE
ffffff804001f798 T _ZN76_$LT$core..num..niche_types..NonZeroU16Inner$u20$as$u20$core..fmt..Debug$GT$3fmt17hbc0646b62095d2acE
ffffff804001f878 T _ZN76_$LT$core..num..niche_types..NonZeroU32Inner$u20$as$u20$core..fmt..Debug$GT$3fmt17h2b86d89606089b59E
ffffff804001f958 T _ZN76_$LT$core..num..niche_types..NonZeroU64Inner$u20$as$u20$core..fmt..Debug$GT$3fmt17h3baf4400a11faacdE
ffffff804001f958 T _ZN78_$LT$core..num..niche_types..NonZeroUsizeInner$u20$as$u20$core..fmt..Debug$GT$3fmt17h2165fcf762e708adE
ffffff804001fa34 T _ZN77_$LT$core..num..niche_types..NonZeroU128Inner$u20$as$u20$core..fmt..Debug$GT$3fmt17hbbb4777d7156ee80E
ffffff804001fb74 T _ZN75_$LT$core..num..niche_types..NonZeroI8Inner$u20$as$u20$core..fmt..Debug$GT$3fmt17h54fc0e00fafb18fbE
ffffff804001fb7c T _ZN76_$LT$core..num..niche_types..NonZeroI16Inner$u20$as$u20$core..fmt..Debug$GT$3fmt17h09c1e5aa01853b2aE
ffffff804001fc5c T _ZN76_$LT$core..num..niche_types..NonZeroI32Inner$u20$as$u20$core..fmt..Debug$GT$3fmt17h5cc005908efe3356E
ffffff804001fd3c T _ZN76_$LT$core..num..niche_types..NonZeroI64Inner$u20$as$u20$core..fmt..Debug$GT$3fmt17h8b8fa7282b5cb2ccE
ffffff804001fd3c T _ZN78_$LT$core..num..niche_types..NonZeroIsizeInner$u20$as$u20$core..fmt..Debug$GT$3fmt17h134438405277bd22E
ffffff804001fe18 T _ZN77_$LT$core..num..niche_types..NonZeroI128Inner$u20$as$u20$core..fmt..Debug$GT$3fmt17h7e3545318da5e13aE
ffffff804001ff78 T _ZN77_$LT$core..num..niche_types..NonZeroCharInner$u20$as$u20$core..fmt..Debug$GT$3fmt17hc1dde8e813ebfae0E
ffffff8040020058 T _ZN75_$LT$core..num..niche_types..UsizeNoHighBit$u20$as$u20$core..fmt..Debug$GT$3fmt17h592a871adc39fddbE
ffffff8040020134 T _ZN74_$LT$core..num..niche_types..U32NotAllOnes$u20$as$u20$core..fmt..Debug$GT$3fmt17h6f075046da9e4449E
ffffff8040020214 T _ZN74_$LT$core..num..niche_types..I32NotAllOnes$u20$as$u20$core..fmt..Debug$GT$3fmt17hac8e5f374db4377eE
ffffff80400202f4 T _ZN74_$LT$core..num..niche_types..U64NotAllOnes$u20$as$u20$core..fmt..Debug$GT$3fmt17h819df18ffa245e05E
ffffff80400203d0 T _ZN74_$LT$core..num..niche_types..I64NotAllOnes$u20$as$u20$core..fmt..Debug$GT$3fmt17hfcbff259c0bcd470E
ffffff80400204ac T _ZN4core3num22from_ascii_radix_panic8do_panic7runtime17hddf9d3a0628cff9eE
ffffff80400204e8 T _ZN4core10intrinsics3mir11PtrMetadata19panic_cold_explicit17h9e07ed2884974f5aE
ffffff80400204e8 T _ZN4core10intrinsics3mir11StorageDead19panic_cold_explicit17h17f5297814e9fc69E
ffffff80400204e8 T _ZN4core10intrinsics3mir11StorageLive19panic_cold_explicit17h5b2616273ac9ee1bE
ffffff80400204e8 T _ZN4core10intrinsics3mir11Unreachable19panic_cold_explicit17h33ac5d0db8c3c7d1E
ffffff80400204e8 T _ZN4core10intrinsics3mir11__debuginfo19panic_cold_explicit17h0da936a97af2f423E
ffffff80400204e8 T _ZN4core10intrinsics3mir12CastPtrToPtr19panic_cold_explicit17h001d197313f351aaE
ffffff80400204e8 T _ZN4core10intrinsics3mir12CopyForDeref19panic_cold_explicit17he2fbb941e09817baE
ffffff80400204e8 T _ZN4core10intrinsics3mir12Discriminant19panic_cold_explicit17h931997c1d655e13eE
ffffff80400204e8 T _ZN4core10intrinsics3mir12UnwindResume19panic_cold_explicit17h9e3a382614468798E
ffffff80400204e8 T _ZN4core10intrinsics3mir13CastTransmute19panic_cold_explicit17h0728c14625f371a9E
ffffff80400204e8 T _ZN4core10intrinsics3mir13UnwindCleanup19panic_cold_explicit17h4865a81b95cd226eE
ffffff80400204e8 T _ZN4core10intrinsics3mir14UnwindContinue19panic_cold_explicit17h5022eeada42ee2dcE
ffffff80400204e8 T _ZN4core10intrinsics3mir15SetDiscriminant19panic_cold_explicit17h1f63414b2302da1fE
ffffff80400204e8 T _ZN4core10intrinsics3mir15UnwindTerminate19panic_cold_explicit17ha43455ba9f448747E
ffffff80400204e8 T _ZN4core10intrinsics3mir17UnwindUnreachable19panic_cold_explicit17h7a2617a7a2716be8E
ffffff80400204e8 T _ZN4core10intrinsics3mir21__internal_make_place19panic_cold_explicit17hae95c896b8d730caE
ffffff80400204e8 T _ZN4core10intrinsics3mir3Len19panic_cold_explicit17hc66a09d66c056e26E
ffffff80400204e8 T _ZN4core10intrinsics3mir4Call19panic_cold_explicit17h0846c46c3682484eE
ffffff80400204e8 T _ZN4core10intrinsics3mir4Drop19panic_cold_explicit17h23c2c0c5b729fbc4E
ffffff80400204e8 T _ZN4core10intrinsics3mir4Goto19panic_cold_explicit17h014a39d1aac794b0E
ffffff80400204e8 T _ZN4core10intrinsics3mir4Move19panic_cold_explicit17ha050ddb6d2994746E
ffffff80400204e8 T _ZN4core10intrinsics3mir5Field19panic_cold_explicit17h20637d3169d188c1E
ffffff80400204e8 T _ZN4core10intrinsics3mir5Retag19panic_cold_explicit17h73b8f4a7c8eab5f5E
ffffff80400204e8 T _ZN4core10intrinsics3mir6Assume19panic_cold_explicit17h3ac0df9e8a9436abE
ffffff80400204e8 T _ZN4core10intrinsics3mir6Deinit19panic_cold_explicit17h2674d731ccbc404bE
ffffff80400204e8 T _ZN4core10intrinsics3mir6Offset19panic_cold_explicit17h78e8b1b9fc14d29bE
ffffff80400204e8 T _ZN4core10intrinsics3mir6Return19panic_cold_explicit17h2b8c4b622af2112aE
ffffff80400204e8 T _ZN4core10intrinsics3mir6Static19panic_cold_explicit17h4efe62bb1ed1ed95E
ffffff80400204e8 T _ZN4core10intrinsics3mir7Checked19panic_cold_explicit17hbb5ab1eabf78f296E
ffffff80400204e8 T _ZN4core10intrinsics3mir7Variant19panic_cold_explicit17hae85e76eb97361cbE
ffffff80400204e8 T _ZN4core10intrinsics3mir8ReturnTo19panic_cold_explicit17h9658eb739ab5e5b1E
ffffff80400204e8 T _ZN4core10intrinsics3mir8TailCall19panic_cold_explicit17h0f7d7c35dd8d2abdE
ffffff80400204e8 T _ZN4core10intrinsics3mir9StaticMut19panic_cold_explicit17hd6c069f5dc201f45E
ffffff80400204ec T _ZN85_$LT$core..marker..variance..PhantomCovariantLifetime$u20$as$u20$core..fmt..Debug$GT$3fmt17h5a95766910db750eE
ffffff8040020508 T _ZN89_$LT$core..marker..variance..PhantomContravariantLifetime$u20$as$u20$core..fmt..Debug$GT$3fmt17h238dfee88492f871E
ffffff8040020524 T _ZN85_$LT$core..marker..variance..PhantomInvariantLifetime$u20$as$u20$core..fmt..Debug$GT$3fmt17h0f82385cfad25f3fE
ffffff8040020540 T _ZN4core4cell22panic_already_borrowed8do_panic7runtime17h7f23bc764f45d1e0E
ffffff804002057c T _ZN4core4cell30panic_already_mutably_borrowed8do_panic7runtime17hc6954b2ebc671aefE
ffffff80400205b8 T _ZN4core4char7methods15encode_utf8_raw8do_panic7runtime17h5291fefd40165f6cE
ffffff804002061c T _ZN4core4char7methods16encode_utf16_raw8do_panic7runtime17he7b3f057000414e1E
ffffff8040020680 T _ZN82_$LT$core..char..ToLowercase$u20$as$u20$core..iter..traits..iterator..Iterator$GT$4next17h65207578cd348f45E
ffffff8040020680 T _ZN82_$LT$core..char..ToUppercase$u20$as$u20$core..iter..traits..iterator..Iterator$GT$4next17hd08d4494fb7ce402E
ffffff80400206ac T _ZN82_$LT$core..char..ToLowercase$u20$as$u20$core..iter..traits..iterator..Iterator$GT$5count17he0ccde34b4246d64E
ffffff80400206ac T _ZN82_$LT$core..char..ToUppercase$u20$as$u20$core..iter..traits..iterator..Iterator$GT$5count17h004f52b65f2e4ce3E
ffffff80400206b8 T _ZN82_$LT$core..char..ToLowercase$u20$as$u20$core..iter..traits..iterator..Iterator$GT$4last17hbac52d9b06ff73d3E
ffffff80400206b8 T _ZN82_$LT$core..char..ToUppercase$u20$as$u20$core..iter..traits..iterator..Iterator$GT$4last17hcdfc932841373735E
ffffff80400206f8 T _ZN82_$LT$core..char..ToLowercase$u20$as$u20$core..iter..traits..iterator..Iterator$GT$10advance_by17h379315586682754cE
ffffff80400206f8 T _ZN82_$LT$core..char..ToUppercase$u20$as$u20$core..iter..traits..iterator..Iterator$GT$10advance_by17h002b3ef426d3cc13E
ffffff804002071c T _ZN82_$LT$core..char..ToLowercase$u20$as$u20$core..iter..traits..iterator..Iterator$GT$24__iterator_get_unchecked17h09d3d64ed1e50413E
ffffff804002071c T _ZN82_$LT$core..char..ToUppercase$u20$as$u20$core..iter..traits..iterator..Iterator$GT$24__iterator_get_unchecked17he96f9797edc02f9aE
ffffff8040020730 T _ZN97_$LT$core..char..ToLowercase$u20$as$u20$core..iter..traits..double_ended..DoubleEndedIterator$GT$9next_back17hd1d31d4ac33bca74E
ffffff8040020730 T _ZN97_$LT$core..char..ToUppercase$u20$as$u20$core..iter..traits..double_ended..DoubleEndedIterator$GT$9next_back17h39b681ad2cc51802E
ffffff8040020758 T _ZN97_$LT$core..char..ToLowercase$u20$as$u20$core..iter..traits..double_ended..DoubleEndedIterator$GT$15advance_back_by17h2406f8fd751a5d95E
ffffff8040020758 T _ZN97_$LT$core..char..ToUppercase$u20$as$u20$core..iter..traits..double_ended..DoubleEndedIterator$GT$15advance_back_by17hc52f69784b616ab6E
ffffff8040020780 T _ZN77_$LT$core..net..ip_addr..Ipv4Addr$u20$as$u20$core..ops..bit..BitAndAssign$GT$13bitand_assign17h18fb00cfddfa3c76E
ffffff80400207b4 T _ZN117_$LT$core..net..ip_addr..Ipv4Addr$u20$as$u20$core..ops..bit..BitAndAssign$LT$$RF$core..net..ip_addr..Ipv4Addr$GT$$GT$13bitand_assign17he9e417de17a6583eE
ffffff80400207f0 T _ZN76_$LT$core..net..ip_addr..Ipv4Addr$u20$as$u20$core..ops..bit..BitOrAssign$GT$12bitor_assign17h8b1e4fb74aa6573fE
ffffff8040020824 T _ZN116_$LT$core..net..ip_addr..Ipv4Addr$u20$as$u20$core..ops..bit..BitOrAssign$LT$$RF$core..net..ip_addr..Ipv4Addr$GT$$GT$12bitor_assign17h4c0734a4bfe5f7a0E
ffffff8040020860 T _ZN77_$LT$core..net..ip_addr..Ipv6Addr$u20$as$u20$core..ops..bit..BitAndAssign$GT$13bitand_assign17h25d574d9a0b5be29E
ffffff80400208f4 T _ZN117_$LT$core..net..ip_addr..Ipv6Addr$u20$as$u20$core..ops..bit..BitAndAssign$LT$$RF$core..net..ip_addr..Ipv6Addr$GT$$GT$13bitand_assign17h3ea32ee48d18c46fE
ffffff8040020908 T _ZN76_$LT$core..net..ip_addr..Ipv6Addr$u20$as$u20$core..ops..bit..BitOrAssign$GT$12bitor_assign17h24e3f8b8b38b9fadE
ffffff804002099c T _ZN116_$LT$core..net..ip_addr..Ipv6Addr$u20$as$u20$core..ops..bit..BitOrAssign$LT$$RF$core..net..ip_addr..Ipv6Addr$GT$$GT$12bitor_assign17hc6169e210a165fe8E
ffffff80400209b0 T _ZN4core9panicking11panic_const24panic_const_add_overflow17ha23c62ae2aa13715E
ffffff80400209d8 T _ZN4core9panicking11panic_const24panic_const_sub_overflow17h1b1924dc1453fa7aE
ffffff8040020a00 T _ZN4core9panicking11panic_const24panic_const_mul_overflow17h7a51557eb091d796E
ffffff8040020a28 T _ZN4core9panicking11panic_const24panic_const_div_overflow17hae4bbed4b87bf3adE
ffffff8040020a50 T _ZN4core9panicking11panic_const24panic_const_rem_overflow17h34e685edb0e5f947E
ffffff8040020a78 T _ZN4core9panicking11panic_const24panic_const_neg_overflow17hd8579935854ffa78E
ffffff8040020aa0 T _ZN4core9panicking11panic_const24panic_const_shr_overflow17h444479cd0e2a07bdE
ffffff8040020ac8 T _ZN4core9panicking11panic_const24panic_const_shl_overflow17h35bef87d0de249caE
ffffff8040020af0 T _ZN4core9panicking11panic_const23panic_const_div_by_zero17h99406e148c64ed42E
ffffff8040020b18 T _ZN4core9panicking11panic_const23panic_const_rem_by_zero17h069f27a729a92a62E
ffffff8040020b40 T _ZN4core9panicking11panic_const29panic_const_coroutine_resumed17h4b6b9c7d5ea4f8f7E
ffffff8040020b68 T _ZN4core9panicking11panic_const28panic_const_async_fn_resumed17hd4004024191c3125E
ffffff8040020b90 T _ZN4core9panicking11panic_const32panic_const_async_gen_fn_resumed17hb6d3c4b0e1bd8afeE
ffffff8040020bb8 T _ZN4core9panicking11panic_const23panic_const_gen_fn_none17h7a5e1627c10ccfcaE
ffffff8040020be0 T _ZN4core9panicking11panic_const35panic_const_coroutine_resumed_panic17hb3efd8452c82b865E
ffffff8040020c08 T _ZN4core9panicking11panic_const34panic_const_async_fn_resumed_panic17haffad31894a188ccE
ffffff8040020c30 T _ZN4core9panicking11panic_const38panic_const_async_gen_fn_resumed_panic17hee782537c2370b16E
ffffff8040020c58 T _ZN4core9panicking11panic_const29panic_const_gen_fn_none_panic17hef00d2e295000affE
ffffff8040020c80 T _ZN4core9panicking11panic_const34panic_const_coroutine_resumed_drop17h8f815dbba0fb7a75E
ffffff8040020ca8 T _ZN4core9panicking11panic_const33panic_const_async_fn_resumed_drop17h27bf2c46a32a4fcdE
ffffff8040020cd0 T _ZN4core9panicking11panic_const37panic_const_async_gen_fn_resumed_drop17h6d264b6b7d496f08E
ffffff8040020cf8 T _ZN4core9panicking11panic_const28panic_const_gen_fn_none_drop17hdcf610c865752277E
ffffff8040020d20 T _ZN46_$LT$i8$u20$as$u20$core..pat..RangePattern$GT$7sub_one17h03b9594f6c1f1ad2E
ffffff8040020d5c T _ZN47_$LT$i16$u20$as$u20$core..pat..RangePattern$GT$7sub_one17h72032d9fb411ace4E
ffffff8040020d98 T _ZN47_$LT$i32$u20$as$u20$core..pat..RangePattern$GT$7sub_one17hb131f5e17ed3cffaE
ffffff8040020dc8 T _ZN47_$LT$i64$u20$as$u20$core..pat..RangePattern$GT$7sub_one17h8b4c6f1bfbafa399E
ffffff8040020dc8 T _ZN49_$LT$isize$u20$as$u20$core..pat..RangePattern$GT$7sub_one17h84ee4c6ee70557faE
ffffff8040020df8 T _ZN48_$LT$i128$u20$as$u20$core..pat..RangePattern$GT$7sub_one17hf58a3f7dbc58b4e3E
ffffff8040020e38 T _ZN46_$LT$u8$u20$as$u20$core..pat..RangePattern$GT$7sub_one17hb86e0c507cdd18c7E
ffffff8040020e6c T _ZN47_$LT$u16$u20$as$u20$core..pat..RangePattern$GT$7sub_one17hf8af240e3e650e00E
ffffff8040020ea0 T _ZN47_$LT$u32$u20$as$u20$core..pat..RangePattern$GT$7sub_one17h5c0e1e057e869271E
ffffff8040020ed0 T _ZN47_$LT$u64$u20$as$u20$core..pat..RangePattern$GT$7sub_one17hfd102cff003797f0E
ffffff8040020ed0 T _ZN49_$LT$usize$u20$as$u20$core..pat..RangePattern$GT$7sub_one17h89900fc55cd79a6dE
ffffff8040020f00 T _ZN48_$LT$u128$u20$as$u20$core..pat..RangePattern$GT$7sub_one17h2255833532df656bE
ffffff8040020f40 T _ZN65_$LT$core..sync..atomic..AtomicI8$u20$as$u20$core..fmt..Debug$GT$3fmt17h0aaeef5245018207E
ffffff8040020f48 T _ZN65_$LT$core..sync..atomic..AtomicU8$u20$as$u20$core..fmt..Debug$GT$3fmt17h379700c96e97b9dbE
ffffff8040020f50 T _ZN66_$LT$core..sync..atomic..AtomicI16$u20$as$u20$core..fmt..Debug$GT$3fmt17haa35ab4cab466c39E
ffffff8040021030 T _ZN66_$LT$core..sync..atomic..AtomicU16$u20$as$u20$core..fmt..Debug$GT$3fmt17hd80d895e8208c6f4E
ffffff8040021110 T _ZN66_$LT$core..sync..atomic..AtomicI32$u20$as$u20$core..fmt..Debug$GT$3fmt17h068a74ca21674b5fE
ffffff80400211f0 T _ZN66_$LT$core..sync..atomic..AtomicU32$u20$as$u20$core..fmt..Debug$GT$3fmt17he0602fcac6aa8bcaE
ffffff80400212d0 T _ZN66_$LT$core..sync..atomic..AtomicI64$u20$as$u20$core..fmt..Debug$GT$3fmt17h1cee590bf594e28cE
ffffff80400212d0 T _ZN68_$LT$core..sync..atomic..AtomicIsize$u20$as$u20$core..fmt..Debug$GT$3fmt17h6f62eb41a18f4d81E
ffffff80400213ac T _ZN66_$LT$core..sync..atomic..AtomicU64$u20$as$u20$core..fmt..Debug$GT$3fmt17h9a9093b28de33127E
ffffff80400213ac T _ZN68_$LT$core..sync..atomic..AtomicUsize$u20$as$u20$core..fmt..Debug$GT$3fmt17h728f988030f3039bE
ffffff8040021488 T _ZN55_$LT$f32$u20$as$u20$core..fmt..float..GeneralFormat$GT$44already_rounded_value_should_use_exponential17hde2c2cbc60a8f494E
ffffff80400214c8 T _ZN55_$LT$f64$u20$as$u20$core..fmt..float..GeneralFormat$GT$44already_rounded_value_should_use_exponential17h1fa75559f1ba9369E
ffffff80400214fc T _ZN4core3fmt5float50_$LT$impl$u20$core..fmt..Debug$u20$for$u20$f32$GT$3fmt17hb70514b30dd7c7d9E
ffffff8040021574 T _ZN4core3fmt5float52_$LT$impl$u20$core..fmt..Display$u20$for$u20$f32$GT$3fmt17h6a3d13ee865eec4fE
ffffff80400215a0 T _ZN4core3fmt5float53_$LT$impl$u20$core..fmt..LowerExp$u20$for$u20$f32$GT$3fmt17h19a9604a91110886E
ffffff80400215d8 T _ZN4core3fmt5float53_$LT$impl$u20$core..fmt..UpperExp$u20$for$u20$f32$GT$3fmt17h4a5cade65e99533cE
ffffff8040021610 T _ZN4core3fmt5float50_$LT$impl$u20$core..fmt..Debug$u20$for$u20$f64$GT$3fmt17hfb39da4497a8e8dfE
ffffff8040021680 T _ZN4core3fmt5float52_$LT$impl$u20$core..fmt..Display$u20$for$u20$f64$GT$3fmt17haab4e68ae11755f7E
ffffff80400216ac T _ZN4core3fmt5float53_$LT$impl$u20$core..fmt..LowerExp$u20$for$u20$f64$GT$3fmt17hdaf9fe8dbbf3c13cE
ffffff80400216e4 T _ZN4core3fmt5float53_$LT$impl$u20$core..fmt..UpperExp$u20$for$u20$f64$GT$3fmt17h6b52a6a84d9db586E
ffffff804002171c T _ZN4core3fmt5float50_$LT$impl$u20$core..fmt..Debug$u20$for$u20$f16$GT$3fmt17h04d7b52388f9fe5fE
ffffff80400217a0 T _ZN4core3fmt5float52_$LT$impl$u20$core..fmt..Display$u20$for$u20$f16$GT$3fmt17hba526e2acccf74e8E
ffffff80400217cc T _ZN4core3fmt5float53_$LT$impl$u20$core..fmt..LowerExp$u20$for$u20$f16$GT$3fmt17hcb7920f97a2f1c33E
ffffff8040021804 T _ZN4core3fmt5float53_$LT$impl$u20$core..fmt..UpperExp$u20$for$u20$f16$GT$3fmt17h1130ed9131f74459E
ffffff804002183c T _ZN71_$LT$core..fmt..num..Binary$u20$as$u20$core..fmt..num..GenericRadix$GT$5digit17he601616259c2f93fE
ffffff80400218a4 T _ZN70_$LT$core..fmt..num..Octal$u20$as$u20$core..fmt..num..GenericRadix$GT$5digit17hefa0ad5baaca5e93E
ffffff804002190c T _ZN73_$LT$core..fmt..num..LowerHex$u20$as$u20$core..fmt..num..GenericRadix$GT$5digit17h2f2c7682e22630edE
ffffff8040021988 T _ZN73_$LT$core..fmt..num..UpperHex$u20$as$u20$core..fmt..num..GenericRadix$GT$5digit17h2953c5a75a4cf7d8E
ffffff8040021a04 T _ZN4core3fmt3num50_$LT$impl$u20$core..fmt..Binary$u20$for$u20$i8$GT$3fmt17h7dc4b8d8b722d83aE
ffffff8040021a04 T _ZN4core3fmt3num50_$LT$impl$u20$core..fmt..Binary$u20$for$u20$u8$GT$3fmt17hc0852ca54e215e23E
ffffff8040021a70 T _ZN4core3fmt3num49_$LT$impl$u20$core..fmt..Octal$u20$for$u20$i8$GT$3fmt17hde9bd96e14a202fdE
ffffff8040021a70 T _ZN4core3fmt3num49_$LT$impl$u20$core..fmt..Octal$u20$for$u20$u8$GT$3fmt17ha442bade12762193E
ffffff8040021adc T _ZN4core3fmt3num52_$LT$impl$u20$core..fmt..LowerHex$u20$for$u20$i8$GT$3fmt17hd6de01d2f4759dbaE
ffffff8040021adc T _ZN4core3fmt3num52_$LT$impl$u20$core..fmt..LowerHex$u20$for$u20$u8$GT$3fmt17h456580e84df6143bE
ffffff8040021b58 T _ZN4core3fmt3num52_$LT$impl$u20$core..fmt..UpperHex$u20$for$u20$i8$GT$3fmt17h33a44ab90e61d960E
ffffff8040021b58 T _ZN4core3fmt3num52_$LT$impl$u20$core..fmt..UpperHex$u20$for$u20$u8$GT$3fmt17hfa16cd12b02ed3b3E
ffffff8040021bd4 T _ZN4core3fmt3num51_$LT$impl$u20$core..fmt..Binary$u20$for$u20$i16$GT$3fmt17h53585adc06383ca4E
ffffff8040021bd4 T _ZN4core3fmt3num51_$LT$impl$u20$core..fmt..Binary$u20$for$u20$u16$GT$3fmt17h627234315d8a663fE
ffffff8040021c40 T _ZN4core3fmt3num50_$LT$impl$u20$core..fmt..Octal$u20$for$u20$i16$GT$3fmt17ha34856b3abf7ec8aE
ffffff8040021c40 T _ZN4core3fmt3num50_$LT$impl$u20$core..fmt..Octal$u20$for$u20$u16$GT$3fmt17hca5928eef318774fE
ffffff8040021cac T _ZN4core3fmt3num53_$LT$impl$u20$core..fmt..LowerHex$u20$for$u20$i16$GT$3fmt17hba1f5ad9300ee896E
ffffff8040021cac T _ZN4core3fmt3num53_$LT$impl$u20$core..fmt..LowerHex$u20$for$u20$u16$GT$3fmt17h260981d98ace7241E
ffffff8040021d28 T _ZN4core3fmt3num53_$LT$impl$u20$core..fmt..UpperHex$u20$for$u20$i16$GT$3fmt17h3af581eb533bae2aE
ffffff8040021d28 T _ZN4core3fmt3num53_$LT$impl$u20$core..fmt..UpperHex$u20$for$u20$u16$GT$3fmt17h554d3108f37aa32aE
ffffff8040021da4 T _ZN4core3fmt3num51_$LT$impl$u20$core..fmt..Binary$u20$for$u20$i32$GT$3fmt17h7d37a5d819e9247eE
ffffff8040021da4 T _ZN4core3fmt3num51_$LT$impl$u20$core..fmt..Binary$u20$for$u20$u32$GT$3fmt17h35c4c7759ae772d1E
ffffff8040021e10 T _ZN4core3fmt3num50_$LT$impl$u20$core..fmt..Octal$u20$for$u20$i32$GT$3fmt17h076fab8d6ce7fc2aE
ffffff8040021e10 T _ZN4core3fmt3num50_$LT$impl$u20$core..fmt..Octal$u20$for$u20$u32$GT$3fmt17h90ab6b5937ad79aeE
ffffff8040021e7c T _ZN4core3fmt3num53_$LT$impl$u20$core..fmt..LowerHex$u20$for$u20$i32$GT$3fmt17hb4ece7a844db6253E
ffffff8040021e7c T _ZN4core3fmt3num53_$LT$impl$u20$core..fmt..LowerHex$u20$for$u20$u32$GT$3fmt17hcd14f2645de06123E
ffffff8040021ef8 T _ZN4core3fmt3num53_$LT$impl$u20$core..fmt..UpperHex$u20$for$u20$i32$GT$3fmt17h31107c960a986883E
ffffff8040021ef8 T _ZN4core3fmt3num53_$LT$impl$u20$core..fmt..UpperHex$u20$for$u20$u32$GT$3fmt17hd00c0aa64a6c911dE
ffffff8040021f74 T _ZN4core3fmt3num51_$LT$impl$u20$core..fmt..Binary$u20$for$u20$i64$GT$3fmt17h8ee2ce6d59c5539cE
ffffff8040021f74 T _ZN4core3fmt3num51_$LT$impl$u20$core..fmt..Binary$u20$for$u20$u64$GT$3fmt17hc255371054ba6910E
ffffff8040021f74 T _ZN4core3fmt3num53_$LT$impl$u20$core..fmt..Binary$u20$for$u20$isize$GT$3fmt17hb89d8c6255a82bacE
ffffff8040021f74 T _ZN4core3fmt3num53_$LT$impl$u20$core..fmt..Binary$u20$for$u20$usize$GT$3fmt17h5f65d7a4779c725eE
ffffff8040021fe0 T _ZN4core3fmt3num50_$LT$impl$u20$core..fmt..Octal$u20$for$u20$i64$GT$3fmt17h26a2b9e5650b58a1E
ffffff8040021fe0 T _ZN4core3fmt3num50_$LT$impl$u20$core..fmt..Octal$u20$for$u20$u64$GT$3fmt17h53f45040f559126cE
ffffff8040021fe0 T _ZN4core3fmt3num52_$LT$impl$u20$core..fmt..Octal$u20$for$u20$isize$GT$3fmt17hae57a42290a110d5E
ffffff8040021fe0 T _ZN4core3fmt3num52_$LT$impl$u20$core..fmt..Octal$u20$for$u20$usize$GT$3fmt17hfde002cd073406d1E
ffffff804002204c T _ZN4core3fmt3num53_$LT$impl$u20$core..fmt..LowerHex$u20$for$u20$i64$GT$3fmt17hf9eea6d5ace35b43E
ffffff804002204c T _ZN4core3fmt3num53_$LT$impl$u20$core..fmt..LowerHex$u20$for$u20$u64$GT$3fmt17h32599fce145256d7E
ffffff804002204c T _ZN4core3fmt3num55_$LT$impl$u20$core..fmt..LowerHex$u20$for$u20$isize$GT$3fmt17h185365d60b6d157bE
ffffff804002204c T _ZN4core3fmt3num55_$LT$impl$u20$core..fmt..LowerHex$u20$for$u20$usize$GT$3fmt17h04e576ccd9119953E
ffffff80400220c8 T _ZN4core3fmt3num53_$LT$impl$u20$core..fmt..UpperHex$u20$for$u20$i64$GT$3fmt17hf34ff4be1bbb41afE
ffffff80400220c8 T _ZN4core3fmt3num53_$LT$impl$u20$core..fmt..UpperHex$u20$for$u20$u64$GT$3fmt17hf9954cc6db75040aE
ffffff80400220c8 T _ZN4core3fmt3num55_$LT$impl$u20$core..fmt..UpperHex$u20$for$u20$isize$GT$3fmt17hbd11f5aa2fda0fa3E
ffffff80400220c8 T _ZN4core3fmt3num55_$LT$impl$u20$core..fmt..UpperHex$u20$for$u20$usize$GT$3fmt17h6a85ebec3110937fE
ffffff8040022144 T _ZN4core3fmt3num52_$LT$impl$u20$core..fmt..Binary$u20$for$u20$i128$GT$3fmt17h193ea5c6009478d1E
ffffff8040022144 T _ZN4core3fmt3num52_$LT$impl$u20$core..fmt..Binary$u20$for$u20$u128$GT$3fmt17h0e9bd598c741f0a7E
ffffff80400221d4 T _ZN4core3fmt3num51_$LT$impl$u20$core..fmt..Octal$u20$for$u20$i128$GT$3fmt17h3c28c9713168cb34E
ffffff80400221d4 T _ZN4core3fmt3num51_$LT$impl$u20$core..fmt..Octal$u20$for$u20$u128$GT$3fmt17hf77dba527fd264f8E
ffffff8040022264 T _ZN4core3fmt3num54_$LT$impl$u20$core..fmt..LowerHex$u20$for$u20$i128$GT$3fmt17h63e54399eade7da6E
ffffff8040022264 T _ZN4core3fmt3num54_$LT$impl$u20$core..fmt..LowerHex$u20$for$u20$u128$GT$3fmt17hfe7c379f960c3788E
ffffff8040022304 T _ZN4core3fmt3num54_$LT$impl$u20$core..fmt..UpperHex$u20$for$u20$i128$GT$3fmt17h5f0068fb08967e5fE
ffffff8040022304 T _ZN4core3fmt3num54_$LT$impl$u20$core..fmt..UpperHex$u20$for$u20$u128$GT$3fmt17h922cd69e7d42dce6E
ffffff80400223a4 t _ZN4core3fmt3num49_$LT$impl$u20$core..fmt..Debug$u20$for$u20$i8$GT$3fmt17h3ca7dd3b9986846bE
ffffff8040022524 t _ZN4core3fmt3num49_$LT$impl$u20$core..fmt..Debug$u20$for$u20$u8$GT$3fmt17hed8d24998bc3dd51E
ffffff804002268c t _ZN4core3fmt3num50_$LT$impl$u20$core..fmt..Debug$u20$for$u20$u32$GT$3fmt17h930b575fd37bcfd4E
ffffff8040022764 t _ZN4core3fmt3num52_$LT$impl$u20$core..fmt..Debug$u20$for$u20$usize$GT$3fmt17habba164b09d04a87E
ffffff804002283c T _ZN4core3fmt3num3imp51_$LT$impl$u20$core..fmt..Display$u20$for$u20$u8$GT$3fmt17ha89d9eaa4ad65db9E
ffffff80400228d4 T _ZN4core3fmt3num3imp51_$LT$impl$u20$core..fmt..Display$u20$for$u20$i8$GT$3fmt17hef21245e0953c24cE
ffffff8040022988 T _ZN4core3fmt3num3imp20_$LT$impl$u20$u8$GT$4_fmt17h376853f48e1efa4eE
ffffff8040022a0c T _ZN4core3fmt3num3imp52_$LT$impl$u20$core..fmt..Display$u20$for$u20$u16$GT$3fmt17h1a67ad50b8fe5e54E
ffffff8040022b00 T _ZN4core3fmt3num3imp52_$LT$impl$u20$core..fmt..Display$u20$for$u20$i16$GT$3fmt17h0a025fc37df095f0E
ffffff8040022c0c T _ZN4core3fmt3num3imp21_$LT$impl$u20$u16$GT$4_fmt17hc10464512acea935E
ffffff8040022d08 T _ZN4core3fmt3num3imp52_$LT$impl$u20$core..fmt..Display$u20$for$u20$u32$GT$3fmt17h175cc328c1e5b2edE
ffffff8040022e30 T _ZN4core3fmt3num3imp52_$LT$impl$u20$core..fmt..Display$u20$for$u20$i32$GT$3fmt17h1eb8c9d5eebb8c34E
ffffff8040022f64 T _ZN4core3fmt3num3imp21_$LT$impl$u20$u32$GT$4_fmt17h65cb8dc674686668E
ffffff804002306c T _ZN4core3fmt3num3imp52_$LT$impl$u20$core..fmt..Display$u20$for$u20$u64$GT$3fmt17hfe0176919b7164d5E
ffffff804002306c T _ZN4core3fmt3num3imp54_$LT$impl$u20$core..fmt..Display$u20$for$u20$usize$GT$3fmt17hc3bd13b046e2fb56E
ffffff80400231a0 T _ZN4core3fmt3num3imp52_$LT$impl$u20$core..fmt..Display$u20$for$u20$i64$GT$3fmt17h41a07c6c8bca1facE
ffffff80400231a0 T _ZN4core3fmt3num3imp54_$LT$impl$u20$core..fmt..Display$u20$for$u20$isize$GT$3fmt17h75b72ad4cfb7e6d4E
ffffff80400232dc T _ZN4core3fmt3num3imp21_$LT$impl$u20$u64$GT$4_fmt17hcaff444ca8aabfdeE
ffffff80400232dc T _ZN4core3fmt3num3imp23_$LT$impl$u20$usize$GT$4_fmt17hd18bef4dad906a27E
ffffff80400233ec t _ZN4core3fmt3num3imp7exp_u6417h0728880799f0c6a2E
ffffff8040023858 T _ZN4core3fmt3num3imp52_$LT$impl$u20$core..fmt..LowerExp$u20$for$u20$i8$GT$3fmt17hdab4881bd5bb7b5fE
ffffff8040023878 T _ZN4core3fmt3num3imp52_$LT$impl$u20$core..fmt..LowerExp$u20$for$u20$u8$GT$3fmt17h71c80d7188ab4779E
ffffff804002388c T _ZN4core3fmt3num3imp53_$LT$impl$u20$core..fmt..LowerExp$u20$for$u20$i16$GT$3fmt17h59468d3490ebcacdE
ffffff80400238ac T _ZN4core3fmt3num3imp53_$LT$impl$u20$core..fmt..LowerExp$u20$for$u20$u16$GT$3fmt17h3051acbdf18b0470E
ffffff80400238c0 T _ZN4core3fmt3num3imp53_$LT$impl$u20$core..fmt..LowerExp$u20$for$u20$i32$GT$3fmt17h943bb3ceead6dedcE
ffffff80400238e4 T _ZN4core3fmt3num3imp53_$LT$impl$u20$core..fmt..LowerExp$u20$for$u20$u32$GT$3fmt17hbc59738e24a7388dE
ffffff80400238f8 T _ZN4core3fmt3num3imp53_$LT$impl$u20$core..fmt..LowerExp$u20$for$u20$i64$GT$3fmt17h5b2eff2ee95537afE
ffffff80400238f8 T _ZN4core3fmt3num3imp55_$LT$impl$u20$core..fmt..LowerExp$u20$for$u20$isize$GT$3fmt17hec5d332584f39eceE
ffffff8040023918 T _ZN4core3fmt3num3imp53_$LT$impl$u20$core..fmt..LowerExp$u20$for$u20$u64$GT$3fmt17h66397d908b3a8a2aE
ffffff8040023918 T _ZN4core3fmt3num3imp55_$LT$impl$u20$core..fmt..LowerExp$u20$for$u20$usize$GT$3fmt17h8207f646b6c6751eE
ffffff804002392c T _ZN4core3fmt3num3imp52_$LT$impl$u20$core..fmt..UpperExp$u20$for$u20$i8$GT$3fmt17hccb74ebee41542b6E
ffffff804002394c T _ZN4core3fmt3num3imp52_$LT$impl$u20$core..fmt..UpperExp$u20$for$u20$u8$GT$3fmt17haa0d2c6e702cc90fE
ffffff8040023960 T _ZN4core3fmt3num3imp53_$LT$impl$u20$core..fmt..UpperExp$u20$for$u20$i16$GT$3fmt17h5036c4e36350fa58E
ffffff8040023980 T _ZN4core3fmt3num3imp53_$LT$impl$u20$core..fmt..UpperExp$u20$for$u20$u16$GT$3fmt17h0eb50c9eb68a61b9E
ffffff8040023994 T _ZN4core3fmt3num3imp53_$LT$impl$u20$core..fmt..UpperExp$u20$for$u20$i32$GT$3fmt17he7011fccf2084b81E
ffffff80400239b8 T _ZN4core3fmt3num3imp53_$LT$impl$u20$core..fmt..UpperExp$u20$for$u20$u32$GT$3fmt17h134340b12d6359a6E
ffffff80400239cc T _ZN4core3fmt3num3imp53_$LT$impl$u20$core..fmt..UpperExp$u20$for$u20$i64$GT$3fmt17hab0d14eef12d5432E
ffffff80400239cc T _ZN4core3fmt3num3imp55_$LT$impl$u20$core..fmt..UpperExp$u20$for$u20$isize$GT$3fmt17h8ad279bf5915a8f4E
ffffff80400239ec T _ZN4core3fmt3num3imp53_$LT$impl$u20$core..fmt..UpperExp$u20$for$u20$u64$GT$3fmt17h8f9746cc956f5d5eE
ffffff80400239ec T _ZN4core3fmt3num3imp55_$LT$impl$u20$core..fmt..UpperExp$u20$for$u20$usize$GT$3fmt17h50a93e7d2e4f17d4E
ffffff8040023a00 t _ZN4core3fmt3num8exp_u12817he02ae1069d1f48daE
ffffff8040024228 T _ZN4core3fmt3num54_$LT$impl$u20$core..fmt..LowerExp$u20$for$u20$i128$GT$3fmt17hc05c1e7fad3679b8E
ffffff8040024254 T _ZN4core3fmt3num54_$LT$impl$u20$core..fmt..LowerExp$u20$for$u20$u128$GT$3fmt17h8ee69cc9eef94762E
ffffff804002426c T _ZN4core3fmt3num54_$LT$impl$u20$core..fmt..UpperExp$u20$for$u20$i128$GT$3fmt17hf24ede6bbd2f1301E
ffffff8040024298 T _ZN4core3fmt3num54_$LT$impl$u20$core..fmt..UpperExp$u20$for$u20$u128$GT$3fmt17hd08aa63cca8ce7a9E
ffffff80400242b0 t _ZN53_$LT$core..fmt..Error$u20$as$u20$core..fmt..Debug$GT$3fmt17ha34f4527ee099dadE
ffffff80400242cc t _ZN42_$LT$$RF$T$u20$as$u20$core..fmt..Debug$GT$3fmt17h477f63d76b6af684E
ffffff80400242d8 t _ZN42_$LT$$RF$T$u20$as$u20$core..fmt..Debug$GT$3fmt17h5b01baf563f22a31E
ffffff80400243b4 t _ZN42_$LT$$RF$T$u20$as$u20$core..fmt..Debug$GT$3fmt17hb072fff5eed366ddE
ffffff80400243bc t _ZN42_$LT$$RF$T$u20$as$u20$core..fmt..Debug$GT$3fmt17hd7bd2e2923197e2fE
ffffff80400243d0 t _ZN44_$LT$$RF$T$u20$as$u20$core..fmt..Display$GT$3fmt17h5f9515174c3a4efcE
ffffff80400243d8 t _ZN44_$LT$$RF$T$u20$as$u20$core..fmt..Display$GT$3fmt17h8559ae5e38abaebfE
ffffff80400243e8 t _ZN44_$LT$$RF$T$u20$as$u20$core..fmt..Display$GT$3fmt17hb0d39cc5204ac32bE
ffffff80400243f0 t _ZN44_$LT$$RF$T$u20$as$u20$core..fmt..Display$GT$3fmt17hb179a6a064408f8cE
ffffff80400243f8 t _ZN45_$LT$$RF$T$u20$as$u20$core..fmt..LowerHex$GT$3fmt17hbbf95f58fd761161E
ffffff8040024478 T _ZN4core5slice5index26slice_start_index_len_fail8do_panic7runtime17h442395cfb11c1518E
ffffff80400244bc T _ZN4core5slice5index24slice_end_index_len_fail8do_panic7runtime17h699ea1066e3674c7E
ffffff8040024500 T _ZN4core5slice5index22slice_index_order_fail8do_panic7runtime17h969ad03b0da7d248E
ffffff8040024544 T _ZN4core5slice29_$LT$impl$u20$$u5b$T$u5d$$GT$15copy_from_slice17len_mismatch_fail8do_panic7runtime17h8eb9d7f6bb464e4eE
ffffff804002458c T _ZN67_$LT$core..str..iter..EscapeDebug$u20$as$u20$core..fmt..Display$GT$3fmt17hdf17a6ae503b336eE
ffffff8040024d34 T _ZN69_$LT$core..str..iter..EscapeDefault$u20$as$u20$core..fmt..Display$GT$3fmt17h6f673dae6798d394E
ffffff80400251b4 T _ZN69_$LT$core..str..iter..EscapeUnicode$u20$as$u20$core..fmt..Display$GT$3fmt17h135a71848ebc1f4cE
ffffff80400254f8 T _ZN4core7unicode12unicode_data10alphabetic6lookup17h3a4c95bf777964b4E
ffffff80400255fc T _ZN4core7unicode12unicode_data14case_ignorable6lookup17hb9dad140bab6d4e7E
ffffff8040025708 T _ZN4core7unicode12unicode_data5cased6lookup17hc7c4fa9df4ee8425E
ffffff80400257fc T _ZN4core7unicode12unicode_data2cc6lookup17h31ca7e17c2e26108E
ffffff8040025814 T _ZN4core7unicode12unicode_data15grapheme_extend11lookup_slow17h391270b8c4ab9042E
ffffff804002591c T _ZN4core7unicode12unicode_data9lowercase6lookup17h87ba1b76e70bf3c0E
ffffff8040025a28 T _ZN4core7unicode12unicode_data1n6lookup17h575012ca503d9a00E
ffffff8040025b34 T _ZN4core7unicode12unicode_data9uppercase6lookup17h7b65572c19af451dE
ffffff8040025c40 T _ZN4core7unicode12unicode_data11conversions8to_lower17h1e2962ee2ecb7316E
ffffff8040025dbc T _ZN4core7unicode12unicode_data11conversions8to_upper17h29211f21d97e3697E
ffffff8040025f54 t OUTLINED_FUNCTION_0
ffffff8040025f6c t OUTLINED_FUNCTION_1
ffffff8040025f7c t _ZN17compiler_builtins5float3add3add17h073a9ecb70985199E
ffffff804002636c t _ZN17compiler_builtins5float4conv12int_to_float16u32_to_f128_bits17h107b35ee19f269d8E
ffffff80400263ac t _ZN17compiler_builtins5float4conv12int_to_float16u64_to_f128_bits17h5a8a1ea9248ae957E
ffffff80400263f4 t _ZN17compiler_builtins5float4conv12int_to_float17u128_to_f128_bits17hd1c639703c10bd2bE
ffffff8040026478 t _ZN84_$LT$compiler_builtins..int..big..u256$u20$as$u20$core..ops..bit..Shr$LT$u32$GT$$GT$3shr17h3ac883f1443d12b9E
ffffff804002658c t _ZN17compiler_builtins3int3big71_$LT$impl$u20$compiler_builtins..int..traits..HInt$u20$for$u20$i128$GT$14zero_widen_mul17h4c6ef285583fcfd3E
ffffff804002658c t _ZN17compiler_builtins3int3big71_$LT$impl$u20$compiler_builtins..int..traits..HInt$u20$for$u20$u128$GT$14zero_widen_mul17h3bba468d0b5e892aE
ffffff804002658c t _ZN17compiler_builtins3int3big71_$LT$impl$u20$compiler_builtins..int..traits..HInt$u20$for$u20$u128$GT$9widen_mul17h859a8a0a9c0bb30cE
ffffff8040026684 t _ZN17compiler_builtins3int3big71_$LT$impl$u20$compiler_builtins..int..traits..HInt$u20$for$u20$i128$GT$9widen_mul17h18e206cf16f41192E
ffffff8040026688 t _ZN17compiler_builtins3int3big71_$LT$impl$u20$compiler_builtins..int..traits..HInt$u20$for$u20$i128$GT$8widen_hi17hc778dafe6321ee9aE
ffffff8040026688 t _ZN17compiler_builtins3int3big71_$LT$impl$u20$compiler_builtins..int..traits..HInt$u20$for$u20$u128$GT$8widen_hi17h8df4b77a084bd838E
ffffff804002668c t _ZN90_$LT$compiler_builtins..int..big..i256$u20$as$u20$compiler_builtins..int..traits..DInt$GT$2lo17h6094af763c152700E
ffffff804002668c t _ZN90_$LT$compiler_builtins..int..big..u256$u20$as$u20$compiler_builtins..int..traits..DInt$GT$2lo17hf9ef8ad041e9a8b2E
ffffff8040026698 t _ZN90_$LT$compiler_builtins..int..big..i256$u20$as$u20$compiler_builtins..int..traits..DInt$GT$2hi17h5c7b19afd85910e2E
ffffff8040026698 t _ZN90_$LT$compiler_builtins..int..big..u256$u20$as$u20$compiler_builtins..int..traits..DInt$GT$2hi17h884f5c4f3d5d1b69E
ffffff80400266a4 t _ZN17compiler_builtins5float3add8__addsf317h7a7ac332f974ba64E
ffffff80400268d8 t __addsf3
ffffff80400268dc t _ZN17compiler_builtins5float3add8__adddf317haeb4dc661e0131b9E
ffffff8040026b18 t __adddf3
ffffff8040026b1c t __addtf3
ffffff8040026b20 t _ZN17compiler_builtins5float3cmp7__gesf217h12b90575f30a3359E
ffffff8040026b20 t _ZN17compiler_builtins5float3cmp7__gtsf217h4c63495bd3e04eabE
ffffff8040026b7c t __gesf2
ffffff8040026b7c t __gtsf2
ffffff8040026bd8 t _ZN17compiler_builtins5float3cmp10__unordsf217hb7e1132d7de39557E
ffffff8040026bfc t __unordsf2
ffffff8040026c20 t _ZN17compiler_builtins5float3cmp7__eqsf217hbece5fb44855e3c8E
ffffff8040026c20 t _ZN17compiler_builtins5float3cmp7__lesf217ha23e8da02d8679fdE
ffffff8040026c20 t _ZN17compiler_builtins5float3cmp7__ltsf217h6891399137be9ba7E
ffffff8040026c20 t _ZN17compiler_builtins5float3cmp7__nesf217h86f2d282205febbbE
ffffff8040026c88 t __eqsf2
ffffff8040026c88 t __lesf2
ffffff8040026c88 t __ltsf2
ffffff8040026c88 t __nesf2
ffffff8040026cf0 t _ZN17compiler_builtins5float3cmp7__gedf217h2abe8500fcd6e511E
ffffff8040026cf0 t _ZN17compiler_builtins5float3cmp7__gtdf217h3e4e7fa0588b2447E
ffffff8040026d4c t __gedf2
ffffff8040026d4c t __gtdf2
ffffff8040026da8 t _ZN17compiler_builtins5float3cmp10__unorddf217h8b4330727e462b29E
ffffff8040026dcc t __unorddf2
ffffff8040026df0 t _ZN17compiler_builtins5float3cmp7__eqdf217hb299270a2f810db8E
ffffff8040026df0 t _ZN17compiler_builtins5float3cmp7__ledf217h20bfaf44c41689f3E
ffffff8040026df0 t _ZN17compiler_builtins5float3cmp7__ltdf217h14ff61f6a0f1823cE
ffffff8040026df0 t _ZN17compiler_builtins5float3cmp7__nedf217hb8df027e9fd29d36E
ffffff8040026e58 t __eqdf2
ffffff8040026e58 t __ledf2
ffffff8040026e58 t __ltdf2
ffffff8040026e58 t __nedf2
ffffff8040026ec0 t __getf2
ffffff8040026ec0 t __gttf2
ffffff8040026f48 t __unordtf2
ffffff8040026f90 t __eqtf2
ffffff8040026f90 t __letf2
ffffff8040026f90 t __lttf2
ffffff8040026f90 t __netf2
ffffff804002702c t _ZN17compiler_builtins5float4conv13__floatunsisf17h501e3a34213a7ca7E
ffffff804002706c t __floatunsisf
ffffff80400270ac t _ZN17compiler_builtins5float4conv13__floatunsidf17h521edb8c47907424E
ffffff80400270e4 t __floatunsidf
ffffff804002711c t _ZN17compiler_builtins5float4conv13__floatundisf17h36b2a5c90643acd4E
ffffff8040027160 t __floatundisf
ffffff80400271a4 t _ZN17compiler_builtins5float4conv13__floatundidf17hef3450a88fbe1f71E
ffffff80400271e4 t __floatundidf
ffffff8040027224 t _ZN17compiler_builtins5float4conv13__floatuntisf17h4cac187bf72295d9E
ffffff80400272ac t __floatuntisf
ffffff8040027334 t _ZN17compiler_builtins5float4conv13__floatuntidf17hc89243b73f285045E
ffffff80400273b0 t __floatuntidf
ffffff804002742c t __floatunsitf
ffffff804002746c t __floatunditf
ffffff80400274c0 t __floatuntitf
ffffff804002754c t _ZN17compiler_builtins5float4conv11__floatsisf17h7a969498d8793438E
ffffff80400275a4 t __floatsisf
ffffff80400275fc t _ZN17compiler_builtins5float4conv11__floatsidf17h690f862181bbd751E
ffffff8040027648 t __floatsidf
ffffff8040027694 t _ZN17compiler_builtins5float4conv11__floatdisf17h7876bb4dada065f5E
ffffff80400276ec t __floatdisf
ffffff8040027744 t _ZN17compiler_builtins5float4conv11__floatdidf17ha7cbe3cd0ed530a3E
ffffff804002779c t __floatdidf
ffffff80400277f4 t _ZN17compiler_builtins5float4conv11__floattisf17ha8d1d4fd89dec03bE
ffffff8040027898 t __floattisf
ffffff804002793c t _ZN17compiler_builtins5float4conv11__floattidf17h3ff3689ee7f3fdd7E
ffffff80400279d0 t __floattidf
ffffff8040027a64 t __floatsitf
ffffff8040027abc t __floatditf
ffffff8040027b28 t __floattitf
ffffff8040027bd4 t _ZN17compiler_builtins5float4conv12__fixunssfsi17h46f5a27ec4a692e2E
ffffff8040027c20 t __fixunssfsi
ffffff8040027c6c t _ZN17compiler_builtins5float4conv12__fixunssfdi17h524a81ab1b626b00E
ffffff8040027cb8 t __fixunssfdi
ffffff8040027d04 t _ZN17compiler_builtins5float4conv12__fixunssfti17hababf6e506e30678E
ffffff8040027d6c t __fixunssfti
ffffff8040027dd4 t _ZN17compiler_builtins5float4conv12__fixunsdfsi17hdca1e7186dfa35d8E
ffffff8040027e20 t __fixunsdfsi
ffffff8040027e6c t _ZN17compiler_builtins5float4conv12__fixunsdfdi17h538771e25f297f47E
ffffff8040027eb8 t __fixunsdfdi
ffffff8040027f04 t _ZN17compiler_builtins5float4conv12__fixunsdfti17h8cc6cae72e61b77dE
ffffff8040027f70 t __fixunsdfti
ffffff8040027fdc t __fixunstfsi
ffffff8040028040 t __fixunstfdi
ffffff80400280a4 t __fixunstfti
ffffff8040028138 t _ZN17compiler_builtins5float4conv9__fixsfsi17h87feba884003c574E
ffffff804002819c t __fixsfsi
ffffff8040028200 t _ZN17compiler_builtins5float4conv9__fixsfdi17h362d1552655e6913E
ffffff8040028264 t __fixsfdi
ffffff80400282c8 t _ZN17compiler_builtins5float4conv9__fixsfti17he6443b1ed53bcef1E
ffffff8040028358 t __fixsfti
ffffff80400283e8 t _ZN17compiler_builtins5float4conv9__fixdfsi17h6b6026a7adb24924E
ffffff8040028450 t __fixdfsi
ffffff80400284b8 t _ZN17compiler_builtins5float4conv9__fixdfdi17h147deb39371348f0E
ffffff804002851c t __fixdfdi
ffffff8040028580 t _ZN17compiler_builtins5float4conv9__fixdfti17h4027c50b838d312dE
ffffff8040028614 t __fixdfti
ffffff80400286a8 t __fixtfsi
ffffff8040028724 t __fixtfdi
ffffff804002879c t __fixtfti
ffffff8040028850 t _ZN17compiler_builtins5float3div8__divsf317h45c1170609e0b11bE
ffffff8040028a58 t __divsf3
ffffff8040028a5c t _ZN17compiler_builtins5float3div8__divdf317h1f684d23e10fda5aE
ffffff8040028c94 t __divdf3
ffffff8040028c98 t __divtf3
ffffff80400292bc t _ZN17compiler_builtins5float6extend13__extendsfdf217h3be7e381877ce113E
ffffff8040029350 t __extendsfdf2
ffffff80400293e4 t __extendhfsf2
ffffff80400293e4 t __gnu_h2f_ieee
ffffff8040029478 t __extendhfdf2
ffffff8040029534 t __extendhftf2
ffffff8040029604 t __extendsftf2
ffffff80400296d0 t __extenddftf2
ffffff80400297a8 t _ZN17compiler_builtins5float3mul8__mulsf317hd1b1370a4a40c376E
ffffff8040029958 t __mulsf3
ffffff804002995c t _ZN17compiler_builtins5float3mul8__muldf317h3805605cc6db41ebE
ffffff8040029b08 t __muldf3
ffffff8040029b0c t __multf3
ffffff8040029fd8 t _ZN17compiler_builtins5float3pow9__powisf217h2cb615ad96a9b55dE
ffffff804002a024 t __powisf2
ffffff804002a070 t _ZN17compiler_builtins5float3pow9__powidf217hc7f564d5858733d7E
ffffff804002a0bc t __powidf2
ffffff804002a108 t __powitf2
ffffff804002a1bc t _ZN17compiler_builtins5float3sub8__subsf317h49b4570f4f433ee9E
ffffff804002a1c4 t __subsf3
ffffff804002a1cc t _ZN17compiler_builtins5float3sub8__subdf317h53e4c6c10ded6548E
ffffff804002a1d4 t __subdf3
ffffff804002a1dc t __subtf3
ffffff804002a1f4 t _ZN63_$LT$f16$u20$as$u20$compiler_builtins..float..traits..Float$GT$9normalize17he974969f8e5de9fbE
ffffff804002a1f4 t _ZN88_$LT$f16$u20$as$u20$compiler_builtins..math..libm_math..support..float_traits..Float$GT$9normalize17h0349405e076fdc82E
ffffff804002a21c t _ZN63_$LT$f32$u20$as$u20$compiler_builtins..float..traits..Float$GT$9normalize17h8a58887782d20aaeE
ffffff804002a21c t _ZN88_$LT$f32$u20$as$u20$compiler_builtins..math..libm_math..support..float_traits..Float$GT$9normalize17h6e42e3e95ba1801aE
ffffff804002a234 t _ZN63_$LT$f64$u20$as$u20$compiler_builtins..float..traits..Float$GT$9normalize17hfc9a492da675b7d2E
ffffff804002a234 t _ZN88_$LT$f64$u20$as$u20$compiler_builtins..math..libm_math..support..float_traits..Float$GT$9normalize17hc66785e129918b09E
ffffff804002a24c t _ZN64_$LT$f128$u20$as$u20$compiler_builtins..float..traits..Float$GT$9normalize17hf7f1b0b29b9ddae8E
ffffff804002a24c t _ZN89_$LT$f128$u20$as$u20$compiler_builtins..math..libm_math..support..float_traits..Float$GT$9normalize17h4ff8cf5f5298c1d5E
ffffff804002a2a0 t _ZN17compiler_builtins5float5trunc12__truncdfsf217h9c29aeafb22ca9fcE
ffffff804002a3f4 t __truncdfsf2
ffffff804002a548 t __gnu_f2h_ieee
ffffff804002a548 t __truncsfhf2
ffffff804002a650 t __truncdfhf2
ffffff804002a790 t __trunctfhf2
ffffff804002a960 t __trunctfsf2
ffffff804002ab38 t __trunctfdf2
ffffff804002ace8 t _ZN17compiler_builtins3int19specialized_div_rem12u128_div_rem17h970cb48017c821adE
ffffff804002b00c t _ZN17compiler_builtins3int6addsub15__rust_i128_add17h459abf5112fabe82E
ffffff804002b00c t _ZN17compiler_builtins3int6addsub15__rust_u128_add17hde7c6e73591d4213E
ffffff804002b018 t __rust_i128_add
ffffff804002b018 t __rust_u128_add
ffffff804002b024 t _ZN17compiler_builtins3int6addsub16__rust_i128_addo17h09e6a5a5245b984eE
ffffff804002b054 t __rust_i128_addo
ffffff804002b084 t _ZN17compiler_builtins3int6addsub16__rust_u128_addo17he9346b4ee07e4209E
ffffff804002b0a8 t __rust_u128_addo
ffffff804002b0cc t _ZN17compiler_builtins3int6addsub15__rust_i128_sub17hc97778e05eab777cE
ffffff804002b0cc t _ZN17compiler_builtins3int6addsub15__rust_u128_sub17hdd0376eff5689e7aE
ffffff804002b0d8 t __rust_i128_sub
ffffff804002b0d8 t __rust_u128_sub
ffffff804002b0e4 t _ZN17compiler_builtins3int6addsub16__rust_i128_subo17h50514bfc0bd00736E
ffffff804002b114 t __rust_i128_subo
ffffff804002b144 t _ZN17compiler_builtins3int6addsub16__rust_u128_subo17h8cfb0c79c8883b5eE
ffffff804002b168 t __rust_u128_subo
ffffff804002b18c t _ZN84_$LT$compiler_builtins..int..big..i256$u20$as$u20$core..ops..bit..Shl$LT$u32$GT$$GT$3shl17hc6865126352c4a34E
ffffff804002b18c t _ZN84_$LT$compiler_builtins..int..big..u256$u20$as$u20$core..ops..bit..Shl$LT$u32$GT$$GT$3shl17hdac9207d90121bfbE
ffffff804002b190 t _ZN17compiler_builtins3int5bswap10__bswapsi217hea1da5971199e372E
ffffff804002b198 t __bswapsi2
ffffff804002b1a0 t _ZN17compiler_builtins3int5bswap10__bswapdi217hcb185342074bbcb2E
ffffff804002b1a8 t __bswapdi2
ffffff804002b1b0 t _ZN17compiler_builtins3int5bswap10__bswapti217h632c19942978c6ffE
ffffff804002b1c0 t __bswapti2
ffffff804002b1d0 t _ZN17compiler_builtins3int13leading_zeros8__clzsi217h5e11213f5cd2edd2E
ffffff804002b238 t __clzsi2
ffffff804002b2a0 t _ZN17compiler_builtins3int13leading_zeros8__clzdi217h6ebc5752d093920cE
ffffff804002b31c t __clzdi2
ffffff804002b398 t _ZN17compiler_builtins3int13leading_zeros8__clzti217h98997778c1e93638E
ffffff804002b498 t __clzti2
ffffff804002b49c t _ZN17compiler_builtins3int3mul8__muldi317h2643d81c430a64caE
ffffff804002b4e0 t __muldi3
ffffff804002b524 t _ZN17compiler_builtins3int3mul8__multi317h2dbc7c2bf10752b3E
ffffff804002b568 t __multi3
ffffff804002b5ac t _ZN17compiler_builtins3int3mul9__mulosi417h1b8f43249323682dE
ffffff804002b664 t __mulosi4
ffffff804002b71c t _ZN17compiler_builtins3int3mul9__mulodi417h23610ededbb73a99E
ffffff804002b7dc t __mulodi4
ffffff804002b89c t __muloti4
ffffff804002b89c t __rust_i128_mulo
ffffff804002b9a8 t _ZN17compiler_builtins3int3mul16__rust_i128_mulo17hb719163c6efea913E
ffffff804002b9a8 t _ZN17compiler_builtins3int3mul9__muloti417h2f2441f98d31bf17E
ffffff804002bab4 t _ZN17compiler_builtins3int3mul16__rust_u128_mulo17hf27efa9fc1a153f0E
ffffff804002bb2c t __rust_u128_mulo
ffffff804002bba4 t _ZN17compiler_builtins3int4sdiv11__divmodsi417h2d3a223b906bc9fbE
ffffff804002bd78 t __divmodsi4
ffffff804002bd7c t _ZN17compiler_builtins3int4sdiv8__divsi317h17270dfb546f9298E
ffffff804002be68 t __divsi3
ffffff804002bf54 t _ZN17compiler_builtins3int4sdiv8__modsi317hb7c050c03da4f364E
ffffff804002c088 t __modsi3
ffffff804002c08c t _ZN17compiler_builtins3int4sdiv11__divmoddi417h40ef6c2b2ddd847cE
ffffff804002c268 t __divmoddi4
ffffff804002c26c t _ZN17compiler_builtins3int4sdiv8__divdi317h9b346fdb748973c4E
ffffff804002c35c t __divdi3
ffffff804002c44c t _ZN17compiler_builtins3int4sdiv8__moddi317hb5c2630652863477E
ffffff804002c588 t __moddi3
ffffff804002c58c t _ZN17compiler_builtins3int4sdiv11__divmodti417h7eec18260d73d9b8E
ffffff804002c650 t __divmodti4
ffffff804002c714 t _ZN17compiler_builtins3int4sdiv8__divti317h8c0b097c19498942E
ffffff804002c788 t __divti3
ffffff804002c7fc t _ZN17compiler_builtins3int4sdiv8__modti317h488c8f8e5939506aE
ffffff804002c878 t __modti3
ffffff804002c8f4 t _ZN17compiler_builtins3int5shift9__ashlsi317hf99bf771b4f1fe6dE
ffffff804002c940 t __ashlsi3
ffffff804002c98c t _ZN17compiler_builtins3int5shift9__ashldi317h2af297c26648bf5dE
ffffff804002c9c4 t __ashldi3
ffffff804002c9fc t _ZN17compiler_builtins3int5shift9__ashlti317hd607da226dd6bfb2E
ffffff804002ca30 t __ashlti3
ffffff804002ca64 t _ZN17compiler_builtins3int5shift9__ashrsi317hfb4befe8d6082175E
ffffff804002cab8 t __ashrsi3
ffffff804002cb0c t _ZN17compiler_builtins3int5shift9__ashrdi317h0b355885510f1464E
ffffff804002cb48 t __ashrdi3
ffffff804002cb84 t _ZN17compiler_builtins3int5shift9__ashrti317h57b510388a1c802aE
ffffff804002cbbc t __ashrti3
ffffff804002cbf4 t _ZN17compiler_builtins3int5shift9__lshrsi317h134a6f158114fd69E
ffffff804002cc3c t __lshrsi3
ffffff804002cc84 t _ZN17compiler_builtins3int5shift9__lshrdi317h45f320cdba587d5dE
ffffff804002ccb8 t __lshrdi3
ffffff804002ccec t _ZN17compiler_builtins3int5shift9__lshrti317hf0eebb9713be354cE
ffffff804002cd20 t __lshrti3
ffffff804002cd54 t _ZN17compiler_builtins3int14trailing_zeros8__ctzsi217hd0254e45e2f9fc66E
ffffff804002cdcc t __ctzsi2
ffffff804002ce44 t _ZN17compiler_builtins3int14trailing_zeros8__ctzdi217h9fba08da86d0eccfE
ffffff804002ced0 t __ctzdi2
ffffff804002cf5c t _ZN17compiler_builtins3int14trailing_zeros8__ctzti217ha55019f1bbf41744E
ffffff804002d07c t __ctzti2
ffffff804002d080 t _ZN17compiler_builtins3int4udiv9__udivsi317h502bb369c3b27fc2E
ffffff804002d138 t __udivsi3
ffffff804002d1f0 t _ZN17compiler_builtins3int4udiv9__umodsi317h7d6d976b53e7d98aE
ffffff804002d278 t __umodsi3
ffffff804002d300 t _ZN17compiler_builtins3int4udiv12__udivmodsi417hd62d08e3470c05a7E
ffffff804002d3d8 t __udivmodsi4
ffffff804002d4b0 t _ZN17compiler_builtins3int4udiv9__udivdi317he0dcb52ef352675eE
ffffff804002d570 t __udivdi3
ffffff804002d630 t _ZN17compiler_builtins3int4udiv9__umoddi317h9aad8466bb813572E
ffffff804002d6bc t __umoddi3
ffffff804002d748 t _ZN17compiler_builtins3int4udiv12__udivmoddi417hf380265bbf7a71feE
ffffff804002d824 t __udivmoddi4
ffffff804002d900 t _ZN17compiler_builtins3int4udiv9__udivti317h56694d8149b7b05dE
ffffff804002d930 t __udivti3
ffffff804002d960 t _ZN17compiler_builtins3int4udiv9__umodti317hbe6a3e96c281f00bE
ffffff804002d990 t __umodti3
ffffff804002d9c0 t _ZN17compiler_builtins3int4udiv12__udivmodti417hf42c17e4371ab3b8E
ffffff804002da00 t __udivmodti4
ffffff804002da40 t _ZN17compiler_builtins4math9libm_math7support3big96_$LT$impl$u20$compiler_builtins..math..libm_math..support..int_traits..HInt$u20$for$u20$i128$GT$14zero_widen_mul17he1a449856da551d5E
ffffff804002da40 t _ZN17compiler_builtins4math9libm_math7support3big96_$LT$impl$u20$compiler_builtins..math..libm_math..support..int_traits..HInt$u20$for$u20$u128$GT$9widen_mul17hfa020777121c68abE
ffffff804002da8c t _ZN17compiler_builtins4math9libm_math7support3big96_$LT$impl$u20$compiler_builtins..math..libm_math..support..int_traits..HInt$u20$for$u20$i128$GT$9widen_mul17h781df42b9f8d2b29E
ffffff804002da90 t _ZN17compiler_builtins4math9libm_math7support3big96_$LT$impl$u20$compiler_builtins..math..libm_math..support..int_traits..HInt$u20$for$u20$i128$GT$8widen_hi17h253ca2795a68861fE
ffffff804002da90 t _ZN17compiler_builtins4math9libm_math7support3big96_$LT$impl$u20$compiler_builtins..math..libm_math..support..int_traits..HInt$u20$for$u20$u128$GT$8widen_hi17h2fb40b0a95d1b0e2E
ffffff804002da94 t _ZN17compiler_builtins4math9libm_math7support9cold_path17he2399ba8570e77dbE
ffffff804002da98 t _ZN17compiler_builtins4math9libm_math8rem_pio28rem_pio217h4c155e9f00a4634fE
ffffff804002deb8 t _ZN17compiler_builtins4math9libm_math14rem_pio2_large14rem_pio2_large17h4ddd893eea0a55a6E
ffffff804002e6a0 t _ZN17compiler_builtins4math9libm_math4atan4atan17h123de3306d5f2ee6E
ffffff804002e8a4 t _ZN17compiler_builtins4math9libm_math5atanf5atanf17h89968951fe0d5c57E
ffffff804002ea5c t _ZN17compiler_builtins4math9libm_math3erf5erfc217hd25b15e7598fd87cE
ffffff804002ed6c t _ZN17compiler_builtins4math9libm_math4erff5erfc217h8cb3a8bdc768da87E
ffffff804002f0c8 t _ZN17compiler_builtins4math9libm_math3exp3exp17h4130090bf381f2cfE
ffffff804002f32c t _ZN17compiler_builtins4math9libm_math4expf4expf17h29d878488089aa4dE
ffffff804002f55c t _ZN17compiler_builtins4math9libm_math5expm15expm117h8ee7726ed5f0f744E
ffffff804002f82c t _ZN17compiler_builtins4math9libm_math6expm1f6expm1f17hc7b554ce132ab08dE
ffffff804002faec t _ZN17compiler_builtins4math9libm_math5floor5floor17h80dc449bed779d1bE
ffffff804002fb64 t _ZN17compiler_builtins4math9libm_math3log3log17h706ad5924ce4af11E
ffffff804002fcc8 t _ZN17compiler_builtins4math9libm_math4logf4logf17h80925012b97d2d63E
ffffff804002fde4 t _ZN17compiler_builtins4math9libm_math3pow3pow17h66f0c99a65b95ba4E
ffffff8040030620 t _ZN17compiler_builtins4math9libm_math6scalbn7scalbnf17hcac7f879f8ab9aa7E
ffffff80400306e8 t _ZN17compiler_builtins4math9libm_math6scalbn6scalbn17h1003f0fa7f18b959E
ffffff80400307a8 t _ZN17compiler_builtins4math9libm_math6tgamma6tgamma17h8e85cf663b8a47d5E
ffffff8040030e44 t _ZN105_$LT$compiler_builtins..math..libm_math..support..big..i256$u20$as$u20$core..ops..bit..Shl$LT$u32$GT$$GT$3shl17h55b3b0f1c5f01cbdE
ffffff8040030e44 t _ZN105_$LT$compiler_builtins..math..libm_math..support..big..u256$u20$as$u20$core..ops..bit..Shl$LT$u32$GT$$GT$3shl17he0621fea246af218E
ffffff8040030e48 t _ZN88_$LT$f32$u20$as$u20$compiler_builtins..math..libm_math..support..float_traits..Float$GT$3abs17h9bcc7d2f01d3084bE
ffffff8040030e50 t _ZN88_$LT$f32$u20$as$u20$compiler_builtins..math..libm_math..support..float_traits..Float$GT$8copysign17h834f98d48fb5ef58E
ffffff8040030e5c t _ZN88_$LT$f32$u20$as$u20$compiler_builtins..math..libm_math..support..float_traits..Float$GT$3fma17h651eb732d76917a7E
ffffff8040030e64 t _ZN88_$LT$f64$u20$as$u20$compiler_builtins..math..libm_math..support..float_traits..Float$GT$3abs17h41d869184cfe04a6E
ffffff8040030e6c t _ZN88_$LT$f64$u20$as$u20$compiler_builtins..math..libm_math..support..float_traits..Float$GT$8copysign17h0345377d2cc736b4E
ffffff8040030e7c t _ZN88_$LT$f64$u20$as$u20$compiler_builtins..math..libm_math..support..float_traits..Float$GT$3fma17h8aa95219c05c011dE
ffffff8040030e84 t _ZN83_$LT$u8$u20$as$u20$compiler_builtins..math..libm_math..support..int_traits..Int$GT$12unsigned_abs17h8ef31af00d475949E
ffffff8040030e84 t _ZN83_$LT$u8$u20$as$u20$compiler_builtins..math..libm_math..support..int_traits..Int$GT$3abs17hf42b01a5d2adfcffE
ffffff8040030e88 t _ZN83_$LT$i8$u20$as$u20$compiler_builtins..math..libm_math..support..int_traits..Int$GT$3abs17h093c7eb1071ada82E
ffffff8040030e98 t _ZN83_$LT$u8$u20$as$u20$compiler_builtins..math..libm_math..support..int_traits..Int$GT$11checked_add17hdc5d9bfd81eca1fcE
ffffff8040030eb4 t _ZN83_$LT$u8$u20$as$u20$compiler_builtins..math..libm_math..support..int_traits..Int$GT$5ilog217hcd566cb2c36e003aE
ffffff8040030ed0 t _ZN83_$LT$i8$u20$as$u20$compiler_builtins..math..libm_math..support..int_traits..Int$GT$11checked_add17h85465653f135e59bE
ffffff8040030ee4 t _ZN83_$LT$i8$u20$as$u20$compiler_builtins..math..libm_math..support..int_traits..Int$GT$11checked_sub17hf1ceaf1d6f1c9477E
ffffff8040030ef8 t _ZN83_$LT$i8$u20$as$u20$compiler_builtins..math..libm_math..support..int_traits..Int$GT$11rotate_left17h459357e98cf8cb02E
ffffff8040030ef8 t _ZN83_$LT$u8$u20$as$u20$compiler_builtins..math..libm_math..support..int_traits..Int$GT$11rotate_left17h986c3fb590f10baeE
ffffff8040030f18 t _ZN83_$LT$i8$u20$as$u20$compiler_builtins..math..libm_math..support..int_traits..Int$GT$13leading_zeros17hd3c295880d77a0b9E
ffffff8040030f18 t _ZN83_$LT$u8$u20$as$u20$compiler_builtins..math..libm_math..support..int_traits..Int$GT$13leading_zeros17hb6101d8887f6a72bE
ffffff8040030f2c t _ZN83_$LT$i8$u20$as$u20$compiler_builtins..math..libm_math..support..int_traits..Int$GT$5ilog217h9b320ac3fac8fa72E
ffffff8040030f4c t _ZN84_$LT$u16$u20$as$u20$compiler_builtins..math..libm_math..support..int_traits..Int$GT$12unsigned_abs17heaf43f9c8bcf4322E
ffffff8040030f4c t _ZN84_$LT$u16$u20$as$u20$compiler_builtins..math..libm_math..support..int_traits..Int$GT$3abs17h6129bb5e88102941E
ffffff8040030f50 t _ZN84_$LT$i16$u20$as$u20$compiler_builtins..math..libm_math..support..int_traits..Int$GT$3abs17h2c6ad73ec486d617E
ffffff8040030f60 t _ZN84_$LT$u16$u20$as$u20$compiler_builtins..math..libm_math..support..int_traits..Int$GT$11checked_add17h4efd49e343512636E
ffffff8040030f7c t _ZN84_$LT$u16$u20$as$u20$compiler_builtins..math..libm_math..support..int_traits..Int$GT$5ilog217hd2c33289ae714c9aE
ffffff8040030f98 t _ZN84_$LT$i16$u20$as$u20$compiler_builtins..math..libm_math..support..int_traits..Int$GT$11checked_add17h5fc3a31dd62824c8E
ffffff8040030fac t _ZN84_$LT$i16$u20$as$u20$compiler_builtins..math..libm_math..support..int_traits..Int$GT$11checked_sub17h80f21732f7b2fe7bE
ffffff8040030fc0 t _ZN84_$LT$i16$u20$as$u20$compiler_builtins..math..libm_math..support..int_traits..Int$GT$11rotate_left17ha5986a8ef9da37e4E
ffffff8040030fc0 t _ZN84_$LT$u16$u20$as$u20$compiler_builtins..math..libm_math..support..int_traits..Int$GT$11rotate_left17h4f2ad5ad9bd02467E
ffffff8040030fe0 t _ZN84_$LT$i16$u20$as$u20$compiler_builtins..math..libm_math..support..int_traits..Int$GT$13leading_zeros17h1ef40cf3ae9650e5E
ffffff8040030fe0 t _ZN84_$LT$u16$u20$as$u20$compiler_builtins..math..libm_math..support..int_traits..Int$GT$13leading_zeros17hff53931a0265b0bfE
ffffff8040030ff4 t _ZN84_$LT$i16$u20$as$u20$compiler_builtins..math..libm_math..support..int_traits..Int$GT$5ilog217ha1dc216e5a1fe671E
ffffff8040031014 t _ZN84_$LT$u32$u20$as$u20$compiler_builtins..math..libm_math..support..int_traits..Int$GT$12unsigned_abs17hd89affe52f5a3585E
ffffff8040031014 t _ZN84_$LT$u32$u20$as$u20$compiler_builtins..math..libm_math..support..int_traits..Int$GT$3abs17h628ea0b1bd8a4ab4E
ffffff8040031018 t _ZN84_$LT$i32$u20$as$u20$compiler_builtins..math..libm_math..support..int_traits..Int$GT$3abs17he3a5a8587a21f44fE
ffffff8040031024 t _ZN84_$LT$u32$u20$as$u20$compiler_builtins..math..libm_math..support..int_traits..Int$GT$11checked_add17h2208c91b6101c4b6E
ffffff8040031038 t _ZN84_$LT$u32$u20$as$u20$compiler_builtins..math..libm_math..support..int_traits..Int$GT$5ilog217had4f233b85827b51E
ffffff804003104c t _ZN84_$LT$i32$u20$as$u20$compiler_builtins..math..libm_math..support..int_traits..Int$GT$11checked_add17h11d56a77e872edceE
ffffff8040031058 t _ZN84_$LT$i32$u20$as$u20$compiler_builtins..math..libm_math..support..int_traits..Int$GT$11checked_sub17hfb2094ef187aa407E
ffffff8040031064 t _ZN84_$LT$i32$u20$as$u20$compiler_builtins..math..libm_math..support..int_traits..Int$GT$11rotate_left17h2b29751dbf597e26E
ffffff8040031064 t _ZN84_$LT$u32$u20$as$u20$compiler_builtins..math..libm_math..support..int_traits..Int$GT$11rotate_left17ha771eeacdf415a02E
ffffff8040031070 t _ZN84_$LT$i32$u20$as$u20$compiler_builtins..math..libm_math..support..int_traits..Int$GT$13leading_zeros17h6b7081401f7b08c6E
ffffff8040031070 t _ZN84_$LT$u32$u20$as$u20$compiler_builtins..math..libm_math..support..int_traits..Int$GT$13leading_zeros17h88f3a2d8acaf79c7E
ffffff8040031078 t _ZN84_$LT$i32$u20$as$u20$compiler_builtins..math..libm_math..support..int_traits..Int$GT$5ilog217he6c095938ae4666fE
ffffff8040031090 t _ZN84_$LT$u64$u20$as$u20$compiler_builtins..math..libm_math..support..int_traits..Int$GT$12unsigned_abs17hd4bbb8d0d848ee73E
ffffff8040031090 t _ZN84_$LT$u64$u20$as$u20$compiler_builtins..math..libm_math..support..int_traits..Int$GT$3abs17hf838e7ace6ad950fE
ffffff8040031090 t _ZN86_$LT$usize$u20$as$u20$compiler_builtins..math..libm_math..support..int_traits..Int$GT$12unsigned_abs17hcc2eb8d4f22a6f00E
ffffff8040031090 t _ZN86_$LT$usize$u20$as$u20$compiler_builtins..math..libm_math..support..int_traits..Int$GT$3abs17ha37355c0f50c8bb1E
ffffff8040031094 t _ZN84_$LT$i64$u20$as$u20$compiler_builtins..math..libm_math..support..int_traits..Int$GT$3abs17hd594bf8095dfb117E
ffffff8040031094 t _ZN86_$LT$isize$u20$as$u20$compiler_builtins..math..libm_math..support..int_traits..Int$GT$3abs17h3261e68951643a56E
ffffff80400310a0 t _ZN84_$LT$u64$u20$as$u20$compiler_builtins..math..libm_math..support..int_traits..Int$GT$11checked_add17h70133e66304bfc75E
ffffff80400310a0 t _ZN86_$LT$usize$u20$as$u20$compiler_builtins..math..libm_math..support..int_traits..Int$GT$11checked_add17h9472675e255d7ac2E
ffffff80400310b4 t _ZN84_$LT$u64$u20$as$u20$compiler_builtins..math..libm_math..support..int_traits..Int$GT$5ilog217h9e31b3bef2d4e611E
ffffff80400310b4 t _ZN86_$LT$usize$u20$as$u20$compiler_builtins..math..libm_math..support..int_traits..Int$GT$5ilog217h2300d841fa0fe160E
ffffff80400310c8 t _ZN84_$LT$i64$u20$as$u20$compiler_builtins..math..libm_math..support..int_traits..Int$GT$11checked_add17h4357da0940396b98E
ffffff80400310c8 t _ZN86_$LT$isize$u20$as$u20$compiler_builtins..math..libm_math..support..int_traits..Int$GT$11checked_add17ha760f87721e3f2c3E
ffffff80400310d4 t _ZN84_$LT$i64$u20$as$u20$compiler_builtins..math..libm_math..support..int_traits..Int$GT$11checked_sub17h54bcb0149996508eE
ffffff80400310d4 t _ZN86_$LT$isize$u20$as$u20$compiler_builtins..math..libm_math..support..int_traits..Int$GT$11checked_sub17h255a66687b3f0b0dE
ffffff80400310e0 t _ZN84_$LT$i64$u20$as$u20$compiler_builtins..math..libm_math..support..int_traits..Int$GT$11rotate_left17h7b5efda3e208c5f7E
ffffff80400310e0 t _ZN84_$LT$u64$u20$as$u20$compiler_builtins..math..libm_math..support..int_traits..Int$GT$11rotate_left17hdb0fb0e970b8468dE
ffffff80400310e0 t _ZN86_$LT$isize$u20$as$u20$compiler_builtins..math..libm_math..support..int_traits..Int$GT$11rotate_left17h8aa7a0eaa0672ca3E
ffffff80400310e0 t _ZN86_$LT$usize$u20$as$u20$compiler_builtins..math..libm_math..support..int_traits..Int$GT$11rotate_left17hc65eb2682f301b8cE
ffffff80400310ec t _ZN84_$LT$i64$u20$as$u20$compiler_builtins..math..libm_math..support..int_traits..Int$GT$13leading_zeros17hf1ad0f9ee324ad26E
ffffff80400310ec t _ZN84_$LT$u64$u20$as$u20$compiler_builtins..math..libm_math..support..int_traits..Int$GT$13leading_zeros17h1e2bf73cac1e25acE
ffffff80400310ec t _ZN86_$LT$isize$u20$as$u20$compiler_builtins..math..libm_math..support..int_traits..Int$GT$13leading_zeros17hb84d5b6d8952a0b4E
ffffff80400310ec t _ZN86_$LT$usize$u20$as$u20$compiler_builtins..math..libm_math..support..int_traits..Int$GT$13leading_zeros17h9f7fbb4866aeb97dE
ffffff80400310f4 t _ZN84_$LT$i64$u20$as$u20$compiler_builtins..math..libm_math..support..int_traits..Int$GT$5ilog217h034f786509b4b20fE
ffffff80400310f4 t _ZN86_$LT$isize$u20$as$u20$compiler_builtins..math..libm_math..support..int_traits..Int$GT$5ilog217hc79a4eb3c6478c75E
ffffff804003110c t _ZN85_$LT$u128$u20$as$u20$compiler_builtins..math..libm_math..support..int_traits..Int$GT$12unsigned_abs17h02606ae5e8e87ca2E
ffffff804003110c t _ZN85_$LT$u128$u20$as$u20$compiler_builtins..math..libm_math..support..int_traits..Int$GT$3abs17h78f14def256dcbd8E
ffffff8040031110 t _ZN85_$LT$i128$u20$as$u20$compiler_builtins..math..libm_math..support..int_traits..Int$GT$3abs17h9981b7db54798527E
ffffff8040031128 t _ZN85_$LT$u128$u20$as$u20$compiler_builtins..math..libm_math..support..int_traits..Int$GT$11checked_add17hf37acf8fedf0d291E
ffffff8040031158 t _ZN85_$LT$u128$u20$as$u20$compiler_builtins..math..libm_math..support..int_traits..Int$GT$5ilog217h035a41acb7c4206eE
ffffff8040031180 t _ZN85_$LT$i128$u20$as$u20$compiler_builtins..math..libm_math..support..int_traits..Int$GT$11checked_add17h14ae78748a92c34cE
ffffff80400311a8 t _ZN85_$LT$i128$u20$as$u20$compiler_builtins..math..libm_math..support..int_traits..Int$GT$11checked_sub17h2b34f119b52aa8c1E
ffffff80400311d0 t _ZN85_$LT$i128$u20$as$u20$compiler_builtins..math..libm_math..support..int_traits..Int$GT$11rotate_left17h7aa9264eddc96fa6E
ffffff80400311d0 t _ZN85_$LT$u128$u20$as$u20$compiler_builtins..math..libm_math..support..int_traits..Int$GT$11rotate_left17h1f674d952b430363E
ffffff8040031204 t _ZN85_$LT$i128$u20$as$u20$compiler_builtins..math..libm_math..support..int_traits..Int$GT$13leading_zeros17he98b8e295106daedE
ffffff8040031204 t _ZN85_$LT$u128$u20$as$u20$compiler_builtins..math..libm_math..support..int_traits..Int$GT$13leading_zeros17hd17a00543567ce27E
ffffff804003121c t _ZN85_$LT$i128$u20$as$u20$compiler_builtins..math..libm_math..support..int_traits..Int$GT$5ilog217h4814781e5b29d9f5E
ffffff8040031248 t ceilf16
ffffff80400312bc t copysignf16
ffffff80400312d4 t fabsf16
ffffff80400312e4 t fdimf16
ffffff8040031304 t floorf16
ffffff8040031388 t fmaxf16
ffffff80400313a0 t fmaximumf16
ffffff804003140c t fminf16
ffffff8040031424 t fminimumf16
ffffff8040031490 t fmodf16
ffffff8040031590 t rintf16
ffffff8040031590 t roundevenf16
ffffff804003160c t roundf16
ffffff8040031664 t sqrtf16
ffffff8040031730 t truncf16
ffffff8040031768 t _ZN17compiler_builtins4math17full_availability5cbrtf17hbf9542f9a5d19f8fE
ffffff8040031828 t cbrtf
ffffff80400318e8 t _ZN17compiler_builtins4math17full_availability5ceilf17h15deef685f683452E
ffffff8040031950 t ceilf
ffffff80400319b8 t _ZN17compiler_builtins4math17full_availability9copysignf17hfbe6f56697b22edeE
ffffff80400319c4 t copysignf
ffffff80400319d0 t fabsf
ffffff80400319d8 t fdimf
ffffff80400319ec t _ZN17compiler_builtins4math17full_availability6floorf17ha030694cea25edbbE
ffffff8040031a60 t floorf
ffffff8040031ad4 t fmaf
ffffff8040031adc t _ZN17compiler_builtins4math17full_availability5fmaxf17h4849c444b25eba19E
ffffff8040031aec t fmaxf
ffffff8040031afc t _ZN17compiler_builtins4math17full_availability5fminf17h4b38ed0f2f5b4653E
ffffff8040031b0c t fminf
ffffff8040031b1c t _ZN17compiler_builtins4math17full_availability5fmodf17h4867f0eee8a51c56E
ffffff8040031bec t fmodf
ffffff8040031cbc t rintf
ffffff8040031cc4 t _ZN17compiler_builtins4math17full_availability6roundf17h6788cbbea25f9826E
ffffff8040031d10 t roundf
ffffff8040031d5c t sqrtf
ffffff8040031d64 t _ZN17compiler_builtins4math17full_availability6truncf17ha9313659e0d2337eE
ffffff8040031d9c t truncf
ffffff8040031dd4 t _ZN17compiler_builtins4math17full_availability4cbrt17h43992c4e363cc71bE
ffffff80400320dc t cbrt
ffffff80400320e0 t _ZN17compiler_builtins4math17full_availability4ceil17h63646da081e78f21E
ffffff804003214c t ceil
ffffff80400321b8 t _ZN17compiler_builtins4math17full_availability8copysign17h26da376f6bae3b2eE
ffffff80400321c8 t copysign
ffffff80400321d8 t fabs
ffffff80400321e0 t fdim
ffffff80400321f4 t _ZN17compiler_builtins4math17full_availability5floor17h4f38c256bbbbb2ecE
ffffff804003226c t floor
ffffff80400322e4 t fma
ffffff80400322ec t _ZN17compiler_builtins4math17full_availability4fmax17h32c3c8ff10530af5E
ffffff80400322fc t fmax
ffffff804003230c t _ZN17compiler_builtins4math17full_availability4fmin17h1dfbe7e80ac7b063E
ffffff804003231c t fmin
ffffff804003232c t _ZN17compiler_builtins4math17full_availability4fmod17ha1181c1f401977f3E
ffffff8040032400 t fmod
ffffff80400324d4 t rint
ffffff80400324dc t _ZN17compiler_builtins4math17full_availability5round17h4fae494e226d49d4E
ffffff804003252c t round
ffffff804003257c t sqrt
ffffff8040032584 t _ZN17compiler_builtins4math17full_availability5trunc17h583e9bf1bb520f8fE
ffffff80400325bc t trunc
ffffff80400325f4 t _ZN17compiler_builtins4math17full_availability8fmaximum17hc9fad8d8119ab208E
ffffff8040032634 t fmaximum
ffffff8040032674 t _ZN17compiler_builtins4math17full_availability9fmaximumf17h64308771a13edfe1E
ffffff80400326b4 t fmaximumf
ffffff80400326f4 t _ZN17compiler_builtins4math17full_availability8fminimum17he513da9898f759a2E
ffffff8040032734 t fminimum
ffffff8040032774 t _ZN17compiler_builtins4math17full_availability9fminimumf17h97cbfdce7ea3c2e5E
ffffff80400327b4 t fminimumf
ffffff80400327f4 t _ZN17compiler_builtins4math17full_availability9roundeven17h60333513927229bdE
ffffff8040032850 t roundeven
ffffff80400328ac t _ZN17compiler_builtins4math17full_availability10roundevenf17hb005dfec1134771aE
ffffff80400328fc t roundevenf
ffffff804003294c t ceilf128
ffffff8040032a38 t copysignf128
ffffff8040032a54 t fabsf128
ffffff8040032a6c t fdimf128
ffffff8040032ab4 t floorf128
ffffff8040032bc4 t fmaf128
ffffff8040033364 t fmaxf128
ffffff80400333ac t fmaximumf128
ffffff8040033434 t fminf128
ffffff804003347c t fminimumf128
ffffff8040033500 t fmodf128
ffffff804003368c t rintf128
ffffff804003368c t roundevenf128
ffffff8040033734 t roundf128
ffffff80400337e4 t sqrtf128
ffffff8040033a10 t truncf128
ffffff8040033a94 t _ZN17compiler_builtins4math20partial_availability4acos17hc9fcfb1ae39b4b66E
ffffff8040033d10 t acos
ffffff8040033d14 t _ZN17compiler_builtins4math20partial_availability5acosf17haf3fa6ff39b744d2E
ffffff8040033f3c t acosf
ffffff8040033f40 t _ZN17compiler_builtins4math20partial_availability4asin17h89e5a5a83be90236E
ffffff804003419c t asin
ffffff80400341a0 t _ZN17compiler_builtins4math20partial_availability5asinf17h7de2e1dade6654f7E
ffffff8040034310 t asinf
ffffff8040034480 t _ZN17compiler_builtins4math20partial_availability4atan17h586bc4456a10c51cE
ffffff8040034484 t atan
ffffff8040034488 t _ZN17compiler_builtins4math20partial_availability5atan217h295ab0658439077cE
ffffff8040034608 t atan2
ffffff804003460c t _ZN17compiler_builtins4math20partial_availability6atan2f17h8f323e002a384fdaE
ffffff8040034794 t atan2f
ffffff8040034798 t _ZN17compiler_builtins4math20partial_availability5atanf17hf088ded2b634de65E
ffffff804003479c t atanf
ffffff80400347a0 t _ZN17compiler_builtins4math20partial_availability3cos17heb7972b277eff8caE
ffffff8040034b34 t cos
ffffff8040034b38 t _ZN17compiler_builtins4math20partial_availability4cosf17h6b8cf2f93238131dE
ffffff8040034eec t cosf
ffffff8040034ef0 t _ZN17compiler_builtins4math20partial_availability4cosh17h3b56ab79a89b5a45E
ffffff8040034fb4 t cosh
ffffff8040035078 t _ZN17compiler_builtins4math20partial_availability5coshf17hcb4c4f6ef801327bE
ffffff804003513c t coshf
ffffff8040035200 t _ZN17compiler_builtins4math20partial_availability3erf17h7c1c8cd9ddd546f0E
ffffff8040035350 t erf
ffffff80400354a0 t _ZN17compiler_builtins4math20partial_availability4erfc17h6f338e5659f12b65E
ffffff8040035628 t erfc
ffffff804003562c t _ZN17compiler_builtins4math20partial_availability5erfcf17h2c89d75b1af0109fE
ffffff80400357d8 t erfcf
ffffff80400357dc t _ZN17compiler_builtins4math20partial_availability4erff17he095c1e0938021deE
ffffff8040035934 t erff
ffffff8040035a8c t _ZN17compiler_builtins4math20partial_availability3exp17h88b12d8a763d92d5E
ffffff8040035a90 t exp
ffffff8040035a94 t _ZN17compiler_builtins4math20partial_availability4exp217hfcb9c2b6980ea9efE
ffffff8040035cec t exp2
ffffff8040035cf0 t _ZN17compiler_builtins4math20partial_availability5exp2f17h74f3a124b72bb9f2E
ffffff8040035e4c t exp2f
ffffff8040035fa8 t _ZN17compiler_builtins4math20partial_availability4expf17hdbafb186890a7097E
ffffff8040035fac t expf
ffffff8040035fb0 t _ZN17compiler_builtins4math20partial_availability5expm117ha665736606ad9c9dE
ffffff8040035fb4 t expm1
ffffff8040035fb8 t _ZN17compiler_builtins4math20partial_availability6expm1f17hf5c0dc33545befb3E
ffffff8040035fbc t expm1f
ffffff8040035fc0 t _ZN17compiler_builtins4math20partial_availability5hypot17he997460688d0bba1E
ffffff80400360dc t hypot
ffffff80400361f8 t _ZN17compiler_builtins4math20partial_availability6hypotf17h37342550d2ec63ceE
ffffff80400362c4 t hypotf
ffffff8040036390 t _ZN17compiler_builtins4math20partial_availability5ldexp17heae4d84cfa06a503E
ffffff8040036450 t ldexp
ffffff8040036510 t _ZN17compiler_builtins4math20partial_availability6ldexpf17hb77bb9224699f5e1E
ffffff80400365d8 t ldexpf
ffffff80400366a0 t _ZN17compiler_builtins4math20partial_availability3log17h1379153f512266d7E
ffffff80400366a4 t log
ffffff80400366a8 t _ZN17compiler_builtins4math20partial_availability5log1017h6c739ea9ac0f5328E
ffffff804003685c t log10
ffffff8040036860 t _ZN17compiler_builtins4math20partial_availability6log10f17hcb60345bc52d3095E
ffffff80400369c0 t log10f
ffffff8040036b20 t _ZN17compiler_builtins4math20partial_availability5log1p17he805e3770a74da36E
ffffff8040036ce0 t log1p
ffffff8040036ce4 t _ZN17compiler_builtins4math20partial_availability6log1pf17hd985a6c58df956eaE
ffffff8040036e74 t log1pf
ffffff8040036e78 t _ZN17compiler_builtins4math20partial_availability4log217haf16434f841f540dE
ffffff8040037010 t log2
ffffff8040037014 t _ZN17compiler_builtins4math20partial_availability5log2f17he5d701e8677be3c7E
ffffff8040037150 t log2f
ffffff804003728c t _ZN17compiler_builtins4math20partial_availability4logf17h5e5df07c08cd47caE
ffffff80400373a8 t logf
ffffff80400374c4 t _ZN17compiler_builtins4math20partial_availability3pow17h24d98eb150719beaE
ffffff80400374c8 t pow
ffffff80400374cc t _ZN17compiler_builtins4math20partial_availability4powf17h2b0a4fe3fbf3f36bE
ffffff8040037c04 t powf
ffffff8040037c08 t _ZN17compiler_builtins4math20partial_availability3sin17hdf3cda364604ad95E
ffffff8040037f70 t sin
ffffff8040037f74 t _ZN17compiler_builtins4math20partial_availability4sinf17h6d263fb25fcc9626E
ffffff8040038344 t sinf
ffffff8040038348 t _ZN17compiler_builtins4math20partial_availability4sinh17hd52a65cd7445ff9eE
ffffff8040038424 t sinh
ffffff8040038500 t _ZN17compiler_builtins4math20partial_availability5sinhf17h88324c5dcb771cbeE
ffffff80400385d8 t sinhf
ffffff80400386b0 t _ZN17compiler_builtins4math20partial_availability3tan17h3c0c240aff05286cE
ffffff8040038a34 t tan
ffffff8040038a38 t _ZN17compiler_builtins4math20partial_availability4tanf17h6b15d86a68b3c166E
ffffff8040038e00 t tanf
ffffff8040038e04 t _ZN17compiler_builtins4math20partial_availability4tanh17ha784b7cabc626f3eE
ffffff8040038ef0 t tanh
ffffff8040038fdc t _ZN17compiler_builtins4math20partial_availability5tanhf17hee0a0446a9a6488aE
ffffff80400390c0 t tanhf
ffffff80400391a4 t _ZN17compiler_builtins4math20partial_availability6tgamma17h7f2bf75bf6eb5f8aE
ffffff80400391a8 t tgamma
ffffff80400391ac t _ZN17compiler_builtins4math20partial_availability7tgammaf17hac91dfa3d80164daE
ffffff80400391c4 t tgammaf
ffffff80400391dc t _ZN17compiler_builtins4math20partial_availability8lgamma_r17h285a5c28df7af258E
ffffff8040039a78 t lgamma_r
ffffff8040039a7c t _ZN17compiler_builtins4math20partial_availability9lgammaf_r17h5b2421270f654a9dE
ffffff804003a4c0 t lgammaf_r
ffffff804003a4c4 t _ZN17compiler_builtins3mem6memcpy17h4da73312c99375edE
ffffff804003a790 t _ZN17compiler_builtins3mem7memmove17h04fef3b0a59a104cE
ffffff804003aa78 t _ZN17compiler_builtins3mem6memset17h563d4ead43b7827bE
ffffff804003ac90 t _ZN17compiler_builtins3mem4bcmp17hcbc82f5ea0e5078eE
ffffff804003ac90 t _ZN17compiler_builtins3mem6memcmp17h0cab6e595641bc43E
ffffff804003acb8 t bcmp
ffffff804003ace0 t _ZN17compiler_builtins3mem6strlen17h50a486b57d57f822E
ffffff804003ad38 T __text_end
ffffff804003c000 r rodata_check_str
ffffff804003dac0 r _ZN12cohesix_root17ROOTSERVER_ONLINE17h294380fdb3646f16E
ffffff804003f11c r _ZN4core7unicode12unicode_data10alphabetic7OFFSETS17h89a8388e4c1401f2E
ffffff804003f707 r _ZN4core7unicode12unicode_data14case_ignorable7OFFSETS17hdd6515d6676880eaE
ffffff804003fa90 r _ZN4core7unicode12unicode_data5cased7OFFSETS17hb9b1da189601f5f9E
ffffff804003fbcf r _ZN4core7unicode12unicode_data15grapheme_extend7OFFSETS17h5b701eba8e8e0084E
ffffff804003febe R _ZN4core7unicode12unicode_data9lowercase17BITSET_CHUNKS_MAP17h5f38e60ddf15c571E
ffffff804003ff39 r _ZN4core7unicode12unicode_data1n7OFFSETS17he2b395e8a70c1fb2E
ffffff804004005a R _ZN4core7unicode12unicode_data9uppercase17BITSET_CHUNKS_MAP17hbc6c0242578c0f11E
ffffff80400400d7 R _ZN4core7unicode12unicode_data11white_space14WHITESPACE_MAP17ha91c496f154f139bE
ffffff8040040ac8 r _ZN4core3num7flt2dec8strategy6dragon8POW5TO1617ha56762724cc52fa5E
ffffff8040040ad0 r _ZN4core3num7flt2dec8strategy6dragon8POW5TO3217h698705562f28a2a3E
ffffff8040040adc r _ZN4core3num7flt2dec8strategy6dragon8POW5TO6417h17078138cd0fb747E
ffffff8040040af0 r _ZN4core3num7flt2dec8strategy6dragon9POW5TO12817hd364c493d64f2162E
ffffff8040040b18 r _ZN4core3num7flt2dec8strategy6dragon9POW5TO25617hb8adebf0dec52e41E
ffffff8040040e30 R _ZN4core3num7flt2dec8strategy5grisu12CACHED_POW1017hf06b48327b628e9eE
ffffff8040043c78 r _ZN4core3num7dec2flt5table17POWER_OF_FIVE_12817h23866e004a57566dE
ffffff8040046cc8 r _ZN4core7unicode12unicode_data10alphabetic17SHORT_OFFSET_RUNS17h4a1f32b74b52796eE
ffffff8040046d9c r _ZN4core7unicode12unicode_data14case_ignorable17SHORT_OFFSET_RUNS17he08fe0e9cc0836ccE
ffffff8040046e30 r _ZN4core7unicode12unicode_data5cased17SHORT_OFFSET_RUNS17h71bd6b842844654eE
ffffff8040046e88 r _ZN4core7unicode12unicode_data15grapheme_extend17SHORT_OFFSET_RUNS17hb79258c6878bfa6aE
ffffff8040046f10 R _ZN4core7unicode12unicode_data9lowercase19BITSET_INDEX_CHUNKS17h973dcfc71d3dd563E
ffffff8040047050 R _ZN4core7unicode12unicode_data9lowercase16BITSET_CANONICAL17h6a8bcf65f3207506E
ffffff8040047210 R _ZN4core7unicode12unicode_data9lowercase14BITSET_MAPPING17h17051ee17862d563E
ffffff804004723c r _ZN4core7unicode12unicode_data1n17SHORT_OFFSET_RUNS17h2994222c4236aedfE
ffffff80400472e4 R _ZN4core7unicode12unicode_data9uppercase19BITSET_INDEX_CHUNKS17h7d26360b61f4296bE
ffffff80400473f8 R _ZN4core7unicode12unicode_data9uppercase16BITSET_CANONICAL17h8017fef439803c5dE
ffffff8040047558 R _ZN4core7unicode12unicode_data9uppercase14BITSET_MAPPING17he0d85fe1531ff04aE
ffffff804004e318 r _ZN17compiler_builtins4math9libm_math5exp2f6EXP2FT17h8b7a1f68d14288c4E
ffffff804004e520 R _ZN17compiler_builtins4math9libm_math7generic4sqrt9RSQRT_TAB17hb8960eaa8ab9ce46E
ffffff804004e620 r _ZN17compiler_builtins4math9libm_math4exp23TBL17hac4236e640d1b3abE
ffffff804004f620 R __rodata_end
ffffff8040050000 R __image_end
ffffff8040051000 D _ZN5alloc4sync18STATIC_INNER_SLICE17h1d69b9d7cc5933b1E
ffffff8040051020 D __data_end
ffffff8040053000 b _ZN12cohesix_root9allocator6OFFSET17h8ad903eac061059aE
ffffff8040053000 B __bss_start
ffffff8040053008 B VALIDATOR_HANDLE
ffffff8040053010 B SRV_HANDLE
ffffff8040053018 B CUDA_HANDLE
ffffff8040053020 B __bss_end
ffffff8040055000 B __heap_start
ffffff80400d5000 B __heap_end
ffffff80400d6000 B __stack_start
ffffff80400e6000 B __stack_end
