ffffff8040000000 T boot_log_hex
ffffff8040000004 T seL4_DebugPutChar
ffffff8040000008 T open
ffffff8040000010 T read
ffffff8040000010 T write
ffffff8040000064 T close
ffffff804000006c T execv
ffffff8040000074 T getenv
ffffff804000007c T setenv
ffffff8040000084 T _start
ffffff8040000324 t _RNvCs9km79j5joxb_7___rustc17rust_begin_unwind
ffffff804000032c t _RNvCs9km79j5joxb_7___rustc12___rust_alloc
ffffff80400003e0 t _RNvCs9km79j5joxb_7___rustc14___rust_dealloc
ffffff80400003e4 t _RNvCs9km79j5joxb_7___rustc14___rust_realloc
ffffff80400004bc t _RNvCs9km79j5joxb_7___rustc19___rust_alloc_zeroed
ffffff804000058c t _RNvCs9km79j5joxb_7___rustc8___rg_oom
ffffff8040000594 T _RNvCs9km79j5joxb_7___rustc26___rust_alloc_error_handler
ffffff8040000598 T _RNvCs9km79j5joxb_7___rustc42___rust_alloc_error_handler_should_panic_v2
ffffff80400005a0 T _RNvCs9km79j5joxb_7___rustc35___rust_no_alloc_shim_is_unstable_v2
ffffff80400005a4 t _ZN102_$LT$core..iter..adapters..map..Map$LT$I$C$F$GT$$u20$as$u20$core..iter..traits..iterator..Iterator$GT$4fold17h486ee4d7e2bfa14fE
ffffff80400007c0 t _ZN102_$LT$core..iter..adapters..map..Map$LT$I$C$F$GT$$u20$as$u20$core..iter..traits..iterator..Iterator$GT$4fold17h89f9768b84043af1E
ffffff8040000a04 t _ZN102_$LT$core..iter..adapters..map..Map$LT$I$C$F$GT$$u20$as$u20$core..iter..traits..iterator..Iterator$GT$4fold17hae2e5e537b60b942E
ffffff8040000c54 t _ZN104_$LT$core..iter..adapters..cloned..Cloned$LT$I$GT$$u20$as$u20$core..iter..traits..iterator..Iterator$GT$4next17h0e946396de015f88E
ffffff8040000c78 t _ZN104_$LT$core..iter..adapters..cloned..Cloned$LT$I$GT$$u20$as$u20$core..iter..traits..iterator..Iterator$GT$9size_hint17ha4265bcf5c011af0E
ffffff8040000c94 t _ZN104_$LT$core..iter..adapters..copied..Copied$LT$I$GT$$u20$as$u20$core..iter..traits..iterator..Iterator$GT$4next17h16e18c0c577d3f2eE
ffffff8040000cbc t _ZN104_$LT$core..iter..adapters..copied..Copied$LT$I$GT$$u20$as$u20$core..iter..traits..iterator..Iterator$GT$4next17hcc071c6e5e4b5522E
ffffff8040000cec t _ZN104_$LT$core..iter..adapters..copied..Copied$LT$I$GT$$u20$as$u20$core..iter..traits..iterator..Iterator$GT$9size_hint17ha3fdb0f4bdc09db3E
ffffff8040000d0c t _ZN104_$LT$core..iter..adapters..copied..Copied$LT$I$GT$$u20$as$u20$core..iter..traits..iterator..Iterator$GT$9size_hint17hdb67f1b19ba8bc2eE
ffffff8040000d28 t _ZN42_$LT$$RF$T$u20$as$u20$core..fmt..Debug$GT$3fmt17h85a4639cf6f48c51E
ffffff8040000d3c t _ZN42_$LT$$RF$T$u20$as$u20$core..fmt..Debug$GT$3fmt17hd9fe6cb268891a29E
ffffff8040000d58 t _ZN4core5error5Error5cause17h7dd56c4b3194c873E
ffffff8040000d60 t _ZN4core5slice5index5range17h9547d86de43d5370E
ffffff8040000d8c T _ZN4core9panicking13assert_failed17h75beec004baaf2daE
ffffff8040000db0 t _ZN69_$LT$core..alloc..layout..LayoutError$u20$as$u20$core..fmt..Debug$GT$3fmt17hda94993a6871d3f5E
ffffff8040000dc4 T _ZN5alloc5alloc18handle_alloc_error17h3ac4a356633e710fE
ffffff8040000dd4 T _ZN5alloc5alloc18handle_alloc_error8ct_error17h10bb53c9b7e65e2dE
ffffff8040000e00 T _RNvCs9km79j5joxb_7___rustc9___rdl_oom
ffffff8040000e8c T _ZN256_$LT$alloc..boxed..convert..$LT$impl$u20$core..convert..From$LT$alloc..string..String$GT$$u20$for$u20$alloc..boxed..Box$LT$dyn$u20$core..error..Error$u2b$core..marker..Sync$u2b$core..marker..Send$GT$$GT$..from..StringError$u20$as$u20$core..error..Error$GT$11description17h3749d4dd8936d422E
ffffff8040000e98 T _ZN256_$LT$alloc..boxed..convert..$LT$impl$u20$core..convert..From$LT$alloc..string..String$GT$$u20$for$u20$alloc..boxed..Box$LT$dyn$u20$core..error..Error$u2b$core..marker..Sync$u2b$core..marker..Send$GT$$GT$..from..StringError$u20$as$u20$core..fmt..Display$GT$3fmt17hbdbbec8f3b2273f9E
ffffff8040000eac T _ZN254_$LT$alloc..boxed..convert..$LT$impl$u20$core..convert..From$LT$alloc..string..String$GT$$u20$for$u20$alloc..boxed..Box$LT$dyn$u20$core..error..Error$u2b$core..marker..Sync$u2b$core..marker..Send$GT$$GT$..from..StringError$u20$as$u20$core..fmt..Debug$GT$3fmt17hce03ca728ecba6c8E
ffffff8040000ec0 T _ZN93_$LT$alloc..collections..btree..mem..replace..PanicGuard$u20$as$u20$core..ops..drop..Drop$GT$4drop17h3bdcacb1f1252e0fE
ffffff8040000ec4 T _ZN74_$LT$alloc..collections..TryReserveError$u20$as$u20$core..fmt..Display$GT$3fmt17ha7f7fe4265bb16c2E
ffffff8040000f34 T _ZN5alloc3ffi5c_str75_$LT$impl$u20$alloc..borrow..ToOwned$u20$for$u20$core..ffi..c_str..CStr$GT$8to_owned17h74c84a49c1fa131bE
ffffff8040000fa8 T _ZN5alloc3ffi5c_str75_$LT$impl$u20$alloc..borrow..ToOwned$u20$for$u20$core..ffi..c_str..CStr$GT$10clone_into17ha068842a2a801b23E
ffffff804000106c T _ZN5alloc3ffi5c_str40_$LT$impl$u20$core..ffi..c_str..CStr$GT$15to_string_lossy17h6c11b1d9ab0e6d2cE
ffffff8040001074 T _ZN5alloc3ffi5c_str40_$LT$impl$u20$core..ffi..c_str..CStr$GT$13into_c_string17hfaf4626c93595ad5E
ffffff8040001078 T _ZN5alloc4sync32arcinner_layout_for_value_layout17ha9d2eae227a74d43E
ffffff80400010e0 t _ZN79_$LT$alloc..vec..drain..Drain$LT$T$C$A$GT$$u20$as$u20$core..ops..drop..Drop$GT$4drop17h13a3189ab32c9e62E
ffffff8040001144 t _ZN4core3fmt5Write9write_fmt17h20553e722f69fbd5E
ffffff8040001154 t _ZN4core3ptr42drop_in_place$LT$alloc..string..String$GT$17h4c8b2cb62a9cd831E
ffffff804000116c T _ZN5alloc6string6String15from_utf8_lossy17hab1b75e1f7e4f5acE
ffffff80400013c4 T _ZN5alloc6string6String21from_utf8_lossy_owned17hb5822cfb1345331eE
ffffff804000144c T _ZN5alloc6string6String10from_utf1617h86854430f109f11fE
ffffff80400016e0 T _ZN5alloc6string6String12from_utf16le17hae54b6acdd415859E
ffffff80400017e4 T _ZN5alloc6string6String18from_utf16le_lossy17hdf6b905054a16793E
ffffff8040001a74 T _ZN5alloc6string6String12from_utf16be17hf5c74d5b438a968aE
ffffff8040001b1c T _ZN5alloc6string6String18from_utf16be_lossy17h12b234901a306fe9E
ffffff8040001c30 T _ZN5alloc6string6String11try_reserve17h72c6e84da15a2937E
ffffff8040001d08 T _ZN5alloc6string6String17try_reserve_exact17he898c385f761f550E
ffffff8040001dc8 T _ZN5alloc6string13FromUtf8Error8as_bytes17h02131adbcdc8b4b3E
ffffff8040001dd4 T _ZN5alloc6string13FromUtf8Error15into_utf8_lossy17hf061c1d5792a1276E
ffffff8040001fa8 T _ZN67_$LT$alloc..string..FromUtf8Error$u20$as$u20$core..fmt..Display$GT$3fmt17h56b99d9f534b24a0E
ffffff8040001fb0 T _ZN68_$LT$alloc..string..FromUtf16Error$u20$as$u20$core..fmt..Display$GT$3fmt17h0e47e32d99e0abf5E
ffffff8040001fc4 T _ZN60_$LT$alloc..string..String$u20$as$u20$core..clone..Clone$GT$5clone17hc6dc283231511051E
ffffff8040002048 T _ZN60_$LT$alloc..string..String$u20$as$u20$core..clone..Clone$GT$10clone_from17ha0ba3c0b964bc614E
ffffff80400020b8 t _ZN95_$LT$alloc..string..String$u20$as$u20$core..iter..traits..collect..FromIterator$LT$char$GT$$GT$9from_iter17h26746de9995abe94E
ffffff8040002128 t _ZN95_$LT$alloc..string..String$u20$as$u20$core..iter..traits..collect..FromIterator$LT$char$GT$$GT$9from_iter17he82444b3cca71f60E
ffffff8040002198 T _ZN73_$LT$$RF$alloc..string..String$u20$as$u20$core..str..pattern..Pattern$GT$13into_searcher17h0c885715dddacc04E
ffffff80400021ac T _ZN97_$LT$alloc..string..String$u20$as$u20$core..convert..From$LT$alloc..boxed..Box$LT$str$GT$$GT$$GT$4from17h217b942b708e118aE
ffffff80400021b8 T _ZN98_$LT$alloc..string..String$u20$as$u20$core..convert..From$LT$alloc..borrow..Cow$LT$str$GT$$GT$$GT$4from17h4f8225960d674e2aE
ffffff804000226c T _ZN97_$LT$alloc..string..String$u20$as$u20$core..convert..TryFrom$LT$alloc..vec..Vec$LT$u8$GT$$GT$$GT$8try_from17h4d8da3e4702d5200E
ffffff80400022f8 t _ZN58_$LT$alloc..string..String$u20$as$u20$core..fmt..Write$GT$9write_str17hd65058eae9858143E
ffffff8040002374 t _ZN58_$LT$alloc..string..String$u20$as$u20$core..fmt..Write$GT$10write_char17h1ee3f1ffa8f9cb34E
ffffff80400024ac T _ZN61_$LT$alloc..string..IntoChars$u20$as$u20$core..fmt..Debug$GT$3fmt17h220b3f0f2e03dfe1E
ffffff8040002508 T _ZN57_$LT$alloc..string..Drain$u20$as$u20$core..fmt..Debug$GT$3fmt17h3fbed1c01a0257e1E
ffffff8040002560 T _ZN62_$LT$alloc..string..Drain$u20$as$u20$core..ops..drop..Drop$GT$4drop17hd9450afbc29b701bE
ffffff80400025d4 T _ZN5alloc6string5Drain6as_str17ha0e8b9a286e13e36E
ffffff80400025e4 T _ZN72_$LT$alloc..string..Drain$u20$as$u20$core..convert..AsRef$LT$str$GT$$GT$6as_ref17h7b46915afafb4322E
ffffff80400025e4 T _ZN81_$LT$alloc..string..Drain$u20$as$u20$core..convert..AsRef$LT$$u5b$u8$u5d$$GT$$GT$6as_ref17h06469ecb2df2ed8aE
ffffff80400025f4 T _ZN79_$LT$alloc..string..Drain$u20$as$u20$core..iter..traits..iterator..Iterator$GT$9size_hint17hd2238caabaf1aa47E
ffffff8040002614 t _ZN4core3ptr238drop_in_place$LT$alloc..boxed..convert..$LT$impl$u20$core..convert..From$LT$alloc..string..String$GT$$u20$for$u20$alloc..boxed..Box$LT$dyn$u20$core..error..Error$u2b$core..marker..Sync$u2b$core..marker..Send$GT$$GT$..from..StringError$GT$17h3fdf3b2ce0818969E
ffffff804000262c t _ZN4core5error5Error6source17h1e2d7a8554534ed2E
ffffff8040002634 t _ZN4core5error5Error7provide17hf9071f7297f9c09aE
ffffff8040002638 t _ZN4core5error5Error7type_id17h805c992391c4424cE
ffffff804000265c t _ZN53_$LT$core..fmt..Error$u20$as$u20$core..fmt..Debug$GT$3fmt17hce67f5cccb6d059eE
ffffff8040002670 T _ZN92_$LT$alloc..borrow..Cow$LT$str$GT$$u20$as$u20$core..ops..arith..AddAssign$LT$$RF$str$GT$$GT$10add_assign17h465dba6dc8ceef7cE
ffffff804000285c T _ZN77_$LT$alloc..borrow..Cow$LT$str$GT$$u20$as$u20$core..ops..arith..AddAssign$GT$10add_assign17hc0f04491b6c33203E
ffffff8040002a7c T _ZN5alloc5boxed7convert130_$LT$impl$u20$core..convert..From$LT$alloc..string..String$GT$$u20$for$u20$alloc..boxed..Box$LT$dyn$u20$core..error..Error$GT$$GT$4from17h31fde203048cde4bE
ffffff8040002ac4 T _ZN5alloc5boxed7convert116_$LT$impl$u20$core..convert..From$LT$$RF$str$GT$$u20$for$u20$alloc..boxed..Box$LT$dyn$u20$core..error..Error$GT$$GT$4from17hdeae531bf837f134E
ffffff8040002b6c T _ZN5alloc5boxed7convert138_$LT$impl$u20$core..convert..From$LT$alloc..borrow..Cow$LT$str$GT$$GT$$u20$for$u20$alloc..boxed..Box$LT$dyn$u20$core..error..Error$GT$$GT$4from17hf892d22f48618505E
ffffff8040002b6c T _ZN5alloc5boxed7convert184_$LT$impl$u20$core..convert..From$LT$alloc..borrow..Cow$LT$str$GT$$GT$$u20$for$u20$alloc..boxed..Box$LT$dyn$u20$core..error..Error$u2b$core..marker..Sync$u2b$core..marker..Send$GT$$GT$4from17hd0de18253b321df3E
ffffff8040002c28 T _ZN67_$LT$alloc..boxed..Box$LT$str$GT$$u20$as$u20$core..clone..Clone$GT$5clone17h231eb1e074d11278E
ffffff8040002c9c T _ZN5alloc3ffi5c_str131_$LT$impl$u20$core..convert..From$LT$$RF$core..ffi..c_str..CStr$GT$$u20$for$u20$alloc..boxed..Box$LT$core..ffi..c_str..CStr$GT$$GT$4from17hc19fa3fe4b1016d1E
ffffff8040002c9c T _ZN5alloc3ffi5c_str139_$LT$impl$u20$core..convert..From$LT$$RF$mut$u20$core..ffi..c_str..CStr$GT$$u20$for$u20$alloc..boxed..Box$LT$core..ffi..c_str..CStr$GT$$GT$4from17h43c47745bd718a72E
ffffff8040002d10 T _ZN5alloc3ffi5c_str100_$LT$impl$u20$core..default..Default$u20$for$u20$alloc..boxed..Box$LT$core..ffi..c_str..CStr$GT$$GT$7default17hc71968d529d7cf97E
ffffff8040002d44 T _ZN5alloc3fmt6format12format_inner17hdb55547c9d52d8a2E
ffffff8040002eac T _ZN5alloc6string107_$LT$impl$u20$core..convert..From$LT$alloc..string..String$GT$$u20$for$u20$alloc..boxed..Box$LT$str$GT$$GT$4from17h76cbe20b79b3d5d5E
ffffff8040002f08 t _ZN58_$LT$alloc..string..String$u20$as$u20$core..fmt..Write$GT$9write_str17hd65058eae9858143E
ffffff8040002f84 t _ZN58_$LT$alloc..string..String$u20$as$u20$core..fmt..Write$GT$10write_char17h1ee3f1ffa8f9cb34E
ffffff80400030bc t _ZN5alloc3vec16Vec$LT$T$C$A$GT$7reserve17hb680dd43001e22b7E
ffffff80400030e4 t _ZN5alloc3vec16Vec$LT$T$C$A$GT$16into_boxed_slice17hd113b4de5d4bc6e2E
ffffff8040003168 T _ZN5alloc3vec16Vec$LT$T$C$A$GT$11swap_remove13assert_failed17h1ccde8edf8bf34ddE
ffffff8040003180 T _ZN5alloc3vec16Vec$LT$T$C$A$GT$6insert13assert_failed17hdbd313af1c832b63E
ffffff8040003198 T _ZN5alloc3vec16Vec$LT$T$C$A$GT$6remove13assert_failed17hbf8c6c758d97cb14E
ffffff80400031b0 t _ZN5alloc3vec16Vec$LT$T$C$A$GT$5drain17h60118c31e9debd0fE
ffffff8040003214 T _ZN5alloc3vec16Vec$LT$T$C$A$GT$9split_off13assert_failed17hf93e6eb3a5d0f7d5E
ffffff804000322c t _ZN67_$LT$alloc..vec..Vec$LT$T$C$A$GT$$u20$as$u20$core..clone..Clone$GT$5clone17he0b07645d664963eE
ffffff80400032b0 t _ZN67_$LT$alloc..vec..Vec$LT$T$C$A$GT$$u20$as$u20$core..clone..Clone$GT$10clone_from17h73762e8be4ba1bc7E
ffffff8040003320 t _ZN70_$LT$alloc..vec..Vec$LT$T$C$A$GT$$u20$as$u20$core..ops..drop..Drop$GT$4drop17hedda25291c9f9fe5E
ffffff8040003324 T _ZN80_$LT$alloc..vec..Vec$LT$u8$GT$$u20$as$u20$core..convert..From$LT$$RF$str$GT$$GT$4from17hd5b4b2f4e5357cfaE
ffffff80400033a8 t OUTLINED_FUNCTION_0
ffffff80400033c8 t OUTLINED_FUNCTION_1
ffffff80400033ec t _ZN42_$LT$$RF$T$u20$as$u20$core..fmt..Debug$GT$3fmt17hd304fa0bff77c45eE
ffffff804000343c t _ZN4core5slice29_$LT$impl$u20$$u5b$T$u5d$$GT$8align_to17h8d4bc921cf5203e5E
ffffff804000348c t _ZN69_$LT$core..alloc..layout..LayoutError$u20$as$u20$core..fmt..Debug$GT$3fmt17hda94993a6871d3f5E
ffffff80400034a0 t _ZN99_$LT$core..char..decode..DecodeUtf16$LT$I$GT$$u20$as$u20$core..iter..traits..iterator..Iterator$GT$4next17h06523a97667244ffE
ffffff8040003580 t _ZN99_$LT$core..char..decode..DecodeUtf16$LT$I$GT$$u20$as$u20$core..iter..traits..iterator..Iterator$GT$4next17h2eb0893d76df2298E
ffffff8040003664 t _ZN99_$LT$core..char..decode..DecodeUtf16$LT$I$GT$$u20$as$u20$core..iter..traits..iterator..Iterator$GT$4next17h95a3405018301a67E
ffffff8040003738 t _ZN99_$LT$core..char..decode..DecodeUtf16$LT$I$GT$$u20$as$u20$core..iter..traits..iterator..Iterator$GT$4next17hb2b7f300603932bcE
ffffff8040003828 t _ZN99_$LT$core..char..decode..DecodeUtf16$LT$I$GT$$u20$as$u20$core..iter..traits..iterator..Iterator$GT$4next17hea2a32e800689e35E
ffffff80400038fc T _ZN88_$LT$alloc..collections..btree..map..UnorderedKeyError$u20$as$u20$core..fmt..Display$GT$3fmt17h3b0861ffd56298dfE
ffffff8040003918 T _ZN5alloc2rc32rc_inner_layout_for_value_layout17h3862798731ded910E
ffffff8040003980 t _ZN75_$LT$$u5b$T$u5d$$u20$as$u20$alloc..slice..SpecCloneIntoVec$LT$T$C$A$GT$$GT$10clone_into17hee5352ea174c2fd0E
ffffff80400039f8 t _ZN5alloc3vec9into_iter21IntoIter$LT$T$C$A$GT$8as_slice17h599120038d0d7a32E
ffffff8040003a0c t _ZN5alloc7raw_vec17capacity_overflow17hc4d3f791a97fff89E.llvm.2858496360019170218
ffffff8040003a34 T _ZN5alloc7raw_vec19RawVec$LT$T$C$A$GT$8grow_one17hf27461f06219cebbE
ffffff8040003ac8 t _ZN77_$LT$alloc..raw_vec..RawVec$LT$T$C$A$GT$$u20$as$u20$core..ops..drop..Drop$GT$4drop17h649a15dce5e8464aE
ffffff8040003ae0 t _ZN5alloc7raw_vec20RawVecInner$LT$A$GT$15try_allocate_in17hcd0b75ccf8fd6d9eE
ffffff8040003bbc t _ZN5alloc7raw_vec20RawVecInner$LT$A$GT$7reserve21do_reserve_and_handle17h6db379208db06d40E
ffffff8040003cb4 t _ZN5alloc7raw_vec20RawVecInner$LT$A$GT$11try_reserve17hcaf133d3cdacc986E
ffffff8040003df8 t _ZN5alloc7raw_vec20RawVecInner$LT$A$GT$13reserve_exact17hd1db1bc4a063128eE
ffffff8040003f10 t _ZN5alloc7raw_vec20RawVecInner$LT$A$GT$17try_reserve_exact17hef368683438122a2E
ffffff8040004028 t _ZN5alloc7raw_vec20RawVecInner$LT$A$GT$16shrink_unchecked17h37d1508332780049E
ffffff80400040c8 t _ZN5alloc7raw_vec11finish_grow17h1ffff9fc462cc670E.llvm.2858496360019170218
ffffff804000413c T _ZN5alloc7raw_vec12handle_error17h3cfa2a7b01f2c5ebE
ffffff804000414c t _ZN106_$LT$core..iter..adapters..GenericShunt$LT$I$C$R$GT$$u20$as$u20$core..iter..traits..iterator..Iterator$GT$8try_fold17heb083cd191a69316E
ffffff8040004540 t _ZN106_$LT$core..iter..adapters..GenericShunt$LT$I$C$R$GT$$u20$as$u20$core..iter..traits..iterator..Iterator$GT$8try_fold17hf3316c83d42edfd8E
ffffff8040004920 t _ZN106_$LT$core..iter..adapters..GenericShunt$LT$I$C$R$GT$$u20$as$u20$core..iter..traits..iterator..Iterator$GT$9size_hint17h00368dd5435ff462E
ffffff8040004920 t _ZN106_$LT$core..iter..adapters..GenericShunt$LT$I$C$R$GT$$u20$as$u20$core..iter..traits..iterator..Iterator$GT$9size_hint17hcb459d734072de3bE
ffffff8040004964 t _ZN4core4iter8adapters11try_process17h068e6aad5fc5b8d8E
ffffff8040004a04 t _ZN4core4iter8adapters11try_process17hf672440ed97ea9ccE
ffffff8040004aa4 T _ZN5alloc3ffi5c_str19FromVecWithNulError8as_bytes17he3067bee8af3be98E
ffffff8040004ab0 T _ZN72_$LT$$RF$str$u20$as$u20$alloc..ffi..c_str..CString..new..SpecNewImpl$GT$13spec_new_impl17h591894d28e4d9b2dE
ffffff8040004ab0 T _ZN81_$LT$$RF$$u5b$u8$u5d$$u20$as$u20$alloc..ffi..c_str..CString..new..SpecNewImpl$GT$13spec_new_impl17hcf82b755abc2b37dE
ffffff8040004ba0 T _ZN89_$LT$$RF$mut$u20$$u5b$u8$u5d$$u20$as$u20$alloc..ffi..c_str..CString..new..SpecNewImpl$GT$13spec_new_impl17h5d077858e0f28b65E
ffffff8040004c90 T _ZN5alloc3ffi5c_str7CString18from_vec_unchecked17ha89d0c6f2a00ebd1E
ffffff8040004dac T _ZN5alloc3ffi5c_str7CString19_from_vec_unchecked17hf8ca130470fbe96dE
ffffff8040004ec8 T _ZN5alloc3ffi5c_str7CString8from_raw17h2cbcc5002fb1c581E
ffffff8040004ee8 T _ZN5alloc3ffi5c_str7CString11into_string17h867207ca6513e4fcE
ffffff8040005024 T _ZN5alloc3ffi5c_str7CString10into_bytes17h4e34f1bada19ce42E
ffffff8040005038 T _ZN5alloc3ffi5c_str7CString19into_bytes_with_nul17h67df2a4f55b4377cE
ffffff8040005044 T _ZN5alloc3ffi5c_str7CString16into_boxed_c_str17h0df075adef192c63E
ffffff8040005048 T _ZN5alloc3ffi5c_str7CString27from_vec_with_nul_unchecked17hd73e1630502bf6f2E
ffffff80400050b8 T _ZN5alloc3ffi5c_str7CString17from_vec_with_nul17hd9d4306fba4b4a63E
ffffff80400051c0 T _ZN63_$LT$alloc..ffi..c_str..CString$u20$as$u20$core..fmt..Debug$GT$3fmt17hf927a3b2c0145174E
ffffff80400051d4 T _ZN69_$LT$alloc..ffi..c_str..CString$u20$as$u20$core..default..Default$GT$7default17he4e4fd048662e4bcE
ffffff8040005208 T _ZN66_$LT$alloc..ffi..c_str..NulError$u20$as$u20$core..fmt..Display$GT$3fmt17hcd964b06e4e180faE
ffffff8040005254 T _ZN77_$LT$alloc..ffi..c_str..FromVecWithNulError$u20$as$u20$core..fmt..Display$GT$3fmt17h76d0a8e397585b9eE
ffffff80400052cc T _ZN73_$LT$alloc..ffi..c_str..IntoStringError$u20$as$u20$core..fmt..Display$GT$3fmt17h9881973de692e945E
ffffff80400052e0 T _ZN100_$LT$alloc..ffi..c_str..CString$u20$as$u20$core..convert..From$LT$$RF$core..ffi..c_str..CStr$GT$$GT$4from17h3c77137233ae0af5E
ffffff8040005354 T _ZN4core3fmt3num53_$LT$impl$u20$core..fmt..Display$u20$for$u20$u128$GT$3fmt17hbb0d403a8edd47eeE
ffffff804000539c T _ZN4core3fmt3num53_$LT$impl$u20$core..fmt..Display$u20$for$u20$i128$GT$3fmt17h4a86e1e5558bf156E
ffffff8040005400 T _ZN4core3fmt3num22_$LT$impl$u20$u128$GT$4_fmt17h19f52455cc0662a6E
ffffff80400058a8 T _ZN71_$LT$core..fmt..num..Binary$u20$as$u20$core..fmt..num..GenericRadix$GT$5digit17hc620a1dc2afe424bE
ffffff8040005910 T _ZN70_$LT$core..fmt..num..Octal$u20$as$u20$core..fmt..num..GenericRadix$GT$5digit17h1f6dae2e2c12590bE
ffffff8040005978 T _ZN73_$LT$core..fmt..num..LowerHex$u20$as$u20$core..fmt..num..GenericRadix$GT$5digit17hb345ce80d887febeE
ffffff80400059f4 T _ZN73_$LT$core..fmt..num..UpperHex$u20$as$u20$core..fmt..num..GenericRadix$GT$5digit17h3f379cfa1854f3f0E
ffffff8040005a70 T _ZN4core3fmt3num50_$LT$impl$u20$core..fmt..Binary$u20$for$u20$i8$GT$3fmt17h64d2faf9a6ad018dE
ffffff8040005a70 T _ZN4core3fmt3num50_$LT$impl$u20$core..fmt..Binary$u20$for$u20$u8$GT$3fmt17h9c36efc6847dc182E
ffffff8040005adc T _ZN4core3fmt3num49_$LT$impl$u20$core..fmt..Octal$u20$for$u20$i8$GT$3fmt17hc76f1b60925b0066E
ffffff8040005adc T _ZN4core3fmt3num49_$LT$impl$u20$core..fmt..Octal$u20$for$u20$u8$GT$3fmt17h1670853f371e70f6E
ffffff8040005b48 T _ZN4core3fmt3num52_$LT$impl$u20$core..fmt..LowerHex$u20$for$u20$i8$GT$3fmt17h8538e933411d2aeaE
ffffff8040005b48 T _ZN4core3fmt3num52_$LT$impl$u20$core..fmt..LowerHex$u20$for$u20$u8$GT$3fmt17ha077e85d008f6d31E
ffffff8040005bc4 T _ZN4core3fmt3num52_$LT$impl$u20$core..fmt..UpperHex$u20$for$u20$i8$GT$3fmt17haea45b74d57f2bbdE
ffffff8040005bc4 T _ZN4core3fmt3num52_$LT$impl$u20$core..fmt..UpperHex$u20$for$u20$u8$GT$3fmt17h05904d8302df6e91E
ffffff8040005c40 T _ZN4core3fmt3num51_$LT$impl$u20$core..fmt..Binary$u20$for$u20$i16$GT$3fmt17h3d40b51ed2f21a38E
ffffff8040005c40 T _ZN4core3fmt3num51_$LT$impl$u20$core..fmt..Binary$u20$for$u20$u16$GT$3fmt17hf76d25defad59e4eE
ffffff8040005cac T _ZN4core3fmt3num50_$LT$impl$u20$core..fmt..Octal$u20$for$u20$i16$GT$3fmt17h96db89eefbce9d2fE
ffffff8040005cac T _ZN4core3fmt3num50_$LT$impl$u20$core..fmt..Octal$u20$for$u20$u16$GT$3fmt17h8eb55600b9cc8180E
ffffff8040005d18 T _ZN4core3fmt3num53_$LT$impl$u20$core..fmt..LowerHex$u20$for$u20$i16$GT$3fmt17h76b99f83615bb43bE
ffffff8040005d18 T _ZN4core3fmt3num53_$LT$impl$u20$core..fmt..LowerHex$u20$for$u20$u16$GT$3fmt17h61768f5dcd7dbf5aE
ffffff8040005d94 T _ZN4core3fmt3num53_$LT$impl$u20$core..fmt..UpperHex$u20$for$u20$i16$GT$3fmt17hed7626c5d9fa4394E
ffffff8040005d94 T _ZN4core3fmt3num53_$LT$impl$u20$core..fmt..UpperHex$u20$for$u20$u16$GT$3fmt17h374057a64722b607E
ffffff8040005e10 T _ZN4core3fmt3num51_$LT$impl$u20$core..fmt..Binary$u20$for$u20$i32$GT$3fmt17h8c3a570fd7300604E
ffffff8040005e10 T _ZN4core3fmt3num51_$LT$impl$u20$core..fmt..Binary$u20$for$u20$u32$GT$3fmt17heaa758426dbe850eE
ffffff8040005e7c T _ZN4core3fmt3num50_$LT$impl$u20$core..fmt..Octal$u20$for$u20$i32$GT$3fmt17h11a6131faa5b5d0dE
ffffff8040005e7c T _ZN4core3fmt3num50_$LT$impl$u20$core..fmt..Octal$u20$for$u20$u32$GT$3fmt17hf52e17e147e1d092E
ffffff8040005ee8 T _ZN4core3fmt3num53_$LT$impl$u20$core..fmt..LowerHex$u20$for$u20$i32$GT$3fmt17hc6a85d34acc6b9b1E
ffffff8040005ee8 T _ZN4core3fmt3num53_$LT$impl$u20$core..fmt..LowerHex$u20$for$u20$u32$GT$3fmt17hbcb9213c6e3394edE
ffffff8040005f64 T _ZN4core3fmt3num53_$LT$impl$u20$core..fmt..UpperHex$u20$for$u20$i32$GT$3fmt17hef60626a92973ea1E
ffffff8040005f64 T _ZN4core3fmt3num53_$LT$impl$u20$core..fmt..UpperHex$u20$for$u20$u32$GT$3fmt17hbb17e6057119678aE
ffffff8040005fe0 T _ZN4core3fmt3num51_$LT$impl$u20$core..fmt..Binary$u20$for$u20$i64$GT$3fmt17h398da957a004fe31E
ffffff8040005fe0 T _ZN4core3fmt3num51_$LT$impl$u20$core..fmt..Binary$u20$for$u20$u64$GT$3fmt17h9c820233481907b2E
ffffff8040005fe0 T _ZN4core3fmt3num53_$LT$impl$u20$core..fmt..Binary$u20$for$u20$isize$GT$3fmt17he5ea3daa4ce882cdE
ffffff8040005fe0 T _ZN4core3fmt3num53_$LT$impl$u20$core..fmt..Binary$u20$for$u20$usize$GT$3fmt17h1408657e5c4e06f6E
ffffff804000604c T _ZN4core3fmt3num50_$LT$impl$u20$core..fmt..Octal$u20$for$u20$i64$GT$3fmt17habfae0b12ee8ff2aE
ffffff804000604c T _ZN4core3fmt3num50_$LT$impl$u20$core..fmt..Octal$u20$for$u20$u64$GT$3fmt17hbb4ecc2760a9c35bE
ffffff804000604c T _ZN4core3fmt3num52_$LT$impl$u20$core..fmt..Octal$u20$for$u20$isize$GT$3fmt17h24408a96fa58bb30E
ffffff804000604c T _ZN4core3fmt3num52_$LT$impl$u20$core..fmt..Octal$u20$for$u20$usize$GT$3fmt17hd8a0a3903c63894dE
ffffff80400060b8 T _ZN4core3fmt3num53_$LT$impl$u20$core..fmt..LowerHex$u20$for$u20$i64$GT$3fmt17he25baac49a4732e8E
ffffff80400060b8 T _ZN4core3fmt3num53_$LT$impl$u20$core..fmt..LowerHex$u20$for$u20$u64$GT$3fmt17hbc86efdf357cce9fE
ffffff80400060b8 T _ZN4core3fmt3num55_$LT$impl$u20$core..fmt..LowerHex$u20$for$u20$isize$GT$3fmt17he685665c99a2a25fE
ffffff80400060b8 T _ZN4core3fmt3num55_$LT$impl$u20$core..fmt..LowerHex$u20$for$u20$usize$GT$3fmt17he25b51a70c7d95edE
ffffff8040006134 T _ZN4core3fmt3num53_$LT$impl$u20$core..fmt..UpperHex$u20$for$u20$i64$GT$3fmt17hec82f9d18a94b82bE
ffffff8040006134 T _ZN4core3fmt3num53_$LT$impl$u20$core..fmt..UpperHex$u20$for$u20$u64$GT$3fmt17hccd202b9f0ace89bE
ffffff8040006134 T _ZN4core3fmt3num55_$LT$impl$u20$core..fmt..UpperHex$u20$for$u20$isize$GT$3fmt17h2122d6e27187186cE
ffffff8040006134 T _ZN4core3fmt3num55_$LT$impl$u20$core..fmt..UpperHex$u20$for$u20$usize$GT$3fmt17h0920ccb81d483debE
ffffff80400061b0 T _ZN4core3fmt3num52_$LT$impl$u20$core..fmt..Binary$u20$for$u20$i128$GT$3fmt17hba7289cf05776534E
ffffff80400061b0 T _ZN4core3fmt3num52_$LT$impl$u20$core..fmt..Binary$u20$for$u20$u128$GT$3fmt17h14e9de1d04fd2eb0E
ffffff8040006240 T _ZN4core3fmt3num51_$LT$impl$u20$core..fmt..Octal$u20$for$u20$i128$GT$3fmt17h978f7ac29ff18828E
ffffff8040006240 T _ZN4core3fmt3num51_$LT$impl$u20$core..fmt..Octal$u20$for$u20$u128$GT$3fmt17hae15b9180b96fa77E
ffffff80400062d0 T _ZN4core3fmt3num54_$LT$impl$u20$core..fmt..LowerHex$u20$for$u20$i128$GT$3fmt17hab608bcc462a1aabE
ffffff80400062d0 T _ZN4core3fmt3num54_$LT$impl$u20$core..fmt..LowerHex$u20$for$u20$u128$GT$3fmt17hc388cd639c12109bE
ffffff8040006370 T _ZN4core3fmt3num54_$LT$impl$u20$core..fmt..UpperHex$u20$for$u20$i128$GT$3fmt17h71053a29b43c541cE
ffffff8040006370 T _ZN4core3fmt3num54_$LT$impl$u20$core..fmt..UpperHex$u20$for$u20$u128$GT$3fmt17hd634131ff2f98d06E
ffffff8040006410 t _ZN4core3fmt3num8exp_u12817h4377452d1e2496c3E
ffffff8040006c38 T _ZN4core3fmt3num54_$LT$impl$u20$core..fmt..LowerExp$u20$for$u20$i128$GT$3fmt17h90038c3d46d6a728E
ffffff8040006c64 T _ZN4core3fmt3num54_$LT$impl$u20$core..fmt..LowerExp$u20$for$u20$u128$GT$3fmt17hfff3ad95a000e19bE
ffffff8040006c7c T _ZN4core3fmt3num54_$LT$impl$u20$core..fmt..UpperExp$u20$for$u20$i128$GT$3fmt17h172f93efc8c899bbE
ffffff8040006ca8 T _ZN4core3fmt3num54_$LT$impl$u20$core..fmt..UpperExp$u20$for$u20$u128$GT$3fmt17h445f63221bd0bbfeE
ffffff8040006cc0 T _ZN4core3num7flt2dec8strategy5grisu12cached_power17h8e92cbc5cababf0aE
ffffff8040006d2c T _ZN4core3num7flt2dec8strategy5grisu19format_shortest_opt17hb573936aec6d80d7E
ffffff80400072fc T _ZN4core3num7flt2dec8strategy5grisu15format_shortest17he38d416d3b71b42eE
ffffff8040007370 T _ZN4core3num7flt2dec8strategy5grisu16format_exact_opt17h8625b12e3332fe32E
ffffff80400076f0 t _ZN4core3num7flt2dec8strategy5grisu16format_exact_opt14possibly_round17hc5b013481fca98caE
ffffff80400078dc T _ZN4core3num7flt2dec8strategy5grisu12format_exact17h6ec5691ebbc8363cE
ffffff804000795c T _ZN4core3num9int_log1030panic_for_nonpositive_argument17h3bbfdb27c1a5322fE
ffffff8040007984 T _ZN4core4cell4lazy14panic_poisoned17h1abf0a9e3067f11fE
ffffff80400079b0 T _ZN64_$LT$core..char..EscapeUnicode$u20$as$u20$core..fmt..Display$GT$3fmt17h2a5b89b19aadb906E
ffffff80400079d0 T _ZN86_$LT$core..char..CaseMappingIter$u20$as$u20$core..iter..traits..iterator..Iterator$GT$4next17hcd929a370cbf3e34E
ffffff80400079fc T _ZN86_$LT$core..char..CaseMappingIter$u20$as$u20$core..iter..traits..iterator..Iterator$GT$5count17h30fcad12652947ecE
ffffff8040007a08 T _ZN86_$LT$core..char..CaseMappingIter$u20$as$u20$core..iter..traits..iterator..Iterator$GT$4last17h947e844dd7f46175E
ffffff8040007a48 T _ZN86_$LT$core..char..CaseMappingIter$u20$as$u20$core..iter..traits..iterator..Iterator$GT$10advance_by17h7fa05505706400e0E
ffffff8040007a6c T _ZN86_$LT$core..char..CaseMappingIter$u20$as$u20$core..iter..traits..iterator..Iterator$GT$24__iterator_get_unchecked17hb833bdd4df1eb462E
ffffff8040007a80 T _ZN101_$LT$core..char..CaseMappingIter$u20$as$u20$core..iter..traits..double_ended..DoubleEndedIterator$GT$9next_back17h28a076ca5c35d298E
ffffff8040007aa8 T _ZN101_$LT$core..char..CaseMappingIter$u20$as$u20$core..iter..traits..double_ended..DoubleEndedIterator$GT$15advance_back_by17h3a13fd293800264dE
ffffff8040007ad0 T _ZN67_$LT$core..char..TryFromCharError$u20$as$u20$core..fmt..Display$GT$3fmt17ha8407865a7fb234dE
ffffff8040007ae4 T _ZN4core3net6parser54_$LT$impl$u20$core..net..socket_addr..SocketAddrV4$GT$11parse_ascii17ha6ce7cb256be1b90E
ffffff8040007ae4 T _ZN4core3net6parser93_$LT$impl$u20$core..str..traits..FromStr$u20$for$u20$core..net..socket_addr..SocketAddrV4$GT$8from_str17h2298afaf6f818284E
ffffff8040007b08 T _ZN4core3net6parser54_$LT$impl$u20$core..net..socket_addr..SocketAddrV6$GT$11parse_ascii17h05291f8ba9d67352E
ffffff8040007b08 T _ZN4core3net6parser93_$LT$impl$u20$core..str..traits..FromStr$u20$for$u20$core..net..socket_addr..SocketAddrV6$GT$8from_str17hbb3ec095ca45ecabE
ffffff8040007b6c T _ZN4core3net6parser52_$LT$impl$u20$core..net..socket_addr..SocketAddr$GT$11parse_ascii17hc0bb107f795d2baaE
ffffff8040007b6c T _ZN4core3net6parser91_$LT$impl$u20$core..str..traits..FromStr$u20$for$u20$core..net..socket_addr..SocketAddr$GT$8from_str17hc60e1455fbb09013E
ffffff8040007b90 T _ZN73_$LT$core..net..socket_addr..SocketAddr$u20$as$u20$core..fmt..Display$GT$3fmt17hd3cd58026d5982d4E
ffffff8040007bac T _ZN71_$LT$core..net..socket_addr..SocketAddr$u20$as$u20$core..fmt..Debug$GT$3fmt17h3bb32fde19a2077cE
ffffff8040007bc8 T _ZN75_$LT$core..net..socket_addr..SocketAddrV4$u20$as$u20$core..fmt..Display$GT$3fmt17ha0f3c67447c71a64E
ffffff8040007d14 T _ZN73_$LT$core..net..socket_addr..SocketAddrV4$u20$as$u20$core..fmt..Debug$GT$3fmt17h24bd27bdd8c21c89E
ffffff8040007d18 T _ZN75_$LT$core..net..socket_addr..SocketAddrV6$u20$as$u20$core..fmt..Display$GT$3fmt17h9eace246686b83cbE
ffffff8040007f4c T _ZN73_$LT$core..net..socket_addr..SocketAddrV6$u20$as$u20$core..fmt..Debug$GT$3fmt17ha20b1929663b32baE
ffffff8040007f50 T _ZN48_$LT$char$u20$as$u20$core..pat..RangePattern$GT$7sub_one17h3e0420f85d96d330E
ffffff8040007f98 T _ZN59_$LT$core..str..iter..Chars$u20$as$u20$core..fmt..Debug$GT$3fmt17h7284cb82f17edcf7E
ffffff8040008098 T _ZN65_$LT$core..str..iter..EncodeUtf16$u20$as$u20$core..fmt..Debug$GT$3fmt17h19265f89463943f5E
ffffff80400080f4 T _ZN4core3f6421_$LT$impl$u20$f64$GT$5clamp8do_panic7runtime17h58720a23e730aaabE
ffffff8040008138 T _ZN82_$LT$core..char..ToLowercase$u20$as$u20$core..iter..traits..iterator..Iterator$GT$4next17h679a25206dedcc24E
ffffff8040008138 T _ZN82_$LT$core..char..ToUppercase$u20$as$u20$core..iter..traits..iterator..Iterator$GT$4next17hfea9a2263f616095E
ffffff8040008164 T _ZN82_$LT$core..char..ToLowercase$u20$as$u20$core..iter..traits..iterator..Iterator$GT$5count17h60dd576f62f08a4eE
ffffff8040008164 T _ZN82_$LT$core..char..ToUppercase$u20$as$u20$core..iter..traits..iterator..Iterator$GT$5count17h700972549b6117d8E
ffffff8040008170 T _ZN82_$LT$core..char..ToLowercase$u20$as$u20$core..iter..traits..iterator..Iterator$GT$4last17hb97142aa7eaac416E
ffffff8040008170 T _ZN82_$LT$core..char..ToUppercase$u20$as$u20$core..iter..traits..iterator..Iterator$GT$4last17h6949bd84ed1a24f3E
ffffff80400081b0 T _ZN82_$LT$core..char..ToLowercase$u20$as$u20$core..iter..traits..iterator..Iterator$GT$10advance_by17h1fa72a9e9929b5dfE
ffffff80400081b0 T _ZN82_$LT$core..char..ToUppercase$u20$as$u20$core..iter..traits..iterator..Iterator$GT$10advance_by17h517f77716122367dE
ffffff80400081d4 T _ZN82_$LT$core..char..ToLowercase$u20$as$u20$core..iter..traits..iterator..Iterator$GT$24__iterator_get_unchecked17h60814f4c3e7a8ca6E
ffffff80400081d4 T _ZN82_$LT$core..char..ToUppercase$u20$as$u20$core..iter..traits..iterator..Iterator$GT$24__iterator_get_unchecked17he651b0a19a92c4ccE
ffffff80400081e8 T _ZN97_$LT$core..char..ToLowercase$u20$as$u20$core..iter..traits..double_ended..DoubleEndedIterator$GT$9next_back17hbc30774dfdb89e2bE
ffffff80400081e8 T _ZN97_$LT$core..char..ToUppercase$u20$as$u20$core..iter..traits..double_ended..DoubleEndedIterator$GT$9next_back17h01a75aace37cc212E
ffffff8040008210 T _ZN97_$LT$core..char..ToLowercase$u20$as$u20$core..iter..traits..double_ended..DoubleEndedIterator$GT$15advance_back_by17h7301fdd62174f0d0E
ffffff8040008210 T _ZN97_$LT$core..char..ToUppercase$u20$as$u20$core..iter..traits..double_ended..DoubleEndedIterator$GT$15advance_back_by17h818bd0b647f37d6aE
ffffff8040008238 T _ZN4core9panicking11panic_const24panic_const_add_overflow17h80f60f28fc17bcb2E
ffffff8040008260 T _ZN4core9panicking11panic_const24panic_const_sub_overflow17h8c519612c4e522baE
ffffff8040008288 T _ZN4core9panicking11panic_const24panic_const_mul_overflow17h31955da4ed27b661E
ffffff80400082b0 T _ZN4core9panicking11panic_const24panic_const_div_overflow17h8ff9defeb3e2eaf8E
ffffff80400082d8 T _ZN4core9panicking11panic_const24panic_const_rem_overflow17h2ae1f9f45cb3476cE
ffffff8040008300 T _ZN4core9panicking11panic_const24panic_const_neg_overflow17h5484aed6dd330385E
ffffff8040008328 T _ZN4core9panicking11panic_const24panic_const_shr_overflow17h7498e6e5bc51c4f9E
ffffff8040008350 T _ZN4core9panicking11panic_const24panic_const_shl_overflow17h112182cc8a66cd33E
ffffff8040008378 T _ZN4core9panicking11panic_const23panic_const_div_by_zero17he06d8c0ec9a4b4dfE
ffffff80400083a0 T _ZN4core9panicking11panic_const23panic_const_rem_by_zero17hdd659e36599b2707E
ffffff80400083c8 T _ZN4core9panicking11panic_const29panic_const_coroutine_resumed17hcdb1a8107e5ac77cE
ffffff80400083f0 T _ZN4core9panicking11panic_const28panic_const_async_fn_resumed17h77c879c13ac3e199E
ffffff8040008418 T _ZN4core9panicking11panic_const32panic_const_async_gen_fn_resumed17hf4b7bff0afe6a45fE
ffffff8040008440 T _ZN4core9panicking11panic_const23panic_const_gen_fn_none17haff1fa63ddfbeb51E
ffffff8040008468 T _ZN4core9panicking11panic_const35panic_const_coroutine_resumed_panic17hbd08aebe339f8eb4E
ffffff8040008490 T _ZN4core9panicking11panic_const34panic_const_async_fn_resumed_panic17h810c821ffd61978fE
ffffff80400084b8 T _ZN4core9panicking11panic_const38panic_const_async_gen_fn_resumed_panic17haf9de8f03ebf8562E
ffffff80400084e0 T _ZN4core9panicking11panic_const29panic_const_gen_fn_none_panic17h36429e1352963a5aE
ffffff8040008508 T _ZN4core9panicking11panic_const34panic_const_coroutine_resumed_drop17h0ef088e2af96367dE
ffffff8040008530 T _ZN4core9panicking11panic_const33panic_const_async_fn_resumed_drop17hd286cc6ef70240a3E
ffffff8040008558 T _ZN4core9panicking11panic_const37panic_const_async_gen_fn_resumed_drop17h4acc82c566b147acE
ffffff8040008580 T _ZN4core9panicking11panic_const28panic_const_gen_fn_none_drop17h3cb26e6523ccd42bE
ffffff80400085a8 T _ZN46_$LT$i8$u20$as$u20$core..pat..RangePattern$GT$7sub_one17hc44de30740be9c92E
ffffff80400085e4 T _ZN47_$LT$i16$u20$as$u20$core..pat..RangePattern$GT$7sub_one17h762a6fd75f0e79aaE
ffffff8040008620 T _ZN47_$LT$i32$u20$as$u20$core..pat..RangePattern$GT$7sub_one17h51523e4a5e012c81E
ffffff8040008650 T _ZN47_$LT$i64$u20$as$u20$core..pat..RangePattern$GT$7sub_one17h523c7487272467bfE
ffffff8040008650 T _ZN49_$LT$isize$u20$as$u20$core..pat..RangePattern$GT$7sub_one17h1bde2fd62ec3ec90E
ffffff8040008680 T _ZN48_$LT$i128$u20$as$u20$core..pat..RangePattern$GT$7sub_one17h35ecc530328a7682E
ffffff80400086c0 T _ZN46_$LT$u8$u20$as$u20$core..pat..RangePattern$GT$7sub_one17h866b8feca3d48896E
ffffff80400086f4 T _ZN47_$LT$u16$u20$as$u20$core..pat..RangePattern$GT$7sub_one17h0963135e2320018eE
ffffff8040008728 T _ZN47_$LT$u32$u20$as$u20$core..pat..RangePattern$GT$7sub_one17h8b37c1b67f22f1f0E
ffffff8040008758 T _ZN47_$LT$u64$u20$as$u20$core..pat..RangePattern$GT$7sub_one17hc961cf1d37bf30d2E
ffffff8040008758 T _ZN49_$LT$usize$u20$as$u20$core..pat..RangePattern$GT$7sub_one17hed2aa09777956e30E
ffffff8040008788 T _ZN48_$LT$u128$u20$as$u20$core..pat..RangePattern$GT$7sub_one17h054418036c64dac8E
ffffff80400087c8 t _ZN53_$LT$core..fmt..Error$u20$as$u20$core..fmt..Debug$GT$3fmt17hce67f5cccb6d059eE
ffffff80400087e4 T _ZN67_$LT$core..str..iter..EscapeDebug$u20$as$u20$core..fmt..Display$GT$3fmt17h6961cf45d9feeeceE
ffffff80400089d8 T _ZN69_$LT$core..str..iter..EscapeDefault$u20$as$u20$core..fmt..Display$GT$3fmt17h4abbd307962fe57eE
ffffff8040008b60 T _ZN69_$LT$core..str..iter..EscapeUnicode$u20$as$u20$core..fmt..Display$GT$3fmt17h4140ea1f21da71adE
ffffff8040008ce8 T _ZN4core7unicode12unicode_data9lowercase6lookup17h4374e6a47c170fe8E
ffffff8040008df4 t _ZN4core3num7dec2flt6lemire13compute_float17h3ad8a0bd14964156E
ffffff8040008f44 t _ZN4core3num7dec2flt6lemire13compute_float17hb83d0d30932db632E
ffffff8040009070 t _ZN4core3num7dec2flt6lemire13compute_float17hdb5e4febf952813aE
ffffff80400091c0 T _ZN4core3num7dec2flt6lemire22compute_product_approx17hf20a433552739cb7E
ffffff8040009224 T _ZN74_$LT$core..char..convert..ParseCharError$u20$as$u20$core..fmt..Display$GT$3fmt17h2f925d2eef4429dcE
ffffff8040009258 T _ZN76_$LT$core..char..convert..CharTryFromError$u20$as$u20$core..fmt..Display$GT$3fmt17h6706eeb018d6a176E
ffffff804000926c T _ZN75_$LT$core..char..decode..DecodeUtf16Error$u20$as$u20$core..fmt..Display$GT$3fmt17h799b3fcb13523c5bE
ffffff80400092b4 t _ZN86_$LT$core..net..display_buffer..DisplayBuffer$LT$_$GT$$u20$as$u20$core..fmt..Write$GT$9write_str17h05db5b9e4f4eb166E
ffffff80400092f8 t _ZN86_$LT$core..net..display_buffer..DisplayBuffer$LT$_$GT$$u20$as$u20$core..fmt..Write$GT$9write_str17h09918bdf7cad9e32E
ffffff804000933c t _ZN86_$LT$core..net..display_buffer..DisplayBuffer$LT$_$GT$$u20$as$u20$core..fmt..Write$GT$9write_str17h26e5b1c5bc2a1146E
ffffff8040009380 t _ZN86_$LT$core..net..display_buffer..DisplayBuffer$LT$_$GT$$u20$as$u20$core..fmt..Write$GT$9write_str17hcbe2cb4de1fef913E
ffffff80400093c4 T _ZN65_$LT$core..net..ip_addr..IpAddr$u20$as$u20$core..fmt..Display$GT$3fmt17hfeb622153dd31573E
ffffff80400093d8 T _ZN63_$LT$core..net..ip_addr..IpAddr$u20$as$u20$core..fmt..Debug$GT$3fmt17h8eba58b0b77ce9b1E
ffffff80400093ec T _ZN67_$LT$core..net..ip_addr..Ipv4Addr$u20$as$u20$core..fmt..Display$GT$3fmt17hf97fdb58415eadefE
ffffff804000953c T _ZN65_$LT$core..net..ip_addr..Ipv4Addr$u20$as$u20$core..fmt..Debug$GT$3fmt17hca298b21826c62faE
ffffff8040009540 T _ZN67_$LT$core..net..ip_addr..Ipv6Addr$u20$as$u20$core..fmt..Display$GT$3fmt17ha07c408f0a08ea3fE
ffffff8040009cac T _ZN65_$LT$core..net..ip_addr..Ipv6Addr$u20$as$u20$core..fmt..Debug$GT$3fmt17h944c2e8cee05e25fE
ffffff8040009cb0 T _ZN4core3net6parser44_$LT$impl$u20$core..net..ip_addr..IpAddr$GT$11parse_ascii17hf11fe58784892742E
ffffff8040009cb0 T _ZN4core3net6parser83_$LT$impl$u20$core..str..traits..FromStr$u20$for$u20$core..net..ip_addr..IpAddr$GT$8from_str17h2f009ea412d7f2ceE
ffffff8040009d64 T _ZN4core3net6parser46_$LT$impl$u20$core..net..ip_addr..Ipv4Addr$GT$11parse_ascii17h84f55c9a6f9449bfE
ffffff8040009d64 T _ZN4core3net6parser85_$LT$impl$u20$core..str..traits..FromStr$u20$for$u20$core..net..ip_addr..Ipv4Addr$GT$8from_str17hd1eece3c7324f528E
ffffff8040009dd4 T _ZN4core3net6parser46_$LT$impl$u20$core..net..ip_addr..Ipv6Addr$GT$11parse_ascii17h01327bb5a291b043E
ffffff8040009dd4 T _ZN4core3net6parser85_$LT$impl$u20$core..str..traits..FromStr$u20$for$u20$core..net..ip_addr..Ipv6Addr$GT$8from_str17hc792b53f03d95227E
ffffff8040009e50 T _ZN73_$LT$core..panic..panic_info..PanicInfo$u20$as$u20$core..fmt..Display$GT$3fmt17h0513f25d482d0d4eE
ffffff8040009f88 T _ZN4core6result13unwrap_failed17h7fa847f3116d8be0E
ffffff8040009fdc t _ZN4core3fmt5Write10write_char17h2340dc47bed291e0E
ffffff804000a11c t _ZN4core3fmt5Write10write_char17h4dda17f16530361aE
ffffff804000a25c t _ZN4core3fmt5Write10write_char17ha407905f1c0fea28E
ffffff804000a39c t _ZN4core3fmt5Write10write_char17he3d088b76e3b339bE
ffffff804000a4dc t _ZN4core3fmt5Write9write_fmt17h473f1cdb7de60385E
ffffff804000a4ec t _ZN4core3fmt5Write9write_fmt17h4dc9be31da0a3f69E
ffffff804000a4fc t _ZN4core3fmt5Write9write_fmt17hc484fff6a6c4947fE
ffffff804000a50c t _ZN4core3fmt5Write9write_fmt17hf68ed55f7ab84f40E
ffffff804000a51c T _ZN66_$LT$core..str..error..Utf8Error$u20$as$u20$core..fmt..Display$GT$3fmt17h52f683297346ea3aE
ffffff804000a5a4 T _ZN71_$LT$core..str..error..ParseBoolError$u20$as$u20$core..fmt..Display$GT$3fmt17h997c95cc1e467139E
ffffff804000a5b8 T _ZN85_$LT$core..marker..variance..PhantomCovariantLifetime$u20$as$u20$core..fmt..Debug$GT$3fmt17hda76678b23ed2a4bE
ffffff804000a5d4 T _ZN89_$LT$core..marker..variance..PhantomContravariantLifetime$u20$as$u20$core..fmt..Debug$GT$3fmt17h28ced5ad1ae3303bE
ffffff804000a5f0 T _ZN85_$LT$core..marker..variance..PhantomInvariantLifetime$u20$as$u20$core..fmt..Debug$GT$3fmt17h18b6eb4f028d06c0E
ffffff804000a60c T _ZN77_$LT$core..net..ip_addr..Ipv4Addr$u20$as$u20$core..ops..bit..BitAndAssign$GT$13bitand_assign17h69cc83f98b5384e5E
ffffff804000a644 T _ZN117_$LT$core..net..ip_addr..Ipv4Addr$u20$as$u20$core..ops..bit..BitAndAssign$LT$$RF$core..net..ip_addr..Ipv4Addr$GT$$GT$13bitand_assign17h0f644ea6594637d8E
ffffff804000a680 T _ZN76_$LT$core..net..ip_addr..Ipv4Addr$u20$as$u20$core..ops..bit..BitOrAssign$GT$12bitor_assign17h69eba11c24290777E
ffffff804000a6b8 T _ZN116_$LT$core..net..ip_addr..Ipv4Addr$u20$as$u20$core..ops..bit..BitOrAssign$LT$$RF$core..net..ip_addr..Ipv4Addr$GT$$GT$12bitor_assign17h3eb5c399655777beE
ffffff804000a6f4 T _ZN77_$LT$core..net..ip_addr..Ipv6Addr$u20$as$u20$core..ops..bit..BitAndAssign$GT$13bitand_assign17h60ccde945f671ff3E
ffffff804000a708 T _ZN117_$LT$core..net..ip_addr..Ipv6Addr$u20$as$u20$core..ops..bit..BitAndAssign$LT$$RF$core..net..ip_addr..Ipv6Addr$GT$$GT$13bitand_assign17hf32e5521720653caE
ffffff804000a71c T _ZN76_$LT$core..net..ip_addr..Ipv6Addr$u20$as$u20$core..ops..bit..BitOrAssign$GT$12bitor_assign17hbcf4071592e02e16E
ffffff804000a730 T _ZN116_$LT$core..net..ip_addr..Ipv6Addr$u20$as$u20$core..ops..bit..BitOrAssign$LT$$RF$core..net..ip_addr..Ipv6Addr$GT$$GT$12bitor_assign17h01323dfef7781cc6E
ffffff804000a744 t _ZN53_$LT$core..fmt..Error$u20$as$u20$core..fmt..Debug$GT$3fmt17hce67f5cccb6d059eE
ffffff804000a760 t _ZN44_$LT$$RF$T$u20$as$u20$core..fmt..Display$GT$3fmt17h044982160e83254dE
ffffff804000a768 t _ZN44_$LT$$RF$T$u20$as$u20$core..fmt..Display$GT$3fmt17h95b2daf10abc25efE
ffffff804000a770 T _ZN4core7unicode12unicode_data1n6lookup17hd0c413c82a5f5c0eE
ffffff804000a87c T _ZN73_$LT$core..ascii..ascii_char..AsciiChar$u20$as$u20$core..fmt..Display$GT$3fmt17h667d445d44b13432E
ffffff804000a890 T _ZN71_$LT$core..ascii..ascii_char..AsciiChar$u20$as$u20$core..fmt..Debug$GT$3fmt17hc17dec857a9580b7E
ffffff804000a9dc T _ZN4core5ascii14escape_default17hfc1793368de19df0E
ffffff804000aa50 T _ZN65_$LT$core..ascii..EscapeDefault$u20$as$u20$core..fmt..Display$GT$3fmt17h2dbbb489ddcf3dccE
ffffff804000aa70 T _ZN63_$LT$core..ascii..EscapeDefault$u20$as$u20$core..fmt..Debug$GT$3fmt17h1f887344ecbb444bE
ffffff804000aacc t _ZN104_$LT$core..iter..adapters..cloned..Cloned$LT$I$GT$$u20$as$u20$core..iter..traits..iterator..Iterator$GT$4next17h1a9af3025afbd82dE
ffffff804000aafc t _ZN4core4iter6traits8iterator8Iterator6cmp_by17h3e29bf6e063ba7b3E
ffffff804000ab3c T _ZN4core3str6traits23str_index_overflow_fail17h4d9bbbbe21a5ce74E
ffffff804000ab64 T _ZN4core3str7pattern11StrSearcher3new17hc78f84756746a001E
ffffff804000b438 T _ZN4core3num6bignum5tests6Big8x38from_u6417hec9170c462fcf7d8E
ffffff804000b4e0 T _ZN4core3num6bignum5tests6Big8x36digits17h4f9d26e2d2ada113E
ffffff804000b508 T _ZN4core3num6bignum5tests6Big8x37get_bit17hbc15921a0fcc068dE
ffffff804000b540 T _ZN4core3num6bignum5tests6Big8x37is_zero17h03ee5d02781b1797E
ffffff804000b5b0 T _ZN4core3num6bignum5tests6Big8x310bit_length17h07bda853a2154f5cE
ffffff804000b664 T _ZN4core3num6bignum5tests6Big8x33add17hd647428d969fc4faE
ffffff804000b70c T _ZN4core3num6bignum5tests6Big8x39add_small17h3fd227eb34481024E
ffffff804000b790 T _ZN4core3num6bignum5tests6Big8x33sub17hea0152c48d744fd0E
ffffff804000b828 T _ZN4core3num6bignum5tests6Big8x39mul_small17h7ea81747b547315fE
ffffff804000b8c4 T _ZN4core3num6bignum5tests6Big8x38mul_pow217hf52c7c102ddbe132E
ffffff804000bb34 T _ZN4core3num6bignum5tests6Big8x38mul_pow517h4d1df40e8a97adfcE
ffffff804000bca0 T _ZN4core3num6bignum5tests6Big8x310mul_digits17h36327640bd42da35E
ffffff804000c00c T _ZN4core3num6bignum5tests6Big8x313div_rem_small17h4548b36f5544a855E
ffffff804000c0bc T _ZN4core3num6bignum5tests6Big8x37div_rem17h66cd325278b91599E
ffffff804000c378 T _ZN73_$LT$core..num..bignum..tests..Big8x3$u20$as$u20$core..cmp..PartialEq$GT$2eq17h534b3e82c51df48bE
ffffff804000c398 T _ZN74_$LT$core..num..bignum..tests..Big8x3$u20$as$u20$core..cmp..PartialOrd$GT$11partial_cmp17h4daed8f160256969E
ffffff804000c440 T _ZN67_$LT$core..num..bignum..tests..Big8x3$u20$as$u20$core..cmp..Ord$GT$3cmp17h63b6150462f78440E
ffffff804000c4e8 T _ZN69_$LT$core..num..bignum..tests..Big8x3$u20$as$u20$core..fmt..Debug$GT$3fmt17h802950525c916f80E
ffffff804000c620 T _ZN4core7unicode12unicode_data10alphabetic6lookup17h7d7a791622e3a64fE
ffffff804000c724 t _ZN4core3ops8function5impls79_$LT$impl$u20$core..ops..function..FnMut$LT$A$GT$$u20$for$u20$$RF$mut$u20$F$GT$8call_mut17h2b3a784e8399c1d9E
ffffff804000c724 t _ZN4core3ops8function5impls79_$LT$impl$u20$core..ops..function..FnMut$LT$A$GT$$u20$for$u20$$RF$mut$u20$F$GT$8call_mut17h553c13a51e1a32d2E
ffffff804000c724 t _ZN4core3ops8function5impls79_$LT$impl$u20$core..ops..function..FnMut$LT$A$GT$$u20$for$u20$$RF$mut$u20$F$GT$8call_mut17h6ff5162d5e5c4d38E
ffffff804000c738 t _ZN4core3ops8function5impls79_$LT$impl$u20$core..ops..function..FnMut$LT$A$GT$$u20$for$u20$$RF$mut$u20$F$GT$8call_mut17h6987a2eef5d8a5abE
ffffff804000c750 T _ZN4core9panicking9panic_fmt17h6993734e4949ff19E
ffffff804000c768 T _ZN4core9panicking18panic_nounwind_fmt17h406ee265e23381dbE
ffffff804000c780 T _ZN4core9panicking5panic17hac7e8940f6e89744E
ffffff804000c7ac T _ZN4core9panicking14panic_nounwind17hd96396dcdc743d73E
ffffff804000c7e0 T _ZN4core9panicking26panic_nounwind_nobacktrace17hab6cae55fb4b08a6E
ffffff804000c814 T _ZN4core9panicking14panic_explicit17he8c235476a82f6dfE
ffffff804000c854 T _ZN4core9panicking18panic_bounds_check17h750f29674a791cc8E
ffffff804000c898 T _ZN4core9panicking36panic_misaligned_pointer_dereference17h2a9a533610046d67E
ffffff804000c8d8 T _ZN4core9panicking30panic_null_pointer_dereference17hdb82bea48d77db80E
ffffff804000c904 T _ZN4core9panicking31panic_invalid_enum_construction17h2c4ec930c56e660bE
ffffff804000c93c T _ZN4core9panicking19panic_cannot_unwind17ha680d6e77bd0762cE
ffffff804000c94c T _ZN4core9panicking16panic_in_cleanup17hcdeeeba802379427E
ffffff804000c95c T _ZN4core9panicking15const_panic_fmt17h125758429335516eE
ffffff804000c9b4 T _ZN4core9panicking13assert_failed17h06df275c166c99a4E
ffffff804000c9cc T _ZN4core9panicking13assert_failed17he08a2e06d997564fE
ffffff804000c9e4 T _ZN84_$LT$core..panicking..assert_matches_failed..Pattern$u20$as$u20$core..fmt..Debug$GT$3fmt17hed1a6a723d8424dfE
ffffff804000c9f8 T _ZN4core9panicking19assert_failed_inner17h0d225c708e1e4cc4E
ffffff804000cad0 T _ZN4core3fmt8builders10PadAdapter4wrap17he399764c2cb54a05E
ffffff804000caf4 T _ZN68_$LT$core..fmt..builders..PadAdapter$u20$as$u20$core..fmt..Write$GT$9write_str17h4524db0bd26b53bbE
ffffff804000cd34 T _ZN68_$LT$core..fmt..builders..PadAdapter$u20$as$u20$core..fmt..Write$GT$10write_char17h80252c6033af0508E
ffffff804000cdb0 t _ZN4core3fmt8builders16debug_struct_new17h393baaf7259215fdE
ffffff804000cde4 T _ZN4core3fmt8builders11DebugStruct5field17hbb4e48baa1273c3eE
ffffff804000cf84 T _ZN4core3fmt8builders11DebugStruct21finish_non_exhaustive17h5e1fe45f7c6599d4E
ffffff804000d04c T _ZN4core3fmt8builders11DebugStruct6finish17hf504b01c088fd0d0E
ffffff804000d0bc t _ZN4core3fmt8builders15debug_tuple_new17h2cb9f5418ec71de2E
ffffff804000d0fc T _ZN4core3fmt8builders10DebugTuple5field17hd097e7787bafc7a5E
ffffff804000d230 T _ZN4core3fmt8builders10DebugTuple21finish_non_exhaustive17h4bfa58a3119b6c3aE
ffffff804000d2f4 T _ZN4core3fmt8builders10DebugTuple6finish17h016278c55bfbb7b4E
ffffff804000d3a0 t _ZN4core3fmt8builders13debug_set_new17hdb2bbd9bdccd6f55E
ffffff804000d3e0 T _ZN4core3fmt8builders8DebugSet5entry17h36df15a59c26859dE
ffffff804000d3e0 T _ZN4core3fmt8builders9DebugList5entry17he12ec9277d2b302fE
ffffff804000d510 T _ZN4core3fmt8builders8DebugSet21finish_non_exhaustive17hed4688dbc4aa338aE
ffffff804000d5d8 T _ZN4core3fmt8builders8DebugSet6finish17h6443b97ef7d86acaE
ffffff804000d620 t _ZN4core3fmt8builders14debug_list_new17h599ff4043b3b00d4E
ffffff804000d660 t _ZN4core3fmt8builders9DebugList7entries17he66a15ec2c3b134cE
ffffff804000d9a4 T _ZN4core3fmt8builders9DebugList21finish_non_exhaustive17hd2b113929d3d5d4fE
ffffff804000da7c T _ZN4core3fmt8builders9DebugList6finish17hed832ab8fbb2342eE
ffffff804000dac4 t _ZN4core3fmt8builders13debug_map_new17hb4ad7f5773bb6344E
ffffff804000db0c T _ZN4core3fmt8builders8DebugMap5entry17hb9c011b864286008E
ffffff804000dc18 T _ZN4core3fmt8builders8DebugMap3key17hdc59d8ec50082ed3E
ffffff804000dda0 T _ZN4core3fmt8builders8DebugMap5value17h23a8075afad788ceE
ffffff804000de9c T _ZN4core3fmt8builders8DebugMap21finish_non_exhaustive17hbed1089513287ff0E
ffffff804000df98 T _ZN4core3fmt8builders8DebugMap6finish17h029e9783db2f5e6fE
ffffff804000e020 t _ZN4core3fmt5Write9write_fmt17h477e0cf7e1fa6728E.llvm.13990728864966725379
ffffff804000e030 T _ZN4core5slice4sort6shared9smallsort22panic_on_ord_violation17h2545cd5f5961c5fdE
ffffff804000e05c T _ZN4core7unicode12unicode_data14case_ignorable6lookup17h6064ce8b5a05ddf1E
ffffff804000e168 T _ZN4core7unicode12unicode_data9uppercase6lookup17h34c45bbe65b2b189E
ffffff804000e274 t OUTLINED_FUNCTION_0
ffffff804000e284 t OUTLINED_FUNCTION_1
ffffff804000e294 t _ZN4core3num7dec2flt5float8RawFloat14integer_decode17h08e1e3012a123f16E
ffffff804000e2cc t _ZN4core3num7dec2flt5float8RawFloat14integer_decode17h381c8e37b1136125E
ffffff804000e308 t _ZN4core3num7dec2flt5float8RawFloat14integer_decode17hd585be5cf2439bb4E
ffffff804000e340 T _ZN59_$LT$f32$u20$as$u20$core..num..dec2flt..float..RawFloat$GT$15pow10_fast_path17h9e59774d87581103E
ffffff804000e354 T _ZN59_$LT$f64$u20$as$u20$core..num..dec2flt..float..RawFloat$GT$15pow10_fast_path17hae2173123058256bE
ffffff804000e368 t _ZN4core3net6parser6Parser10parse_with17h0bcd315d02f8d67eE
ffffff804000e3f0 t _ZN4core3net6parser6Parser10parse_with17h22af6f686b0e82c0E
ffffff804000e504 t _ZN4core3net6parser6Parser10parse_with17hb8c39ec90e279e88E
ffffff804000e68c t _ZN4core3net6parser6Parser10parse_with17hc7662ff4ca8c0b23E
ffffff804000e700 t _ZN4core3net6parser6Parser10parse_with17hdcf7e473bb5d5f75E
ffffff804000e760 t _ZN4core3net6parser6Parser10parse_with17hf8498cc1da3310c5E
ffffff804000e824 t _ZN4core3net6parser6Parser11read_number28_$u7b$$u7b$closure$u7d$$u7d$17hfd1eb96c3bf00065E.llvm.7200089743956093358
ffffff804000eac8 t _ZN4core3net6parser6Parser14read_ipv4_addr17h3a9c29a6fcc0f6c9E.llvm.7200089743956093358
ffffff804000ee54 t _ZN4core3net6parser6Parser14read_ipv6_addr17h6c90bf94d36851dfE.llvm.7200089743956093358
ffffff804000efa0 t _ZN4core3net6parser6Parser14read_ipv6_addr11read_groups17h37044ef30f963084E
ffffff804000f18c t _ZN4core3net6parser6Parser19read_socket_addr_v617hd9575143495417afE.llvm.7200089743956093358
ffffff804000f330 T _ZN72_$LT$core..net..parser..AddrParseError$u20$as$u20$core..fmt..Display$GT$3fmt17he5ad1339717f2ea1E
ffffff804000f358 T _ZN4core5slice5index26slice_start_index_len_fail17h56595004aa868f1bE
ffffff804000f35c T _ZN4core5slice5index24slice_end_index_len_fail17h315dd16cfb75c12cE
ffffff804000f360 T _ZN4core5slice5index22slice_index_order_fail17h134eb9a736d3e11bE
ffffff804000f364 T _ZN4core5slice5index31slice_start_index_overflow_fail17h6c4edf98357d9cafE
ffffff804000f38c T _ZN4core5slice5index29slice_end_index_overflow_fail17h437d0988fd024a31E
ffffff804000f3b4 T _ZN4core5slice5index10into_range17hbc43b8cc50be586eE
ffffff804000f420 T _ZN4core5slice5index16into_slice_range17hacecfb39a5b1184aE
ffffff804000f48c T _ZN4core5alloc6layout6Layout19is_size_align_valid17h343b9742dfbf344eE
ffffff804000f4ac T _ZN71_$LT$core..alloc..layout..LayoutError$u20$as$u20$core..fmt..Display$GT$3fmt17h5b85e217c9dea039E
ffffff804000f4c8 T _ZN4core5slice5index26slice_start_index_len_fail8do_panic7runtime17h8d3c90e1609e2640E
ffffff804000f50c T _ZN4core5slice5index24slice_end_index_len_fail8do_panic7runtime17h673179117f456ecbE
ffffff804000f550 T _ZN4core5slice5index22slice_index_order_fail8do_panic7runtime17h283adb400e33df40E
ffffff804000f594 T _ZN4core7unicode12unicode_data15grapheme_extend11lookup_slow17h915c586e763c25acE
ffffff804000f69c T _ZN76_$LT$core..mem..transmutability..Assume$u20$as$u20$core..ops..arith..Sub$GT$3sub17h3b73ab43d5b16601E
ffffff804000f6a8 T _ZN56_$LT$core..bstr..ByteStr$u20$as$u20$core..fmt..Debug$GT$3fmt17ha800d76222362303E
ffffff804000f93c T _ZN58_$LT$core..bstr..ByteStr$u20$as$u20$core..fmt..Display$GT$3fmt17h8d108a2a18b65df1E
ffffff804000fd5c t _ZN4core4char7methods22_$LT$impl$u20$char$GT$16escape_debug_ext17h1d6f8cfad5ef989eE
ffffff8040010000 t _ZN62_$LT$core..char..EscapeDebug$u20$as$u20$core..fmt..Display$GT$3fmt17h9bcf2868587c49b3E
ffffff804001003c t _ZN106_$LT$core..iter..adapters..chain..Chain$LT$A$C$B$GT$$u20$as$u20$core..iter..traits..iterator..Iterator$GT$8try_fold17h9cd5e29eb6e0c591E
ffffff80400103f0 t _ZN4core5slice29_$LT$impl$u20$$u5b$T$u5d$$GT$9ends_with17h8e03a52ec318e288E
ffffff8040010424 T _ZN4core5slice29_$LT$impl$u20$$u5b$T$u5d$$GT$15copy_from_slice17len_mismatch_fail17he7049b1bc9c707e0E
ffffff8040010434 T _ZN4core5slice29_$LT$impl$u20$$u5b$T$u5d$$GT$16align_to_offsets3gcd17ha9878600d6b35a1fE
ffffff8040010458 t _ZN4core5slice29_$LT$impl$u20$$u5b$T$u5d$$GT$8align_to17h91b605375ff51f76E
ffffff80400104a8 t _ZN4core5slice29_$LT$impl$u20$$u5b$T$u5d$$GT$8align_to17h93063c48bd1e8548E
ffffff80400104f8 t _ZN4core5slice29_$LT$impl$u20$$u5b$T$u5d$$GT$14subslice_range17h8638a8ef2ef0e128E
ffffff8040010524 T _ZN71_$LT$core..slice..GetDisjointMutError$u20$as$u20$core..fmt..Display$GT$3fmt17hf5482884506deae8E
ffffff8040010558 T _ZN60_$LT$core..str..lossy..Debug$u20$as$u20$core..fmt..Debug$GT$3fmt17hf583c5ef265bc054E
ffffff80400108bc T _ZN87_$LT$core..str..lossy..Utf8Chunks$u20$as$u20$core..iter..traits..iterator..Iterator$GT$4next17hba121a73c3f586cfE
ffffff8040010a7c T _ZN65_$LT$core..str..lossy..Utf8Chunks$u20$as$u20$core..fmt..Debug$GT$3fmt17h8c1e17ac3f4dc399E
ffffff8040010b44 t _ZN4core6escape12escape_ascii17h1ec4dcca0c60a84aE
ffffff8040010bd0 t _ZN4core6escape12escape_ascii17h8c400b32c468fda8E
ffffff8040010c4c t _ZN4core6escape14escape_unicode17hbe50142656536579E
ffffff8040010d08 t _ZN4core6escape35EscapeIterInner$LT$_$C$ESCAPING$GT$9backslash17h5c4c51998b5b6024E
ffffff8040010d08 t _ZN4core6escape35EscapeIterInner$LT$_$C$ESCAPING$GT$9backslash17hac722d8b6be10f57E
ffffff8040010d24 t _ZN4core6escape54EscapeIterInner$LT$_$C$core..escape..AlwaysEscaped$GT$4next17h3788e177599434b7E
ffffff8040010d4c t _ZN4core6escape54EscapeIterInner$LT$_$C$core..escape..AlwaysEscaped$GT$4next17h8ebd97d7c1b92ec6E
ffffff8040010d74 t _ZN4core6escape54EscapeIterInner$LT$_$C$core..escape..AlwaysEscaped$GT$9next_back17h4ccba565b7c27c6eE
ffffff8040010da0 t _ZN4core6escape53EscapeIterInner$LT$_$C$core..escape..MaybeEscaped$GT$4next17h37615ff15ce2a807E
ffffff8040010dd8 t _ZN107_$LT$core..escape..EscapeIterInner$LT$_$C$core..escape..AlwaysEscaped$GT$$u20$as$u20$core..fmt..Display$GT$3fmt17h827579be30f8d169E
ffffff8040010df8 t _ZN107_$LT$core..escape..EscapeIterInner$LT$_$C$core..escape..AlwaysEscaped$GT$$u20$as$u20$core..fmt..Display$GT$3fmt17hf9304a945da97a7fE
ffffff8040010e18 t _ZN106_$LT$core..escape..EscapeIterInner$LT$_$C$core..escape..MaybeEscaped$GT$$u20$as$u20$core..fmt..Display$GT$3fmt17h700cbb8e8a7de38bE
ffffff8040010e54 T _ZN4core5slice29_$LT$impl$u20$$u5b$T$u5d$$GT$15copy_from_slice17len_mismatch_fail8do_panic7runtime17h8b43835c519701c2E
ffffff8040010e9c T _ZN4core3num7dec2flt11decimal_seq10DecimalSeq4trim17hcf19d470c34efee7E
ffffff8040010ee4 T _ZN4core3num7dec2flt11decimal_seq10DecimalSeq5round17hffd4d74d7f9e91a4E
ffffff8040010f98 T _ZN4core3num7dec2flt11decimal_seq10DecimalSeq10left_shift17hf45c896de81baafbE
ffffff8040011180 T _ZN4core3num7dec2flt11decimal_seq10DecimalSeq11right_shift17hf703759ec506b2a2E
ffffff8040011334 T _ZN4core3num7dec2flt11decimal_seq17parse_decimal_seq17h9fc50f816fe50286E
ffffff804001170c t _ZN4core3num7flt2dec7decoder6decode17h48d8100cc18c4faaE
ffffff80400117c8 t _ZN4core3num7flt2dec7decoder6decode17h5b2405b0d08e5354E
ffffff8040011880 t _ZN4core3num7flt2dec7decoder6decode17h9770070ecbff08e5E
ffffff8040011938 T _ZN4core3num7flt2dec9estimator23estimate_scaling_factor17h77092df497b435eaE
ffffff8040011968 T _ZN4core3num3fmt4Part5write17hb5eaf148cfd74de7E
ffffff8040011af0 T _ZN4core3num3fmt9Formatted3len17hf59179bcf70ae59aE
ffffff8040011b84 T _ZN4core3num3fmt9Formatted5write17he89effcab53448ccE
ffffff8040011c3c T _ZN4core3num14overflow_panic3add17h1ca96a7746d39f13E
ffffff8040011c64 T _ZN4core3num14overflow_panic3sub17h3e95c920d871b94dE
ffffff8040011c8c T _ZN4core3num14overflow_panic3mul17h9e7afc316db4b842E
ffffff8040011cb4 T _ZN4core3num14overflow_panic3div17hc696a74412260465E
ffffff8040011cdc T _ZN4core3num14overflow_panic3rem17h99dcbd0aa12ffb51E
ffffff8040011d04 T _ZN4core3num14overflow_panic3neg17h8b800c3361321820E
ffffff8040011d2c T _ZN4core3num14overflow_panic3shr17h83ee263e555ed318E
ffffff8040011d54 T _ZN4core3num14overflow_panic3shl17hce8d666c05a41eefE
ffffff8040011d7c T _ZN4core5slice6memchr14memchr_aligned17h628223fc66ae7591E
ffffff8040011e58 T _ZN4core5slice6memchr7memrchr17h7467c7c403a136efE
ffffff8040011f78 T _ZN4core3str8converts9from_utf817h56779c9b926feea4E
ffffff80400121e8 T _ZN4core3str8converts13from_utf8_mut17h57f7c8dec884ecc7E
ffffff8040012458 t _ZN4core7unicode9printable5check17hb4700224fba15913E.llvm.10173621136629020908
ffffff8040012550 T _ZN4core7unicode9printable12is_printable17h1ac5504cc60e00f1E
ffffff80400127f4 T _ZN4core3num8int_sqrt27panic_for_negative_argument17h20bccb8ef15bcb55E
ffffff804001281c t _ZN129_$LT$$u5b$core..mem..maybe_uninit..MaybeUninit$LT$T$GT$$u3b$$u20$N$u5d$$u20$as$u20$core..array..iter..iter_inner..PartialDrop$GT$12partial_drop17h52902d821bb958edE
ffffff8040012820 t _ZN129_$LT$$u5b$core..mem..maybe_uninit..MaybeUninit$LT$T$GT$$u3b$$u20$N$u5d$$u20$as$u20$core..array..iter..iter_inner..PartialDrop$GT$12partial_drop17h9ad1492747496ea4E
ffffff8040012824 t _ZN129_$LT$$u5b$core..mem..maybe_uninit..MaybeUninit$LT$T$GT$$u3b$$u20$N$u5d$$u20$as$u20$core..array..iter..iter_inner..PartialDrop$GT$12partial_drop17he01097a9326b802eE
ffffff8040012828 t _ZN4core4char7methods22_$LT$impl$u20$char$GT$16escape_debug_ext17h1d6f8cfad5ef989eE.llvm.13529160566815697248
ffffff8040012ad0 t _ZN102_$LT$core..iter..adapters..map..Map$LT$I$C$F$GT$$u20$as$u20$core..iter..traits..iterator..Iterator$GT$8try_fold17h8d5d011c50d7a427E
ffffff8040012dc8 t _ZN102_$LT$core..iter..adapters..map..Map$LT$I$C$F$GT$$u20$as$u20$core..iter..traits..iterator..Iterator$GT$8try_fold17ha8838d744b42c887E
ffffff8040012fbc t _ZN102_$LT$core..iter..adapters..map..Map$LT$I$C$F$GT$$u20$as$u20$core..iter..traits..iterator..Iterator$GT$8try_fold17hffe3f6dd31986697E
ffffff80400132d0 t _ZN4core3fmt5float29float_to_decimal_common_exact17h2a24a684a890c80aE
ffffff8040013320 t _ZN4core3fmt5float29float_to_decimal_common_exact17h9bfd6ada8757df7aE
ffffff8040013370 t _ZN4core3fmt5float29float_to_decimal_common_exact17he3b9767ff4f9c934E
ffffff80400133c0 t _ZN4core3fmt5float32float_to_decimal_common_shortest17h4a0ed81f60fed452E
ffffff8040013408 t _ZN4core3fmt5float32float_to_decimal_common_shortest17h6706fe2e6d7b110aE
ffffff8040013450 t _ZN4core3fmt5float32float_to_decimal_common_shortest17hc809474657d4d21bE
ffffff8040013498 t _ZN4core3fmt5float33float_to_exponential_common_exact17h7b2bcd454c2f416bE
ffffff80400134f0 t _ZN4core3fmt5float33float_to_exponential_common_exact17h8435b304491e6194E
ffffff8040013548 t _ZN4core3fmt5float33float_to_exponential_common_exact17heaacb3aba95c98abE
ffffff80400135a0 t _ZN4core3fmt5float36float_to_exponential_common_shortest17h2e500e7eb7c6e55aE
ffffff80400135ec t _ZN4core3fmt5float36float_to_exponential_common_shortest17h585025864ef96f4bE
ffffff8040013638 t _ZN4core3fmt5float36float_to_exponential_common_shortest17h6b9a43bab9c1dd1cE
ffffff8040013684 T _ZN4core5slice4sort6stable5drift11sqrt_approx17h77b47e808f552378E
ffffff80400136b0 T _ZN105_$LT$core..slice..ascii..EscapeAscii$u20$as$u20$core..iter..traits..double_ended..DoubleEndedIterator$GT$9next_back17hd9b0c22188f18823E
ffffff80400137cc T _ZN70_$LT$core..slice..ascii..EscapeAscii$u20$as$u20$core..fmt..Display$GT$3fmt17h6d996d2badff8e0cE
ffffff8040013a04 T _ZN68_$LT$core..slice..ascii..EscapeAscii$u20$as$u20$core..fmt..Debug$GT$3fmt17h64974b8dbd7146d0E
ffffff8040013a60 T _ZN4core3str16slice_error_fail17ha282139d6407ecf9E
ffffff8040013a64 T _ZN4core3str19slice_error_fail_ct17h1ee87b7c21883ae0E
ffffff8040013a8c T _ZN4core3str19slice_error_fail_rt17h58958e93b405e232E
ffffff8040013db0 T _ZN4core3str21_$LT$impl$u20$str$GT$9from_utf817hdcfee88f59029039E
ffffff8040013db4 T _ZN4core3str21_$LT$impl$u20$str$GT$13from_utf8_mut17h07f2f2acd783788fE
ffffff8040013db8 T _ZN4core3str21_$LT$impl$u20$str$GT$18split_at_unchecked17hb0214fbbd7191e5cE
ffffff8040013dcc T _ZN4core3str21_$LT$impl$u20$str$GT$22split_at_mut_unchecked17h1965820e82690affE
ffffff8040013de0 T _ZN4core3str21_$LT$impl$u20$str$GT$12escape_debug17h67de3fba4f18f5e2E
ffffff8040013ec0 T _ZN4core3str21_$LT$impl$u20$str$GT$12substr_range17h0b7b02f80b8b995eE
ffffff8040013eec T _ZN55_$LT$f32$u20$as$u20$core..fmt..float..GeneralFormat$GT$44already_rounded_value_should_use_exponential17heb3a20a6404a1bc7E
ffffff8040013f2c T _ZN55_$LT$f64$u20$as$u20$core..fmt..float..GeneralFormat$GT$44already_rounded_value_should_use_exponential17h70ab5b4498b1fb27E
ffffff8040013f60 T _ZN4core3fmt5float50_$LT$impl$u20$core..fmt..Debug$u20$for$u20$f32$GT$3fmt17haf44882b690d3d10E
ffffff8040013fd8 T _ZN4core3fmt5float52_$LT$impl$u20$core..fmt..Display$u20$for$u20$f32$GT$3fmt17h9c8016e7682a2100E
ffffff8040014004 T _ZN4core3fmt5float53_$LT$impl$u20$core..fmt..LowerExp$u20$for$u20$f32$GT$3fmt17h9e9a0ff11997c89aE
ffffff804001403c T _ZN4core3fmt5float53_$LT$impl$u20$core..fmt..UpperExp$u20$for$u20$f32$GT$3fmt17hf832795d962d90e7E
ffffff8040014074 T _ZN4core3fmt5float50_$LT$impl$u20$core..fmt..Debug$u20$for$u20$f64$GT$3fmt17ha310919643a3695cE
ffffff80400140e4 T _ZN4core3fmt5float52_$LT$impl$u20$core..fmt..Display$u20$for$u20$f64$GT$3fmt17hbcfb3b69111391eaE
ffffff8040014110 T _ZN4core3fmt5float53_$LT$impl$u20$core..fmt..LowerExp$u20$for$u20$f64$GT$3fmt17h8f648e4927ac0924E
ffffff8040014148 T _ZN4core3fmt5float53_$LT$impl$u20$core..fmt..UpperExp$u20$for$u20$f64$GT$3fmt17h34138a1f2bca47a9E
ffffff8040014180 T _ZN4core3fmt5float50_$LT$impl$u20$core..fmt..Debug$u20$for$u20$f16$GT$3fmt17h3c02a2dc72f3b38aE
ffffff8040014204 T _ZN4core3fmt5float52_$LT$impl$u20$core..fmt..Display$u20$for$u20$f16$GT$3fmt17h75aa1a83d830e123E
ffffff8040014230 T _ZN4core3fmt5float53_$LT$impl$u20$core..fmt..LowerExp$u20$for$u20$f16$GT$3fmt17h50177dee6dc454ccE
ffffff8040014268 T _ZN4core3fmt5float53_$LT$impl$u20$core..fmt..UpperExp$u20$for$u20$f16$GT$3fmt17hb0299df80ff85a96E
ffffff80400142a0 T _ZN4core3num7flt2dec8round_up17hb3824a375415a79dE
ffffff8040014378 T _ZN4core3num7flt2dec17digits_to_dec_str17h8de6d1b3160ead25E
ffffff80400144e0 T _ZN4core3num7flt2dec17digits_to_exp_str17hc8c203c6bec01565E
ffffff804001463c t _ZN4core3num7flt2dec15to_shortest_str17h5ff8fa8fd929119aE
ffffff80400148b4 t _ZN4core3num7flt2dec15to_shortest_str17h9093c7fdf1afabb6E
ffffff8040014b2c t _ZN4core3num7flt2dec15to_shortest_str17hc9e35253b475d2ddE
ffffff8040014da8 t _ZN4core3num7flt2dec19to_shortest_exp_str17h66b8655c69a71929E
ffffff80400150b0 t _ZN4core3num7flt2dec19to_shortest_exp_str17hb76f02e7e5b2ed52E
ffffff80400153b4 t _ZN4core3num7flt2dec19to_shortest_exp_str17hf86bd6a2fb4e65d9E
ffffff80400156b4 t _ZN4core3num7flt2dec16to_exact_exp_str17h13ed9e6c0171a834E
ffffff80400159e0 t _ZN4core3num7flt2dec16to_exact_exp_str17hc06e49860ad8791aE
ffffff8040015d10 t _ZN4core3num7flt2dec16to_exact_exp_str17hef3a1a302594b43eE
ffffff8040016038 t _ZN4core3num7flt2dec18to_exact_fixed_str17h1e5fb850b0ec384dE
ffffff8040016338 t _ZN4core3num7flt2dec18to_exact_fixed_str17hbaec429ce377ea06E
ffffff804001663c t _ZN4core3num7flt2dec18to_exact_fixed_str17he1835b6f35ecc15dE
ffffff804001693c t _ZN4core3ptr12align_offset17ha0bd6afe058dd80aE
ffffff8040016954 T _ZN57_$LT$core..error..Request$u20$as$u20$core..fmt..Debug$GT$3fmt17hcf01eb65c6941e04E
ffffff80400169b0 T _ZN78_$LT$core..error..Source$u20$as$u20$core..iter..traits..iterator..Iterator$GT$4next17hc41cfd3479671d29E
ffffff8040016a00 T _ZN54_$LT$core..ffi..c_void$u20$as$u20$core..fmt..Debug$GT$3fmt17hd3a4149feee56ac0E
ffffff8040016a1c t _ZN4core3num7dec2flt4slow19parse_long_mantissa17h27e155747d528a64E
ffffff8040016d84 t _ZN4core3num7dec2flt4slow19parse_long_mantissa17h67d3f605d9f836e6E
ffffff80400170ec t _ZN4core3num7dec2flt4slow19parse_long_mantissa17hb5397927840f3a04E
ffffff8040017458 T _ZN69_$LT$core..ffi..c_str..CStr$u20$as$u20$core..clone..CloneToUninit$GT$15clone_to_uninit17hdac86b6a4760a45bE
ffffff804001746c T _ZN79_$LT$core..ffi..c_str..FromBytesUntilNulError$u20$as$u20$core..fmt..Display$GT$3fmt17ha080a0848c04a3d6E
ffffff8040017488 T _ZN59_$LT$core..ffi..c_str..CStr$u20$as$u20$core..fmt..Debug$GT$3fmt17h45646b9dc1ff5b97E
ffffff8040017490 T _ZN78_$LT$core..ffi..c_str..FromBytesWithNulError$u20$as$u20$core..fmt..Display$GT$3fmt17h501cd6c4da17f955E
ffffff804001753c T _ZN4core3ffi5c_str4CStr20from_bytes_until_nul17h19554ba7486f377eE
ffffff8040017628 T _ZN4core3ffi5c_str4CStr19from_bytes_with_nul17h54d54573148248ebE
ffffff8040017718 T _ZN4core3ffi5c_str4CStr6to_str17h65a7897a50d023a1E
ffffff8040017720 t _ZN4core4iter8adapters3zip3zip17h29156768b176e1d7E
ffffff8040017744 t _ZN4core4iter8adapters3zip3zip17h2ed9a5db26ce6c69E
ffffff8040017768 t _ZN4core4iter8adapters3zip3zip17h604781e7715dd310E
ffffff804001778c t _ZN4core4iter8adapters3zip3zip17h7a3e7993e96f8169E
ffffff80400177b0 T _ZN4core3f3221_$LT$impl$u20$f32$GT$5clamp8do_panic7runtime17h0bb7a3a56d6b8101E
ffffff80400177f8 T _ZN49_$LT$u8$u20$as$u20$core..num..bignum..FullOps$GT$12full_div_rem17h4b3b5147ea406b49E
ffffff8040017828 T _ZN50_$LT$u16$u20$as$u20$core..num..bignum..FullOps$GT$12full_div_rem17ha6db1f34df656d63E
ffffff8040017854 T _ZN50_$LT$u32$u20$as$u20$core..num..bignum..FullOps$GT$12full_div_rem17h36bc44d81d55dc10E
ffffff8040017880 T _ZN4core3num6bignum8Big32x408from_u6417h98aec1cb9c0b9ff4E
ffffff80400178d8 T _ZN4core3num6bignum8Big32x406digits17h395dd539492a053bE
ffffff80400178fc T _ZN4core3num6bignum8Big32x407get_bit17h4df8714c7bf9c989E
ffffff804001792c T _ZN4core3num6bignum8Big32x407is_zero17heb5f42bdd96e0869E
ffffff8040017970 T _ZN4core3num6bignum8Big32x4010bit_length17h1c6c66b31ae1a730E
ffffff80400179e4 T _ZN4core3num6bignum8Big32x403add17h9954b8e52055d968E
ffffff8040017a78 T _ZN4core3num6bignum8Big32x409add_small17h2c2e445e6aa38c32E
ffffff8040017e5c T _ZN4core3num6bignum8Big32x403sub17h2e1a5a06bea262a9E
ffffff8040017ee4 T _ZN4core3num6bignum8Big32x409mul_small17h4c5d0f17b0538653E
ffffff8040017f60 T _ZN4core3num6bignum8Big32x408mul_pow217hf2f4682be2e614c4E
ffffff8040018148 T _ZN4core3num6bignum8Big32x408mul_pow517h153f19926a01032eE
ffffff80400182c8 T _ZN4core3num6bignum8Big32x4010mul_digits17h11be1549cc8f7cc9E
ffffff8040018388 t _ZN4core3num6bignum8Big32x4010mul_digits9mul_inner17heaebdd62fc7d76b1E.llvm.4480642595964994115
ffffff8040018508 T _ZN4core3num6bignum8Big32x4013div_rem_small17hce5dedbdf7fa4faaE
ffffff8040018584 T _ZN4core3num6bignum8Big32x407div_rem17hc6bcf186cdbe6a21E
ffffff80400187b4 T _ZN68_$LT$core..num..bignum..Big32x40$u20$as$u20$core..cmp..PartialEq$GT$2eq17hd70928547c903be0E
ffffff80400187d0 T _ZN69_$LT$core..num..bignum..Big32x40$u20$as$u20$core..cmp..PartialOrd$GT$11partial_cmp17hcda4e3d3edae40e8E
ffffff8040018838 T _ZN62_$LT$core..num..bignum..Big32x40$u20$as$u20$core..cmp..Ord$GT$3cmp17hf58d1ce4cf1f0045E
ffffff80400188a0 T _ZN64_$LT$core..num..bignum..Big32x40$u20$as$u20$core..fmt..Debug$GT$3fmt17hce252995321f8c01E
ffffff80400189e8 T _ZN4core3num9diy_float2Fp3mul17h476d25b3a0974289E
ffffff8040018a00 T _ZN4core3num9diy_float2Fp9normalize17h7e77aa1bb54829f3E
ffffff8040018a10 T _ZN4core3num9diy_float2Fp12normalize_to17hf4b38ea1b2369d26E
ffffff8040018a84 t _ZN4core4char7methods22_$LT$impl$u20$char$GT$16escape_debug_ext17h1d6f8cfad5ef989eE.llvm.15753022479350262486
ffffff8040018d44 T _ZN4core6option13unwrap_failed17hc444b1e743369d57E
ffffff8040018d58 T _ZN4core6option13expect_failed17hc0dc65601ca2d3cdE
ffffff8040018d94 T _ZN4core3fmt17FormattingOptions8get_fill17hd7cee96e38ab870bE
ffffff8040018da0 T _ZN57_$LT$core..fmt..Arguments$u20$as$u20$core..fmt..Debug$GT$3fmt17hfeaa252b29c2db66E
ffffff8040018db0 T _ZN59_$LT$core..fmt..Arguments$u20$as$u20$core..fmt..Display$GT$3fmt17h8bfe7610603849ecE
ffffff8040018dc0 T _ZN4core3fmt5write17hda0c2375a38020daE
ffffff8040018fe4 t _ZN4core3fmt11PostPadding5write17heebc6f1fed8f5c2eE
ffffff8040019044 T _ZN4core3fmt9Formatter12pad_integral17ha1169fb53f2d4640E
ffffff80400193f4 t _ZN4core3fmt9Formatter12pad_integral12write_prefix17hc1a281008bc1f529E
ffffff8040019478 T _ZN4core3fmt9Formatter3pad17h0a9b091e53922630E
ffffff8040019788 t _ZN4core3fmt9Formatter7padding17h040425dd3f7917ebE
ffffff8040019854 t _ZN4core3fmt9Formatter19pad_formatted_parts17h2eaf92389d27a020E
ffffff8040019a80 t _ZN4core3fmt9Formatter21write_formatted_parts17h2cd55cd0c881a71eE.llvm.15753022479350262486
ffffff8040019c98 T _ZN4core3fmt9Formatter9write_str17h02a11669da174181E
ffffff8040019c98 T _ZN57_$LT$core..fmt..Formatter$u20$as$u20$core..fmt..Write$GT$9write_str17hbd2401d5b75d843cE
ffffff8040019ca4 T _ZN4core3fmt9Formatter4fill17h089ba555efa561a6E
ffffff8040019cb0 T _ZN4core3fmt9Formatter12debug_struct17h2c643e734a94b861E
ffffff8040019ce4 T _ZN4core3fmt9Formatter26debug_struct_field1_finish17hbc9d6285d97dde2eE
ffffff8040019da0 T _ZN4core3fmt9Formatter26debug_struct_field2_finish17ha781493420b05d9fE
ffffff8040019e90 T _ZN4core3fmt9Formatter26debug_struct_field3_finish17h4846dd185ec0759aE
ffffff8040019fac T _ZN4core3fmt9Formatter26debug_struct_field4_finish17hf89027b542ded30cE
ffffff804001a0e8 T _ZN4core3fmt9Formatter26debug_struct_field5_finish17h16658754f98e714eE
ffffff804001a240 T _ZN4core3fmt9Formatter26debug_struct_fields_finish17hba1555722483a678E
ffffff804001a33c T _ZN4core3fmt9Formatter11debug_tuple17hda64c8d458b71a61E
ffffff804001a37c T _ZN4core3fmt9Formatter25debug_tuple_field1_finish17h73800396d4eaccb3E
ffffff804001a4d8 T _ZN4core3fmt9Formatter25debug_tuple_field2_finish17h61dba9adeead2dceE
ffffff804001a6a4 T _ZN4core3fmt9Formatter25debug_tuple_field3_finish17h0569825d63bb07f7E
ffffff804001a91c T _ZN4core3fmt9Formatter25debug_tuple_field4_finish17h0d3e5556c4746667E
ffffff804001ac34 T _ZN4core3fmt9Formatter25debug_tuple_field5_finish17h0c7f816d563fa8bfE
ffffff804001afec T _ZN4core3fmt9Formatter25debug_tuple_fields_finish17h242e6785b207f2ceE
ffffff804001b278 T _ZN4core3fmt9Formatter10debug_list17he1c06b6d14f53c5cE
ffffff804001b2b8 T _ZN4core3fmt9Formatter9debug_set17hec4abfedff12eb7eE
ffffff804001b2f8 T _ZN4core3fmt9Formatter9debug_map17hac19a3d032d674a4E
ffffff804001b340 T _ZN57_$LT$core..fmt..Formatter$u20$as$u20$core..fmt..Write$GT$10write_char17h054d90f42b30bd8dE
ffffff804001b34c T _ZN55_$LT$core..fmt..Error$u20$as$u20$core..fmt..Display$GT$3fmt17hf07a471e6edc082fE
ffffff804001b360 T _ZN43_$LT$bool$u20$as$u20$core..fmt..Display$GT$3fmt17hc86c428d97417bd1E
ffffff804001b38c T _ZN40_$LT$str$u20$as$u20$core..fmt..Debug$GT$3fmt17h83ae035144d80c5cE
ffffff804001b6e4 T _ZN42_$LT$str$u20$as$u20$core..fmt..Display$GT$3fmt17h52d604f904601fd7E
ffffff804001b6f8 T _ZN41_$LT$char$u20$as$u20$core..fmt..Debug$GT$3fmt17h0cbcbd82441c127dE
ffffff804001b7d8 T _ZN43_$LT$char$u20$as$u20$core..fmt..Display$GT$3fmt17hc46af5979a954c8fE
ffffff804001b8e8 T _ZN4core3fmt17pointer_fmt_inner17h6b26a913378dc5beE
ffffff804001b9a4 t _ZN52_$LT$$BP$const$u20$T$u20$as$u20$core..fmt..Debug$GT$3fmt17h8ac4267254f3a644E
ffffff804001ba64 T _ZN62_$LT$core..task..wake..Context$u20$as$u20$core..fmt..Debug$GT$3fmt17h78e740d6b17ee6c5E
ffffff804001bb24 T _ZN60_$LT$core..task..wake..Waker$u20$as$u20$core..fmt..Debug$GT$3fmt17h34533d8e1b65785fE
ffffff804001bc04 T _ZN65_$LT$core..task..wake..LocalWaker$u20$as$u20$core..fmt..Debug$GT$3fmt17hb3189713680a1845E
ffffff804001bce4 T _ZN62_$LT$core..alloc..AllocError$u20$as$u20$core..fmt..Display$GT$3fmt17h101a1596d865eb98E
ffffff804001bd00 t _ZN42_$LT$$RF$T$u20$as$u20$core..fmt..Debug$GT$3fmt17h2201266034445aceE
ffffff804001bde0 t _ZN42_$LT$$RF$T$u20$as$u20$core..fmt..Debug$GT$3fmt17h3f0d77cb299eab2aE
ffffff804001bebc t _ZN42_$LT$$RF$T$u20$as$u20$core..fmt..Debug$GT$3fmt17h629eac1f9d9b6b3eE
ffffff804001bf98 t _ZN42_$LT$$RF$T$u20$as$u20$core..fmt..Debug$GT$3fmt17h7aec6e16e177995bE
ffffff804001bfac t _ZN42_$LT$$RF$T$u20$as$u20$core..fmt..Debug$GT$3fmt17hd26d693a6f23f1b0E
ffffff804001bfb8 t _ZN44_$LT$$RF$T$u20$as$u20$core..fmt..Display$GT$3fmt17h0dd058cd8114b3b4E
ffffff804001bfc8 t _ZN44_$LT$$RF$T$u20$as$u20$core..fmt..Display$GT$3fmt17hac5d90db4db18b74E
ffffff804001bfd0 t _ZN45_$LT$$RF$T$u20$as$u20$core..fmt..LowerHex$GT$3fmt17h4454af66fca36de4E
ffffff804001c050 T _ZN72_$LT$core..num..error..TryFromIntError$u20$as$u20$core..fmt..Display$GT$3fmt17h80310459151b8121E
ffffff804001c064 T _ZN70_$LT$core..num..error..ParseIntError$u20$as$u20$core..fmt..Display$GT$3fmt17h5c2d74278c8f2d36E
ffffff804001c08c t _ZN4core4iter8adapters3zip27TrustedRandomAccessNoCoerce4size17h1547dd47c4cc6b49E
ffffff804001c08c t _ZN4core4iter8adapters3zip27TrustedRandomAccessNoCoerce4size17h333970e2ec81a1ffE
ffffff804001c09c t _ZN4core4iter8adapters3zip27TrustedRandomAccessNoCoerce4size17h1bcf84ca59f627b4E
ffffff804001c09c t _ZN4core4iter8adapters3zip27TrustedRandomAccessNoCoerce4size17h414e2cea0a7aa82bE
ffffff804001c0a8 t _ZN4core4iter8adapters3zip27TrustedRandomAccessNoCoerce4size17hcefd31ea5bc5cc57E
ffffff804001c0a8 t _ZN4core4iter8adapters3zip27TrustedRandomAccessNoCoerce4size17hf17b479ff55a10acE
ffffff804001c0b8 t _ZN73_$LT$$u5b$A$u5d$$u20$as$u20$core..slice..cmp..SlicePartialEq$LT$B$GT$$GT$5equal17ha1194bc4b07a2d87E
ffffff804001c0ec t _ZN73_$LT$$u5b$A$u5d$$u20$as$u20$core..slice..cmp..SlicePartialEq$LT$B$GT$$GT$5equal17hf30d6ad74c839dedE
ffffff804001c120 T _ZN4core3fmt3num3imp51_$LT$impl$u20$core..fmt..Display$u20$for$u20$u8$GT$3fmt17h203f3f09cf1aaab9E
ffffff804001c1b8 T _ZN4core3fmt3num3imp51_$LT$impl$u20$core..fmt..Display$u20$for$u20$i8$GT$3fmt17ha15167c0ce8a97f7E
ffffff804001c26c T _ZN4core3fmt3num3imp20_$LT$impl$u20$u8$GT$4_fmt17h9d831356cc966289E
ffffff804001c2f0 T _ZN4core3fmt3num3imp52_$LT$impl$u20$core..fmt..Display$u20$for$u20$u16$GT$3fmt17h38aaf56cac13ca73E
ffffff804001c3e4 T _ZN4core3fmt3num3imp52_$LT$impl$u20$core..fmt..Display$u20$for$u20$i16$GT$3fmt17h5321b2d78ea0d13bE
ffffff804001c4f0 T _ZN4core3fmt3num3imp21_$LT$impl$u20$u16$GT$4_fmt17hd701a80928b078c4E
ffffff804001c5ec T _ZN4core3fmt3num3imp52_$LT$impl$u20$core..fmt..Display$u20$for$u20$u32$GT$3fmt17h46466a1c335e3724E
ffffff804001c714 T _ZN4core3fmt3num3imp52_$LT$impl$u20$core..fmt..Display$u20$for$u20$i32$GT$3fmt17h84d0dde988f75a0eE
ffffff804001c844 T _ZN4core3fmt3num3imp21_$LT$impl$u20$u32$GT$4_fmt17h20e6f9a1b0d635d5E
ffffff804001c93c T _ZN4core3fmt3num3imp52_$LT$impl$u20$core..fmt..Display$u20$for$u20$u64$GT$3fmt17h7d74709e8823309aE
ffffff804001c93c T _ZN4core3fmt3num3imp54_$LT$impl$u20$core..fmt..Display$u20$for$u20$usize$GT$3fmt17h7fc9b385b7eca7ffE
ffffff804001ca70 T _ZN4core3fmt3num3imp52_$LT$impl$u20$core..fmt..Display$u20$for$u20$i64$GT$3fmt17hf402b37bd4dc4ff3E
ffffff804001ca70 T _ZN4core3fmt3num3imp54_$LT$impl$u20$core..fmt..Display$u20$for$u20$isize$GT$3fmt17hc22d2ba697ce9a00E
ffffff804001cbac T _ZN4core3fmt3num3imp21_$LT$impl$u20$u64$GT$4_fmt17h252be1e5512358dcE
ffffff804001cbac T _ZN4core3fmt3num3imp23_$LT$impl$u20$usize$GT$4_fmt17h4d76a5758951d0caE
ffffff804001ccac t _ZN4core3fmt3num3imp7exp_u6417ha64a5ffd572b8ff6E
ffffff804001d118 T _ZN4core3fmt3num3imp52_$LT$impl$u20$core..fmt..LowerExp$u20$for$u20$i8$GT$3fmt17hbd51721ccb591741E
ffffff804001d138 T _ZN4core3fmt3num3imp52_$LT$impl$u20$core..fmt..LowerExp$u20$for$u20$u8$GT$3fmt17h4add5b6f1b2bfebaE
ffffff804001d14c T _ZN4core3fmt3num3imp53_$LT$impl$u20$core..fmt..LowerExp$u20$for$u20$i16$GT$3fmt17h726e8adb18f20b2fE
ffffff804001d16c T _ZN4core3fmt3num3imp53_$LT$impl$u20$core..fmt..LowerExp$u20$for$u20$u16$GT$3fmt17h7f09ad758930f012E
ffffff804001d180 T _ZN4core3fmt3num3imp53_$LT$impl$u20$core..fmt..LowerExp$u20$for$u20$i32$GT$3fmt17hf09c3879b8dadaccE
ffffff804001d1a4 T _ZN4core3fmt3num3imp53_$LT$impl$u20$core..fmt..LowerExp$u20$for$u20$u32$GT$3fmt17h071963c28fa894d4E
ffffff804001d1b8 T _ZN4core3fmt3num3imp53_$LT$impl$u20$core..fmt..LowerExp$u20$for$u20$i64$GT$3fmt17h2441663319afcef4E
ffffff804001d1b8 T _ZN4core3fmt3num3imp55_$LT$impl$u20$core..fmt..LowerExp$u20$for$u20$isize$GT$3fmt17hbb52190a8e3e6becE
ffffff804001d1d8 T _ZN4core3fmt3num3imp53_$LT$impl$u20$core..fmt..LowerExp$u20$for$u20$u64$GT$3fmt17h76e5bb8e2efcdc3aE
ffffff804001d1d8 T _ZN4core3fmt3num3imp55_$LT$impl$u20$core..fmt..LowerExp$u20$for$u20$usize$GT$3fmt17h7b64c6aeb7797c9eE
ffffff804001d1ec T _ZN4core3fmt3num3imp52_$LT$impl$u20$core..fmt..UpperExp$u20$for$u20$i8$GT$3fmt17h14e1eb0ab33cabe2E
ffffff804001d20c T _ZN4core3fmt3num3imp52_$LT$impl$u20$core..fmt..UpperExp$u20$for$u20$u8$GT$3fmt17hbcbac3f5cbb1d2d2E
ffffff804001d220 T _ZN4core3fmt3num3imp53_$LT$impl$u20$core..fmt..UpperExp$u20$for$u20$i16$GT$3fmt17h42515f658f3142adE
ffffff804001d240 T _ZN4core3fmt3num3imp53_$LT$impl$u20$core..fmt..UpperExp$u20$for$u20$u16$GT$3fmt17h8b655185b974ec2fE
ffffff804001d254 T _ZN4core3fmt3num3imp53_$LT$impl$u20$core..fmt..UpperExp$u20$for$u20$i32$GT$3fmt17h7fb6fd0a2f5b00f3E
ffffff804001d278 T _ZN4core3fmt3num3imp53_$LT$impl$u20$core..fmt..UpperExp$u20$for$u20$u32$GT$3fmt17h432beebba2bebe28E
ffffff804001d28c T _ZN4core3fmt3num3imp53_$LT$impl$u20$core..fmt..UpperExp$u20$for$u20$i64$GT$3fmt17h5dfb9028946a9d2fE
ffffff804001d28c T _ZN4core3fmt3num3imp55_$LT$impl$u20$core..fmt..UpperExp$u20$for$u20$isize$GT$3fmt17h0b0328a882e297dcE
ffffff804001d2ac T _ZN4core3fmt3num3imp53_$LT$impl$u20$core..fmt..UpperExp$u20$for$u20$u64$GT$3fmt17hf90fd0cee794c924E
ffffff804001d2ac T _ZN4core3fmt3num3imp55_$LT$impl$u20$core..fmt..UpperExp$u20$for$u20$usize$GT$3fmt17ha2f83a56deec8282E
ffffff804001d2c0 T _ZN4core7unicode12unicode_data11conversions8to_lower17hd761969c8a9a3d0eE
ffffff804001d43c T _ZN4core7unicode12unicode_data11conversions8to_upper17hc18cc2420e8ad9a4E
ffffff804001d5d4 T _ZN4core3num7dec2flt5parse12parse_number17h49683a0ed9d82919E
ffffff804001da08 t _ZN4core3num7dec2flt5parse13parse_inf_nan17h4c50857fb914d20cE
ffffff804001dab0 t _ZN4core3num7dec2flt5parse13parse_inf_nan17hc34b5e947ffe897eE
ffffff804001db50 t _ZN4core3num7dec2flt5parse13parse_inf_nan17hffb280f8cdc121c5E
ffffff804001dbf8 T _ZN68_$LT$core..ptr..alignment..Alignment$u20$as$u20$core..fmt..Debug$GT$3fmt17hbff3dc1cef22a338E
ffffff804001dc6c T _ZN64_$LT$core..ops..range..RangeFull$u20$as$u20$core..fmt..Debug$GT$3fmt17h46fd87bc894f6ccbE
ffffff804001dc88 t _ZN71_$LT$core..ops..range..Range$LT$Idx$GT$$u20$as$u20$core..fmt..Debug$GT$3fmt17h056ea10807982a4fE
ffffff804001de98 T _ZN105_$LT$dyn$u20$core..any..Any$u2b$core..marker..Sync$u2b$core..marker..Send$u20$as$u20$core..fmt..Debug$GT$3fmt17h9388eedaa0178301E
ffffff804001de98 T _ZN59_$LT$dyn$u20$core..any..Any$u20$as$u20$core..fmt..Debug$GT$3fmt17h08bebbea86cc37f7E
ffffff804001de98 T _ZN82_$LT$dyn$u20$core..any..Any$u2b$core..marker..Send$u20$as$u20$core..fmt..Debug$GT$3fmt17hb59c4c35c402321eE
ffffff804001def4 T _ZN54_$LT$core..any..TypeId$u20$as$u20$core..fmt..Debug$GT$3fmt17h405b5e1285de1a83E
ffffff804001df54 T _ZN72_$LT$core..io..borrowed_buf..BorrowedBuf$u20$as$u20$core..fmt..Debug$GT$3fmt17hb82bee6edc5259a3E
ffffff804001e058 T _ZN68_$LT$core..panic..location..Location$u20$as$u20$core..fmt..Debug$GT$3fmt17hcba71ddfdaefe0fcE
ffffff804001e160 T _ZN67_$LT$core..sync..atomic..AtomicBool$u20$as$u20$core..fmt..Debug$GT$3fmt17h4a21d6b15508712fE
ffffff804001e18c T _ZN57_$LT$core..time..Duration$u20$as$u20$core..fmt..Debug$GT$3fmt17h2f8c1e5f17895ac3E
ffffff804001e270 t _ZN57_$LT$core..time..Duration$u20$as$u20$core..fmt..Debug$GT$3fmt11fmt_decimal17hc0e5cda2d6add5e2E
ffffff804001e7e4 t _ZN57_$LT$core..time..Duration$u20$as$u20$core..fmt..Debug$GT$3fmt11fmt_decimal28_$u7b$$u7b$closure$u7d$$u7d$17h67462ab7d9f60982E
ffffff804001e9fc T _ZN72_$LT$core..time..TryFromFloatSecsError$u20$as$u20$core..fmt..Display$GT$3fmt17hbaf720288ca3215aE
ffffff804001ea30 t _ZN73_$LT$core..num..nonzero..NonZero$LT$T$GT$$u20$as$u20$core..fmt..Debug$GT$3fmt17hb7611846f46b6d8eE
ffffff804001eb0c T _ZN72_$LT$core..num..niche_types..Nanoseconds$u20$as$u20$core..fmt..Debug$GT$3fmt17h5536cadc1fd582ceE
ffffff804001ebec T _ZN75_$LT$core..num..niche_types..NonZeroU8Inner$u20$as$u20$core..fmt..Debug$GT$3fmt17h2dcafedb697dd210E
ffffff804001ed44 T _ZN76_$LT$core..num..niche_types..NonZeroU16Inner$u20$as$u20$core..fmt..Debug$GT$3fmt17h758bc8a09bab8914E
ffffff804001ee24 T _ZN76_$LT$core..num..niche_types..NonZeroU32Inner$u20$as$u20$core..fmt..Debug$GT$3fmt17hdf1287f7074f91c5E
ffffff804001ef04 T _ZN76_$LT$core..num..niche_types..NonZeroU64Inner$u20$as$u20$core..fmt..Debug$GT$3fmt17h840de688d47c5f7aE
ffffff804001efe0 T _ZN77_$LT$core..num..niche_types..NonZeroU128Inner$u20$as$u20$core..fmt..Debug$GT$3fmt17h6258eb8634cc1617E
ffffff804001f120 T _ZN75_$LT$core..num..niche_types..NonZeroI8Inner$u20$as$u20$core..fmt..Debug$GT$3fmt17he41dee6f9994d2caE
ffffff804001f284 T _ZN76_$LT$core..num..niche_types..NonZeroI16Inner$u20$as$u20$core..fmt..Debug$GT$3fmt17ha00c51200883416fE
ffffff804001f364 T _ZN76_$LT$core..num..niche_types..NonZeroI32Inner$u20$as$u20$core..fmt..Debug$GT$3fmt17hb2326e7c4856ad75E
ffffff804001f444 T _ZN76_$LT$core..num..niche_types..NonZeroI64Inner$u20$as$u20$core..fmt..Debug$GT$3fmt17h951a39a1eaa531c9E
ffffff804001f520 T _ZN77_$LT$core..num..niche_types..NonZeroI128Inner$u20$as$u20$core..fmt..Debug$GT$3fmt17h47be0316c0dbc1f6E
ffffff804001f680 T _ZN77_$LT$core..num..niche_types..NonZeroCharInner$u20$as$u20$core..fmt..Debug$GT$3fmt17h40fa54bbf454db45E
ffffff804001f69c T _ZN75_$LT$core..num..niche_types..UsizeNoHighBit$u20$as$u20$core..fmt..Debug$GT$3fmt17h1d2682ab53d5aa7dE
ffffff804001f778 T _ZN78_$LT$core..num..niche_types..NonZeroUsizeInner$u20$as$u20$core..fmt..Debug$GT$3fmt17h6f6fea42d36a9117E
ffffff804001f854 T _ZN78_$LT$core..num..niche_types..NonZeroIsizeInner$u20$as$u20$core..fmt..Debug$GT$3fmt17h948aca7ee778fab3E
ffffff804001f930 T _ZN74_$LT$core..num..niche_types..U32NotAllOnes$u20$as$u20$core..fmt..Debug$GT$3fmt17h89e6bdd9b5ea6593E
ffffff804001fa10 T _ZN74_$LT$core..num..niche_types..I32NotAllOnes$u20$as$u20$core..fmt..Debug$GT$3fmt17h7d21b6d1e4b276f0E
ffffff804001faf0 T _ZN74_$LT$core..num..niche_types..U64NotAllOnes$u20$as$u20$core..fmt..Debug$GT$3fmt17h3a7536abc6181c09E
ffffff804001fbcc T _ZN74_$LT$core..num..niche_types..I64NotAllOnes$u20$as$u20$core..fmt..Debug$GT$3fmt17h29a689e57d94905fE
ffffff804001fca8 T _ZN4core10intrinsics3mir11PtrMetadata19panic_cold_explicit17h659323b32f9d1a1bE
ffffff804001fca8 T _ZN4core10intrinsics3mir11StorageDead19panic_cold_explicit17hef5ed2d8f21a30deE
ffffff804001fca8 T _ZN4core10intrinsics3mir11StorageLive19panic_cold_explicit17h5593c5dbe624b1d1E
ffffff804001fca8 T _ZN4core10intrinsics3mir11Unreachable19panic_cold_explicit17h149d16efa3a8fa8aE
ffffff804001fca8 T _ZN4core10intrinsics3mir11__debuginfo19panic_cold_explicit17h4b6a6f9ae4e1ebacE
ffffff804001fca8 T _ZN4core10intrinsics3mir12CastPtrToPtr19panic_cold_explicit17he3b7ad5e90b2da27E
ffffff804001fca8 T _ZN4core10intrinsics3mir12CopyForDeref19panic_cold_explicit17h913870403d5d91e9E
ffffff804001fca8 T _ZN4core10intrinsics3mir12Discriminant19panic_cold_explicit17h98d864204ae775f7E
ffffff804001fca8 T _ZN4core10intrinsics3mir12UnwindResume19panic_cold_explicit17h312b138a42b0154eE
ffffff804001fca8 T _ZN4core10intrinsics3mir13CastTransmute19panic_cold_explicit17h048361d976f2a94fE
ffffff804001fca8 T _ZN4core10intrinsics3mir13UnwindCleanup19panic_cold_explicit17h66af3f59dc0149e6E
ffffff804001fca8 T _ZN4core10intrinsics3mir14UnwindContinue19panic_cold_explicit17h53ad3d4fece25226E
ffffff804001fca8 T _ZN4core10intrinsics3mir15SetDiscriminant19panic_cold_explicit17h6ecbcc6bb73e9726E
ffffff804001fca8 T _ZN4core10intrinsics3mir15UnwindTerminate19panic_cold_explicit17h55c01c51f10e3cacE
ffffff804001fca8 T _ZN4core10intrinsics3mir17UnwindUnreachable19panic_cold_explicit17h5ff452fa0b06223fE
ffffff804001fca8 T _ZN4core10intrinsics3mir21__internal_make_place19panic_cold_explicit17h59b861003a27fb5bE
ffffff804001fca8 T _ZN4core10intrinsics3mir3Len19panic_cold_explicit17hbfcb1148289e0ac4E
ffffff804001fca8 T _ZN4core10intrinsics3mir4Call19panic_cold_explicit17h92145776e92c81e7E
ffffff804001fca8 T _ZN4core10intrinsics3mir4Drop19panic_cold_explicit17h811eef2a28050e7cE
ffffff804001fca8 T _ZN4core10intrinsics3mir4Goto19panic_cold_explicit17h7d1df6eda4aae280E
ffffff804001fca8 T _ZN4core10intrinsics3mir4Move19panic_cold_explicit17hae9b90caf579ec08E
ffffff804001fca8 T _ZN4core10intrinsics3mir5Field19panic_cold_explicit17hc63d62e9daf41eeaE
ffffff804001fca8 T _ZN4core10intrinsics3mir5Retag19panic_cold_explicit17h1c8be4717e8cb316E
ffffff804001fca8 T _ZN4core10intrinsics3mir6Assume19panic_cold_explicit17ha67d3407101553a4E
ffffff804001fca8 T _ZN4core10intrinsics3mir6Deinit19panic_cold_explicit17hda081a8398ac048cE
ffffff804001fca8 T _ZN4core10intrinsics3mir6Offset19panic_cold_explicit17heb29f8ed3dd2d658E
ffffff804001fca8 T _ZN4core10intrinsics3mir6Return19panic_cold_explicit17h690f7a78e55bac5fE
ffffff804001fca8 T _ZN4core10intrinsics3mir6Static19panic_cold_explicit17h305fecc18acf73f7E
ffffff804001fca8 T _ZN4core10intrinsics3mir7Checked19panic_cold_explicit17h3c6cd576352c767fE
ffffff804001fca8 T _ZN4core10intrinsics3mir7Variant19panic_cold_explicit17h7803e5fbc011581bE
ffffff804001fca8 T _ZN4core10intrinsics3mir8ReturnTo19panic_cold_explicit17he802596b5dd56439E
ffffff804001fca8 T _ZN4core10intrinsics3mir8TailCall19panic_cold_explicit17hfac3cb4c141aef65E
ffffff804001fca8 T _ZN4core10intrinsics3mir9StaticMut19panic_cold_explicit17h15a855def189a0d2E
ffffff804001fcac T _ZN4core4char7methods15encode_utf8_raw8do_panic7runtime17hd0dd471f5f6b9ddaE
ffffff804001fd10 T _ZN4core4char7methods16encode_utf16_raw8do_panic7runtime17h249d488943f54584E
ffffff804001fd74 T _ZN65_$LT$core..sync..atomic..AtomicI8$u20$as$u20$core..fmt..Debug$GT$3fmt17h0faefe0435c29a60E
ffffff804001fef0 T _ZN65_$LT$core..sync..atomic..AtomicU8$u20$as$u20$core..fmt..Debug$GT$3fmt17h87babf68a8f74556E
ffffff8040020050 T _ZN66_$LT$core..sync..atomic..AtomicI16$u20$as$u20$core..fmt..Debug$GT$3fmt17h0e67f80a889aeed8E
ffffff8040020130 T _ZN66_$LT$core..sync..atomic..AtomicU16$u20$as$u20$core..fmt..Debug$GT$3fmt17h9b5eb926671c1337E
ffffff8040020210 T _ZN66_$LT$core..sync..atomic..AtomicI32$u20$as$u20$core..fmt..Debug$GT$3fmt17h2b94979e64a4c47eE
ffffff80400202f0 T _ZN66_$LT$core..sync..atomic..AtomicU32$u20$as$u20$core..fmt..Debug$GT$3fmt17h81538a859587541cE
ffffff80400203d0 T _ZN66_$LT$core..sync..atomic..AtomicI64$u20$as$u20$core..fmt..Debug$GT$3fmt17hbb0d51e2619c45c2E
ffffff80400204ac T _ZN66_$LT$core..sync..atomic..AtomicU64$u20$as$u20$core..fmt..Debug$GT$3fmt17hf67ddfa0af0d7820E
ffffff8040020588 T _ZN68_$LT$core..sync..atomic..AtomicIsize$u20$as$u20$core..fmt..Debug$GT$3fmt17he49a7284d687ff19E
ffffff8040020664 T _ZN68_$LT$core..sync..atomic..AtomicUsize$u20$as$u20$core..fmt..Debug$GT$3fmt17h0cf54a2461482240E
ffffff8040020740 t _ZN4core3fmt3num50_$LT$impl$u20$core..fmt..Debug$u20$for$u20$u32$GT$3fmt17h5395654cbd185a50E
ffffff8040020818 t _ZN4core3fmt3num52_$LT$impl$u20$core..fmt..Debug$u20$for$u20$usize$GT$3fmt17hc488ff183fbf9039E
ffffff80400208f0 T _ZN4core7unicode12unicode_data2cc6lookup17h0932df6730377646E
ffffff8040020908 T _ZN74_$LT$core..num..dec2flt..ParseFloatError$u20$as$u20$core..fmt..Display$GT$3fmt17hf658e472e263e07fE
ffffff804002093c T _ZN4core3num7flt2dec8strategy6dragon9mul_pow1017hd7560b99b22a1ee6E
ffffff8040020da0 T _ZN4core3num7flt2dec8strategy6dragon15format_shortest17h5738afcda1c552f4E
ffffff80400219ac T _ZN4core3num7flt2dec8strategy6dragon12format_exact17h6e93a7c9ee10a4e3E
ffffff8040022440 T _ZN4core3num22from_ascii_radix_panic17he0d517773d00e63eE
ffffff8040022444 T _ZN62_$LT$core..cell..BorrowError$u20$as$u20$core..fmt..Display$GT$3fmt17hc9d71bbe7d1e7debE
ffffff8040022458 T _ZN65_$LT$core..cell..BorrowMutError$u20$as$u20$core..fmt..Display$GT$3fmt17hf238c54e9681606aE
ffffff804002246c T _ZN4core4cell22panic_already_borrowed17hda513c0a1fdee4e3E
ffffff8040022470 T _ZN4core4cell30panic_already_mutably_borrowed17hba4876dcabe51922E
ffffff8040022474 T _ZN4core3str5count14do_count_chars17hb18de398d4893e9dE
ffffff8040022a78 T _ZN4core3str5count23char_count_general_case17h2b81ae953cc46e65E
ffffff8040022d2c T _ZN4core3num7dec2flt60_$LT$impl$u20$core..str..traits..FromStr$u20$for$u20$f16$GT$8from_str17hed62222fedf5b8bcE
ffffff8040022fa8 T _ZN4core3num7dec2flt60_$LT$impl$u20$core..str..traits..FromStr$u20$for$u20$f32$GT$8from_str17h43f729cac0a63513E
ffffff80400231f4 T _ZN4core3num7dec2flt60_$LT$impl$u20$core..str..traits..FromStr$u20$for$u20$f64$GT$8from_str17ha3651b321093a9f2E
ffffff8040023410 T _ZN4core3num22from_ascii_radix_panic8do_panic7runtime17hfa4e4bf3255ac05eE
ffffff804002344c T _ZN4core4cell22panic_already_borrowed8do_panic7runtime17h85de1243d1816ab1E
ffffff8040023488 T _ZN4core4cell30panic_already_mutably_borrowed8do_panic7runtime17h80c7163974c50badE
ffffff80400234c4 T _ZN4core7unicode12unicode_data5cased6lookup17h73ee686a156eedbaE
ffffff80400235b8 t _ZN17compiler_builtins5float3add3add17h80c5887c21eaebbbE
ffffff80400239a8 t _ZN17compiler_builtins5float3add8__addsf317h3bfa5cccba6372c1E
ffffff8040023bdc t _ZN17compiler_builtins5float3add8__adddf317h53f066cffb9b1581E
ffffff8040023e18 t __letf2
ffffff8040023eb4 t __floatunsidf
ffffff8040023eec t __floatundidf
ffffff8040023f2c t __floatunsitf
ffffff8040023f6c t __floattisf
ffffff8040024010 t __floattidf
ffffff80400240a4 t __powisf2
ffffff80400240f0 t __trunctfdf2
ffffff80400242a0 t __rust_u128_subo
ffffff80400242c4 t __modsi3
ffffff80400242c8 t __divmoddi4
ffffff80400242cc t __ashldi3
ffffff8040024304 t _ZN17compiler_builtins3int14trailing_zeros8__ctzsi217h1823ba035ad8adfbE
ffffff804002437c t _ZN17compiler_builtins3int14trailing_zeros8__ctzdi217h5619f42a16563f31E
ffffff8040024408 t _ZN17compiler_builtins3int14trailing_zeros8__ctzti217h7c7b0f6e071d7d9fE
ffffff8040024528 t _ZN17compiler_builtins3int4udiv9__udivsi317h66667e997cab317eE
ffffff80400245e0 t _ZN17compiler_builtins3int4udiv9__umodsi317hef407e57f3c72c12E
ffffff8040024668 t _ZN17compiler_builtins3int4udiv12__udivmodsi417h39d13fb55e63f040E
ffffff8040024740 t _ZN17compiler_builtins3int4udiv9__udivdi317hf04dea4723c8a4a8E
ffffff8040024800 t _ZN17compiler_builtins3int4udiv9__umoddi317h93014fbfbdd17ce4E
ffffff804002488c t _ZN17compiler_builtins3int4udiv12__udivmoddi417h462442b68cf939e2E
ffffff8040024968 t _ZN17compiler_builtins3int4udiv9__udivti317h7e926ded5e210209E
ffffff8040024988 t _ZN17compiler_builtins3int4udiv9__umodti317hf191ce397e70ae20E
ffffff80400249a8 t _ZN17compiler_builtins3int4udiv12__udivmodti417h9fe1b206a406366cE
ffffff80400249d8 t _ZN17compiler_builtins4math9libm_math5exp2f5exp2f17h96b50599b9358ad3E
ffffff8040024b34 t _ZN17compiler_builtins4math9libm_math9fmin_fmax5fminf17hc251c86566a79167E
ffffff8040024b44 t _ZN17compiler_builtins4math9libm_math9fmin_fmax4fmin17h652d8a4854df5d12E
ffffff8040024b54 t _ZN17compiler_builtins4math9libm_math9fmin_fmax5fmaxf17h7a47367521276a8fE
ffffff8040024b64 t _ZN17compiler_builtins4math9libm_math9fmin_fmax4fmax17h60ad52efaf217fddE
ffffff8040024b74 t _ZN17compiler_builtins4math9libm_math17fminimum_fmaximum8fminimum17h7cce3f5228f8ca50E
ffffff8040024bb4 t _ZN17compiler_builtins4math9libm_math17fminimum_fmaximum9fminimumf17h36e7ce20a49c59ecE
ffffff8040024bf4 t _ZN17compiler_builtins4math9libm_math17fminimum_fmaximum9fmaximumf17h0d82acd9624e4341E
ffffff8040024c34 t _ZN17compiler_builtins4math9libm_math17fminimum_fmaximum8fmaximum17hc994de75da7d76f8E
ffffff8040024c74 t fmaxf
ffffff8040024c84 t sqrt
ffffff8040024c8c t erf
ffffff8040024ddc t exp2
ffffff8040024de0 t memcpy
ffffff8040024f40 t _ZN17compiler_builtins5float6extend6extend17h1900534306d4de08E
ffffff8040024fd4 t _ZN17compiler_builtins5float6extend6extend17h71d854f6c3f73a77E
ffffff80400250a4 t _ZN17compiler_builtins5float6extend6extend17h8e2f1eece462d116E
ffffff8040025170 t _ZN17compiler_builtins5float6extend6extend17ha4c2718ef9010e77E
ffffff804002522c t __adddf3
ffffff8040025230 t __ltdf2
ffffff8040025298 t __floatuntitf
ffffff8040025324 t __floatditf
ffffff8040025390 t __fixtfti
ffffff8040025448 t _ZN17compiler_builtins5float6extend13__extendsfdf217h501ad517172a07a8E
ffffff80400254dc t __extenddftf2
ffffff80400255b4 t __multi3
ffffff80400255f8 t __ashrti3
ffffff8040025630 t __udivmoddi4
ffffff804002570c t __umodti3
ffffff804002572c t _ZN17compiler_builtins4math9libm_math8k_expo2f8k_expo2f17h60cc428b65b1af82E
ffffff8040025758 t _ZN17compiler_builtins4math9libm_math5k_tan5k_tan17h3134b06b1dac57d8E.llvm.3034387368489957438
ffffff8040025918 t _ZN17compiler_builtins4math9libm_math4asin4asin17hfbf9801d7758f3b9E
ffffff8040025b64 t _ZN17compiler_builtins4math9libm_math5asinf5asinf17h16c407ead03f8a46E
ffffff8040025cd4 t _ZN17compiler_builtins4math9libm_math4ceil5ceilf17he541ecdc38907a21E
ffffff8040025d3c t _ZN17compiler_builtins4math9libm_math4ceil4ceil17hf6396c1da9eb93ddE
ffffff8040025da8 t _ZN17compiler_builtins4math9libm_math4fmod5fmodf17h4a928d8354aaf705E
ffffff8040025e78 t _ZN17compiler_builtins4math9libm_math4fmod4fmod17h9adb6bbf4a973427E
ffffff8040025f4c t _ZN17compiler_builtins4math9libm_math3tan3tan17hf38ed23cdc2f0f62E
ffffff8040026128 t _ZN17compiler_builtins4math9libm_math5tanhf5tanhf17he303010679fcb5eaE
ffffff804002620c t _ZN17compiler_builtins4math9libm_math5trunc6truncf17hffcc05d409668773E
ffffff8040026244 t _ZN17compiler_builtins4math9libm_math5trunc5trunc17hb58af07b968ea28dE
ffffff804002627c t fmodf16
ffffff804002637c t rintf
ffffff8040026384 t asin
ffffff8040026388 t atanf
ffffff804002638c t log1pf
ffffff8040026390 t sin
ffffff8040026394 t memmove
ffffff8040026398 t __eqsf2
ffffff8040026400 t __gtdf2
ffffff804002645c t __floatsitf
ffffff80400264b4 t __divdf3
ffffff80400264b8 t __extendhftf2
ffffff8040026588 t __rust_i128_addo
ffffff80400265b8 t __rust_u128_add
ffffff80400265c4 t __bswapti2
ffffff80400265d4 t __modti3
ffffff8040026644 t _ZN17compiler_builtins4math9libm_math9rem_pio2f9rem_pio2f17h2b7c701db357a80bE
ffffff8040026738 t _ZN17compiler_builtins4math9libm_math3exp3exp17h82f702f2ef6d5c71E
ffffff804002699c t _ZN17compiler_builtins4math9libm_math5expm15expm117h3a8be4ff2cd9433cE
ffffff8040026c6c t _ZN17compiler_builtins4math9libm_math6expm1f6expm1f17h0c2381f4a0592f2bE
ffffff8040026f2c t _ZN17compiler_builtins4math9libm_math6scalbn7scalbnf17h9d35d32380362cefE
ffffff8040026ff4 t _ZN17compiler_builtins4math9libm_math6scalbn6scalbn17h47ac6bd27cfbb2f8E
ffffff80400270b4 t fma
ffffff80400270bc t rint
ffffff80400270c4 t fmaf128
ffffff8040027860 t fminimumf128
ffffff80400278e0 t fmodf128
ffffff8040027a6c t truncf128
ffffff8040027af0 t exp
ffffff8040027af4 t exp2f
ffffff8040027c50 t log
ffffff8040027c54 t tanf
ffffff8040027c58 t lgammaf_r
ffffff8040027c5c t _ZN17compiler_builtins5float3div3div17h781a12718b6880f4E
ffffff8040028280 t _ZN17compiler_builtins5float3div8__divsf317he627844f9516602aE
ffffff8040028488 t _ZN17compiler_builtins5float3div8__divdf317hdf17110f47424a34E
ffffff80400286c0 t _ZN84_$LT$compiler_builtins..int..big..u256$u20$as$u20$core..ops..bit..Shr$LT$u32$GT$$GT$3shr17h5f16ee2c8af3bf1eE
ffffff80400287d4 t _ZN17compiler_builtins3int3big71_$LT$impl$u20$compiler_builtins..int..traits..HInt$u20$for$u20$i128$GT$14zero_widen_mul17hd07544e5063ec108E
ffffff80400287d4 t _ZN17compiler_builtins3int3big71_$LT$impl$u20$compiler_builtins..int..traits..HInt$u20$for$u20$u128$GT$14zero_widen_mul17hf134baa0d5a7dd8bE
ffffff80400287d4 t _ZN17compiler_builtins3int3big71_$LT$impl$u20$compiler_builtins..int..traits..HInt$u20$for$u20$u128$GT$9widen_mul17hc2678a4fabd51ac8E
ffffff80400288cc t _ZN17compiler_builtins3int3big71_$LT$impl$u20$compiler_builtins..int..traits..HInt$u20$for$u20$i128$GT$9widen_mul17h87ad70b8d2a13504E
ffffff80400288d0 t _ZN17compiler_builtins3int3big71_$LT$impl$u20$compiler_builtins..int..traits..HInt$u20$for$u20$i128$GT$8widen_hi17hbdb1e7f089e93eb2E
ffffff80400288d0 t _ZN17compiler_builtins3int3big71_$LT$impl$u20$compiler_builtins..int..traits..HInt$u20$for$u20$u128$GT$8widen_hi17h8cac6011513a0ffbE
ffffff80400288d4 t _ZN90_$LT$compiler_builtins..int..big..i256$u20$as$u20$compiler_builtins..int..traits..DInt$GT$2lo17he47ab6d728fab3b0E
ffffff80400288d4 t _ZN90_$LT$compiler_builtins..int..big..u256$u20$as$u20$compiler_builtins..int..traits..DInt$GT$2lo17h9a5c0426b4bdbd93E
ffffff80400288e0 t _ZN90_$LT$compiler_builtins..int..big..i256$u20$as$u20$compiler_builtins..int..traits..DInt$GT$2hi17h98b70f67f308c56bE
ffffff80400288e0 t _ZN90_$LT$compiler_builtins..int..big..u256$u20$as$u20$compiler_builtins..int..traits..DInt$GT$2hi17hdc898e21eb67158bE
ffffff80400288ec t _ZN17compiler_builtins3int6traits4DInt5lo_hi17hee6af8a2286f8ec8E
ffffff8040028900 t __floatuntidf
ffffff804002897c t __floatdidf
ffffff80400289d4 t __fixunstfdi
ffffff8040028a3c t __divtf3
ffffff8040028a40 t __powidf2
ffffff8040028a8c t __subsf3
ffffff8040028a94 t _ZN63_$LT$f16$u20$as$u20$compiler_builtins..float..traits..Float$GT$9normalize17h3b3074e6f2b1a012E
ffffff8040028abc t _ZN63_$LT$f32$u20$as$u20$compiler_builtins..float..traits..Float$GT$9normalize17h8d27687060b26765E
ffffff8040028ad4 t _ZN63_$LT$f64$u20$as$u20$compiler_builtins..float..traits..Float$GT$9normalize17he3b4541352844a75E
ffffff8040028aec t _ZN64_$LT$f128$u20$as$u20$compiler_builtins..float..traits..Float$GT$9normalize17h4fe17874feee6dffE
ffffff8040028b40 t _ZN84_$LT$compiler_builtins..int..big..i256$u20$as$u20$core..ops..bit..Shl$LT$u32$GT$$GT$3shl17h2de698360474983aE
ffffff8040028b40 t _ZN84_$LT$compiler_builtins..int..big..u256$u20$as$u20$core..ops..bit..Shl$LT$u32$GT$$GT$3shl17h2ecc19ca84595838E
ffffff8040028b44 t __clzdi2
ffffff8040028bc0 t __muldi3
ffffff8040028c04 t __ashlsi3
ffffff8040028c50 t __udivdi3
ffffff8040028d10 t _ZN17compiler_builtins4math9libm_math5coshf5coshf17h09a16dca9b58985cE
ffffff8040028dd4 t _ZN17compiler_builtins4math9libm_math4erff5erfc217h4cb02dffa1480242E.llvm.15134668177444113121
ffffff8040029130 t _ZN17compiler_builtins4math9libm_math4erff4erff17h6edf6aa85b95829fE
ffffff8040029130 t erff
ffffff8040029288 t _ZN17compiler_builtins4math9libm_math4erff5erfcf17h795481a4ed057346E
ffffff8040029434 t _ZN17compiler_builtins4math9libm_math3log3log17hc4e3234e46535319E
ffffff8040029598 t _ZN17compiler_builtins4math9libm_math3pow3pow17hbe1850110ec84b40E
ffffff8040029dd4 t fabsf
ffffff8040029ddc t round
ffffff8040029e2c t cosf
ffffff8040029e30 t log2
ffffff8040029e34 t sinhf
ffffff8040029f0c t _ZN17compiler_builtins3int13leading_zeros14implementation21leading_zeros_default17ha05afda78e76e95eE
ffffff8040029f74 t _ZN17compiler_builtins3int13leading_zeros14implementation21leading_zeros_default17hdf482be0c9672ed1E
ffffff8040029ff0 t _ZN17compiler_builtins3int14trailing_zeros14implementation14trailing_zeros17h6dc1105f33fd6132E
ffffff804002a068 t _ZN17compiler_builtins3int14trailing_zeros14implementation14trailing_zeros17hef23e4080ae30e5aE
ffffff804002a0f4 t __lesf2
ffffff804002a15c t __floatundisf
ffffff804002a1a0 t __floatsidf
ffffff804002a1ec t __fixunstfti
ffffff804002a284 t __fixsfsi
ffffff804002a2e8 t __extendhfdf2
ffffff804002a3a4 t _ZN17compiler_builtins5float3mul8__mulsf317h162e0aa60d740039E
ffffff804002a554 t __mulsf3
ffffff804002a558 t _ZN17compiler_builtins5float3mul8__muldf317h5df549c49a70cee0E
ffffff804002a704 t __multf3
ffffff804002abd0 t __subtf3
ffffff804002abe8 t __rust_i128_subo
ffffff804002ac18 t __clzti2
ffffff804002ac1c t __divdi3
ffffff804002ac58 t __umodsi3
ffffff804002ace0 t _ZN17compiler_builtins4math9libm_math6atan2f6atan2f17h49940a232a313d11E
ffffff804002ae68 t _ZN17compiler_builtins4math9libm_math5atanf5atanf17h0e1eaba0698c7a5fE
ffffff804002b020 t fminf16
ffffff804002b038 t fmodf
ffffff804002b108 t fabs
ffffff804002b110 t fmin
ffffff804002b120 t asinf
ffffff804002b290 t _ZN17compiler_builtins5float5trunc5trunc17h650c50caf0e697b4E
ffffff804002b468 t _ZN17compiler_builtins5float5trunc5trunc17h98fd71c05a5bf4f0E
ffffff804002b618 t _ZN17compiler_builtins5float5trunc5trunc17hb74b56004b19f8a7E
ffffff804002b758 t _ZN17compiler_builtins5float5trunc5trunc17hf409bdda54896b22E
ffffff804002b860 t __nedf2
ffffff804002b8c8 t __fixunsdfsi
ffffff804002b914 t __fixunstfsi
ffffff804002b978 t __extendsfdf2
ffffff804002ba0c t _ZN17compiler_builtins5float5trunc12__truncdfsf217h78224e224426e47cE
ffffff804002bb60 t __trunctfhf2
ffffff804002bd30 t _ZN17compiler_builtins3int6addsub15__rust_i128_add17h1dd58f0ed5857494E
ffffff804002bd30 t _ZN17compiler_builtins3int6addsub15__rust_u128_add17hdcaa4f6d8eacbcd8E
ffffff804002bd3c t _ZN17compiler_builtins3int6addsub16__rust_i128_addo17h2a18ac2f5a120b4bE
ffffff804002bd6c t _ZN17compiler_builtins3int6addsub16__rust_u128_addo17hc57c0b1688532008E
ffffff804002bd90 t _ZN17compiler_builtins3int6addsub15__rust_i128_sub17h88dfa894efbe8b41E
ffffff804002bd90 t _ZN17compiler_builtins3int6addsub15__rust_u128_sub17he2617a7be10a47ebE
ffffff804002bd9c t _ZN17compiler_builtins3int6addsub16__rust_i128_subo17h1d14590905276433E
ffffff804002bdcc t _ZN17compiler_builtins3int6addsub16__rust_u128_subo17he97dce9d830e685eE
ffffff804002bdf0 t __divmodsi4
ffffff804002bdf4 t __udivsi3
ffffff804002beac t _ZN17compiler_builtins4math9libm_math7k_expo27k_expo217hcd50fafa03635eddE
ffffff804002bed8 t _ZN17compiler_builtins4math9libm_math4atan4atan17h9703dc1f524a94c9E
ffffff804002c0dc t _ZN17compiler_builtins4math9libm_math4tanf4tanf17h65769979d943097dE
ffffff804002c4a8 t fabsf16
ffffff804002c4b8 t floorf
ffffff804002c52c t fminf
ffffff804002c53c t copysign
ffffff804002c54c t trunc
ffffff804002c584 t fmaxf128
ffffff804002c5c8 t acos
ffffff804002c5cc t erfc
ffffff804002c5d0 t hypotf
ffffff804002c69c t tanh
ffffff804002c788 t __unordtf2
ffffff804002c7d0 t __floatdisf
ffffff804002c828 t __truncdfhf2
ffffff804002c968 t __trunctfsf2
ffffff804002cb40 t __rust_i128_add
ffffff804002cb4c t __divti3
ffffff804002cbbc t __lshrti3
ffffff804002cbf0 t __ctzsi2
ffffff804002cc68 t _ZN17compiler_builtins4math9libm_math7support3big96_$LT$impl$u20$compiler_builtins..math..libm_math..support..int_traits..HInt$u20$for$u20$i128$GT$14zero_widen_mul17hca0dd9548fdecd5eE
ffffff804002cc68 t _ZN17compiler_builtins4math9libm_math7support3big96_$LT$impl$u20$compiler_builtins..math..libm_math..support..int_traits..HInt$u20$for$u20$u128$GT$9widen_mul17h3b04d6bde432b5deE
ffffff804002ccb4 t _ZN17compiler_builtins4math9libm_math7support3big96_$LT$impl$u20$compiler_builtins..math..libm_math..support..int_traits..HInt$u20$for$u20$i128$GT$9widen_mul17hd1be369c2d656cefE
ffffff804002ccb8 t _ZN17compiler_builtins4math9libm_math7support3big96_$LT$impl$u20$compiler_builtins..math..libm_math..support..int_traits..HInt$u20$for$u20$i128$GT$8widen_hi17haccc669e0796e1b3E
ffffff804002ccb8 t _ZN17compiler_builtins4math9libm_math7support3big96_$LT$impl$u20$compiler_builtins..math..libm_math..support..int_traits..HInt$u20$for$u20$u128$GT$8widen_hi17hee019b55142385acE
ffffff804002ccbc t _ZN17compiler_builtins4math9libm_math7support10int_traits4DInt5lo_hi17h4a2574d09e6e76f7E
ffffff804002ccc8 t _ZN17compiler_builtins4math9libm_math5expo25expo217h7feb64c17c9615a5E
ffffff804002ccf4 t _ZN17compiler_builtins4math9libm_math8copysign9copysignf17h70874db2e2fa1694E
ffffff804002cd00 t _ZN17compiler_builtins4math9libm_math8copysign8copysign17hf2af6e06f78f0ad1E
ffffff804002cd10 t _ZN17compiler_builtins4math9libm_math4exp24exp217h85a6d8950e148ce6E
ffffff804002cf68 t _ZN17compiler_builtins4math9libm_math4log24log217hce70c1b68c793514E
ffffff804002d100 t _ZN105_$LT$compiler_builtins..math..libm_math..support..big..i256$u20$as$u20$core..ops..bit..Shl$LT$u32$GT$$GT$3shl17h4f1610c1b6aae154E
ffffff804002d100 t _ZN105_$LT$compiler_builtins..math..libm_math..support..big..u256$u20$as$u20$core..ops..bit..Shl$LT$u32$GT$$GT$3shl17h0bca5b3ff74649b1E
ffffff804002d104 t _ZN17compiler_builtins4math9libm_math7generic3fma13Norm$LT$F$GT$10from_float17h2c89716279e0bac5E
ffffff804002d194 t _ZN17compiler_builtins4math9libm_math7generic4fmod12into_sig_exp17h4474115f7abfe976E
ffffff804002d1bc t _ZN17compiler_builtins4math9libm_math7generic4fmod12into_sig_exp17hb4541b4de9a9c54dE
ffffff804002d1d8 t _ZN17compiler_builtins4math9libm_math7generic4fmod12into_sig_exp17hc6f76c4816bf5b58E
ffffff804002d1f4 t _ZN17compiler_builtins4math9libm_math7generic4fmod12into_sig_exp17hfa81473945eb2feeE
ffffff804002d214 t _ZN17compiler_builtins4math9libm_math7generic4fmod9reduction17h1feb4f9eabe84948E
ffffff804002d244 t _ZN17compiler_builtins4math9libm_math7generic4fmod9reduction17h4c28a4c7b2f237f6E
ffffff804002d2a8 t _ZN17compiler_builtins4math9libm_math7generic4fmod9reduction17hbfeedfaaa511a0a9E
ffffff804002d2d8 t _ZN17compiler_builtins4math9libm_math7generic4fmod9reduction17hdd0d34644c0d4564E
ffffff804002d318 t ceilf16
ffffff804002d38c t copysignf16
ffffff804002d3a4 t roundevenf16
ffffff804002d420 t roundf16
ffffff804002d478 t fmaximumf
ffffff804002d4b8 t ceilf128
ffffff804002d5a4 t copysignf128
ffffff804002d5c0 t fdimf128
ffffff804002d608 t floorf128
ffffff804002d718 t fminf128
ffffff804002d75c t rintf128
ffffff804002d75c t roundevenf128
ffffff804002d804 t roundf128
ffffff804002d8b4 t sqrtf128
ffffff804002dae0 t atan
ffffff804002dae4 t expm1
ffffff804002dae8 t ldexpf
ffffff804002dbb0 t log10
ffffff804002dbb4 t pow
ffffff804002dbb8 t strlen
ffffff804002dbe4 t __floatunditf
ffffff804002dc38 t __extendsftf2
ffffff804002dd04 t __powitf2
ffffff804002ddb8 t __rust_u128_sub
ffffff804002ddc4 t __mulosi4
ffffff804002de7c t __ctzdi2
ffffff804002df08 t __ctzti2
ffffff804002df0c t __udivti3
ffffff804002df2c t _ZN17compiler_builtins4math9libm_math3cos3cos17h5244504aa7d6bc92E
ffffff804002e2c0 t _ZN17compiler_builtins4math9libm_math4cosh4cosh17h4c57a32f431d71bcE
ffffff804002e384 t _ZN17compiler_builtins4math9libm_math8lgamma_r8lgamma_r17h03a9d17ee6a32043E
ffffff804002ec3c t _ZN17compiler_builtins4math9libm_math5log2f5log2f17h9436e5e94add5a20E
ffffff804002ed78 t _ZN17compiler_builtins4math9libm_math3sin3sin17h093f0eb19ae8fff9E
ffffff804002f0e0 t _ZN17compiler_builtins4math9libm_math4sinf4sinf17hf267012ac0079e49E
ffffff804002f4b4 t _ZN17compiler_builtins4math9libm_math6tgamma6tgamma17h0090a872c5a03318E
ffffff804002fb50 t fminimumf16
ffffff804002fbbc t copysignf
ffffff804002fbc8 t fmod
ffffff804002fc9c t coshf
ffffff804002fd60 t expm1f
ffffff804002fd64 t sinf
ffffff804002fd68 t tan
ffffff804002fd6c t tgammaf
ffffff804002fd84 t __gesf2
ffffff804002fde0 t __eqtf2
ffffff804002fe7c t __fixunssfsi
ffffff804002fec8 t __fixtfdi
ffffff804002ff44 t __extendhfsf2
ffffff804002ffd8 t __truncsfhf2
ffffff80400300e0 t _ZN17compiler_builtins3int19specialized_div_rem12u128_div_rem17hff30fff2094f1cf2E
ffffff80400303e0 t _ZN17compiler_builtins3int19specialized_div_rem11u64_div_rem17h93a0ebdf78e6a15dE
ffffff80400304b8 t _ZN17compiler_builtins3int19specialized_div_rem11u32_div_rem17haa177124b1993c4fE
ffffff804003058c t _ZN17compiler_builtins3int13leading_zeros8__clzsi217h6e4c76bafd186626E
ffffff80400305f4 t _ZN17compiler_builtins3int13leading_zeros8__clzdi217hb4de76106203f31bE
ffffff8040030670 t _ZN17compiler_builtins3int13leading_zeros8__clzti217hcc68b3838cbccbfeE
ffffff8040030770 t __rust_u128_mulo
ffffff80400307e8 t __ashlti3
ffffff804003081c t __umoddi3
ffffff80400308a8 t _ZN96_$LT$T$u20$as$u20$compiler_builtins..math..libm_math..support..int_traits..CastFrom$LT$U$GT$$GT$9cast_from17h10263822ff60f036E
ffffff80400308ac t _ZN96_$LT$T$u20$as$u20$compiler_builtins..math..libm_math..support..int_traits..CastFrom$LT$U$GT$$GT$9cast_from17h29241ba7727b8e01E
ffffff80400308c0 t _ZN96_$LT$T$u20$as$u20$compiler_builtins..math..libm_math..support..int_traits..CastFrom$LT$U$GT$$GT$9cast_from17h31201fcb88806792E
ffffff80400308c4 t _ZN96_$LT$T$u20$as$u20$compiler_builtins..math..libm_math..support..int_traits..CastFrom$LT$U$GT$$GT$9cast_from17h4cd85e8ba981cd29E
ffffff80400308cc t _ZN96_$LT$T$u20$as$u20$compiler_builtins..math..libm_math..support..int_traits..CastFrom$LT$U$GT$$GT$9cast_from17h587df53f9ba5c1a8E
ffffff80400308d0 t _ZN96_$LT$T$u20$as$u20$compiler_builtins..math..libm_math..support..int_traits..CastFrom$LT$U$GT$$GT$9cast_from17h66cac31571d37edaE
ffffff80400308d0 t _ZN96_$LT$T$u20$as$u20$compiler_builtins..math..libm_math..support..int_traits..CastFrom$LT$U$GT$$GT$9cast_from17h95e79f929c4722eeE
ffffff80400308d8 t _ZN96_$LT$T$u20$as$u20$compiler_builtins..math..libm_math..support..int_traits..CastFrom$LT$U$GT$$GT$9cast_from17hc1c9e0410c849b7bE
ffffff80400308dc t _ZN96_$LT$T$u20$as$u20$compiler_builtins..math..libm_math..support..int_traits..CastFrom$LT$U$GT$$GT$9cast_from17hcb05220ed9fb96d4E
ffffff80400308e8 t _ZN96_$LT$T$u20$as$u20$compiler_builtins..math..libm_math..support..int_traits..CastFrom$LT$U$GT$$GT$9cast_from17hdc42ff8467df270aE
ffffff80400308ec t _ZN96_$LT$T$u20$as$u20$compiler_builtins..math..libm_math..support..int_traits..CastFrom$LT$U$GT$$GT$15cast_from_lossy17h035ef92a7f206141E
ffffff80400308f0 t _ZN96_$LT$T$u20$as$u20$compiler_builtins..math..libm_math..support..int_traits..CastFrom$LT$U$GT$$GT$15cast_from_lossy17h0676a418facc17d3E
ffffff80400308f8 t _ZN96_$LT$T$u20$as$u20$compiler_builtins..math..libm_math..support..int_traits..CastFrom$LT$U$GT$$GT$15cast_from_lossy17h1228ac2f6c52f480E
ffffff80400308fc t _ZN96_$LT$T$u20$as$u20$compiler_builtins..math..libm_math..support..int_traits..CastFrom$LT$U$GT$$GT$15cast_from_lossy17h2a49a2a9b2a34d35E
ffffff80400308fc t _ZN96_$LT$T$u20$as$u20$compiler_builtins..math..libm_math..support..int_traits..CastFrom$LT$U$GT$$GT$15cast_from_lossy17h32f5bff0f9738112E
ffffff8040030900 t _ZN96_$LT$T$u20$as$u20$compiler_builtins..math..libm_math..support..int_traits..CastFrom$LT$U$GT$$GT$15cast_from_lossy17h351fc9b38dbe604eE
ffffff8040030904 t _ZN96_$LT$T$u20$as$u20$compiler_builtins..math..libm_math..support..int_traits..CastFrom$LT$U$GT$$GT$15cast_from_lossy17h5c2725cc377f77a1E
ffffff804003090c t _ZN96_$LT$T$u20$as$u20$compiler_builtins..math..libm_math..support..int_traits..CastFrom$LT$U$GT$$GT$15cast_from_lossy17h842b30dcdc0dab8fE
ffffff8040030918 t _ZN96_$LT$T$u20$as$u20$compiler_builtins..math..libm_math..support..int_traits..CastFrom$LT$U$GT$$GT$15cast_from_lossy17h8e3e6b3d7a05ac0fE
ffffff804003091c t _ZN96_$LT$T$u20$as$u20$compiler_builtins..math..libm_math..support..int_traits..CastFrom$LT$U$GT$$GT$15cast_from_lossy17ha5f8cce945334b85E
ffffff804003092c t _ZN96_$LT$T$u20$as$u20$compiler_builtins..math..libm_math..support..int_traits..CastFrom$LT$U$GT$$GT$15cast_from_lossy17hae43cd9af4537748E
ffffff8040030930 t _ZN96_$LT$T$u20$as$u20$compiler_builtins..math..libm_math..support..int_traits..CastFrom$LT$U$GT$$GT$15cast_from_lossy17hb099b102ff7b0c11E
ffffff8040030934 t _ZN96_$LT$T$u20$as$u20$compiler_builtins..math..libm_math..support..int_traits..CastFrom$LT$U$GT$$GT$15cast_from_lossy17hb6b1af5e8e5a93f6E
ffffff8040030938 t _ZN96_$LT$T$u20$as$u20$compiler_builtins..math..libm_math..support..int_traits..CastFrom$LT$U$GT$$GT$15cast_from_lossy17hddd8df9a5987a6e0E
ffffff804003093c t _ZN96_$LT$T$u20$as$u20$compiler_builtins..math..libm_math..support..int_traits..CastFrom$LT$U$GT$$GT$15cast_from_lossy17hff4aa3ea182e1f50E
ffffff8040030940 t _ZN17compiler_builtins4math9libm_math5acosf5acosf17ha18d5f40dd651f61E
ffffff8040030b68 t _ZN17compiler_builtins4math9libm_math5ldexp6ldexpf17h85c218bac9ea9004E
ffffff8040030c30 t _ZN17compiler_builtins4math9libm_math5ldexp5ldexp17h2bf4502789684a85E
ffffff8040030cf0 t _ZN17compiler_builtins4math9libm_math5log105log1017h8159af884370c93bE
ffffff8040030ea4 t _ZN17compiler_builtins4math9libm_math4sinh4sinh17h535e7946045253e5E
ffffff8040030f80 t _ZN83_$LT$u8$u20$as$u20$compiler_builtins..math..libm_math..support..int_traits..Int$GT$12unsigned_abs17h48b2d8e5d4b3a110E
ffffff8040030f80 t _ZN83_$LT$u8$u20$as$u20$compiler_builtins..math..libm_math..support..int_traits..Int$GT$3abs17h0217f3e10e6374beE
ffffff8040030f84 t _ZN83_$LT$i8$u20$as$u20$compiler_builtins..math..libm_math..support..int_traits..Int$GT$3abs17hda4445ae1a673aaeE
ffffff8040030f94 t _ZN83_$LT$u8$u20$as$u20$compiler_builtins..math..libm_math..support..int_traits..Int$GT$11checked_add17h5724b234c0f02266E
ffffff8040030fb0 t _ZN83_$LT$u8$u20$as$u20$compiler_builtins..math..libm_math..support..int_traits..Int$GT$5ilog217h34d20327b1a04794E
ffffff8040030fcc t _ZN83_$LT$i8$u20$as$u20$compiler_builtins..math..libm_math..support..int_traits..Int$GT$11checked_add17hc6c7e76c6f482757E
ffffff8040030fe0 t _ZN83_$LT$i8$u20$as$u20$compiler_builtins..math..libm_math..support..int_traits..Int$GT$11checked_sub17hcc78516735f4e789E
ffffff8040030ff4 t _ZN83_$LT$i8$u20$as$u20$compiler_builtins..math..libm_math..support..int_traits..Int$GT$11rotate_left17h2add6ffe4a04606bE
ffffff8040030ff4 t _ZN83_$LT$u8$u20$as$u20$compiler_builtins..math..libm_math..support..int_traits..Int$GT$11rotate_left17hcd32e5b7b1249b5aE
ffffff8040031014 t _ZN83_$LT$i8$u20$as$u20$compiler_builtins..math..libm_math..support..int_traits..Int$GT$13leading_zeros17hd8d97f5f613ee0c5E
ffffff8040031014 t _ZN83_$LT$u8$u20$as$u20$compiler_builtins..math..libm_math..support..int_traits..Int$GT$13leading_zeros17hd6935f86df94025fE
ffffff8040031028 t _ZN83_$LT$i8$u20$as$u20$compiler_builtins..math..libm_math..support..int_traits..Int$GT$5ilog217h9e722df21680d7f6E
ffffff8040031048 t _ZN84_$LT$u16$u20$as$u20$compiler_builtins..math..libm_math..support..int_traits..Int$GT$12unsigned_abs17h6c9f560c79eb3654E
ffffff8040031048 t _ZN84_$LT$u16$u20$as$u20$compiler_builtins..math..libm_math..support..int_traits..Int$GT$3abs17h955de13a6f9e12c3E
ffffff804003104c t _ZN84_$LT$i16$u20$as$u20$compiler_builtins..math..libm_math..support..int_traits..Int$GT$3abs17h581418fcc1f4d62bE
ffffff804003105c t _ZN84_$LT$u16$u20$as$u20$compiler_builtins..math..libm_math..support..int_traits..Int$GT$11checked_add17hcc44d8f72b337870E
ffffff8040031078 t _ZN84_$LT$u16$u20$as$u20$compiler_builtins..math..libm_math..support..int_traits..Int$GT$5ilog217h3d14a1de03b77eeaE
ffffff8040031094 t _ZN84_$LT$i16$u20$as$u20$compiler_builtins..math..libm_math..support..int_traits..Int$GT$11checked_add17h33798d22b81bd340E
ffffff80400310a8 t _ZN84_$LT$i16$u20$as$u20$compiler_builtins..math..libm_math..support..int_traits..Int$GT$11checked_sub17h2fb556c7430bcd01E
ffffff80400310bc t _ZN84_$LT$i16$u20$as$u20$compiler_builtins..math..libm_math..support..int_traits..Int$GT$11rotate_left17h8e53da52d3e6edaeE
ffffff80400310bc t _ZN84_$LT$u16$u20$as$u20$compiler_builtins..math..libm_math..support..int_traits..Int$GT$11rotate_left17h1bd6a36b4ad795efE
ffffff80400310dc t _ZN84_$LT$i16$u20$as$u20$compiler_builtins..math..libm_math..support..int_traits..Int$GT$13leading_zeros17h40ac7e2c64cb2d13E
ffffff80400310dc t _ZN84_$LT$u16$u20$as$u20$compiler_builtins..math..libm_math..support..int_traits..Int$GT$13leading_zeros17h9916af1059112561E
ffffff80400310f0 t _ZN84_$LT$i16$u20$as$u20$compiler_builtins..math..libm_math..support..int_traits..Int$GT$5ilog217he10362511517f2d2E
ffffff8040031110 t _ZN84_$LT$u32$u20$as$u20$compiler_builtins..math..libm_math..support..int_traits..Int$GT$12unsigned_abs17h571c8969036b9631E
ffffff8040031110 t _ZN84_$LT$u32$u20$as$u20$compiler_builtins..math..libm_math..support..int_traits..Int$GT$3abs17h9972a8d18cc42c4eE
ffffff8040031114 t _ZN84_$LT$i32$u20$as$u20$compiler_builtins..math..libm_math..support..int_traits..Int$GT$3abs17h5d70819f6a042764E
ffffff8040031120 t _ZN84_$LT$u32$u20$as$u20$compiler_builtins..math..libm_math..support..int_traits..Int$GT$11checked_add17haf592e512a96715eE
ffffff8040031134 t _ZN84_$LT$u32$u20$as$u20$compiler_builtins..math..libm_math..support..int_traits..Int$GT$5ilog217h81c64b92e3b3aa68E
ffffff8040031148 t _ZN84_$LT$i32$u20$as$u20$compiler_builtins..math..libm_math..support..int_traits..Int$GT$11checked_add17h4b8b23d96ee9be90E
ffffff8040031154 t _ZN84_$LT$i32$u20$as$u20$compiler_builtins..math..libm_math..support..int_traits..Int$GT$11checked_sub17hc031525068e75dfdE
ffffff8040031160 t _ZN84_$LT$i32$u20$as$u20$compiler_builtins..math..libm_math..support..int_traits..Int$GT$11rotate_left17h505d573de92442edE
ffffff8040031160 t _ZN84_$LT$u32$u20$as$u20$compiler_builtins..math..libm_math..support..int_traits..Int$GT$11rotate_left17h44a8026c5ad741f7E
ffffff804003116c t _ZN84_$LT$i32$u20$as$u20$compiler_builtins..math..libm_math..support..int_traits..Int$GT$13leading_zeros17h92977274f3d4274fE
ffffff804003116c t _ZN84_$LT$u32$u20$as$u20$compiler_builtins..math..libm_math..support..int_traits..Int$GT$13leading_zeros17h7c4b30604a2ee602E
ffffff8040031174 t _ZN84_$LT$i32$u20$as$u20$compiler_builtins..math..libm_math..support..int_traits..Int$GT$5ilog217h1865e0e3ad8d5fe8E
ffffff804003118c t _ZN84_$LT$u64$u20$as$u20$compiler_builtins..math..libm_math..support..int_traits..Int$GT$12unsigned_abs17h5cd0d4fa515afa78E
ffffff804003118c t _ZN84_$LT$u64$u20$as$u20$compiler_builtins..math..libm_math..support..int_traits..Int$GT$3abs17hd12866902a0e4878E
ffffff804003118c t _ZN86_$LT$usize$u20$as$u20$compiler_builtins..math..libm_math..support..int_traits..Int$GT$12unsigned_abs17h9bee259dc8b9a0a2E
ffffff804003118c t _ZN86_$LT$usize$u20$as$u20$compiler_builtins..math..libm_math..support..int_traits..Int$GT$3abs17hcd93eed2625b0438E
ffffff8040031190 t _ZN84_$LT$i64$u20$as$u20$compiler_builtins..math..libm_math..support..int_traits..Int$GT$3abs17h2bad20dfed4c104cE
ffffff8040031190 t _ZN86_$LT$isize$u20$as$u20$compiler_builtins..math..libm_math..support..int_traits..Int$GT$3abs17haef6d9a7bb87f4daE
ffffff804003119c t _ZN84_$LT$u64$u20$as$u20$compiler_builtins..math..libm_math..support..int_traits..Int$GT$11checked_add17h8f9ba9df6ff06167E
ffffff804003119c t _ZN86_$LT$usize$u20$as$u20$compiler_builtins..math..libm_math..support..int_traits..Int$GT$11checked_add17h58692c16e1058d34E
ffffff80400311b0 t _ZN84_$LT$u64$u20$as$u20$compiler_builtins..math..libm_math..support..int_traits..Int$GT$5ilog217h7f265d24254ad413E
ffffff80400311b0 t _ZN86_$LT$usize$u20$as$u20$compiler_builtins..math..libm_math..support..int_traits..Int$GT$5ilog217h4b4afb75023685e5E
ffffff80400311c4 t _ZN84_$LT$i64$u20$as$u20$compiler_builtins..math..libm_math..support..int_traits..Int$GT$11checked_add17h33f2ef43fc153453E
ffffff80400311c4 t _ZN86_$LT$isize$u20$as$u20$compiler_builtins..math..libm_math..support..int_traits..Int$GT$11checked_add17hb2c50cc0f116116fE
ffffff80400311d0 t _ZN84_$LT$i64$u20$as$u20$compiler_builtins..math..libm_math..support..int_traits..Int$GT$11checked_sub17hd60ed7a7b046967eE
ffffff80400311d0 t _ZN86_$LT$isize$u20$as$u20$compiler_builtins..math..libm_math..support..int_traits..Int$GT$11checked_sub17hfa02af153788d903E
ffffff80400311dc t _ZN84_$LT$i64$u20$as$u20$compiler_builtins..math..libm_math..support..int_traits..Int$GT$11rotate_left17h980471afd4b66ea1E
ffffff80400311dc t _ZN84_$LT$u64$u20$as$u20$compiler_builtins..math..libm_math..support..int_traits..Int$GT$11rotate_left17h034d8f5fb7d95e12E
ffffff80400311dc t _ZN86_$LT$isize$u20$as$u20$compiler_builtins..math..libm_math..support..int_traits..Int$GT$11rotate_left17hd01d22fc20ae0cafE
ffffff80400311dc t _ZN86_$LT$usize$u20$as$u20$compiler_builtins..math..libm_math..support..int_traits..Int$GT$11rotate_left17h7b323c2a0c39da74E
ffffff80400311e8 t _ZN84_$LT$i64$u20$as$u20$compiler_builtins..math..libm_math..support..int_traits..Int$GT$13leading_zeros17h6c1ad8d7db6d92f9E
ffffff80400311e8 t _ZN84_$LT$u64$u20$as$u20$compiler_builtins..math..libm_math..support..int_traits..Int$GT$13leading_zeros17h0fbbdced99ead18fE
ffffff80400311e8 t _ZN86_$LT$isize$u20$as$u20$compiler_builtins..math..libm_math..support..int_traits..Int$GT$13leading_zeros17h42b29bc14eb37384E
ffffff80400311e8 t _ZN86_$LT$usize$u20$as$u20$compiler_builtins..math..libm_math..support..int_traits..Int$GT$13leading_zeros17h52ea3661accb8118E
ffffff80400311f0 t _ZN84_$LT$i64$u20$as$u20$compiler_builtins..math..libm_math..support..int_traits..Int$GT$5ilog217h2d970515cbc013c9E
ffffff80400311f0 t _ZN86_$LT$isize$u20$as$u20$compiler_builtins..math..libm_math..support..int_traits..Int$GT$5ilog217h295a62ceeb282af2E
ffffff8040031208 t _ZN85_$LT$u128$u20$as$u20$compiler_builtins..math..libm_math..support..int_traits..Int$GT$12unsigned_abs17hbfb605bc61fc2709E
ffffff8040031208 t _ZN85_$LT$u128$u20$as$u20$compiler_builtins..math..libm_math..support..int_traits..Int$GT$3abs17hcfdf563a20267473E
ffffff804003120c t _ZN85_$LT$i128$u20$as$u20$compiler_builtins..math..libm_math..support..int_traits..Int$GT$3abs17h7657cf888ae23988E
ffffff8040031224 t _ZN85_$LT$u128$u20$as$u20$compiler_builtins..math..libm_math..support..int_traits..Int$GT$11checked_add17h23d76a3474b2dbd9E
ffffff8040031254 t _ZN85_$LT$u128$u20$as$u20$compiler_builtins..math..libm_math..support..int_traits..Int$GT$5ilog217h1d53b43c7a9dc1b9E
ffffff804003127c t _ZN85_$LT$i128$u20$as$u20$compiler_builtins..math..libm_math..support..int_traits..Int$GT$11checked_add17h1ba6643d5efcc6faE
ffffff80400312a4 t _ZN85_$LT$i128$u20$as$u20$compiler_builtins..math..libm_math..support..int_traits..Int$GT$11checked_sub17h6ff66e202c33a94fE
ffffff80400312cc t _ZN85_$LT$i128$u20$as$u20$compiler_builtins..math..libm_math..support..int_traits..Int$GT$11rotate_left17h35420f81f61df112E
ffffff80400312cc t _ZN85_$LT$u128$u20$as$u20$compiler_builtins..math..libm_math..support..int_traits..Int$GT$11rotate_left17h3c87584f8d5b07e1E
ffffff8040031300 t _ZN85_$LT$i128$u20$as$u20$compiler_builtins..math..libm_math..support..int_traits..Int$GT$13leading_zeros17hdd9ac035ffb46204E
ffffff8040031300 t _ZN85_$LT$u128$u20$as$u20$compiler_builtins..math..libm_math..support..int_traits..Int$GT$13leading_zeros17h117b2e16e82d5dc6E
ffffff8040031318 t _ZN85_$LT$i128$u20$as$u20$compiler_builtins..math..libm_math..support..int_traits..Int$GT$5ilog217h644657f62193e92dE
ffffff8040031344 t fdimf16
ffffff8040031364 t rintf16
ffffff80400313e0 t sqrtf16
ffffff80400314ac t roundevenf
ffffff80400314fc t fabsf128
ffffff8040031514 t cosh
ffffff80400315d8 t erfcf
ffffff80400315dc t hypot
ffffff80400316f8 t log10f
ffffff8040031858 t memset
ffffff8040031964 t _ZN17compiler_builtins5float3cmp3cmp17heba0f9c8bfda5ef0E
ffffff8040031a0c t _ZN17compiler_builtins5float3cmp5unord17h47c113a4863b2925E
ffffff8040031a54 t _ZN17compiler_builtins5float3pow3pow17h300f96ee47b71388E
ffffff8040031b08 t _ZN17compiler_builtins5float3cmp7__gesf217h99d9f3409a90702eE
ffffff8040031b08 t _ZN17compiler_builtins5float3cmp7__gtsf217hddc4884ea31c7c25E
ffffff8040031b64 t _ZN17compiler_builtins5float3cmp10__unordsf217hf6b3c46d367bfce8E
ffffff8040031b88 t _ZN17compiler_builtins5float3cmp7__eqsf217hac117b2238c44821E
ffffff8040031b88 t _ZN17compiler_builtins5float3cmp7__lesf217h0d3d898cefe93933E
ffffff8040031b88 t _ZN17compiler_builtins5float3cmp7__ltsf217hc73ff8798d978c15E
ffffff8040031b88 t _ZN17compiler_builtins5float3cmp7__nesf217hb8a828982447141eE
ffffff8040031bf0 t _ZN17compiler_builtins5float3cmp7__gedf217h9a37a00ade90dfa8E
ffffff8040031bf0 t _ZN17compiler_builtins5float3cmp7__gtdf217h47793297450f1fc0E
ffffff8040031c4c t __gedf2
ffffff8040031ca8 t _ZN17compiler_builtins5float3cmp10__unorddf217h7cd076af6c5a71a1E
ffffff8040031ccc t _ZN17compiler_builtins5float3cmp7__eqdf217h54b75fc7c62f995dE
ffffff8040031ccc t _ZN17compiler_builtins5float3cmp7__ledf217h89afd8aa01025a6dE
ffffff8040031ccc t _ZN17compiler_builtins5float3cmp7__ltdf217h5405bc187fa3c77eE
ffffff8040031ccc t _ZN17compiler_builtins5float3cmp7__nedf217h913a25dd55a12201E
ffffff8040031d34 t __floatunsisf
ffffff8040031d74 t __gnu_h2f_ieee
ffffff8040031e08 t _ZN17compiler_builtins5float3pow9__powisf217h0b5559bedce46b55E
ffffff8040031e54 t _ZN17compiler_builtins5float3pow9__powidf217ha32909db9219c066E
ffffff8040031ea0 t __gnu_f2h_ieee
ffffff8040031fa8 t __ashrdi3
ffffff8040031fe4 t _ZN17compiler_builtins4math9libm_math7support12float_traits5Float5biteq17h545ea282e8605002E
ffffff8040031ff8 t _ZN17compiler_builtins4math9libm_math7support12float_traits5Float5biteq17h917d86fee3f63824E
ffffff8040032014 t _ZN17compiler_builtins4math9libm_math7support12float_traits5Float5biteq17h97733c9d8c929f12E
ffffff804003202c t _ZN17compiler_builtins4math9libm_math7support12float_traits5Float5biteq17hf44cbf3f9b8133a1E
ffffff8040032040 t _ZN17compiler_builtins4math9libm_math7support12float_traits5Float16is_sign_positive17h0460abeeaeeb7501E
ffffff8040032050 t _ZN17compiler_builtins4math9libm_math7support12float_traits5Float16is_sign_positive17h574b2e6481fca2ddE
ffffff8040032060 t _ZN17compiler_builtins4math9libm_math7support12float_traits5Float16is_sign_positive17h6ccff9a060384df8E
ffffff8040032078 t _ZN17compiler_builtins4math9libm_math7support12float_traits5Float16is_sign_positive17he8309f307dc28328E
ffffff8040032088 t _ZN17compiler_builtins4math9libm_math7support12float_traits5Float2ex17hd9c01a8d391755c9E
ffffff8040032094 t _ZN17compiler_builtins4math9libm_math7support12float_traits5Float2ex17hf87ca042afc1b902E
ffffff80400320a8 t _ZN17compiler_builtins4math9libm_math7support12float_traits5Float12exp_unbiased17h2929a0505a400e24E
ffffff80400320b8 t _ZN17compiler_builtins4math9libm_math7support12float_traits5Float12exp_unbiased17h6bf157ad4ab1106bE
ffffff80400320d4 t _ZN17compiler_builtins4math9libm_math7support12float_traits5Float12exp_unbiased17h935c3be261ff9b20E
ffffff80400320e4 t _ZN17compiler_builtins4math9libm_math7support12float_traits5Float12exp_unbiased17h9956ceaf0054620fE
ffffff80400320f4 t _ZN17compiler_builtins4math9libm_math7support12float_traits5Float10from_parts17h1178b238cb953c78E
ffffff8040032110 t _ZN17compiler_builtins4math9libm_math7support12float_traits5Float10from_parts17h62fd3196ad76306cE
ffffff804003212c t _ZN17compiler_builtins4math9libm_math7support12float_traits5Float10from_parts17h86e40d7b508cf372E
ffffff804003214c t _ZN17compiler_builtins4math9libm_math7support12float_traits5Float10from_parts17h93c133289974b018E
ffffff8040032170 t _ZN17compiler_builtins4math9libm_math7support12float_traits5Float12canonicalize17h2c5ffd863b0503f4E
ffffff8040032174 t _ZN17compiler_builtins4math9libm_math7support12float_traits5Float12canonicalize17ha4f517117fd61e2fE
ffffff8040032178 t _ZN17compiler_builtins4math9libm_math7support12float_traits5Float12canonicalize17ha5eef66118670048E
ffffff804003217c t _ZN17compiler_builtins4math9libm_math7support12float_traits5Float12canonicalize17hac23f55af4306df8E
ffffff8040032180 t _ZN17compiler_builtins4math9libm_math5log1p5log1p17h01bdda268c9b928fE
ffffff8040032340 t _ZN17compiler_builtins4math9libm_math7tgammaf7tgammaf17hc6c589cca841ee87E
ffffff8040032358 t _ZN88_$LT$f16$u20$as$u20$compiler_builtins..math..libm_math..support..float_traits..Float$GT$9normalize17hcc283451c13ae79fE
ffffff8040032380 t _ZN88_$LT$f32$u20$as$u20$compiler_builtins..math..libm_math..support..float_traits..Float$GT$3abs17h29e28f586afb8d76E
ffffff8040032388 t _ZN88_$LT$f32$u20$as$u20$compiler_builtins..math..libm_math..support..float_traits..Float$GT$8copysign17hd3e8609b9b615749E
ffffff8040032394 t _ZN88_$LT$f32$u20$as$u20$compiler_builtins..math..libm_math..support..float_traits..Float$GT$3fma17h07452f7a1d38fed9E
ffffff804003239c t _ZN88_$LT$f32$u20$as$u20$compiler_builtins..math..libm_math..support..float_traits..Float$GT$9normalize17h378a9e38b769b1c5E
ffffff80400323b4 t _ZN88_$LT$f64$u20$as$u20$compiler_builtins..math..libm_math..support..float_traits..Float$GT$3abs17h799b67642a95a16aE
ffffff80400323bc t _ZN88_$LT$f64$u20$as$u20$compiler_builtins..math..libm_math..support..float_traits..Float$GT$8copysign17h316e96735ea0ee00E
ffffff80400323cc t _ZN88_$LT$f64$u20$as$u20$compiler_builtins..math..libm_math..support..float_traits..Float$GT$3fma17h231890f1add0db77E
ffffff80400323d4 t _ZN88_$LT$f64$u20$as$u20$compiler_builtins..math..libm_math..support..float_traits..Float$GT$9normalize17h83bf745a17d64bf6E
ffffff80400323ec t _ZN89_$LT$f128$u20$as$u20$compiler_builtins..math..libm_math..support..float_traits..Float$GT$9normalize17hb9fca355aad5ddaaE
ffffff8040032440 t floorf16
ffffff80400324c4 t fmaxf16
ffffff80400324dc t truncf16
ffffff8040032514 t _ZN17compiler_builtins4math17full_availability5cbrtf17h0ab1d90bfbb1e876E
ffffff80400325d4 t _ZN17compiler_builtins4math17full_availability5ceilf17h359380be84f3efdbE
ffffff804003263c t ceilf
ffffff80400326a4 t _ZN17compiler_builtins4math17full_availability9copysignf17ha78c210532464d2fE
ffffff80400326b0 t fdimf
ffffff80400326c4 t _ZN17compiler_builtins4math17full_availability6floorf17h44bd8451f31e86aeE
ffffff80400326c4 t _ZN17compiler_builtins4math9libm_math5floor6floorf17h5cef267de7394efeE
ffffff8040032738 t _ZN17compiler_builtins4math17full_availability5fmaxf17hc54d9ad7497e8546E
ffffff8040032748 t _ZN17compiler_builtins4math17full_availability5fminf17h6f23ea92971477fbE
ffffff8040032758 t _ZN17compiler_builtins4math17full_availability5fmodf17h9044b41d77232301E
ffffff8040032828 t _ZN17compiler_builtins4math17full_availability6roundf17h8d53914c245a54d2E
ffffff8040032874 t _ZN17compiler_builtins4math17full_availability6truncf17h5e4193426a28eff3E
ffffff80400328ac t _ZN17compiler_builtins4math17full_availability4cbrt17h0ccd1873b9712a63E
ffffff80400328b0 t _ZN17compiler_builtins4math17full_availability4ceil17hfd75797ad6733259E
ffffff804003291c t _ZN17compiler_builtins4math17full_availability8copysign17h46e24e2b78ec0b7aE
ffffff804003292c t _ZN17compiler_builtins4math17full_availability5floor17h533c248410235334E
ffffff804003292c t _ZN17compiler_builtins4math9libm_math5floor5floor17h21f8167b5c7d82d8E
ffffff80400329a4 t floor
ffffff8040032a1c t _ZN17compiler_builtins4math17full_availability4fmax17h4e62275f6d6dbd5dE
ffffff8040032a2c t _ZN17compiler_builtins4math17full_availability4fmin17h7288b4e65ffeb5eaE
ffffff8040032a3c t _ZN17compiler_builtins4math17full_availability4fmod17hd91fe0f5eae1b07eE
ffffff8040032b10 t _ZN17compiler_builtins4math17full_availability5round17h84df4a1ddb156ec9E
ffffff8040032b60 t _ZN17compiler_builtins4math17full_availability5trunc17h8d735178773b5027E
ffffff8040032b98 t _ZN17compiler_builtins4math17full_availability8fmaximum17hff00ad1fd2540241E
ffffff8040032bd8 t fmaximum
ffffff8040032c18 t _ZN17compiler_builtins4math17full_availability9fmaximumf17h10513980783b0ebcE
ffffff8040032c58 t _ZN17compiler_builtins4math17full_availability8fminimum17had6efee3ae2a6eebE
ffffff8040032c98 t fminimum
ffffff8040032cd8 t _ZN17compiler_builtins4math17full_availability9fminimumf17ha57d1eaecf9bb53aE
ffffff8040032d18 t fminimumf
ffffff8040032d58 t _ZN17compiler_builtins4math17full_availability9roundeven17ha85df2637b036565E
ffffff8040032db4 t roundeven
ffffff8040032e10 t _ZN17compiler_builtins4math17full_availability10roundevenf17h9ae32eef4ae9d6cfE
ffffff8040032e60 t atan2f
ffffff8040032e64 t expf
ffffff8040032e68 t ldexp
ffffff8040032f28 t sinh
ffffff8040033004 t tanhf
ffffff80400330e8 t __ledf2
ffffff8040033150 t __unorddf2
ffffff8040033174 t __lttf2
ffffff8040033174 t __netf2
ffffff8040033210 t __fixunssfti
ffffff804003327c t __fixunsdfdi
ffffff80400332c8 t __fixunsdfti
ffffff8040033338 t __fixsfti
ffffff80400333cc t __fixdfsi
ffffff8040033434 t _ZN17compiler_builtins5float3sub8__subsf317h0b90ac6fdbfa6b8cE
ffffff804003343c t _ZN17compiler_builtins5float3sub8__subdf317h2423017ef4511d9eE
ffffff8040033444 t __rust_u128_addo
ffffff8040033468 t _ZN17compiler_builtins3int5bswap10__bswapsi217he4b57fe4e9238806E
ffffff8040033470 t _ZN17compiler_builtins3int5bswap10__bswapdi217h93676d018e4cab32E
ffffff8040033478 t _ZN17compiler_builtins3int5bswap10__bswapti217h3a55004a645ccbe5E
ffffff8040033488 t __clzsi2
ffffff80400334f0 t _ZN17compiler_builtins3int3mul8__muldi317he98eb9df473a946cE
ffffff8040033534 t _ZN17compiler_builtins3int3mul8__multi317h88578f660e3076ceE
ffffff8040033578 t _ZN17compiler_builtins3int3mul9__mulosi417h46d8ec3e7fa27c67E
ffffff8040033630 t _ZN17compiler_builtins3int3mul9__mulodi417h67fc9eecd9762fa1E
ffffff80400336f0 t _ZN17compiler_builtins3int3mul16__rust_i128_mulo17h59b1d9e8164f7650E
ffffff80400336f0 t _ZN17compiler_builtins3int3mul9__muloti417h04704b51ab25daeeE
ffffff80400337fc t __rust_i128_mulo
ffffff8040033908 t _ZN17compiler_builtins3int3mul16__rust_u128_mulo17ha1cab7ca0b39fd7eE
ffffff8040033980 t _ZN17compiler_builtins3int5shift9__ashlsi317hd4d9296419c172ceE
ffffff80400339cc t _ZN17compiler_builtins3int5shift9__ashldi317hda20c0ffe93d6933E
ffffff8040033a04 t _ZN17compiler_builtins3int5shift9__ashlti317h097a111aa1619f4bE
ffffff8040033a38 t _ZN17compiler_builtins3int5shift9__ashrsi317hb3e82d1d7ed1aef9E
ffffff8040033a8c t __ashrsi3
ffffff8040033ae0 t _ZN17compiler_builtins3int5shift9__ashrdi317hfe77d597578afa79E
ffffff8040033b1c t _ZN17compiler_builtins3int5shift9__ashrti317h610fd8ebb8861f6fE
ffffff8040033b54 t _ZN17compiler_builtins3int5shift9__lshrsi317h65de8267a1a77674E
ffffff8040033b9c t _ZN17compiler_builtins3int5shift9__lshrdi317hc6e2bc252e210041E
ffffff8040033bd0 t _ZN17compiler_builtins3int5shift9__lshrti317h4935500114130b26E
ffffff8040033c04 t __udivmodti4
ffffff8040033c34 t _ZN17compiler_builtins4math9libm_math7support9cold_path17h155524d6d8bb41c0E
ffffff8040033c38 t _ZN17compiler_builtins4math9libm_math5atan25atan217h76c55df9afbcc400E
ffffff8040033db8 t _ZN17compiler_builtins4math9libm_math4cosf4cosf17h9cae32b4f69bbadfE
ffffff8040034170 t cbrt
ffffff8040034174 t log1p
ffffff8040034178 t _ZN17compiler_builtins3mem6memcpy17hd1200274978b913dE
ffffff80400342d8 t _ZN17compiler_builtins3mem7memmove17hd069a95b314b9e2dE
ffffff80400345a4 t _ZN17compiler_builtins3mem6memset17h6737a46ee2b37dbfE
ffffff80400346b0 t _ZN17compiler_builtins3mem4bcmp17h791c51f454ccb603E
ffffff80400346b0 t _ZN17compiler_builtins3mem6memcmp17h9ec832defab156deE
ffffff80400346d8 t bcmp
ffffff8040034700 t _ZN17compiler_builtins3mem6strlen17hbceb1cd6bf935763E
ffffff804003472c t _ZN17compiler_builtins5float4conv12int_to_float6signed17h0563c648b71d7590E
ffffff80400347c0 t _ZN17compiler_builtins5float4conv12int_to_float6signed17h2f4b4970fc7a4734E
ffffff804003486c t _ZN17compiler_builtins5float4conv12int_to_float6signed17h33b6952b70fcaebeE
ffffff80400348c4 t _ZN17compiler_builtins5float4conv12int_to_float6signed17h41fefa2d254b371aE
ffffff804003491c t _ZN17compiler_builtins5float4conv12int_to_float6signed17h8ee85f44d3e7f2d6E
ffffff8040034974 t _ZN17compiler_builtins5float4conv12int_to_float6signed17h9bb3e726f2a42354E
ffffff8040034a18 t _ZN17compiler_builtins5float4conv12int_to_float6signed17h9c1bab989bc2e6ecE
ffffff8040034a70 t _ZN17compiler_builtins5float4conv12int_to_float6signed17hce5398eb6ad36e42E
ffffff8040034abc t _ZN17compiler_builtins5float4conv12int_to_float6signed17hdbfa3bdd48ca5d33E
ffffff8040034b28 t _ZN17compiler_builtins5float4conv12int_to_float15u32_to_f32_bits17hc7b472d5f4cc8256E
ffffff8040034b5c t _ZN17compiler_builtins5float4conv12int_to_float15u32_to_f64_bits17hec091f80bd81e015E
ffffff8040034b90 t _ZN17compiler_builtins5float4conv12int_to_float16u32_to_f128_bits17h45f95f44439781ccE
ffffff8040034bd0 t _ZN17compiler_builtins5float4conv12int_to_float15u64_to_f32_bits17h8a6d744e4f3f69bdE
ffffff8040034c10 t _ZN17compiler_builtins5float4conv12int_to_float15u64_to_f64_bits17h6ae185a85a8eacf7E
ffffff8040034c44 t _ZN17compiler_builtins5float4conv12int_to_float16u64_to_f128_bits17h08580e28bbf5506dE
ffffff8040034c8c t _ZN17compiler_builtins5float4conv12int_to_float16u128_to_f32_bits17hf39a951e28bdd4b2E
ffffff8040034d10 t _ZN17compiler_builtins5float4conv12int_to_float16u128_to_f64_bits17hec44b077f9981fb7E
ffffff8040034d88 t _ZN17compiler_builtins5float4conv12int_to_float17u128_to_f128_bits17h2b9125146520ae53E
ffffff8040034e0c t _ZN17compiler_builtins3int6traits4DInt5lo_hi17hde32820d1dd528daE
ffffff8040034e14 t _ZN17compiler_builtins3int6traits4DInt5lo_hi17he988db93bb2fc6d1E
ffffff8040034e18 t _ZN17compiler_builtins3int6traits4DInt10from_lo_hi17h01771add648ccb84E
ffffff8040034e1c t _ZN17compiler_builtins3int6traits4DInt10from_lo_hi17h122ca9e6063e4742E
ffffff8040034e28 t _ZN17compiler_builtins3int6traits4DInt10from_lo_hi17h34a965966215a1aaE
ffffff8040034e30 t _ZN17compiler_builtins3int6traits4DInt10from_lo_hi17h5e13775a6824713eE
ffffff8040034e3c t _ZN17compiler_builtins3int6traits4DInt10from_lo_hi17h92908f0d82d959d4E
ffffff8040034e40 t _ZN17compiler_builtins3int6traits4DInt10from_lo_hi17ha55ab859f68234f6E
ffffff8040034e48 t __unordsf2
ffffff8040034e6c t __nesf2
ffffff8040034ed4 t __gtsf2
ffffff8040034f30 t __fixdfdi
ffffff8040034f98 t __muldf3
ffffff8040034f9c t __truncdfsf2
ffffff80400350f0 t __mulodi4
ffffff80400351b0 t __muloti4
ffffff80400352bc t __moddi3
ffffff80400352f4 t __lshrdi3
ffffff8040035328 t _ZN17compiler_builtins4math9libm_math8rem_pio28rem_pio217heab44a717cf678f0E
ffffff8040035748 t _ZN17compiler_builtins4math9libm_math14rem_pio2_large14rem_pio2_large17hcf2dcace68b341c6E
ffffff804003614c t _ZN17compiler_builtins4math9libm_math4expf4expf17h30d265135f60beb4E
ffffff804003637c t ceil
ffffff80400363e8 t fmaximumf128
ffffff804003646c t cos
ffffff8040036470 t log2f
ffffff80400365ac t logf
ffffff80400366c8 t memcmp
ffffff80400366f0 t __ltsf2
ffffff8040036758 t __eqdf2
ffffff80400367c0 t __getf2
ffffff80400367c0 t __gttf2
ffffff8040036848 t __fixsfdi
ffffff80400368ac t __fixdfti
ffffff8040036944 t __fixtfsi
ffffff80400369c0 t __divsf3
ffffff80400369c4 t __subdf3
ffffff80400369cc t __bswapsi2
ffffff80400369d4 t __bswapdi2
ffffff80400369dc t __divsi3
ffffff8040036ac8 t __divmodti4
ffffff8040036b84 t __udivmodsi4
ffffff8040036c5c t _ZN17compiler_builtins4math9libm_math4cbrt4cbrt17h660f4e7425d1f1e1E
ffffff8040036f64 t _ZN17compiler_builtins4math9libm_math3erf5erfc217hd47c4b27c825193aE.llvm.5472992305545431543
ffffff8040037274 t _ZN17compiler_builtins4math9libm_math3erf3erf17hf4132e58322c1666E
ffffff80400373c4 t _ZN17compiler_builtins4math9libm_math3erf4erfc17hc129cb604d715271E
ffffff804003754c t _ZN17compiler_builtins4math9libm_math6log10f6log10f17ha5559a61d4096c92E
ffffff80400376ac t _ZN17compiler_builtins4math9libm_math4powf4powf17h1aca692573a9cb26E
ffffff8040037de4 t _ZN17compiler_builtins4math9libm_math4tanh4tanh17h86c6efd0b9330171E
ffffff8040037ed0 t cbrtf
ffffff8040037f90 t sqrtf
ffffff8040037f98 t powf
ffffff8040037f9c t lgamma_r
ffffff8040037fb4 t __addsf3
ffffff8040037fb8 t __addtf3
ffffff8040037fbc t __floatuntisf
ffffff8040038044 t __floatsisf
ffffff804003809c t __floattitf
ffffff8040038148 t __fixunssfdi
ffffff8040038194 t __rust_i128_sub
ffffff80400381a0 t _ZN17compiler_builtins3int4sdiv11__divmodsi417hb8ea51aee946921dE
ffffff8040038374 t _ZN17compiler_builtins3int4sdiv8__divsi317hba406313fe08d16dE
ffffff8040038460 t _ZN17compiler_builtins3int4sdiv8__modsi317h4e87e05a69725f8dE
ffffff8040038580 t _ZN17compiler_builtins3int4sdiv11__divmoddi417h6e6e0df907238f59E
ffffff804003875c t _ZN17compiler_builtins3int4sdiv8__divdi317hd781fc198561ab82E
ffffff804003884c t _ZN17compiler_builtins3int4sdiv8__moddi317h9f542b9c59bbb24bE
ffffff8040038974 t _ZN17compiler_builtins3int4sdiv11__divmodti417h985b5def98393a89E
ffffff8040038a30 t _ZN17compiler_builtins3int4sdiv8__divti317h2a7a342d723ff332E
ffffff8040038aa0 t _ZN17compiler_builtins3int4sdiv8__modti317hc2fe1ab503ba5bc6E
ffffff8040038b10 t __lshrsi3
ffffff8040038b58 t _ZN17compiler_builtins4math9libm_math4logf4logf17hfa7030569d5373d1E
ffffff8040038c74 t fmaximumf16
ffffff8040038ce0 t fmaf
ffffff8040038ce8 t roundf
ffffff8040038d34 t truncf
ffffff8040038d6c t fdim
ffffff8040038d80 t fmax
ffffff8040038d90 t _ZN17compiler_builtins4math20partial_availability4acos17h7c80d43f20c6ab33E
ffffff804003900c t _ZN17compiler_builtins4math20partial_availability5acosf17h0624dcb089737629E
ffffff8040039010 t acosf
ffffff8040039014 t _ZN17compiler_builtins4math20partial_availability4asin17h1269064897db68faE
ffffff8040039018 t _ZN17compiler_builtins4math20partial_availability5asinf17h0ec5db0bc2576b7dE
ffffff8040039188 t _ZN17compiler_builtins4math20partial_availability4atan17hf394973b3257de68E
ffffff804003918c t _ZN17compiler_builtins4math20partial_availability5atan217haca0bd3f6bb0f13bE
ffffff804003918c t atan2
ffffff8040039190 t _ZN17compiler_builtins4math20partial_availability6atan2f17hf26e8ec33c9dc35dE
ffffff8040039194 t _ZN17compiler_builtins4math20partial_availability5atanf17h6497d6756c46e293E
ffffff8040039198 t _ZN17compiler_builtins4math20partial_availability3cos17h1474f8dc6a99b266E
ffffff804003919c t _ZN17compiler_builtins4math20partial_availability4cosf17h74ac3a5231ca70dfE
ffffff80400391a0 t _ZN17compiler_builtins4math20partial_availability4cosh17hca7ca41697c69769E
ffffff8040039264 t _ZN17compiler_builtins4math20partial_availability5coshf17hd8f3417087cb410cE
ffffff8040039328 t _ZN17compiler_builtins4math20partial_availability3erf17h039b5b4acc438f4bE
ffffff8040039478 t _ZN17compiler_builtins4math20partial_availability4erfc17hfa6aac45c81d761fE
ffffff804003947c t _ZN17compiler_builtins4math20partial_availability5erfcf17h65ab62e2457eb73cE
ffffff8040039480 t _ZN17compiler_builtins4math20partial_availability4erff17hccdc61832a932ba4E
ffffff80400395d8 t _ZN17compiler_builtins4math20partial_availability3exp17h0a60ac5f7d4cba8dE
ffffff80400395dc t _ZN17compiler_builtins4math20partial_availability4exp217h05d468ac0f29f362E
ffffff80400395e0 t _ZN17compiler_builtins4math20partial_availability5exp2f17ha3105a97aa963105E
ffffff804003973c t _ZN17compiler_builtins4math20partial_availability4expf17ha8aa7f926b59492aE
ffffff8040039740 t _ZN17compiler_builtins4math20partial_availability5expm117h67f07e4966acaa60E
ffffff8040039744 t _ZN17compiler_builtins4math20partial_availability6expm1f17h26a182c456e94c0fE
ffffff8040039748 t _ZN17compiler_builtins4math20partial_availability5hypot17h435a2d7a7cb10d6fE
ffffff8040039864 t _ZN17compiler_builtins4math20partial_availability6hypotf17hf109984c08bb3638E
ffffff8040039930 t _ZN17compiler_builtins4math20partial_availability5ldexp17hc2c401ae534ee5daE
ffffff80400399f0 t _ZN17compiler_builtins4math20partial_availability6ldexpf17hd10fdadaa3083dedE
ffffff8040039ab8 t _ZN17compiler_builtins4math20partial_availability3log17h603b90692bb2a5ccE
ffffff8040039abc t _ZN17compiler_builtins4math20partial_availability5log1017hb7a4812698575226E
ffffff8040039ac0 t _ZN17compiler_builtins4math20partial_availability6log10f17h1685bb1872228592E
ffffff8040039c20 t _ZN17compiler_builtins4math20partial_availability5log1p17h1dc68c5fa5f8dfa9E
ffffff8040039c24 t _ZN17compiler_builtins4math20partial_availability6log1pf17h8383e796a484bdd8E
ffffff8040039db4 t _ZN17compiler_builtins4math20partial_availability4log217h0221cb967148cd81E
ffffff8040039db8 t _ZN17compiler_builtins4math20partial_availability5log2f17h746c6454071758cdE
ffffff8040039ef4 t _ZN17compiler_builtins4math20partial_availability4logf17hbf120d8285e86be4E
ffffff804003a010 t _ZN17compiler_builtins4math20partial_availability3pow17h4b9c326ce48a84afE
ffffff804003a014 t _ZN17compiler_builtins4math20partial_availability4powf17h48617ff8bd806489E
ffffff804003a018 t _ZN17compiler_builtins4math20partial_availability3sin17h08d5b45a2b415ce8E
ffffff804003a01c t _ZN17compiler_builtins4math20partial_availability4sinf17h7923b85b4c1fd102E
ffffff804003a020 t _ZN17compiler_builtins4math20partial_availability4sinh17h9d80cc239dd0fae7E
ffffff804003a0fc t _ZN17compiler_builtins4math20partial_availability5sinhf17h1a60c2b4f4855696E
ffffff804003a1d4 t _ZN17compiler_builtins4math20partial_availability3tan17h5c4bd1096088c9ffE
ffffff804003a1d8 t _ZN17compiler_builtins4math20partial_availability4tanf17h8eeada7c9b2c4a65E
ffffff804003a1dc t _ZN17compiler_builtins4math20partial_availability4tanh17h5b79780fa1672242E
ffffff804003a2c8 t _ZN17compiler_builtins4math20partial_availability5tanhf17h8aab23494c906527E
ffffff804003a3ac t _ZN17compiler_builtins4math20partial_availability6tgamma17h60d57d159fcf45faE
ffffff804003a3ac t tgamma
ffffff804003a3b0 t _ZN17compiler_builtins4math20partial_availability7tgammaf17ha29cae9e8325d044E
ffffff804003a3c8 t _ZN17compiler_builtins4math20partial_availability8lgamma_r17h638ab3c0ca354f6cE
ffffff804003a3e0 t _ZN17compiler_builtins4math20partial_availability9lgammaf_r17hb92d3f546670776cE
ffffff804003b000 r anon.cc2ff7f7321940ab6536a7fe48e9bf80.0.llvm.8748463403314903147
ffffff804003b17c r anon.e813357fc85ca8a06ed65c4c65226d76.0.llvm.2933690330478411478
ffffff804003b3dc r anon.f26d0b9e3093a981af6a8be1b4928abc.11.llvm.3407029370389482655
ffffff804003b4cd r anon.68a2173dda4ad76c21c4d82551a16dea.3.llvm.10839639132543840781
ffffff804003b4cd r anon.889ebdf6b9cc71cad8c2ba7e07853d7f.15.llvm.12628718258711518542
ffffff804003b4cd r anon.f26d0b9e3093a981af6a8be1b4928abc.18.llvm.3407029370389482655
ffffff804003b782 r anon.ad0e45dae042e187673c1026b51e33a7.27.llvm.17700286460196554606
ffffff804003b86b r anon.fa1135e30ec02eee59563ebdad11bf15.0.llvm.3034387368489957438
ffffff804003ba7d r anon.1b557fc0fad01b48baebb54fbdb1b15c.0.llvm.15567311495749703021
ffffff804003bc4c r anon.0a8891b0147ac8841f9191acf6543527.9.llvm.4480642595964994115
ffffff804003bdc1 r anon.68a2173dda4ad76c21c4d82551a16dea.1.llvm.10839639132543840781
ffffff804003bdc1 r anon.ad0e45dae042e187673c1026b51e33a7.15.llvm.17700286460196554606
ffffff804003bdc1 r anon.c037e65c92d0c0f8ecc723e5ebe21eb6.9.llvm.12858582106484937158
ffffff804003be33 r anon.3682d2b0c678f89f904ca25826799a8f.0.llvm.5365092688056064124
ffffff804003c0b5 r anon.2dab50b931f1fecfec2ebae3d371b030.2.llvm.2858496360019170218
ffffff804003c31e r anon.21b2691c44c568db92a75897f1bfcbdc.1.llvm.15753022479350262486
ffffff804003c6d0 r anon.f26d0b9e3093a981af6a8be1b4928abc.12.llvm.3407029370389482655
ffffff804003c770 r anon.f26d0b9e3093a981af6a8be1b4928abc.19.llvm.3407029370389482655
ffffff804003c820 r anon.68a2173dda4ad76c21c4d82551a16dea.2.llvm.10839639132543840781
ffffff804003c8b0 r anon.68a2173dda4ad76c21c4d82551a16dea.18.llvm.10839639132543840781
ffffff804003ca70 r anon.ad0e45dae042e187673c1026b51e33a7.16.llvm.17700286460196554606
ffffff804003cba8 r anon.ad0e45dae042e187673c1026b51e33a7.28.llvm.17700286460196554606
ffffff804003cc10 r anon.21b2691c44c568db92a75897f1bfcbdc.13.llvm.15753022479350262486
ffffff804003ccf8 r anon.c037e65c92d0c0f8ecc723e5ebe21eb6.10.llvm.12858582106484937158
ffffff804003cd38 r anon.2dab50b931f1fecfec2ebae3d371b030.3.llvm.2858496360019170218
ffffff804003d0f0 r anon.cc2ff7f7321940ab6536a7fe48e9bf80.3.llvm.8748463403314903147
ffffff804003d1f0 r anon.cc2ff7f7321940ab6536a7fe48e9bf80.2.llvm.8748463403314903147
ffffff804003d2c0 r anon.fc52ec84fb6532890bd3b64627580c50.17.llvm.1077708662128163129
ffffff804003d478 r anon.889ebdf6b9cc71cad8c2ba7e07853d7f.16.llvm.12628718258711518542
ffffff804003d490 r _ZN4core3fmt3num14DEC_DIGITS_LUT17he8abbfff549c4b29E
ffffff804003d498 r anon.e813357fc85ca8a06ed65c4c65226d76.1.llvm.2933690330478411478
ffffff804003d4b0 r anon.e813357fc85ca8a06ed65c4c65226d76.2.llvm.2933690330478411478
ffffff804003d4b6 r anon.e813357fc85ca8a06ed65c4c65226d76.5.llvm.2933690330478411478
ffffff804003d6aa R _ZN4core7unicode12unicode_data9lowercase17BITSET_CHUNKS_MAP17h34dc88253331ff91E
ffffff804003d728 R _ZN4core3num7flt2dec8strategy5grisu12CACHED_POW1017ha731fc5eb6747a2eE
ffffff804003dfc0 r anon.c13b69ad52ba410107602f9c6fa04ed1.31.llvm.4502031807564539388
ffffff804003dff0 r anon.c13b69ad52ba410107602f9c6fa04ed1.32.llvm.4502031807564539388
ffffff804003e550 r anon.4417ca78c1f768c3acb03bafbe434151.3.llvm.17867958754224609324
ffffff804003f07d R _ZN4core7unicode12unicode_data9lowercase19BITSET_INDEX_CHUNKS17h2230208b1f07d7d8E
ffffff804003f1c0 R _ZN4core7unicode12unicode_data9lowercase16BITSET_CANONICAL17hb2b35a558e7ba6a5E
ffffff804003f380 R _ZN4core7unicode12unicode_data9lowercase14BITSET_MAPPING17hf477c8b3e30b1f73E
ffffff804003f3ac r _ZN4core7unicode12unicode_data1n7OFFSETS17h1deb7e11e01e7e43E
ffffff804003f8cc r _ZN4core7unicode12unicode_data1n17SHORT_OFFSET_RUNS17hbb6b0690633febb4E
ffffff804003f974 r _ZN4core7unicode12unicode_data10alphabetic7OFFSETS17hd114c96c3ff6150fE
ffffff8040040120 r _ZN4core7unicode12unicode_data10alphabetic17SHORT_OFFSET_RUNS17h89c84a17508b2bdfE
ffffff80400401f4 r _ZN4core7unicode12unicode_data14case_ignorable7OFFSETS17hd98cbf622062f533E
ffffff804004057d R _ZN4core7unicode12unicode_data9uppercase17BITSET_CHUNKS_MAP17hf0e978a54aeb7131E
ffffff80400406d0 r anon.f5747f8a30617f13484b13b6c7938728.0.llvm.5487159759908997357
ffffff8040040750 r anon.f5747f8a30617f13484b13b6c7938728.1.llvm.5487159759908997357
ffffff8040040a90 r anon.260f6d567bd925f1c6076c232860314f.33.llvm.13990728864966725379
ffffff8040040ac0 r anon.260f6d567bd925f1c6076c232860314f.35.llvm.13990728864966725379
ffffff8040040ac3 r anon.260f6d567bd925f1c6076c232860314f.36.llvm.13990728864966725379
ffffff8040040ac5 r anon.260f6d567bd925f1c6076c232860314f.37.llvm.13990728864966725379
ffffff8040040ac7 r anon.260f6d567bd925f1c6076c232860314f.38.llvm.13990728864966725379
ffffff8040040aca r anon.260f6d567bd925f1c6076c232860314f.39.llvm.13990728864966725379
ffffff8040040acc r anon.260f6d567bd925f1c6076c232860314f.40.llvm.13990728864966725379
ffffff8040040ad3 r anon.260f6d567bd925f1c6076c232860314f.41.llvm.13990728864966725379
ffffff8040040ad9 r anon.260f6d567bd925f1c6076c232860314f.42.llvm.13990728864966725379
ffffff8040040adc r anon.260f6d567bd925f1c6076c232860314f.43.llvm.13990728864966725379
ffffff8040040add r anon.260f6d567bd925f1c6076c232860314f.44.llvm.13990728864966725379
ffffff8040040adf r anon.260f6d567bd925f1c6076c232860314f.45.llvm.13990728864966725379
ffffff8040040ae0 r anon.260f6d567bd925f1c6076c232860314f.46.llvm.13990728864966725379
ffffff8040040ae7 r anon.260f6d567bd925f1c6076c232860314f.49.llvm.13990728864966725379
ffffff8040040ae8 r anon.260f6d567bd925f1c6076c232860314f.50.llvm.13990728864966725379
ffffff8040040ae9 r anon.260f6d567bd925f1c6076c232860314f.51.llvm.13990728864966725379
ffffff8040040aea r anon.260f6d567bd925f1c6076c232860314f.52.llvm.13990728864966725379
ffffff8040040af3 r anon.260f6d567bd925f1c6076c232860314f.55.llvm.13990728864966725379
ffffff8040040af8 r anon.260f6d567bd925f1c6076c232860314f.56.llvm.13990728864966725379
ffffff8040040b20 r anon.260f6d567bd925f1c6076c232860314f.59.llvm.13990728864966725379
ffffff8040040d18 r _ZN4core7unicode12unicode_data14case_ignorable17SHORT_OFFSET_RUNS17hdfcb945764648552E
ffffff8040040dac R _ZN4core7unicode12unicode_data9uppercase19BITSET_INDEX_CHUNKS17h01c78a580c0a88aaE
ffffff8040040ec0 R _ZN4core7unicode12unicode_data9uppercase16BITSET_CANONICAL17h610d6106af663dd7E
ffffff8040041020 R _ZN4core7unicode12unicode_data9uppercase14BITSET_MAPPING17hbd52e654442dcc49E
ffffff8040041088 r _ZN4core7unicode12unicode_data15grapheme_extend7OFFSETS17hcf90ae9b12511590E
ffffff8040041378 r anon.920026e881060e3b094d1206568f9abf.0.llvm.7200089743956093358
ffffff80400413b8 r anon.920026e881060e3b094d1206568f9abf.1.llvm.7200089743956093358
ffffff80400417e0 r _ZN4core7unicode12unicode_data15grapheme_extend17SHORT_OFFSET_RUNS17h1687d0b1b7423d3cE
ffffff8040041ab6 r anon.fc52ec84fb6532890bd3b64627580c50.18.llvm.1077708662128163129
ffffff80400425f0 r anon.931c3b40fcdcb17467e20b420d3cbb01.38.llvm.10173621136629020908
ffffff8040042648 r anon.931c3b40fcdcb17467e20b420d3cbb01.39.llvm.10173621136629020908
ffffff8040042718 r anon.931c3b40fcdcb17467e20b420d3cbb01.40.llvm.10173621136629020908
ffffff80400428fe r anon.931c3b40fcdcb17467e20b420d3cbb01.41.llvm.10173621136629020908
ffffff804004294e r anon.931c3b40fcdcb17467e20b420d3cbb01.42.llvm.10173621136629020908
ffffff8040042a70 r anon.931c3b40fcdcb17467e20b420d3cbb01.43.llvm.10173621136629020908
ffffff8040042dd0 r anon.3682d2b0c678f89f904ca25826799a8f.5.llvm.5365092688056064124
ffffff8040042e11 r anon.3682d2b0c678f89f904ca25826799a8f.8.llvm.5365092688056064124
ffffff8040042e48 r anon.3682d2b0c678f89f904ca25826799a8f.11.llvm.5365092688056064124
ffffff8040042e90 r anon.3682d2b0c678f89f904ca25826799a8f.17.llvm.5365092688056064124
ffffff8040042ea8 r anon.3682d2b0c678f89f904ca25826799a8f.18.llvm.5365092688056064124
ffffff8040042ed8 r anon.3682d2b0c678f89f904ca25826799a8f.19.llvm.5365092688056064124
ffffff8040042ef0 r anon.3682d2b0c678f89f904ca25826799a8f.20.llvm.5365092688056064124
ffffff8040042ef1 r anon.3682d2b0c678f89f904ca25826799a8f.21.llvm.5365092688056064124
ffffff8040042ef2 r anon.3682d2b0c678f89f904ca25826799a8f.22.llvm.5365092688056064124
ffffff8040042ef5 r anon.3682d2b0c678f89f904ca25826799a8f.23.llvm.5365092688056064124
ffffff8040042ef8 r anon.3682d2b0c678f89f904ca25826799a8f.24.llvm.5365092688056064124
ffffff8040042f00 r anon.3682d2b0c678f89f904ca25826799a8f.25.llvm.5365092688056064124
ffffff8040042f18 r anon.3682d2b0c678f89f904ca25826799a8f.26.llvm.5365092688056064124
ffffff8040042f30 r anon.3682d2b0c678f89f904ca25826799a8f.27.llvm.5365092688056064124
ffffff8040042f60 r anon.3682d2b0c678f89f904ca25826799a8f.28.llvm.5365092688056064124
ffffff8040042f78 r anon.3682d2b0c678f89f904ca25826799a8f.29.llvm.5365092688056064124
ffffff8040042f7b r anon.3682d2b0c678f89f904ca25826799a8f.30.llvm.5365092688056064124
ffffff8040043198 r anon.0a8891b0147ac8841f9191acf6543527.10.llvm.4480642595964994115
ffffff80400431b0 r anon.0a8891b0147ac8841f9191acf6543527.11.llvm.4480642595964994115
ffffff80400431c8 r anon.0a8891b0147ac8841f9191acf6543527.12.llvm.4480642595964994115
ffffff80400431e2 r anon.0a8891b0147ac8841f9191acf6543527.13.llvm.4480642595964994115
ffffff80400431ff r anon.0a8891b0147ac8841f9191acf6543527.14.llvm.4480642595964994115
ffffff80400432b0 r anon.21b2691c44c568db92a75897f1bfcbdc.0.llvm.15753022479350262486
ffffff80400432d0 r anon.21b2691c44c568db92a75897f1bfcbdc.2.llvm.15753022479350262486
ffffff80400432e8 r anon.21b2691c44c568db92a75897f1bfcbdc.3.llvm.15753022479350262486
ffffff80400433ed r anon.21b2691c44c568db92a75897f1bfcbdc.12.llvm.15753022479350262486
ffffff80400435b0 r _ZN4core3num7dec2flt5table17POWER_OF_FIVE_12817ha7f94675ea2bbb1cE
ffffff804004c04c R _ZN4core7unicode12unicode_data11white_space14WHITESPACE_MAP17h6b05fffc2fcebb09E
ffffff804004c52c r _ZN4core7unicode12unicode_data5cased7OFFSETS17hbda5d2e0cc577d0dE
ffffff804004c72c r _ZN4core3num7flt2dec8strategy6dragon5POW1017h8a0d00f91570d3edE
ffffff804004c754 r _ZN4core3num7flt2dec8strategy6dragon8POW5TO1617hcf6ff2057efd7e1aE
ffffff804004c75c r _ZN4core3num7flt2dec8strategy6dragon8POW5TO3217ha07b93511f61d502E
ffffff804004c768 r _ZN4core3num7flt2dec8strategy6dragon8POW5TO6417h9f9c33060baaa182E
ffffff804004c77c r _ZN4core3num7flt2dec8strategy6dragon9POW5TO12817h134add3f4367ae06E
ffffff804004c7a4 r _ZN4core3num7flt2dec8strategy6dragon9POW5TO25617h406d72b19645034aE
ffffff804004cb20 r _ZN4core7unicode12unicode_data5cased17SHORT_OFFSET_RUNS17he8c38723ecdd41f3E
ffffff804004cb78 r _ZN17compiler_builtins4math9libm_math5exp2f6EXP2FT17h823cbbc3747f346aE.llvm.11845490579293323132
ffffff804004cbf8 r anon.fa1135e30ec02eee59563ebdad11bf15.1.llvm.3034387368489957438
ffffff804004cc10 r anon.cc2ff7f7321940ab6536a7fe48e9bf80.1.llvm.8748463403314903147
ffffff804004cc30 r _ZN17compiler_builtins4math9libm_math4exp23TBL17haccddf4f7a2cbfffE.llvm.3439616127147378872
ffffff804004ddc0 r anon.1b557fc0fad01b48baebb54fbdb1b15c.1.llvm.15567311495749703021
ffffff804004e8f8 R _ZN17compiler_builtins4math9libm_math7generic4sqrt9RSQRT_TAB17hc933fc1d84d16d62E
ffffff804004f000 D _ZN5alloc4sync18STATIC_INNER_SLICE17h0b0fa99759be84a5E
ffffff8040050000 b _ZN12cohesix_root9allocator6OFFSET17h9c7835475886ebeaE.0
ffffff8040050000 B __bss_start
ffffff8040050008 B __bss_end
ffffff8040051000 D __heap_start
ffffff8040151000 D __heap_end
ffffff8040151000 D __stack_start
ffffff8040161000 D __stack_end
