ffffff8040000000 T _sel4_start
ffffff8040000040 t _RNvCs9km79j5joxb_7___rustc17rust_begin_unwind
ffffff8040000048 t rust_eh_personality
ffffff804000004c T boot_log_hex
ffffff8040000050 T seL4_DebugPutChar
ffffff8040000054 T open
ffffff8040000094 T read
ffffff8040000094 T write
ffffff8040000104 T close
ffffff804000010c T execv
ffffff804000014c T getenv
ffffff804000018c T setenv
ffffff80400001f4 t _ZN12cohesix_root13load_bootargs17h30426794ab831836E
ffffff8040000238 t _ZN12cohesix_root7env_var17h99adedfe0d036c34E
ffffff8040000388 t _ZN12cohesix_root10write_role17h07689d5508c41d31E
ffffff80400004e0 t _ZN12cohesix_root9exec_init17hbb0cb1df1c035f26E
ffffff8040000528 T main
ffffff8040000628 t _RNvCs9km79j5joxb_7___rustc12___rust_alloc
ffffff80400006ec t _RNvCs9km79j5joxb_7___rustc14___rust_dealloc
ffffff80400006f0 t _RNvCs9km79j5joxb_7___rustc14___rust_realloc
ffffff80400007d4 t _RNvCs9km79j5joxb_7___rustc19___rust_alloc_zeroed
ffffff80400008b4 t _RNvCs9km79j5joxb_7___rustc8___rg_oom
ffffff80400008bc T _RNvCs9km79j5joxb_7___rustc26___rust_alloc_error_handler
ffffff80400008c0 T _RNvCs9km79j5joxb_7___rustc42___rust_alloc_error_handler_should_panic_v2
ffffff80400008c8 T _RNvCs9km79j5joxb_7___rustc35___rust_no_alloc_shim_is_unstable_v2
ffffff80400008cc t _ZN42_$LT$$RF$T$u20$as$u20$core..fmt..Debug$GT$3fmt17h2a004e8e8890b9a6E
ffffff80400008e0 t _ZN42_$LT$$RF$T$u20$as$u20$core..fmt..Debug$GT$3fmt17h6c254caa1e6db66eE
ffffff8040000930 t _ZN42_$LT$$RF$T$u20$as$u20$core..fmt..Debug$GT$3fmt17hf824d6f3223d0081E
ffffff804000094c t _ZN4core3fmt5Write9write_fmt17h1eafb237ac9492f8E
ffffff804000095c t _ZN4core3ptr238drop_in_place$LT$alloc..boxed..convert..$LT$impl$u20$core..convert..From$LT$alloc..string..String$GT$$u20$for$u20$alloc..boxed..Box$LT$dyn$u20$core..error..Error$u2b$core..marker..Send$u2b$core..marker..Sync$GT$$GT$..from..StringError$GT$17hefcc6e113746d217E
ffffff8040000974 t _ZN4core3ptr42drop_in_place$LT$alloc..string..String$GT$17h04130dafe0f33ffcE
ffffff804000098c t _ZN4core5error5Error5cause17hfe94e9cf2e9936ceE
ffffff8040000994 t _ZN4core5error5Error7provide17ha4797118ac6ccb0aE
ffffff8040000998 t _ZN4core5error5Error7type_id17h0380a86a666a2571E
ffffff80400009bc T _ZN4core9panicking13assert_failed17hd82aa1700a61aef5E
ffffff80400009e0 t _ZN53_$LT$core..fmt..Error$u20$as$u20$core..fmt..Debug$GT$3fmt17h938fb24e0f065f1eE
ffffff80400009f4 t _ZN69_$LT$core..alloc..layout..LayoutError$u20$as$u20$core..fmt..Debug$GT$3fmt17h9062cf28c07054ddE
ffffff8040000a08 t _ZN5alloc7raw_vec17capacity_overflow17hf69f692c8ad25768E
ffffff8040000a30 T _ZN5alloc7raw_vec19RawVec$LT$T$C$A$GT$8grow_one17h3de4c63d84da98b3E
ffffff8040000ac4 t _ZN5alloc7raw_vec20RawVecInner$LT$A$GT$7reserve21do_reserve_and_handle17h0be8635eb3c03938E
ffffff8040000b70 t _ZN5alloc7raw_vec11finish_grow17h6a02560c5cd6c3eaE
ffffff8040000be4 T _ZN5alloc7raw_vec12handle_error17haea5a220a5514fe0E
ffffff8040000bf4 T _ZN5alloc5alloc18handle_alloc_error17h00a992effd5520afE
ffffff8040000c04 T _ZN5alloc5alloc18handle_alloc_error8ct_error17h449aebcdc028bed7E
ffffff8040000c30 T _RNvCs9km79j5joxb_7___rustc9___rdl_oom
ffffff8040000cbc T _ZN92_$LT$alloc..borrow..Cow$LT$str$GT$$u20$as$u20$core..ops..arith..AddAssign$LT$$RF$str$GT$$GT$10add_assign17h245705677c807054E
ffffff8040000ea4 T _ZN77_$LT$alloc..borrow..Cow$LT$str$GT$$u20$as$u20$core..ops..arith..AddAssign$GT$10add_assign17hd736c88f9126b559E
ffffff80400010d0 T _ZN256_$LT$alloc..boxed..convert..$LT$impl$u20$core..convert..From$LT$alloc..string..String$GT$$u20$for$u20$alloc..boxed..Box$LT$dyn$u20$core..error..Error$u2b$core..marker..Send$u2b$core..marker..Sync$GT$$GT$..from..StringError$u20$as$u20$core..error..Error$GT$11description17hc26b1bf402662d46E
ffffff80400010dc T _ZN256_$LT$alloc..boxed..convert..$LT$impl$u20$core..convert..From$LT$alloc..string..String$GT$$u20$for$u20$alloc..boxed..Box$LT$dyn$u20$core..error..Error$u2b$core..marker..Send$u2b$core..marker..Sync$GT$$GT$..from..StringError$u20$as$u20$core..fmt..Display$GT$3fmt17h69820b2a38ecd922E
ffffff80400010f0 T _ZN254_$LT$alloc..boxed..convert..$LT$impl$u20$core..convert..From$LT$alloc..string..String$GT$$u20$for$u20$alloc..boxed..Box$LT$dyn$u20$core..error..Error$u2b$core..marker..Send$u2b$core..marker..Sync$GT$$GT$..from..StringError$u20$as$u20$core..fmt..Debug$GT$3fmt17h020f8afbf2a01249E
ffffff8040001104 T _ZN5alloc5boxed7convert130_$LT$impl$u20$core..convert..From$LT$alloc..string..String$GT$$u20$for$u20$alloc..boxed..Box$LT$dyn$u20$core..error..Error$GT$$GT$4from17hfda5df76c2466c2fE
ffffff804000114c T _ZN5alloc5boxed7convert116_$LT$impl$u20$core..convert..From$LT$$RF$str$GT$$u20$for$u20$alloc..boxed..Box$LT$dyn$u20$core..error..Error$GT$$GT$4from17h56ca72b56eafe257E
ffffff80400011f4 T _ZN5alloc5boxed7convert138_$LT$impl$u20$core..convert..From$LT$alloc..borrow..Cow$LT$str$GT$$GT$$u20$for$u20$alloc..boxed..Box$LT$dyn$u20$core..error..Error$GT$$GT$4from17hfc28d194e999bc24E
ffffff80400011f4 T _ZN5alloc5boxed7convert184_$LT$impl$u20$core..convert..From$LT$alloc..borrow..Cow$LT$str$GT$$GT$$u20$for$u20$alloc..boxed..Box$LT$dyn$u20$core..error..Error$u2b$core..marker..Send$u2b$core..marker..Sync$GT$$GT$4from17ha1f0c66410a34b46E
ffffff80400012b0 T _ZN67_$LT$alloc..boxed..Box$LT$str$GT$$u20$as$u20$core..clone..Clone$GT$5clone17ha344c14f4b0f4fb7E
ffffff8040001324 T _ZN88_$LT$alloc..collections..btree..map..UnorderedKeyError$u20$as$u20$core..fmt..Display$GT$3fmt17hfa5bfb9b87a1ef5bE
ffffff8040001340 T _ZN93_$LT$alloc..collections..btree..mem..replace..PanicGuard$u20$as$u20$core..ops..drop..Drop$GT$4drop17hff64de789a020de6E
ffffff8040001344 T _ZN74_$LT$alloc..collections..TryReserveError$u20$as$u20$core..fmt..Display$GT$3fmt17h1e1ec0cbaac8ca66E
ffffff80400013b4 T _ZN5alloc3ffi5c_str19FromVecWithNulError8as_bytes17hd238e4569f898c56E
ffffff80400013c0 T _ZN72_$LT$$RF$str$u20$as$u20$alloc..ffi..c_str..CString..new..SpecNewImpl$GT$13spec_new_impl17hf13ee1e88cb1c474E
ffffff80400013c0 T _ZN81_$LT$$RF$$u5b$u8$u5d$$u20$as$u20$alloc..ffi..c_str..CString..new..SpecNewImpl$GT$13spec_new_impl17h3eba0aab2ad2b956E
ffffff80400014c8 T _ZN89_$LT$$RF$mut$u20$$u5b$u8$u5d$$u20$as$u20$alloc..ffi..c_str..CString..new..SpecNewImpl$GT$13spec_new_impl17h559b4f2c28ec5f71E
ffffff80400015d0 T _ZN5alloc3ffi5c_str7CString18from_vec_unchecked17hdd7017723764627cE
ffffff80400015d4 T _ZN5alloc3ffi5c_str7CString19_from_vec_unchecked17h05c4ec079389123aE
ffffff80400016f4 T _ZN5alloc3ffi5c_str7CString8from_raw17h73e1fb048f9f4ae1E
ffffff8040001714 T _ZN5alloc3ffi5c_str7CString11into_string17hcbefa95fa33bc5c2E
ffffff80400017bc T _ZN5alloc3ffi5c_str7CString10into_bytes17h2c75c0dad246c107E
ffffff80400017d0 T _ZN5alloc3ffi5c_str7CString19into_bytes_with_nul17h45c79b14a5a1976eE
ffffff80400017d0 T _ZN97_$LT$alloc..string..String$u20$as$u20$core..convert..From$LT$alloc..boxed..Box$LT$str$GT$$GT$$GT$4from17hc5dc20d174ae9566E
ffffff80400017dc T _ZN5alloc3ffi5c_str7CString27from_vec_with_nul_unchecked17h1af251a6305a8767E
ffffff804000184c T _ZN5alloc3ffi5c_str7CString17from_vec_with_nul17h9df669acfb6b6f6cE
ffffff8040001950 T _ZN63_$LT$alloc..ffi..c_str..CString$u20$as$u20$core..fmt..Debug$GT$3fmt17h3878fbd6cf3e88fdE
ffffff8040001964 T _ZN69_$LT$alloc..ffi..c_str..CString$u20$as$u20$core..default..Default$GT$7default17hcaafc3643e95b58dE
ffffff8040001998 T _ZN5alloc3ffi5c_str100_$LT$impl$u20$core..default..Default$u20$for$u20$alloc..boxed..Box$LT$core..ffi..c_str..CStr$GT$$GT$7default17h19e1d82f14a50b12E
ffffff80400019cc T _ZN66_$LT$alloc..ffi..c_str..NulError$u20$as$u20$core..fmt..Display$GT$3fmt17h41306e1c28412c55E
ffffff8040001a18 T _ZN77_$LT$alloc..ffi..c_str..FromVecWithNulError$u20$as$u20$core..fmt..Display$GT$3fmt17h74618d1a57977779E
ffffff8040001a90 T _ZN73_$LT$alloc..ffi..c_str..IntoStringError$u20$as$u20$core..fmt..Display$GT$3fmt17h83ac5c6b2308b453E
ffffff8040001aa4 T _ZN5alloc3ffi5c_str75_$LT$impl$u20$alloc..borrow..ToOwned$u20$for$u20$core..ffi..c_str..CStr$GT$10clone_into17h48eb1dd78fdc68ccE
ffffff8040001b60 T _ZN100_$LT$alloc..ffi..c_str..CString$u20$as$u20$core..convert..From$LT$$RF$core..ffi..c_str..CStr$GT$$GT$4from17h04af0e83aafbc9f8E
ffffff8040001b60 T _ZN5alloc3ffi5c_str131_$LT$impl$u20$core..convert..From$LT$$RF$core..ffi..c_str..CStr$GT$$u20$for$u20$alloc..boxed..Box$LT$core..ffi..c_str..CStr$GT$$GT$4from17h888a253a6b29d308E
ffffff8040001b60 T _ZN5alloc3ffi5c_str139_$LT$impl$u20$core..convert..From$LT$$RF$mut$u20$core..ffi..c_str..CStr$GT$$u20$for$u20$alloc..boxed..Box$LT$core..ffi..c_str..CStr$GT$$GT$4from17h228ea18ed92b0e13E
ffffff8040001b60 T _ZN5alloc3ffi5c_str75_$LT$impl$u20$alloc..borrow..ToOwned$u20$for$u20$core..ffi..c_str..CStr$GT$8to_owned17h95512d7d82ceb5b4E
ffffff8040001bd4 T _ZN5alloc3ffi5c_str40_$LT$impl$u20$core..ffi..c_str..CStr$GT$15to_string_lossy17h7015872d041bd92bE
ffffff8040001bdc T _ZN5alloc3ffi5c_str40_$LT$impl$u20$core..ffi..c_str..CStr$GT$13into_c_string17h0e5d72959da8d999E
ffffff8040001bdc T _ZN5alloc3ffi5c_str7CString16into_boxed_c_str17hef9beaf6ae490638E
ffffff8040001be0 T _ZN5alloc3fmt6format12format_inner17he0c7299e28e207c4E
ffffff8040001d48 T _ZN5alloc2rc32rc_inner_layout_for_value_layout17hf19639a65c407d4aE
ffffff8040001db0 T _ZN5alloc3str21_$LT$impl$u20$str$GT$12to_lowercase17h2d50655a5f944f69E
ffffff8040002910 T _ZN5alloc3str21_$LT$impl$u20$str$GT$12to_uppercase17hc2a2c64a5adda05bE
ffffff804000311c T _ZN5alloc6string6String15from_utf8_lossy17h97c9d6799b545ee4E
ffffff8040003354 T _ZN5alloc6string6String21from_utf8_lossy_owned17h1b095a7b401033bfE
ffffff80400033dc T _ZN5alloc6string6String10from_utf1617h28e8f981bd6c4477E
ffffff8040003668 T _ZN5alloc6string6String12from_utf16le17h45da3e2b36af0330E
ffffff8040003a74 T _ZN5alloc6string6String18from_utf16le_lossy17hea2ca4857ab0d5f1E
ffffff8040003e00 T _ZN5alloc6string6String12from_utf16be17ha046a8a8ede3adb3E
ffffff80400041e0 T _ZN5alloc6string6String18from_utf16be_lossy17h691430846da91bb8E
ffffff80400044bc T _ZN5alloc6string6String14into_raw_parts17h5c9869e8761c8d0dE
ffffff80400044d0 T _ZN5alloc6string6String11try_reserve17h0b24590c771e9e18E
ffffff80400045a8 T _ZN5alloc6string6String17try_reserve_exact17h47b5f2d848e972cdE
ffffff8040004668 T _ZN5alloc6string13FromUtf8Error8as_bytes17h5963e815175364aeE
ffffff8040004674 T _ZN5alloc6string13FromUtf8Error15into_utf8_lossy17hb6048630a7351b16E
ffffff8040004838 T _ZN67_$LT$alloc..string..FromUtf8Error$u20$as$u20$core..fmt..Display$GT$3fmt17hef07d8e0cc14b138E
ffffff8040004840 T _ZN68_$LT$alloc..string..FromUtf16Error$u20$as$u20$core..fmt..Display$GT$3fmt17h393f70ee66e7ec9eE
ffffff8040004854 T _ZN60_$LT$alloc..string..String$u20$as$u20$core..clone..Clone$GT$5clone17hc7f011727954b9eaE
ffffff80400048d8 T _ZN60_$LT$alloc..string..String$u20$as$u20$core..clone..Clone$GT$10clone_from17h9f5014c8ce1ce872E
ffffff8040004940 t _ZN89_$LT$alloc..string..String$u20$as$u20$core..iter..traits..collect..Extend$LT$char$GT$$GT$6extend17hf7cc5a96e8f1c396E
ffffff8040004b84 T _ZN73_$LT$$RF$alloc..string..String$u20$as$u20$core..str..pattern..Pattern$GT$13into_searcher17hdf226f74a2d4a08aE
ffffff8040004b98 T _ZN5alloc6string107_$LT$impl$u20$core..convert..From$LT$alloc..string..String$GT$$u20$for$u20$alloc..boxed..Box$LT$str$GT$$GT$4from17h9a7b62bef130e52bE
ffffff8040004bec T _ZN98_$LT$alloc..string..String$u20$as$u20$core..convert..From$LT$alloc..borrow..Cow$LT$str$GT$$GT$$GT$4from17h5d94df14a4fb830dE
ffffff8040004ca0 T _ZN97_$LT$alloc..string..String$u20$as$u20$core..convert..TryFrom$LT$alloc..vec..Vec$LT$u8$GT$$GT$$GT$8try_from17h0df467a400d19e91E
ffffff8040004d2c t _ZN58_$LT$alloc..string..String$u20$as$u20$core..fmt..Write$GT$9write_str17h16065f27105a9e10E
ffffff8040004da0 t _ZN58_$LT$alloc..string..String$u20$as$u20$core..fmt..Write$GT$10write_char17ha5dffde71b0fad09E
ffffff8040004ed0 T _ZN61_$LT$alloc..string..IntoChars$u20$as$u20$core..fmt..Debug$GT$3fmt17hf953f078a4c07ad1E
ffffff8040004f2c T _ZN57_$LT$alloc..string..Drain$u20$as$u20$core..fmt..Debug$GT$3fmt17hb7c38ef0e6a9855cE
ffffff8040004f84 T _ZN62_$LT$alloc..string..Drain$u20$as$u20$core..ops..drop..Drop$GT$4drop17ha45837706cade72fE
ffffff8040004ff8 T _ZN5alloc6string5Drain6as_str17h478db5538bc8f3bfE
ffffff8040005008 T _ZN72_$LT$alloc..string..Drain$u20$as$u20$core..convert..AsRef$LT$str$GT$$GT$6as_ref17h79776130728d3c86E
ffffff8040005008 T _ZN81_$LT$alloc..string..Drain$u20$as$u20$core..convert..AsRef$LT$$u5b$u8$u5d$$GT$$GT$6as_ref17hcc59ad9836cb8740E
ffffff8040005018 T _ZN79_$LT$alloc..string..Drain$u20$as$u20$core..iter..traits..iterator..Iterator$GT$9size_hint17h26883fde3d59afa9E
ffffff8040005038 T _ZN5alloc4sync32arcinner_layout_for_value_layout17hd9cccd230db65d3cE
ffffff80400050a0 T _ZN5alloc3vec16Vec$LT$T$C$A$GT$11swap_remove13assert_failed17h127ecfe1062631c0E
ffffff80400050bc T _ZN5alloc3vec16Vec$LT$T$C$A$GT$6insert13assert_failed17hfe69cfff49775096E
ffffff80400050d8 T _ZN5alloc3vec16Vec$LT$T$C$A$GT$6remove13assert_failed17h2730b3efd512139dE
ffffff80400050f4 T _ZN5alloc3vec16Vec$LT$T$C$A$GT$9split_off13assert_failed17h0092d2e97e9d9d68E
ffffff8040005110 T _ZN80_$LT$alloc..vec..Vec$LT$u8$GT$$u20$as$u20$core..convert..From$LT$$RF$str$GT$$GT$4from17hfb5e51d6489df66eE
ffffff8040005194 t OUTLINED_FUNCTION_0
ffffff80400051b4 t OUTLINED_FUNCTION_1
ffffff80400051d4 T _ZN4core3num7dec2flt11decimal_seq10DecimalSeq4trim17h7c0fcb16814d8b0eE
ffffff804000521c T _ZN4core3num7dec2flt11decimal_seq10DecimalSeq5round17h54004ea8b570cc04E
ffffff80400052d0 T _ZN4core3num7dec2flt11decimal_seq10DecimalSeq10left_shift17hc751f46123e40251E
ffffff80400054c4 T _ZN4core3num7dec2flt11decimal_seq10DecimalSeq11right_shift17h099dd1e6b3fee0d9E
ffffff8040005674 T _ZN4core3num7dec2flt11decimal_seq17parse_decimal_seq17hd4e224377bde80caE
ffffff8040005a40 T _ZN59_$LT$f32$u20$as$u20$core..num..dec2flt..float..RawFloat$GT$15pow10_fast_path17h80263361d2917743E
ffffff8040005a54 T _ZN59_$LT$f64$u20$as$u20$core..num..dec2flt..float..RawFloat$GT$15pow10_fast_path17h78dcbf49c4778499E
ffffff8040005a68 t _ZN4core3num7dec2flt6lemire13compute_float17hb4200411f526ca7dE
ffffff8040005bb8 t _ZN4core3num7dec2flt6lemire13compute_float17hd4f848931fe0374eE
ffffff8040005ce4 t _ZN4core3num7dec2flt6lemire13compute_float17hf3080553d4609232E
ffffff8040005e34 T _ZN4core3num7dec2flt6lemire22compute_product_approx17hf62a94ecbe489e28E
ffffff8040005e98 T _ZN4core3num7dec2flt5parse12parse_number17h7118c925b834a1fdE
ffffff80400062cc T _ZN74_$LT$core..num..dec2flt..ParseFloatError$u20$as$u20$core..fmt..Display$GT$3fmt17h97b17e14a565546cE
ffffff80400062fc T _ZN4core3num9diy_float2Fp3mul17hbc15be50ad3fc506E
ffffff8040006314 T _ZN4core3num9diy_float2Fp9normalize17h661ce60fb8a223a0E
ffffff8040006324 T _ZN4core3num9diy_float2Fp12normalize_to17hcb78deaba0f42e22E
ffffff8040006398 T _ZN4core3num7flt2dec9estimator23estimate_scaling_factor17hdee6477bdc29e8c3E
ffffff80400063c8 T _ZN4core3num7flt2dec8strategy6dragon9mul_pow1017h005963c57dca7f32E
ffffff8040006fec T _ZN4core3num7flt2dec8strategy6dragon15format_shortest17h9ce05095ea490398E
ffffff8040007be8 T _ZN4core3num7flt2dec8strategy6dragon12format_exact17h2c228bd23407dd2bE
ffffff8040008678 T _ZN4core3num7flt2dec8strategy5grisu12cached_power17h8bedc3f1bf2468c8E
ffffff80400086e4 T _ZN4core3num7flt2dec8strategy5grisu19format_shortest_opt17h700b0415ea2a828dE
ffffff8040008ccc T _ZN4core3num7flt2dec8strategy5grisu15format_shortest17hbe12230ab71c70feE
ffffff8040008d40 T _ZN4core3num7flt2dec8strategy5grisu16format_exact_opt17h54055fed655dd95eE
ffffff80400090c0 t _ZN4core3num7flt2dec8strategy5grisu16format_exact_opt14possibly_round17h5b2ef35515121898E
ffffff80400092ac T _ZN4core3num7flt2dec8strategy5grisu12format_exact17hb0c07357817b2f07E
ffffff804000932c T _ZN4core3num7flt2dec8round_up17hc9e6a60c8f3dac79E
ffffff8040009404 T _ZN4core3num7flt2dec17digits_to_dec_str17hb86d3b8d48659c69E
ffffff804000956c T _ZN4core3num7flt2dec17digits_to_exp_str17h7dce5ac7c8435e06E
ffffff80400096c8 T _ZN4core3num3fmt4Part5write17h2c67cb82e5c30c1aE
ffffff8040009850 T _ZN4core3num3fmt9Formatted3len17h4431b8f70147d1bdE
ffffff80400098e4 T _ZN4core3num3fmt9Formatted5write17h696d00089874d40eE
ffffff804000999c T _ZN72_$LT$core..num..error..TryFromIntError$u20$as$u20$core..fmt..Display$GT$3fmt17h90e5ed18e8f8606fE
ffffff80400099b0 T _ZN70_$LT$core..num..error..ParseIntError$u20$as$u20$core..fmt..Display$GT$3fmt17h25f8d34cca8b58c4E
ffffff80400099d8 T _ZN4core3num9int_log1030panic_for_nonpositive_argument17hf00c537f824a4d93E
ffffff8040009a00 T _ZN4core3num8int_sqrt27panic_for_negative_argument17heb8a293adcbc2674E
ffffff8040009a28 T _ZN4core3num14overflow_panic3add17h1265dea71252af63E
ffffff8040009a50 T _ZN4core3num14overflow_panic3sub17h29cfd042666635d8E
ffffff8040009a78 T _ZN4core3num14overflow_panic3mul17h29c2fb7c7dff3f4bE
ffffff8040009aa0 T _ZN4core3num14overflow_panic3div17hb6f6e6de4d5456feE
ffffff8040009ac8 T _ZN4core3num14overflow_panic3rem17h2f3064d287553e51E
ffffff8040009af0 T _ZN4core3num14overflow_panic3neg17h170b6eceab209621E
ffffff8040009b18 T _ZN4core3num14overflow_panic3shr17h668a096c3ef949f2E
ffffff8040009b40 T _ZN4core3num14overflow_panic3shl17hb6c4b2ee42e1bb22E
ffffff8040009b68 T _ZN4core3num22from_ascii_radix_panic17hbdb0d626271ccf61E
ffffff8040009b6c T _ZN76_$LT$core..mem..transmutability..Assume$u20$as$u20$core..ops..arith..Sub$GT$3sub17h9106ffb8d8185ebdE
ffffff8040009b78 T _ZN68_$LT$core..ptr..alignment..Alignment$u20$as$u20$core..fmt..Debug$GT$3fmt17hef6a00e6312f4e46E
ffffff8040009bec T _ZN69_$LT$core..ffi..c_str..CStr$u20$as$u20$core..clone..CloneToUninit$GT$15clone_to_uninit17h23365e84849339fdE
ffffff8040009c00 T _ZN57_$LT$core..error..Request$u20$as$u20$core..fmt..Debug$GT$3fmt17hfce4b9e93186ab09E
ffffff8040009c5c T _ZN78_$LT$core..error..Source$u20$as$u20$core..iter..traits..iterator..Iterator$GT$4next17h7bd07b1f74125dd6E
ffffff8040009cac T _ZN64_$LT$core..ops..range..RangeFull$u20$as$u20$core..fmt..Debug$GT$3fmt17h927f76a1e127c133E
ffffff8040009cc8 t _ZN71_$LT$core..ops..range..Range$LT$Idx$GT$$u20$as$u20$core..fmt..Debug$GT$3fmt17hc34948018f49ee58E
ffffff8040009edc T _ZN105_$LT$dyn$u20$core..any..Any$u2b$core..marker..Send$u2b$core..marker..Sync$u20$as$u20$core..fmt..Debug$GT$3fmt17hdcd2d97306de95d2E
ffffff8040009edc T _ZN59_$LT$dyn$u20$core..any..Any$u20$as$u20$core..fmt..Debug$GT$3fmt17h0da794247e761a91E
ffffff8040009edc T _ZN82_$LT$dyn$u20$core..any..Any$u2b$core..marker..Send$u20$as$u20$core..fmt..Debug$GT$3fmt17h0fd416d1a3475018E
ffffff8040009f38 T _ZN54_$LT$core..any..TypeId$u20$as$u20$core..fmt..Debug$GT$3fmt17hcdc1409d85d25d9eE
ffffff8040009f98 T _ZN73_$LT$core..ascii..ascii_char..AsciiChar$u20$as$u20$core..fmt..Display$GT$3fmt17h998ae8903dd1fa41E
ffffff8040009fac T _ZN71_$LT$core..ascii..ascii_char..AsciiChar$u20$as$u20$core..fmt..Debug$GT$3fmt17hf27e2c27cad9d60aE
ffffff804000a0f8 T _ZN4core5ascii14escape_default17hb62cf19dd70c4deeE
ffffff804000a16c T _ZN65_$LT$core..ascii..EscapeDefault$u20$as$u20$core..fmt..Display$GT$3fmt17h6d8e9708868e4192E
ffffff804000a18c T _ZN63_$LT$core..ascii..EscapeDefault$u20$as$u20$core..fmt..Debug$GT$3fmt17hf03d9aed5d7003bbE
ffffff804000a1e8 T _ZN56_$LT$core..bstr..ByteStr$u20$as$u20$core..fmt..Debug$GT$3fmt17h41bc17da3370cb62E
ffffff804000a48c T _ZN58_$LT$core..bstr..ByteStr$u20$as$u20$core..fmt..Display$GT$3fmt17h7858e5e6919967c0E
ffffff804000a8b4 T _ZN4core4cell4lazy14panic_poisoned17h26f0bb08a0cd6d1eE
ffffff804000a8e0 T _ZN62_$LT$core..cell..BorrowError$u20$as$u20$core..fmt..Display$GT$3fmt17h741fed88f3632778E
ffffff804000a8f4 T _ZN65_$LT$core..cell..BorrowMutError$u20$as$u20$core..fmt..Display$GT$3fmt17h39d5c787fe7bdaafE
ffffff804000a908 T _ZN4core4cell22panic_already_borrowed17h7603d9f48a326e22E
ffffff804000a90c T _ZN4core4cell30panic_already_mutably_borrowed17h90ec8d5b013da144E
ffffff804000a910 T _ZN74_$LT$core..char..convert..ParseCharError$u20$as$u20$core..fmt..Display$GT$3fmt17hfc8ee1e0cc4cd69bE
ffffff804000a940 T _ZN76_$LT$core..char..convert..CharTryFromError$u20$as$u20$core..fmt..Display$GT$3fmt17hf1ff64e8793d7077E
ffffff804000a954 T _ZN75_$LT$core..char..decode..DecodeUtf16Error$u20$as$u20$core..fmt..Display$GT$3fmt17h711a3e6337ea6a10E
ffffff804000a99c t _ZN4core4char7methods22_$LT$impl$u20$char$GT$16escape_debug_ext17h5d10aed960276279E
ffffff804000ac5c T _ZN64_$LT$core..char..EscapeUnicode$u20$as$u20$core..fmt..Display$GT$3fmt17haed9996bce11ba3aE
ffffff804000ac7c t _ZN62_$LT$core..char..EscapeDebug$u20$as$u20$core..fmt..Display$GT$3fmt17h2334f80ca22b1ea6E
ffffff804000acb4 T _ZN86_$LT$core..char..CaseMappingIter$u20$as$u20$core..iter..traits..iterator..Iterator$GT$4next17h162fc753f00f120bE
ffffff804000ace0 T _ZN86_$LT$core..char..CaseMappingIter$u20$as$u20$core..iter..traits..iterator..Iterator$GT$5count17h39e23f261ff16654E
ffffff804000acec T _ZN86_$LT$core..char..CaseMappingIter$u20$as$u20$core..iter..traits..iterator..Iterator$GT$4last17h622e187a093e7d96E
ffffff804000ad2c T _ZN86_$LT$core..char..CaseMappingIter$u20$as$u20$core..iter..traits..iterator..Iterator$GT$10advance_by17hf27553143e321744E
ffffff804000ad50 T _ZN86_$LT$core..char..CaseMappingIter$u20$as$u20$core..iter..traits..iterator..Iterator$GT$24__iterator_get_unchecked17h0cab3c08bc655549E
ffffff804000ad64 T _ZN101_$LT$core..char..CaseMappingIter$u20$as$u20$core..iter..traits..double_ended..DoubleEndedIterator$GT$9next_back17h275faf676a0bbeffE
ffffff804000ad8c T _ZN101_$LT$core..char..CaseMappingIter$u20$as$u20$core..iter..traits..double_ended..DoubleEndedIterator$GT$15advance_back_by17ha21f5490f4bf28c2E
ffffff804000adb4 T _ZN67_$LT$core..char..TryFromCharError$u20$as$u20$core..fmt..Display$GT$3fmt17h6f7e98c7a2bb6a90E
ffffff804000adc8 T _ZN79_$LT$core..ffi..c_str..FromBytesUntilNulError$u20$as$u20$core..fmt..Display$GT$3fmt17h829ed8aa1fd971b9E
ffffff804000ade4 T _ZN59_$LT$core..ffi..c_str..CStr$u20$as$u20$core..fmt..Debug$GT$3fmt17h041410f3bc72b375E
ffffff804000adec T _ZN78_$LT$core..ffi..c_str..FromBytesWithNulError$u20$as$u20$core..fmt..Display$GT$3fmt17h787487f5e2548880E
ffffff804000aeac T _ZN4core3ffi5c_str4CStr20from_bytes_until_nul17hfaa1cb7e4d902ca4E
ffffff804000af84 T _ZN4core3ffi5c_str4CStr19from_bytes_with_nul17h46f6ff27a7487ea4E
ffffff804000b074 T _ZN4core3ffi5c_str4CStr6to_str17h6cbf022306fa898aE
ffffff804000b07c T _ZN54_$LT$core..ffi..c_void$u20$as$u20$core..fmt..Debug$GT$3fmt17h699c4a7f902ae9e6E
ffffff804000b098 T _ZN72_$LT$core..io..borrowed_buf..BorrowedBuf$u20$as$u20$core..fmt..Debug$GT$3fmt17h84ae8e3cdc45a258E
ffffff804000b19c t _ZN86_$LT$core..net..display_buffer..DisplayBuffer$LT$_$GT$$u20$as$u20$core..fmt..Write$GT$9write_str17h3090a8e73aa63364E
ffffff804000b1e0 t _ZN86_$LT$core..net..display_buffer..DisplayBuffer$LT$_$GT$$u20$as$u20$core..fmt..Write$GT$9write_str17h9d2c81775ca2d6ffE
ffffff804000b224 t _ZN86_$LT$core..net..display_buffer..DisplayBuffer$LT$_$GT$$u20$as$u20$core..fmt..Write$GT$9write_str17hd89ec4299f1c63f0E
ffffff804000b268 t _ZN86_$LT$core..net..display_buffer..DisplayBuffer$LT$_$GT$$u20$as$u20$core..fmt..Write$GT$9write_str17he6b7c06b0d20248fE
ffffff804000b2ac T _ZN65_$LT$core..net..ip_addr..IpAddr$u20$as$u20$core..fmt..Display$GT$3fmt17hd52c13961ed7b8caE
ffffff804000b2c0 T _ZN63_$LT$core..net..ip_addr..IpAddr$u20$as$u20$core..fmt..Debug$GT$3fmt17h2a855244e56726a0E
ffffff804000b2d4 T _ZN67_$LT$core..net..ip_addr..Ipv4Addr$u20$as$u20$core..fmt..Display$GT$3fmt17h7c79d906e8f15116E
ffffff804000b424 T _ZN65_$LT$core..net..ip_addr..Ipv4Addr$u20$as$u20$core..fmt..Debug$GT$3fmt17hc3f5f1c4f6c3ec6bE
ffffff804000b428 T _ZN67_$LT$core..net..ip_addr..Ipv6Addr$u20$as$u20$core..fmt..Display$GT$3fmt17ha729c3e15891e5c8E
ffffff804000bad4 t _ZN67_$LT$core..net..ip_addr..Ipv6Addr$u20$as$u20$core..fmt..Display$GT$3fmt12fmt_subslice17h9c2dbbe247c5fd96E
ffffff804000bbd0 T _ZN65_$LT$core..net..ip_addr..Ipv6Addr$u20$as$u20$core..fmt..Debug$GT$3fmt17h50a48c6da7fa0fdcE
ffffff804000bbd4 t _ZN4core3net6parser6Parser11read_number28_$u7b$$u7b$closure$u7d$$u7d$17hcacac5a991c5e092E
ffffff804000be68 t _ZN4core3net6parser6Parser14read_ipv4_addr17h936ee4b36ff4a94bE
ffffff804000c130 t _ZN4core3net6parser6Parser14read_ipv6_addr17h4fbc51957a1f365aE
ffffff804000c27c t _ZN4core3net6parser6Parser14read_ipv6_addr11read_groups17h6865c59c876458f7E
ffffff804000c4a0 t _ZN4core3net6parser6Parser19read_socket_addr_v617h898ee9a87139de01E
ffffff804000c670 T _ZN4core3net6parser44_$LT$impl$u20$core..net..ip_addr..IpAddr$GT$11parse_ascii17h5360f031748a6dbeE
ffffff804000c724 T _ZN4core3net6parser83_$LT$impl$u20$core..str..traits..FromStr$u20$for$u20$core..net..ip_addr..IpAddr$GT$8from_str17h917afadeb7cdf3e5E
ffffff804000c7d8 T _ZN4core3net6parser46_$LT$impl$u20$core..net..ip_addr..Ipv4Addr$GT$11parse_ascii17ha214296d7b866359E
ffffff804000c84c T _ZN4core3net6parser85_$LT$impl$u20$core..str..traits..FromStr$u20$for$u20$core..net..ip_addr..Ipv4Addr$GT$8from_str17h99ee542d7f86e847E
ffffff804000c8c0 T _ZN4core3net6parser46_$LT$impl$u20$core..net..ip_addr..Ipv6Addr$GT$11parse_ascii17hd40c35a813aa0c0cE
ffffff804000c93c T _ZN4core3net6parser85_$LT$impl$u20$core..str..traits..FromStr$u20$for$u20$core..net..ip_addr..Ipv6Addr$GT$8from_str17hceaf7f6bfc2e5f31E
ffffff804000c9b8 T _ZN4core3net6parser54_$LT$impl$u20$core..net..socket_addr..SocketAddrV4$GT$11parse_ascii17hcd3d1cebb5bab893E
ffffff804000cac4 T _ZN4core3net6parser93_$LT$impl$u20$core..str..traits..FromStr$u20$for$u20$core..net..socket_addr..SocketAddrV4$GT$8from_str17h2a77c05b8ee9d4b3E
ffffff804000cbcc T _ZN4core3net6parser54_$LT$impl$u20$core..net..socket_addr..SocketAddrV6$GT$11parse_ascii17ha86a2a5ceb5c3b47E
ffffff804000cc34 T _ZN4core3net6parser93_$LT$impl$u20$core..str..traits..FromStr$u20$for$u20$core..net..socket_addr..SocketAddrV6$GT$8from_str17hf9364ad2a989f713E
ffffff804000cc9c T _ZN4core3net6parser52_$LT$impl$u20$core..net..socket_addr..SocketAddr$GT$11parse_ascii17h84235b2d2896c7c3E
ffffff804000ce34 T _ZN4core3net6parser91_$LT$impl$u20$core..str..traits..FromStr$u20$for$u20$core..net..socket_addr..SocketAddr$GT$8from_str17h057f852ef6760a4dE
ffffff804000ce38 T _ZN72_$LT$core..net..parser..AddrParseError$u20$as$u20$core..fmt..Display$GT$3fmt17hbf5b963b2561ed62E
ffffff804000ce60 T _ZN73_$LT$core..net..socket_addr..SocketAddr$u20$as$u20$core..fmt..Display$GT$3fmt17h0d4152b27441e2b6E
ffffff804000ce7c T _ZN71_$LT$core..net..socket_addr..SocketAddr$u20$as$u20$core..fmt..Debug$GT$3fmt17h3a344a47b75b43b9E
ffffff804000ce98 T _ZN75_$LT$core..net..socket_addr..SocketAddrV4$u20$as$u20$core..fmt..Display$GT$3fmt17h3b15bdbe194d080dE
ffffff804000cfe4 T _ZN73_$LT$core..net..socket_addr..SocketAddrV4$u20$as$u20$core..fmt..Debug$GT$3fmt17h5a9c35f3a79a496eE
ffffff804000cfe8 T _ZN75_$LT$core..net..socket_addr..SocketAddrV6$u20$as$u20$core..fmt..Display$GT$3fmt17had2ab5ff282a9fe1E
ffffff804000d21c T _ZN73_$LT$core..net..socket_addr..SocketAddrV6$u20$as$u20$core..fmt..Debug$GT$3fmt17h26819f5a63392642E
ffffff804000d220 T _ZN4core6option13unwrap_failed17h1371d7ce04f15d73E
ffffff804000d234 T _ZN4core6option13expect_failed17h2c63b24f95b1f821E
ffffff804000d270 T _ZN68_$LT$core..panic..location..Location$u20$as$u20$core..fmt..Debug$GT$3fmt17hac1e4ec43af98500E
ffffff804000d378 T _ZN73_$LT$core..panic..panic_info..PanicInfo$u20$as$u20$core..fmt..Display$GT$3fmt17h29993e9d30bff7dfE
ffffff804000d4b0 T _ZN4core9panicking9panic_fmt17h9d713228c21ab3c5E
ffffff804000d4c8 T _ZN4core9panicking18panic_nounwind_fmt17hfc5437e9c19ab70bE
ffffff804000d4e0 T _ZN4core9panicking5panic17hc07c9e42450a4c65E
ffffff804000d50c T _ZN4core9panicking14panic_nounwind17h1a881938f6bf7f5fE
ffffff804000d540 T _ZN4core9panicking26panic_nounwind_nobacktrace17hbf3be763f51c5280E
ffffff804000d574 T _ZN4core9panicking14panic_explicit17h035c1c80cf203947E
ffffff804000d5b4 T _ZN4core9panicking18panic_bounds_check17hfdf5adf5217b60d5E
ffffff804000d5f8 T _ZN4core9panicking36panic_misaligned_pointer_dereference17h6c8ce13a898bb4f8E
ffffff804000d638 T _ZN4core9panicking30panic_null_pointer_dereference17hf17b580a15557ee4E
ffffff804000d664 T _ZN4core9panicking31panic_invalid_enum_construction17h21695870630f51a7E
ffffff804000d69c T _ZN4core9panicking19panic_cannot_unwind17hbde0726e421feab5E
ffffff804000d6ac T _ZN4core9panicking16panic_in_cleanup17h9ae3e534a254e17aE
ffffff804000d6bc T _ZN4core9panicking15const_panic_fmt17h89d2781f40102ac8E
ffffff804000d714 T _ZN4core9panicking13assert_failed17h43f1ec3ba24d64fcE
ffffff804000d724 T _ZN4core9panicking13assert_failed17ha8aeabc993bb9b06E
ffffff804000d734 T _ZN84_$LT$core..panicking..assert_matches_failed..Pattern$u20$as$u20$core..fmt..Debug$GT$3fmt17h1d051746dbf85c24E
ffffff804000d748 T _ZN4core9panicking19assert_failed_inner17h6acee73b07427e19E
ffffff804000d820 T _ZN48_$LT$char$u20$as$u20$core..pat..RangePattern$GT$7sub_one17h817cd609e7e8a860E
ffffff804000d868 T _ZN4core6result13unwrap_failed17h4c156f46067d695bE
ffffff804000d8bc T _ZN67_$LT$core..sync..atomic..AtomicBool$u20$as$u20$core..fmt..Debug$GT$3fmt17h3b4bbd5604eca0ceE
ffffff804000d8e8 T _ZN4core3fmt8builders10PadAdapter4wrap17he93c13d4f891c7caE
ffffff804000d90c T _ZN68_$LT$core..fmt..builders..PadAdapter$u20$as$u20$core..fmt..Write$GT$9write_str17he7c19a9be309dd23E
ffffff804000db54 T _ZN68_$LT$core..fmt..builders..PadAdapter$u20$as$u20$core..fmt..Write$GT$10write_char17h19c63273f0119cd3E
ffffff804000dbd0 T _ZN4core3fmt8builders11DebugStruct5field17h8a40d59353f8f3c0E
ffffff804000dd70 T _ZN4core3fmt8builders11DebugStruct21finish_non_exhaustive17h0143d76f7547f8e5E
ffffff804000de38 T _ZN4core3fmt8builders11DebugStruct6finish17heb9d40d604b9d38dE
ffffff804000dea8 T _ZN4core3fmt8builders10DebugTuple5field17h8ff1dd2eda21bd11E
ffffff804000dfdc T _ZN4core3fmt8builders10DebugTuple21finish_non_exhaustive17h9ec18f2a8880148cE
ffffff804000e0a0 T _ZN4core3fmt8builders10DebugTuple6finish17h4541abafe4f20742E
ffffff804000e14c T _ZN4core3fmt8builders8DebugSet5entry17h1c86870fac470dedE
ffffff804000e14c T _ZN4core3fmt8builders9DebugList5entry17h733c641c554e6041E
ffffff804000e27c T _ZN4core3fmt8builders8DebugSet21finish_non_exhaustive17h727a2f4658c55ddeE
ffffff804000e344 T _ZN4core3fmt8builders8DebugSet6finish17h96f544460f942968E
ffffff804000e38c T _ZN4core3fmt8builders9DebugList21finish_non_exhaustive17h984b1ba870c9d88bE
ffffff804000e464 T _ZN4core3fmt8builders9DebugList6finish17ha555d31931f6e17cE
ffffff804000e4ac T _ZN4core3fmt8builders8DebugMap5entry17h59adedcf06c543eaE
ffffff804000e5b8 T _ZN4core3fmt8builders8DebugMap3key17h72170acede96ac11E
ffffff804000e740 T _ZN4core3fmt8builders8DebugMap5value17h2834d1cb8965df39E
ffffff804000e83c T _ZN4core3fmt8builders8DebugMap21finish_non_exhaustive17h1402ba156e16765eE
ffffff804000e938 T _ZN4core3fmt8builders8DebugMap6finish17h4c208ca97cbb08edE
ffffff804000e9c0 t _ZN4core3fmt5float29float_to_decimal_common_exact17h9c7ceebd3fe704a4E
ffffff804000ece8 t _ZN4core3fmt5float29float_to_decimal_common_exact17hcd5ef4cc0123ad53E
ffffff804000f010 t _ZN4core3fmt5float29float_to_decimal_common_exact17hd016d96aa3673bb4E
ffffff804000f334 t _ZN4core3fmt5float32float_to_decimal_common_shortest17h2300f47b74780fa6E
ffffff804000f574 t _ZN4core3fmt5float32float_to_decimal_common_shortest17h41e0338f7cdcd7ccE
ffffff804000f7b4 t _ZN4core3fmt5float32float_to_decimal_common_shortest17h4d9c0b970d954962E
ffffff804000f9f0 t _ZN4core3fmt5float33float_to_exponential_common_exact17h48461a6bc24967c7E
ffffff804000fd34 t _ZN4core3fmt5float33float_to_exponential_common_exact17h53c44d889bf3338fE
ffffff804001007c t _ZN4core3fmt5float33float_to_exponential_common_exact17h87996f9ff7edc817E
ffffff80400103c4 t _ZN4core3fmt5float36float_to_exponential_common_shortest17h1c92269582e9c1c0E
ffffff80400106c0 t _ZN4core3fmt5float36float_to_exponential_common_shortest17h7338d212f4aa15ebE
ffffff80400109c0 t _ZN4core3fmt5float36float_to_exponential_common_shortest17hb79032da60e67709E
ffffff8040010cc0 T _ZN4core3fmt3num53_$LT$impl$u20$core..fmt..Display$u20$for$u20$u128$GT$3fmt17h8c0ea52a3f7452d1E
ffffff8040010d08 T _ZN4core3fmt3num53_$LT$impl$u20$core..fmt..Display$u20$for$u20$i128$GT$3fmt17hda70cc3f9acdba7eE
ffffff8040010d6c T _ZN4core3fmt3num22_$LT$impl$u20$u128$GT$4_fmt17hc5cccf28f0dfc9d5E
ffffff8040011218 t _ZN4core3fmt5Write10write_char17h437ed5e6bb6c777fE
ffffff8040011358 t _ZN4core3fmt5Write10write_char17h64e5637e7d0d93b1E
ffffff8040011498 t _ZN4core3fmt5Write10write_char17h84e76c14a48d19e9E
ffffff80400115d8 t _ZN4core3fmt5Write10write_char17he200e8a3aef0c592E
ffffff8040011718 t _ZN4core3fmt5Write9write_fmt17h278ed3b1d065bb22E
ffffff8040011728 t _ZN4core3fmt5Write9write_fmt17h77ddb609f6300f21E
ffffff8040011738 t _ZN4core3fmt5Write9write_fmt17hbe8bd9807e50a205E
ffffff8040011748 t _ZN4core3fmt5Write9write_fmt17hdb1a57a99f8ed324E
ffffff8040011758 t _ZN4core3fmt5Write9write_fmt17heac185d75b118438E
ffffff8040011768 T _ZN4core3fmt17FormattingOptions8get_fill17h94781052c0f3f12cE
ffffff8040011774 T _ZN57_$LT$core..fmt..Arguments$u20$as$u20$core..fmt..Debug$GT$3fmt17hbcf54baafaea5c2aE
ffffff8040011784 T _ZN59_$LT$core..fmt..Arguments$u20$as$u20$core..fmt..Display$GT$3fmt17h3329a7dfc4059f95E
ffffff8040011794 T _ZN4core3fmt5write17h2f8b4de1bdab4515E
ffffff80400119b8 T _ZN4core3fmt9Formatter12pad_integral17h25b0250e33199aa3E
ffffff8040011d68 t _ZN4core3fmt9Formatter12pad_integral12write_prefix17hc5b84b14251d443cE
ffffff8040011dec T _ZN4core3fmt9Formatter3pad17h95cca3399bb6c211E
ffffff80400120fc t _ZN4core3fmt9Formatter19pad_formatted_parts17h5aedcfe0ade51e60E
ffffff8040012328 t _ZN4core3fmt9Formatter21write_formatted_parts17h37d82ac734fc9f68E
ffffff8040012568 T _ZN4core3fmt9Formatter9write_str17h2ce2418dfb5055f9E
ffffff8040012568 T _ZN57_$LT$core..fmt..Formatter$u20$as$u20$core..fmt..Write$GT$9write_str17h23aa40b13e141457E
ffffff8040012574 T _ZN4core3fmt9Formatter4fill17h65081bc53d56acc2E
ffffff8040012580 T _ZN4core3fmt9Formatter12debug_struct17hb53c9b8ab57b88c4E
ffffff80400125b4 T _ZN4core3fmt9Formatter26debug_struct_field1_finish17h00ab4af65ac7f27bE
ffffff8040012670 T _ZN4core3fmt9Formatter26debug_struct_field2_finish17h8545abd4ce0eb582E
ffffff8040012760 T _ZN4core3fmt9Formatter26debug_struct_field3_finish17h5a4105c5d1056096E
ffffff804001287c T _ZN4core3fmt9Formatter26debug_struct_field4_finish17hce4ad7590637efccE
ffffff80400129b8 T _ZN4core3fmt9Formatter26debug_struct_field5_finish17h9d6988cc1f8a048cE
ffffff8040012b10 T _ZN4core3fmt9Formatter26debug_struct_fields_finish17h62340718af986439E
ffffff8040012c0c T _ZN4core3fmt9Formatter11debug_tuple17h6e220e9c81f3e755E
ffffff8040012c4c T _ZN4core3fmt9Formatter25debug_tuple_field1_finish17hb90a2c84c1c1008aE
ffffff8040012da8 T _ZN4core3fmt9Formatter25debug_tuple_field2_finish17hffa2e8ef5031b970E
ffffff8040012f74 T _ZN4core3fmt9Formatter25debug_tuple_field3_finish17h37fc63a76256902fE
ffffff80400131ec T _ZN4core3fmt9Formatter25debug_tuple_field4_finish17hdbc79eb8bda44f75E
ffffff8040013504 T _ZN4core3fmt9Formatter25debug_tuple_field5_finish17h8a41dfe5f20b0d55E
ffffff80400138bc T _ZN4core3fmt9Formatter25debug_tuple_fields_finish17h672f149a911dbf6bE
ffffff8040013b20 T _ZN4core3fmt9Formatter10debug_list17h8f5022c4d0c407f2E
ffffff8040013b60 T _ZN4core3fmt9Formatter9debug_set17h4a2f4e6dff6e1e07E
ffffff8040013ba0 T _ZN4core3fmt9Formatter9debug_map17hac2d83099bcb8d8cE
ffffff8040013be8 T _ZN57_$LT$core..fmt..Formatter$u20$as$u20$core..fmt..Write$GT$10write_char17h01229fe9a5867467E
ffffff8040013bf4 T _ZN55_$LT$core..fmt..Error$u20$as$u20$core..fmt..Display$GT$3fmt17h6e41edd1432da196E
ffffff8040013c08 T _ZN43_$LT$bool$u20$as$u20$core..fmt..Display$GT$3fmt17h1c1ecd551e02737fE
ffffff8040013c34 T _ZN40_$LT$str$u20$as$u20$core..fmt..Debug$GT$3fmt17hf3bc84660dc21918E
ffffff8040013fc4 T _ZN42_$LT$str$u20$as$u20$core..fmt..Display$GT$3fmt17hb9288278e9d0957aE
ffffff8040013fd8 T _ZN41_$LT$char$u20$as$u20$core..fmt..Debug$GT$3fmt17h15a3f6ea73ceee28E
ffffff80400140b8 T _ZN43_$LT$char$u20$as$u20$core..fmt..Display$GT$3fmt17h9f227b9216651bb6E
ffffff80400141c8 T _ZN4core3fmt17pointer_fmt_inner17h17510d2173de74fcE
ffffff8040014284 t _ZN52_$LT$$BP$const$u20$T$u20$as$u20$core..fmt..Debug$GT$3fmt17h306e53ecaa46c3a6E
ffffff8040014344 T _ZN4core5slice6memchr14memchr_aligned17hb7ccab712429df5dE
ffffff8040014420 T _ZN4core5slice6memchr7memrchr17h9c204caf973fde6bE
ffffff8040014540 T _ZN4core5slice4sort6stable5drift11sqrt_approx17h75d730589d3e7649E
ffffff804001456c T _ZN4core5slice4sort6shared9smallsort22panic_on_ord_violation17hdcaff866980e19b0E
ffffff8040014598 T _ZN105_$LT$core..slice..ascii..EscapeAscii$u20$as$u20$core..iter..traits..double_ended..DoubleEndedIterator$GT$9next_back17h2c5d7877f3d79f56E
ffffff80400146b8 T _ZN70_$LT$core..slice..ascii..EscapeAscii$u20$as$u20$core..fmt..Display$GT$3fmt17heff31fcc1f6636b4E
ffffff80400148f0 T _ZN68_$LT$core..slice..ascii..EscapeAscii$u20$as$u20$core..fmt..Debug$GT$3fmt17h5ff8f3d9e7eff212E
ffffff804001494c T _ZN4core5slice5index26slice_start_index_len_fail17hc52b7d41b5c6a7abE
ffffff8040014950 T _ZN4core5slice5index24slice_end_index_len_fail17h7ce60d1c5f1c2bb1E
ffffff8040014954 T _ZN4core5slice5index22slice_index_order_fail17he509b3b4e3c3f9f1E
ffffff8040014958 T _ZN4core5slice5index31slice_start_index_overflow_fail17hbfda3c07a70d4aaeE
ffffff8040014980 T _ZN4core5slice5index29slice_end_index_overflow_fail17h2707ef8f572443a2E
ffffff80400149a8 T _ZN4core5slice5index10into_range17h3bdf8be08960b2d8E
ffffff8040014a14 T _ZN4core5slice5index16into_slice_range17hb575d595b6b8ec8dE
ffffff8040014a80 T _ZN4core5slice29_$LT$impl$u20$$u5b$T$u5d$$GT$15copy_from_slice17len_mismatch_fail17h54b44dc045b2f7beE
ffffff8040014a90 T _ZN4core5slice29_$LT$impl$u20$$u5b$T$u5d$$GT$16align_to_offsets3gcd17hb75c79041427afacE
ffffff8040014ab4 T _ZN71_$LT$core..slice..GetDisjointMutError$u20$as$u20$core..fmt..Display$GT$3fmt17h968f6d627821bd64E
ffffff8040014ae4 T _ZN4core3str8converts9from_utf817h89fea5b4655231ffE
ffffff8040014d54 T _ZN4core3str8converts13from_utf8_mut17hd0493254d95e12cfE
ffffff8040014fc4 T _ZN4core3str5count14do_count_chars17hab777a77ac912392E
ffffff80400154b0 T _ZN4core3str5count23char_count_general_case17h419dc5a984ebf775E
ffffff8040015764 T _ZN66_$LT$core..str..error..Utf8Error$u20$as$u20$core..fmt..Display$GT$3fmt17ha7a99112e868f2d9E
ffffff80400157ec T _ZN71_$LT$core..str..error..ParseBoolError$u20$as$u20$core..fmt..Display$GT$3fmt17habb1c1ead3001e43E
ffffff8040015800 T _ZN59_$LT$core..str..iter..Chars$u20$as$u20$core..fmt..Debug$GT$3fmt17hb99a06c7b1cee706E
ffffff8040015dfc T _ZN65_$LT$core..str..iter..EncodeUtf16$u20$as$u20$core..fmt..Debug$GT$3fmt17he186fe7e768c886bE
ffffff8040015e58 T _ZN4core3str6traits23str_index_overflow_fail17h0c34660444ee38aeE
ffffff8040015e80 T _ZN4core3str7pattern11StrSearcher3new17h2089025c536f901aE
ffffff8040016754 T _ZN60_$LT$core..str..lossy..Debug$u20$as$u20$core..fmt..Debug$GT$3fmt17h76aa9c2c37f4cd21E
ffffff8040016abc T _ZN87_$LT$core..str..lossy..Utf8Chunks$u20$as$u20$core..iter..traits..iterator..Iterator$GT$4next17h11931b3f11d00024E
ffffff8040016c7c T _ZN65_$LT$core..str..lossy..Utf8Chunks$u20$as$u20$core..fmt..Debug$GT$3fmt17hc161d46f7309f846E
ffffff8040016d44 T _ZN4core3str16slice_error_fail17h0496211fdeecfbe0E
ffffff8040016d48 T _ZN4core3str19slice_error_fail_ct17hff32d4cffbedb334E
ffffff8040016d70 T _ZN4core3str19slice_error_fail_rt17h64078bc3508f6406E
ffffff80400170a4 T _ZN4core3str21_$LT$impl$u20$str$GT$9from_utf817h2dc1f47fa57f2877E
ffffff80400170a8 T _ZN4core3str21_$LT$impl$u20$str$GT$13from_utf8_mut17h35906197e1e5674aE
ffffff80400170ac T _ZN4core3str21_$LT$impl$u20$str$GT$18split_at_unchecked17h70931991382d6c39E
ffffff80400170c0 T _ZN4core3str21_$LT$impl$u20$str$GT$22split_at_mut_unchecked17hae7f9adba5afe96cE
ffffff80400170d4 T _ZN4core3str21_$LT$impl$u20$str$GT$12escape_debug17hd6283c678c6ad555E
ffffff80400171b4 T _ZN4core3str21_$LT$impl$u20$str$GT$12substr_range17hf2b19c8446d13868E
ffffff80400171e0 T _ZN57_$LT$core..time..Duration$u20$as$u20$core..fmt..Debug$GT$3fmt17h58415aa51e4df15dE
ffffff80400172c4 t _ZN57_$LT$core..time..Duration$u20$as$u20$core..fmt..Debug$GT$3fmt11fmt_decimal17hd36e088388363507E
ffffff8040017820 t _ZN57_$LT$core..time..Duration$u20$as$u20$core..fmt..Debug$GT$3fmt11fmt_decimal28_$u7b$$u7b$closure$u7d$$u7d$17hf0f47afa793c5138E
ffffff8040017a38 T _ZN72_$LT$core..time..TryFromFloatSecsError$u20$as$u20$core..fmt..Display$GT$3fmt17h986bcbbed0a7fa77E
ffffff8040017a68 T _ZN4core7unicode9printable12is_printable17h8fd390320439b2c9E
ffffff8040017d30 T _ZN62_$LT$core..task..wake..Context$u20$as$u20$core..fmt..Debug$GT$3fmt17ha12e4a1079ae1607E
ffffff8040017df0 T _ZN60_$LT$core..task..wake..Waker$u20$as$u20$core..fmt..Debug$GT$3fmt17h723a91efa50cbca7E
ffffff8040017ed0 T _ZN65_$LT$core..task..wake..LocalWaker$u20$as$u20$core..fmt..Debug$GT$3fmt17h6ccb3e8224c0e13bE
ffffff8040017fb0 T _ZN4core5alloc6layout6Layout19is_size_align_valid17hada69ceb4c83d079E
ffffff8040017fd0 T _ZN71_$LT$core..alloc..layout..LayoutError$u20$as$u20$core..fmt..Display$GT$3fmt17hca0addea54cd5a38E
ffffff8040017fec T _ZN62_$LT$core..alloc..AllocError$u20$as$u20$core..fmt..Display$GT$3fmt17hbd902e243df5d2b8E
ffffff8040018008 T _ZN4core3f3221_$LT$impl$u20$f32$GT$5clamp8do_panic7runtime17hc7a19062334cf9feE
ffffff8040018050 T _ZN4core3f6421_$LT$impl$u20$f64$GT$5clamp8do_panic7runtime17h20639d12dd07fa06E
ffffff8040018094 T _ZN49_$LT$u8$u20$as$u20$core..num..bignum..FullOps$GT$12full_div_rem17h16b0937a7716d9fcE
ffffff80400180c4 T _ZN50_$LT$u16$u20$as$u20$core..num..bignum..FullOps$GT$12full_div_rem17h15b3b4c75f1ad446E
ffffff80400180f0 T _ZN50_$LT$u32$u20$as$u20$core..num..bignum..FullOps$GT$12full_div_rem17h994cc86500af8d23E
ffffff804001811c T _ZN4core3num6bignum8Big32x408from_u6417h670c1011910adacdE
ffffff8040018174 T _ZN4core3num6bignum8Big32x406digits17h53cd9d8f360f8b08E
ffffff8040018198 T _ZN4core3num6bignum8Big32x407get_bit17h256802f107717434E
ffffff80400181c8 T _ZN4core3num6bignum8Big32x407is_zero17hef3f232bdfac12dfE
ffffff804001820c T _ZN4core3num6bignum8Big32x4010bit_length17h58d9ed3d7e9af89bE
ffffff8040018280 T _ZN4core3num6bignum8Big32x403add17ha8e1184cd0bb1837E
ffffff8040018314 T _ZN4core3num6bignum8Big32x409add_small17h0973778519e882f8E
ffffff80400186f8 T _ZN4core3num6bignum8Big32x403sub17hea688b3d9103bee2E
ffffff8040018780 T _ZN4core3num6bignum8Big32x409mul_small17h4ba4da84ea927779E
ffffff80400187fc T _ZN4core3num6bignum8Big32x408mul_pow217ha1252a423da06999E
ffffff8040018ba8 T _ZN4core3num6bignum8Big32x408mul_pow517h1a8ed84541b3d1c4E
ffffff8040018d28 T _ZN4core3num6bignum8Big32x4010mul_digits17h3f30eb3d4672a2e0E
ffffff8040018de8 t _ZN4core3num6bignum8Big32x4010mul_digits9mul_inner17haaac6a9847018dadE
ffffff8040018f6c T _ZN4core3num6bignum8Big32x4013div_rem_small17h0aabc3f748d9b688E
ffffff8040018fe8 T _ZN4core3num6bignum8Big32x407div_rem17ha08674fb4e288a99E
ffffff804001924c T _ZN68_$LT$core..num..bignum..Big32x40$u20$as$u20$core..cmp..PartialEq$GT$2eq17h0afbd63cca4ad16cE
ffffff8040019268 T _ZN69_$LT$core..num..bignum..Big32x40$u20$as$u20$core..cmp..PartialOrd$GT$11partial_cmp17hcd06f183a0f1c9bbE
ffffff80400192d0 T _ZN62_$LT$core..num..bignum..Big32x40$u20$as$u20$core..cmp..Ord$GT$3cmp17h54b08a576c47b83cE
ffffff8040019338 T _ZN64_$LT$core..num..bignum..Big32x40$u20$as$u20$core..fmt..Debug$GT$3fmt17h8887751748adcb72E
ffffff8040019480 T _ZN4core3num6bignum5tests6Big8x38from_u6417hb6d3a4d8c0699005E
ffffff8040019528 T _ZN4core3num6bignum5tests6Big8x36digits17hc4927c459cce3927E
ffffff8040019550 T _ZN4core3num6bignum5tests6Big8x37get_bit17hb55ba41f9caabb8aE
ffffff8040019588 T _ZN4core3num6bignum5tests6Big8x37is_zero17ha56a0917ce259c43E
ffffff80400195f8 T _ZN4core3num6bignum5tests6Big8x310bit_length17h6ca4a05b260986e1E
ffffff80400196ac T _ZN4core3num6bignum5tests6Big8x33add17h41e4224ece766b61E
ffffff8040019754 T _ZN4core3num6bignum5tests6Big8x39add_small17h63a1b535cfef8a58E
ffffff80400197d8 T _ZN4core3num6bignum5tests6Big8x33sub17h4211c3612ad84b38E
ffffff8040019870 T _ZN4core3num6bignum5tests6Big8x39mul_small17h7a030b2d193b02afE
ffffff804001990c T _ZN4core3num6bignum5tests6Big8x38mul_pow217h55b57d362bf1dbfeE
ffffff8040019b60 T _ZN4core3num6bignum5tests6Big8x38mul_pow517h08b705d4e6bb2c72E
ffffff8040019ccc T _ZN4core3num6bignum5tests6Big8x310mul_digits17h1c4d5edd714daeeaE
ffffff804001a038 T _ZN4core3num6bignum5tests6Big8x313div_rem_small17h57fddb84666ed3dbE
ffffff804001a0e8 T _ZN4core3num6bignum5tests6Big8x37div_rem17h9f4f9c808e7d9b63E
ffffff804001a3c0 T _ZN73_$LT$core..num..bignum..tests..Big8x3$u20$as$u20$core..cmp..PartialEq$GT$2eq17h854cbebb048aa016E
ffffff804001a3e0 T _ZN74_$LT$core..num..bignum..tests..Big8x3$u20$as$u20$core..cmp..PartialOrd$GT$11partial_cmp17hc67e557340818234E
ffffff804001a488 T _ZN67_$LT$core..num..bignum..tests..Big8x3$u20$as$u20$core..cmp..Ord$GT$3cmp17h5b594789f3298d0dE
ffffff804001a530 T _ZN69_$LT$core..num..bignum..tests..Big8x3$u20$as$u20$core..fmt..Debug$GT$3fmt17h13fff53ec308b158E
ffffff804001a668 T _ZN4core3num7dec2flt60_$LT$impl$u20$core..str..traits..FromStr$u20$for$u20$f16$GT$8from_str17h35bc44b61147501aE
ffffff804001ab04 T _ZN4core3num7dec2flt60_$LT$impl$u20$core..str..traits..FromStr$u20$for$u20$f32$GT$8from_str17h46ad002b9844bd9bE
ffffff804001af70 T _ZN4core3num7dec2flt60_$LT$impl$u20$core..str..traits..FromStr$u20$for$u20$f64$GT$8from_str17h2704d2d350ba0b5bE
ffffff804001b3b4 t _ZN73_$LT$core..num..nonzero..NonZero$LT$T$GT$$u20$as$u20$core..fmt..Debug$GT$3fmt17hcb062ec90131fb2aE
ffffff804001b490 T _ZN84_$LT$core..num..nonzero..NonZero$LT$u8$GT$$u20$as$u20$core..str..traits..FromStr$GT$8from_str17h5760fb6aaae5b984E
ffffff804001b59c T _ZN85_$LT$core..num..nonzero..NonZero$LT$u16$GT$$u20$as$u20$core..str..traits..FromStr$GT$8from_str17hff4fa4b0b5957bcbE
ffffff804001b6b0 T _ZN85_$LT$core..num..nonzero..NonZero$LT$u32$GT$$u20$as$u20$core..str..traits..FromStr$GT$8from_str17h374eede0d6ecb525E
ffffff804001b7f8 T _ZN85_$LT$core..num..nonzero..NonZero$LT$u64$GT$$u20$as$u20$core..str..traits..FromStr$GT$8from_str17he3476e77b6843b06E
ffffff804001b7f8 T _ZN87_$LT$core..num..nonzero..NonZero$LT$usize$GT$$u20$as$u20$core..str..traits..FromStr$GT$8from_str17h0760d247b1ca6a3fE
ffffff804001b908 T _ZN86_$LT$core..num..nonzero..NonZero$LT$u128$GT$$u20$as$u20$core..str..traits..FromStr$GT$8from_str17he96f8d4521df20a3E
ffffff804001ba4c T _ZN84_$LT$core..num..nonzero..NonZero$LT$i8$GT$$u20$as$u20$core..str..traits..FromStr$GT$8from_str17ha75e3039e7ec48dfE
ffffff804001bc5c T _ZN85_$LT$core..num..nonzero..NonZero$LT$i16$GT$$u20$as$u20$core..str..traits..FromStr$GT$8from_str17hc26b351ce8fbc290E
ffffff804001be64 T _ZN85_$LT$core..num..nonzero..NonZero$LT$i32$GT$$u20$as$u20$core..str..traits..FromStr$GT$8from_str17h64baa9fd2ff93a63E
ffffff804001c054 T _ZN85_$LT$core..num..nonzero..NonZero$LT$i64$GT$$u20$as$u20$core..str..traits..FromStr$GT$8from_str17hed8b593288f9a7d6E
ffffff804001c054 T _ZN87_$LT$core..num..nonzero..NonZero$LT$isize$GT$$u20$as$u20$core..str..traits..FromStr$GT$8from_str17h11a2540e3e5f3c6cE
ffffff804001c224 T _ZN86_$LT$core..num..nonzero..NonZero$LT$i128$GT$$u20$as$u20$core..str..traits..FromStr$GT$8from_str17h0d58b5d909096df7E
ffffff804001c474 T _ZN72_$LT$core..num..niche_types..Nanoseconds$u20$as$u20$core..fmt..Debug$GT$3fmt17h0574fc4f59292910E
ffffff804001c554 T _ZN75_$LT$core..num..niche_types..NonZeroU8Inner$u20$as$u20$core..fmt..Debug$GT$3fmt17h631e651d50c63858E
ffffff804001c55c T _ZN76_$LT$core..num..niche_types..NonZeroU16Inner$u20$as$u20$core..fmt..Debug$GT$3fmt17h7f07cce4dac1fcd6E
ffffff804001c63c T _ZN76_$LT$core..num..niche_types..NonZeroU32Inner$u20$as$u20$core..fmt..Debug$GT$3fmt17h8ad307f4dee97b3eE
ffffff804001c71c T _ZN76_$LT$core..num..niche_types..NonZeroU64Inner$u20$as$u20$core..fmt..Debug$GT$3fmt17h885f5c73344eb618E
ffffff804001c71c T _ZN78_$LT$core..num..niche_types..NonZeroUsizeInner$u20$as$u20$core..fmt..Debug$GT$3fmt17h2186a2dae4dca805E
ffffff804001c7f8 T _ZN77_$LT$core..num..niche_types..NonZeroU128Inner$u20$as$u20$core..fmt..Debug$GT$3fmt17hcf3745ddb2332bcbE
ffffff804001c938 T _ZN75_$LT$core..num..niche_types..NonZeroI8Inner$u20$as$u20$core..fmt..Debug$GT$3fmt17hadfebaeaffb2fcc9E
ffffff804001c940 T _ZN76_$LT$core..num..niche_types..NonZeroI16Inner$u20$as$u20$core..fmt..Debug$GT$3fmt17hf5bc9c72b82a2124E
ffffff804001ca20 T _ZN76_$LT$core..num..niche_types..NonZeroI32Inner$u20$as$u20$core..fmt..Debug$GT$3fmt17h76e7733cf0677745E
ffffff804001cb00 T _ZN76_$LT$core..num..niche_types..NonZeroI64Inner$u20$as$u20$core..fmt..Debug$GT$3fmt17h9ae35348ce010d87E
ffffff804001cb00 T _ZN78_$LT$core..num..niche_types..NonZeroIsizeInner$u20$as$u20$core..fmt..Debug$GT$3fmt17h178ba8a0a196316aE
ffffff804001cbdc T _ZN77_$LT$core..num..niche_types..NonZeroI128Inner$u20$as$u20$core..fmt..Debug$GT$3fmt17h1685e7e0866cbfdeE
ffffff804001cd3c T _ZN77_$LT$core..num..niche_types..NonZeroCharInner$u20$as$u20$core..fmt..Debug$GT$3fmt17h690ec14902c6cff5E
ffffff804001ce1c T _ZN75_$LT$core..num..niche_types..UsizeNoHighBit$u20$as$u20$core..fmt..Debug$GT$3fmt17h0b0c7c69a5dfd5baE
ffffff804001cef8 T _ZN74_$LT$core..num..niche_types..U32NotAllOnes$u20$as$u20$core..fmt..Debug$GT$3fmt17hebd5f9decbf0ed90E
ffffff804001cfd8 T _ZN74_$LT$core..num..niche_types..I32NotAllOnes$u20$as$u20$core..fmt..Debug$GT$3fmt17h130177789f0669c3E
ffffff804001d0b8 T _ZN74_$LT$core..num..niche_types..U64NotAllOnes$u20$as$u20$core..fmt..Debug$GT$3fmt17he10e8f94819f2260E
ffffff804001d194 T _ZN74_$LT$core..num..niche_types..I64NotAllOnes$u20$as$u20$core..fmt..Debug$GT$3fmt17hf23515bd67bd5fdeE
ffffff804001d270 T _ZN4core3num22from_ascii_radix_panic8do_panic7runtime17h3f49c32c56fd651aE
ffffff804001d2ac T _ZN4core10intrinsics3mir11PtrMetadata19panic_cold_explicit17hb78ca775f5457906E
ffffff804001d2ac T _ZN4core10intrinsics3mir11StorageDead19panic_cold_explicit17h4c9efc5d8c9ff491E
ffffff804001d2ac T _ZN4core10intrinsics3mir11StorageLive19panic_cold_explicit17h04a7ec6ed2572e8fE
ffffff804001d2ac T _ZN4core10intrinsics3mir11Unreachable19panic_cold_explicit17h01fa37a00b273fc4E
ffffff804001d2ac T _ZN4core10intrinsics3mir11__debuginfo19panic_cold_explicit17hcfe69eba05f9a4b8E
ffffff804001d2ac T _ZN4core10intrinsics3mir12CastPtrToPtr19panic_cold_explicit17h4c791edf4c657068E
ffffff804001d2ac T _ZN4core10intrinsics3mir12CopyForDeref19panic_cold_explicit17h424d5fc896a6429fE
ffffff804001d2ac T _ZN4core10intrinsics3mir12Discriminant19panic_cold_explicit17h45c5e0c600af2927E
ffffff804001d2ac T _ZN4core10intrinsics3mir12UnwindResume19panic_cold_explicit17h3a0b7880648001c4E
ffffff804001d2ac T _ZN4core10intrinsics3mir13CastTransmute19panic_cold_explicit17h1ebd2bf9a6239828E
ffffff804001d2ac T _ZN4core10intrinsics3mir13UnwindCleanup19panic_cold_explicit17h621526d497b41451E
ffffff804001d2ac T _ZN4core10intrinsics3mir14UnwindContinue19panic_cold_explicit17h57b1ac795eed4136E
ffffff804001d2ac T _ZN4core10intrinsics3mir15SetDiscriminant19panic_cold_explicit17hfd215b5b53a351cdE
ffffff804001d2ac T _ZN4core10intrinsics3mir15UnwindTerminate19panic_cold_explicit17h406b3edb77867212E
ffffff804001d2ac T _ZN4core10intrinsics3mir17UnwindUnreachable19panic_cold_explicit17h2b78dbb123b0fbfcE
ffffff804001d2ac T _ZN4core10intrinsics3mir21__internal_make_place19panic_cold_explicit17ha08adaae788020feE
ffffff804001d2ac T _ZN4core10intrinsics3mir3Len19panic_cold_explicit17h60ccc423d81cfae6E
ffffff804001d2ac T _ZN4core10intrinsics3mir4Call19panic_cold_explicit17hdfaaa050cf85c978E
ffffff804001d2ac T _ZN4core10intrinsics3mir4Drop19panic_cold_explicit17h22e1d3ff4a4a539fE
ffffff804001d2ac T _ZN4core10intrinsics3mir4Goto19panic_cold_explicit17hb559722cb8a8e6b4E
ffffff804001d2ac T _ZN4core10intrinsics3mir4Move19panic_cold_explicit17h40b6a535b0df9903E
ffffff804001d2ac T _ZN4core10intrinsics3mir5Field19panic_cold_explicit17hbd63045fa469e683E
ffffff804001d2ac T _ZN4core10intrinsics3mir5Retag19panic_cold_explicit17h77b72e4c43b2928bE
ffffff804001d2ac T _ZN4core10intrinsics3mir6Assume19panic_cold_explicit17h24cfce1c411e4811E
ffffff804001d2ac T _ZN4core10intrinsics3mir6Deinit19panic_cold_explicit17ha0fe4fdf815d6ee5E
ffffff804001d2ac T _ZN4core10intrinsics3mir6Offset19panic_cold_explicit17hd28a7ec339833d12E
ffffff804001d2ac T _ZN4core10intrinsics3mir6Return19panic_cold_explicit17ha51451f5e87a8103E
ffffff804001d2ac T _ZN4core10intrinsics3mir6Static19panic_cold_explicit17h8024c4e8e3f64443E
ffffff804001d2ac T _ZN4core10intrinsics3mir7Checked19panic_cold_explicit17h50e54001d05b0ff9E
ffffff804001d2ac T _ZN4core10intrinsics3mir7Variant19panic_cold_explicit17h25a6cf63ab37040dE
ffffff804001d2ac T _ZN4core10intrinsics3mir8ReturnTo19panic_cold_explicit17heaaa5b1a40f11eedE
ffffff804001d2ac T _ZN4core10intrinsics3mir8TailCall19panic_cold_explicit17hf4e15b14e76ee169E
ffffff804001d2ac T _ZN4core10intrinsics3mir9StaticMut19panic_cold_explicit17h5ff9bcbd7b52883cE
ffffff804001d2b0 T _ZN85_$LT$core..marker..variance..PhantomCovariantLifetime$u20$as$u20$core..fmt..Debug$GT$3fmt17h78841d211595670dE
ffffff804001d2cc T _ZN89_$LT$core..marker..variance..PhantomContravariantLifetime$u20$as$u20$core..fmt..Debug$GT$3fmt17he064d1ce06f09c66E
ffffff804001d2e8 T _ZN85_$LT$core..marker..variance..PhantomInvariantLifetime$u20$as$u20$core..fmt..Debug$GT$3fmt17hc39f0e0387637e39E
ffffff804001d304 T _ZN4core4cell22panic_already_borrowed8do_panic7runtime17ha6a5eab3f9c10e9aE
ffffff804001d340 T _ZN4core4cell30panic_already_mutably_borrowed8do_panic7runtime17h5135a3d604ebfa53E
ffffff804001d37c T _ZN4core4char7methods15encode_utf8_raw8do_panic7runtime17h5925e892d36a8d58E
ffffff804001d3e0 T _ZN4core4char7methods16encode_utf16_raw8do_panic7runtime17h6b7c8ebb1c562530E
ffffff804001d444 T _ZN82_$LT$core..char..ToLowercase$u20$as$u20$core..iter..traits..iterator..Iterator$GT$4next17hc14de6c3197d5d68E
ffffff804001d444 T _ZN82_$LT$core..char..ToUppercase$u20$as$u20$core..iter..traits..iterator..Iterator$GT$4next17h6959a902b48740edE
ffffff804001d470 T _ZN82_$LT$core..char..ToLowercase$u20$as$u20$core..iter..traits..iterator..Iterator$GT$5count17h11163d80e220242fE
ffffff804001d470 T _ZN82_$LT$core..char..ToUppercase$u20$as$u20$core..iter..traits..iterator..Iterator$GT$5count17he3cd23bb3c3ebee8E
ffffff804001d47c T _ZN82_$LT$core..char..ToLowercase$u20$as$u20$core..iter..traits..iterator..Iterator$GT$4last17h8a5dad918aa72e53E
ffffff804001d47c T _ZN82_$LT$core..char..ToUppercase$u20$as$u20$core..iter..traits..iterator..Iterator$GT$4last17hbc671448f94b4f93E
ffffff804001d4bc T _ZN82_$LT$core..char..ToLowercase$u20$as$u20$core..iter..traits..iterator..Iterator$GT$10advance_by17hcfc7a5faec996af2E
ffffff804001d4bc T _ZN82_$LT$core..char..ToUppercase$u20$as$u20$core..iter..traits..iterator..Iterator$GT$10advance_by17h55f62ecf6936eba5E
ffffff804001d4e0 T _ZN82_$LT$core..char..ToLowercase$u20$as$u20$core..iter..traits..iterator..Iterator$GT$24__iterator_get_unchecked17hdef750652d525f57E
ffffff804001d4e0 T _ZN82_$LT$core..char..ToUppercase$u20$as$u20$core..iter..traits..iterator..Iterator$GT$24__iterator_get_unchecked17h8d248e391269d1f5E
ffffff804001d4f4 T _ZN97_$LT$core..char..ToLowercase$u20$as$u20$core..iter..traits..double_ended..DoubleEndedIterator$GT$9next_back17h49b9f80ff0e45714E
ffffff804001d4f4 T _ZN97_$LT$core..char..ToUppercase$u20$as$u20$core..iter..traits..double_ended..DoubleEndedIterator$GT$9next_back17h831709c1c13fb48cE
ffffff804001d51c T _ZN97_$LT$core..char..ToLowercase$u20$as$u20$core..iter..traits..double_ended..DoubleEndedIterator$GT$15advance_back_by17h5eb98dbe3d2b7895E
ffffff804001d51c T _ZN97_$LT$core..char..ToUppercase$u20$as$u20$core..iter..traits..double_ended..DoubleEndedIterator$GT$15advance_back_by17hf31ea3ceb2ca2b9dE
ffffff804001d544 T _ZN77_$LT$core..net..ip_addr..Ipv4Addr$u20$as$u20$core..ops..bit..BitAndAssign$GT$13bitand_assign17hb094af4d366ec04cE
ffffff804001d578 T _ZN117_$LT$core..net..ip_addr..Ipv4Addr$u20$as$u20$core..ops..bit..BitAndAssign$LT$$RF$core..net..ip_addr..Ipv4Addr$GT$$GT$13bitand_assign17h9459304bdefcac90E
ffffff804001d5b4 T _ZN76_$LT$core..net..ip_addr..Ipv4Addr$u20$as$u20$core..ops..bit..BitOrAssign$GT$12bitor_assign17h40bf1f30b1d5ce9bE
ffffff804001d5e8 T _ZN116_$LT$core..net..ip_addr..Ipv4Addr$u20$as$u20$core..ops..bit..BitOrAssign$LT$$RF$core..net..ip_addr..Ipv4Addr$GT$$GT$12bitor_assign17h0c42ef0e9f85824cE
ffffff804001d624 T _ZN77_$LT$core..net..ip_addr..Ipv6Addr$u20$as$u20$core..ops..bit..BitAndAssign$GT$13bitand_assign17h4c5d7904e6f41797E
ffffff804001d6b8 T _ZN117_$LT$core..net..ip_addr..Ipv6Addr$u20$as$u20$core..ops..bit..BitAndAssign$LT$$RF$core..net..ip_addr..Ipv6Addr$GT$$GT$13bitand_assign17h6553acf549d6ad8cE
ffffff804001d6cc T _ZN76_$LT$core..net..ip_addr..Ipv6Addr$u20$as$u20$core..ops..bit..BitOrAssign$GT$12bitor_assign17hfd84befeb49b3059E
ffffff804001d760 T _ZN116_$LT$core..net..ip_addr..Ipv6Addr$u20$as$u20$core..ops..bit..BitOrAssign$LT$$RF$core..net..ip_addr..Ipv6Addr$GT$$GT$12bitor_assign17hd24a718f99cc08bcE
ffffff804001d774 T _ZN4core9panicking11panic_const24panic_const_add_overflow17h60639cc00c05c0e1E
ffffff804001d79c T _ZN4core9panicking11panic_const24panic_const_sub_overflow17h415b7834fc71a4b2E
ffffff804001d7c4 T _ZN4core9panicking11panic_const24panic_const_mul_overflow17hc4f0ff2c335c4e9bE
ffffff804001d7ec T _ZN4core9panicking11panic_const24panic_const_div_overflow17hfcdf66574f4c313dE
ffffff804001d814 T _ZN4core9panicking11panic_const24panic_const_rem_overflow17h58e49a5dc22e6596E
ffffff804001d83c T _ZN4core9panicking11panic_const24panic_const_neg_overflow17hce195e0dc05722f5E
ffffff804001d864 T _ZN4core9panicking11panic_const24panic_const_shr_overflow17h59956aff47b0492aE
ffffff804001d88c T _ZN4core9panicking11panic_const24panic_const_shl_overflow17hafca52768275319eE
ffffff804001d8b4 T _ZN4core9panicking11panic_const23panic_const_div_by_zero17he721aa6e6bbf7690E
ffffff804001d8dc T _ZN4core9panicking11panic_const23panic_const_rem_by_zero17h466c3d38ddbb585bE
ffffff804001d904 T _ZN4core9panicking11panic_const29panic_const_coroutine_resumed17hceb627214ff0eeb0E
ffffff804001d92c T _ZN4core9panicking11panic_const28panic_const_async_fn_resumed17h9e3f67501a4fd5daE
ffffff804001d954 T _ZN4core9panicking11panic_const32panic_const_async_gen_fn_resumed17h4b72f74ff669d05eE
ffffff804001d97c T _ZN4core9panicking11panic_const23panic_const_gen_fn_none17ha23025a74df3dc72E
ffffff804001d9a4 T _ZN4core9panicking11panic_const35panic_const_coroutine_resumed_panic17ha5593e6bdbee8f67E
ffffff804001d9cc T _ZN4core9panicking11panic_const34panic_const_async_fn_resumed_panic17h1a30cdcb5f7ee052E
ffffff804001d9f4 T _ZN4core9panicking11panic_const38panic_const_async_gen_fn_resumed_panic17h1b725fbecc0c4f67E
ffffff804001da1c T _ZN4core9panicking11panic_const29panic_const_gen_fn_none_panic17h95238ece362796acE
ffffff804001da44 T _ZN4core9panicking11panic_const34panic_const_coroutine_resumed_drop17hfe81e0ef7f7f8c7aE
ffffff804001da6c T _ZN4core9panicking11panic_const33panic_const_async_fn_resumed_drop17h3a7ea45b8d52b64aE
ffffff804001da94 T _ZN4core9panicking11panic_const37panic_const_async_gen_fn_resumed_drop17h6f08394dabf59b5bE
ffffff804001dabc T _ZN4core9panicking11panic_const28panic_const_gen_fn_none_drop17h3c0195ae9aa34bb2E
ffffff804001dae4 T _ZN46_$LT$i8$u20$as$u20$core..pat..RangePattern$GT$7sub_one17h4abd454f597eb4bdE
ffffff804001db20 T _ZN47_$LT$i16$u20$as$u20$core..pat..RangePattern$GT$7sub_one17hc5a9cfc8468b2bf4E
ffffff804001db5c T _ZN47_$LT$i32$u20$as$u20$core..pat..RangePattern$GT$7sub_one17h8c4973957d791204E
ffffff804001db8c T _ZN47_$LT$i64$u20$as$u20$core..pat..RangePattern$GT$7sub_one17h0ad3397ee52402dfE
ffffff804001db8c T _ZN49_$LT$isize$u20$as$u20$core..pat..RangePattern$GT$7sub_one17h7b816a44cd752cefE
ffffff804001dbbc T _ZN48_$LT$i128$u20$as$u20$core..pat..RangePattern$GT$7sub_one17h9e42b319827c00f7E
ffffff804001dbfc T _ZN46_$LT$u8$u20$as$u20$core..pat..RangePattern$GT$7sub_one17h4cc1d2d194d3eb69E
ffffff804001dc30 T _ZN47_$LT$u16$u20$as$u20$core..pat..RangePattern$GT$7sub_one17he8f697159f27b9f5E
ffffff804001dc64 T _ZN47_$LT$u32$u20$as$u20$core..pat..RangePattern$GT$7sub_one17h86cf37d73b50165eE
ffffff804001dc94 T _ZN47_$LT$u64$u20$as$u20$core..pat..RangePattern$GT$7sub_one17h1565a7c4826ca253E
ffffff804001dc94 T _ZN49_$LT$usize$u20$as$u20$core..pat..RangePattern$GT$7sub_one17h16fd22c2b16a67b5E
ffffff804001dcc4 T _ZN48_$LT$u128$u20$as$u20$core..pat..RangePattern$GT$7sub_one17hebac796f1c982ee4E
ffffff804001dd04 T _ZN65_$LT$core..sync..atomic..AtomicI8$u20$as$u20$core..fmt..Debug$GT$3fmt17h7747407314b812aaE
ffffff804001dd0c T _ZN65_$LT$core..sync..atomic..AtomicU8$u20$as$u20$core..fmt..Debug$GT$3fmt17hae64f2744b708231E
ffffff804001dd14 T _ZN66_$LT$core..sync..atomic..AtomicI16$u20$as$u20$core..fmt..Debug$GT$3fmt17h9206b85243890efcE
ffffff804001ddf4 T _ZN66_$LT$core..sync..atomic..AtomicU16$u20$as$u20$core..fmt..Debug$GT$3fmt17hb93f08401224b889E
ffffff804001ded4 T _ZN66_$LT$core..sync..atomic..AtomicI32$u20$as$u20$core..fmt..Debug$GT$3fmt17h4a5fb766e698cf62E
ffffff804001dfb4 T _ZN66_$LT$core..sync..atomic..AtomicU32$u20$as$u20$core..fmt..Debug$GT$3fmt17h818ca11b286ba113E
ffffff804001e094 T _ZN66_$LT$core..sync..atomic..AtomicI64$u20$as$u20$core..fmt..Debug$GT$3fmt17h5492d02dfc49024cE
ffffff804001e094 T _ZN68_$LT$core..sync..atomic..AtomicIsize$u20$as$u20$core..fmt..Debug$GT$3fmt17h753249e0713c0b49E
ffffff804001e170 T _ZN66_$LT$core..sync..atomic..AtomicU64$u20$as$u20$core..fmt..Debug$GT$3fmt17h13ad86a210315fc7E
ffffff804001e170 T _ZN68_$LT$core..sync..atomic..AtomicUsize$u20$as$u20$core..fmt..Debug$GT$3fmt17hf524f9a596cd63acE
ffffff804001e24c T _ZN55_$LT$f32$u20$as$u20$core..fmt..float..GeneralFormat$GT$44already_rounded_value_should_use_exponential17h4af85fb878c4848bE
ffffff804001e28c T _ZN55_$LT$f64$u20$as$u20$core..fmt..float..GeneralFormat$GT$44already_rounded_value_should_use_exponential17h2e64719c7196065dE
ffffff804001e2c0 T _ZN4core3fmt5float50_$LT$impl$u20$core..fmt..Debug$u20$for$u20$f32$GT$3fmt17h7de56f2611ccd444E
ffffff804001e338 T _ZN4core3fmt5float52_$LT$impl$u20$core..fmt..Display$u20$for$u20$f32$GT$3fmt17hcbad7ddc303e3893E
ffffff804001e364 T _ZN4core3fmt5float53_$LT$impl$u20$core..fmt..LowerExp$u20$for$u20$f32$GT$3fmt17hb51517b6ec62f341E
ffffff804001e39c T _ZN4core3fmt5float53_$LT$impl$u20$core..fmt..UpperExp$u20$for$u20$f32$GT$3fmt17hc49e9c7dfba37a83E
ffffff804001e3d4 T _ZN4core3fmt5float50_$LT$impl$u20$core..fmt..Debug$u20$for$u20$f64$GT$3fmt17h1bc17241e95fcc23E
ffffff804001e444 T _ZN4core3fmt5float52_$LT$impl$u20$core..fmt..Display$u20$for$u20$f64$GT$3fmt17h36569361724c055aE
ffffff804001e470 T _ZN4core3fmt5float53_$LT$impl$u20$core..fmt..LowerExp$u20$for$u20$f64$GT$3fmt17h8a6a52d9d222fa1fE
ffffff804001e4a8 T _ZN4core3fmt5float53_$LT$impl$u20$core..fmt..UpperExp$u20$for$u20$f64$GT$3fmt17hba41e97f562fbbbfE
ffffff804001e4e0 T _ZN4core3fmt5float50_$LT$impl$u20$core..fmt..Debug$u20$for$u20$f16$GT$3fmt17h9521067e974759aeE
ffffff804001e564 T _ZN4core3fmt5float52_$LT$impl$u20$core..fmt..Display$u20$for$u20$f16$GT$3fmt17h9be73aab98e4fc54E
ffffff804001e590 T _ZN4core3fmt5float53_$LT$impl$u20$core..fmt..LowerExp$u20$for$u20$f16$GT$3fmt17h028e5986837b6b19E
ffffff804001e5c8 T _ZN4core3fmt5float53_$LT$impl$u20$core..fmt..UpperExp$u20$for$u20$f16$GT$3fmt17h0f6d7f4ef58da5c2E
ffffff804001e600 T _ZN71_$LT$core..fmt..num..Binary$u20$as$u20$core..fmt..num..GenericRadix$GT$5digit17hef670169989fe8a2E
ffffff804001e668 T _ZN70_$LT$core..fmt..num..Octal$u20$as$u20$core..fmt..num..GenericRadix$GT$5digit17h8abda918d694a26fE
ffffff804001e6d0 T _ZN73_$LT$core..fmt..num..LowerHex$u20$as$u20$core..fmt..num..GenericRadix$GT$5digit17h51570aade9cb0568E
ffffff804001e74c T _ZN73_$LT$core..fmt..num..UpperHex$u20$as$u20$core..fmt..num..GenericRadix$GT$5digit17he9355ebe9b970623E
ffffff804001e7c8 T _ZN4core3fmt3num50_$LT$impl$u20$core..fmt..Binary$u20$for$u20$i8$GT$3fmt17h05fdfce3d9290af4E
ffffff804001e7c8 T _ZN4core3fmt3num50_$LT$impl$u20$core..fmt..Binary$u20$for$u20$u8$GT$3fmt17h22b2af2de40094beE
ffffff804001e834 T _ZN4core3fmt3num49_$LT$impl$u20$core..fmt..Octal$u20$for$u20$i8$GT$3fmt17ha7741cc979748daeE
ffffff804001e834 T _ZN4core3fmt3num49_$LT$impl$u20$core..fmt..Octal$u20$for$u20$u8$GT$3fmt17hd11fe693f49e5144E
ffffff804001e8a0 T _ZN4core3fmt3num52_$LT$impl$u20$core..fmt..LowerHex$u20$for$u20$i8$GT$3fmt17h41d56d2e3832e86dE
ffffff804001e8a0 T _ZN4core3fmt3num52_$LT$impl$u20$core..fmt..LowerHex$u20$for$u20$u8$GT$3fmt17h5f69a9893607da0cE
ffffff804001e91c T _ZN4core3fmt3num52_$LT$impl$u20$core..fmt..UpperHex$u20$for$u20$i8$GT$3fmt17h6a0bd5c0e350845dE
ffffff804001e91c T _ZN4core3fmt3num52_$LT$impl$u20$core..fmt..UpperHex$u20$for$u20$u8$GT$3fmt17h136be42a6d670b90E
ffffff804001e998 T _ZN4core3fmt3num51_$LT$impl$u20$core..fmt..Binary$u20$for$u20$i16$GT$3fmt17hf2e639930031b00dE
ffffff804001e998 T _ZN4core3fmt3num51_$LT$impl$u20$core..fmt..Binary$u20$for$u20$u16$GT$3fmt17h98e546b723badb43E
ffffff804001ea04 T _ZN4core3fmt3num50_$LT$impl$u20$core..fmt..Octal$u20$for$u20$i16$GT$3fmt17ha9a140554c4fcf7dE
ffffff804001ea04 T _ZN4core3fmt3num50_$LT$impl$u20$core..fmt..Octal$u20$for$u20$u16$GT$3fmt17hc3b3d0576eb7ff5dE
ffffff804001ea70 T _ZN4core3fmt3num53_$LT$impl$u20$core..fmt..LowerHex$u20$for$u20$i16$GT$3fmt17had40ee43a03067e3E
ffffff804001ea70 T _ZN4core3fmt3num53_$LT$impl$u20$core..fmt..LowerHex$u20$for$u20$u16$GT$3fmt17hfd7b9c9c69498e0dE
ffffff804001eaec T _ZN4core3fmt3num53_$LT$impl$u20$core..fmt..UpperHex$u20$for$u20$i16$GT$3fmt17he65c0956fd275a9dE
ffffff804001eaec T _ZN4core3fmt3num53_$LT$impl$u20$core..fmt..UpperHex$u20$for$u20$u16$GT$3fmt17he2eb2d07f3b551d4E
ffffff804001eb68 T _ZN4core3fmt3num51_$LT$impl$u20$core..fmt..Binary$u20$for$u20$i32$GT$3fmt17h5d8115ffc624bfe0E
ffffff804001eb68 T _ZN4core3fmt3num51_$LT$impl$u20$core..fmt..Binary$u20$for$u20$u32$GT$3fmt17hb6ce4d41d796ccc1E
ffffff804001ebd4 T _ZN4core3fmt3num50_$LT$impl$u20$core..fmt..Octal$u20$for$u20$i32$GT$3fmt17h4e85087f5257d569E
ffffff804001ebd4 T _ZN4core3fmt3num50_$LT$impl$u20$core..fmt..Octal$u20$for$u20$u32$GT$3fmt17h2034241ed6ade0c9E
ffffff804001ec40 T _ZN4core3fmt3num53_$LT$impl$u20$core..fmt..LowerHex$u20$for$u20$i32$GT$3fmt17ha29aa0a1cec61209E
ffffff804001ec40 T _ZN4core3fmt3num53_$LT$impl$u20$core..fmt..LowerHex$u20$for$u20$u32$GT$3fmt17hc8cda86621d17643E
ffffff804001ecbc T _ZN4core3fmt3num53_$LT$impl$u20$core..fmt..UpperHex$u20$for$u20$i32$GT$3fmt17he5ac57f1959bcba6E
ffffff804001ecbc T _ZN4core3fmt3num53_$LT$impl$u20$core..fmt..UpperHex$u20$for$u20$u32$GT$3fmt17h53dc14158aa4d087E
ffffff804001ed38 T _ZN4core3fmt3num51_$LT$impl$u20$core..fmt..Binary$u20$for$u20$i64$GT$3fmt17h36b71414d9cb4473E
ffffff804001ed38 T _ZN4core3fmt3num51_$LT$impl$u20$core..fmt..Binary$u20$for$u20$u64$GT$3fmt17he0097a0b82aa9d29E
ffffff804001ed38 T _ZN4core3fmt3num53_$LT$impl$u20$core..fmt..Binary$u20$for$u20$isize$GT$3fmt17hd8f32f782fe3aeb4E
ffffff804001ed38 T _ZN4core3fmt3num53_$LT$impl$u20$core..fmt..Binary$u20$for$u20$usize$GT$3fmt17h0e98e5ae655e517aE
ffffff804001eda4 T _ZN4core3fmt3num50_$LT$impl$u20$core..fmt..Octal$u20$for$u20$i64$GT$3fmt17ha5183d1eab5893feE
ffffff804001eda4 T _ZN4core3fmt3num50_$LT$impl$u20$core..fmt..Octal$u20$for$u20$u64$GT$3fmt17h28499a2998ed4058E
ffffff804001eda4 T _ZN4core3fmt3num52_$LT$impl$u20$core..fmt..Octal$u20$for$u20$isize$GT$3fmt17hf406fefa97b4e3d3E
ffffff804001eda4 T _ZN4core3fmt3num52_$LT$impl$u20$core..fmt..Octal$u20$for$u20$usize$GT$3fmt17hd2516f32d0ae454bE
ffffff804001ee10 T _ZN4core3fmt3num53_$LT$impl$u20$core..fmt..LowerHex$u20$for$u20$i64$GT$3fmt17hbda2eb2be6d42131E
ffffff804001ee10 T _ZN4core3fmt3num53_$LT$impl$u20$core..fmt..LowerHex$u20$for$u20$u64$GT$3fmt17had9edf1e34469a0aE
ffffff804001ee10 T _ZN4core3fmt3num55_$LT$impl$u20$core..fmt..LowerHex$u20$for$u20$isize$GT$3fmt17h505eb8c82786378cE
ffffff804001ee10 T _ZN4core3fmt3num55_$LT$impl$u20$core..fmt..LowerHex$u20$for$u20$usize$GT$3fmt17h68df39a0f8d5d03aE
ffffff804001ee8c T _ZN4core3fmt3num53_$LT$impl$u20$core..fmt..UpperHex$u20$for$u20$i64$GT$3fmt17hf479b9953f4d5df5E
ffffff804001ee8c T _ZN4core3fmt3num53_$LT$impl$u20$core..fmt..UpperHex$u20$for$u20$u64$GT$3fmt17h3c4897af6f795449E
ffffff804001ee8c T _ZN4core3fmt3num55_$LT$impl$u20$core..fmt..UpperHex$u20$for$u20$isize$GT$3fmt17hbdc120d14d8d6a61E
ffffff804001ee8c T _ZN4core3fmt3num55_$LT$impl$u20$core..fmt..UpperHex$u20$for$u20$usize$GT$3fmt17hbd5eab7398ec5fcdE
ffffff804001ef08 T _ZN4core3fmt3num52_$LT$impl$u20$core..fmt..Binary$u20$for$u20$i128$GT$3fmt17hf736a8d48505ae80E
ffffff804001ef08 T _ZN4core3fmt3num52_$LT$impl$u20$core..fmt..Binary$u20$for$u20$u128$GT$3fmt17hc6e7e291ff06a395E
ffffff804001ef98 T _ZN4core3fmt3num51_$LT$impl$u20$core..fmt..Octal$u20$for$u20$i128$GT$3fmt17ha35043f45c6bda28E
ffffff804001ef98 T _ZN4core3fmt3num51_$LT$impl$u20$core..fmt..Octal$u20$for$u20$u128$GT$3fmt17h4c227a39bfded08fE
ffffff804001f028 T _ZN4core3fmt3num54_$LT$impl$u20$core..fmt..LowerHex$u20$for$u20$i128$GT$3fmt17h336634cf6a2a6f43E
ffffff804001f028 T _ZN4core3fmt3num54_$LT$impl$u20$core..fmt..LowerHex$u20$for$u20$u128$GT$3fmt17he023fa325d742a0fE
ffffff804001f0c8 T _ZN4core3fmt3num54_$LT$impl$u20$core..fmt..UpperHex$u20$for$u20$i128$GT$3fmt17h07f93dd6080d0ba9E
ffffff804001f0c8 T _ZN4core3fmt3num54_$LT$impl$u20$core..fmt..UpperHex$u20$for$u20$u128$GT$3fmt17hd461db91223afaa7E
ffffff804001f168 t _ZN4core3fmt3num49_$LT$impl$u20$core..fmt..Debug$u20$for$u20$i8$GT$3fmt17h0321463ac853af90E
ffffff804001f2e8 t _ZN4core3fmt3num49_$LT$impl$u20$core..fmt..Debug$u20$for$u20$u8$GT$3fmt17h8b7f87eb978aa19dE
ffffff804001f450 t _ZN4core3fmt3num50_$LT$impl$u20$core..fmt..Debug$u20$for$u20$u32$GT$3fmt17h8bced3ff1e7d943dE
ffffff804001f528 t _ZN4core3fmt3num52_$LT$impl$u20$core..fmt..Debug$u20$for$u20$usize$GT$3fmt17hde31dad1c560a868E
ffffff804001f600 T _ZN4core3fmt3num3imp51_$LT$impl$u20$core..fmt..Display$u20$for$u20$u8$GT$3fmt17h07807cf0640b2f66E
ffffff804001f698 T _ZN4core3fmt3num3imp51_$LT$impl$u20$core..fmt..Display$u20$for$u20$i8$GT$3fmt17hab69f6731d0f0a89E
ffffff804001f74c T _ZN4core3fmt3num3imp20_$LT$impl$u20$u8$GT$4_fmt17h63ac398cf09b5058E
ffffff804001f7d0 T _ZN4core3fmt3num3imp52_$LT$impl$u20$core..fmt..Display$u20$for$u20$u16$GT$3fmt17h9afffb0e60a67f20E
ffffff804001f8c4 T _ZN4core3fmt3num3imp52_$LT$impl$u20$core..fmt..Display$u20$for$u20$i16$GT$3fmt17h3e13d15deab23b46E
ffffff804001f9d0 T _ZN4core3fmt3num3imp21_$LT$impl$u20$u16$GT$4_fmt17ha1d835d02e00963aE
ffffff804001facc T _ZN4core3fmt3num3imp52_$LT$impl$u20$core..fmt..Display$u20$for$u20$u32$GT$3fmt17hc92f5acca03c5572E
ffffff804001fbf4 T _ZN4core3fmt3num3imp52_$LT$impl$u20$core..fmt..Display$u20$for$u20$i32$GT$3fmt17h39f64468debc5d62E
ffffff804001fd28 T _ZN4core3fmt3num3imp21_$LT$impl$u20$u32$GT$4_fmt17h70de0fa72e37ac89E
ffffff804001fe30 T _ZN4core3fmt3num3imp52_$LT$impl$u20$core..fmt..Display$u20$for$u20$u64$GT$3fmt17hb47b24e28984c612E
ffffff804001fe30 T _ZN4core3fmt3num3imp54_$LT$impl$u20$core..fmt..Display$u20$for$u20$usize$GT$3fmt17h5bfa263fc0298076E
ffffff804001ff64 T _ZN4core3fmt3num3imp52_$LT$impl$u20$core..fmt..Display$u20$for$u20$i64$GT$3fmt17h515a1eea1dc42e29E
ffffff804001ff64 T _ZN4core3fmt3num3imp54_$LT$impl$u20$core..fmt..Display$u20$for$u20$isize$GT$3fmt17hb8c591ec5936787eE
ffffff80400200a0 T _ZN4core3fmt3num3imp21_$LT$impl$u20$u64$GT$4_fmt17h4f54633a76dc01f0E
ffffff80400200a0 T _ZN4core3fmt3num3imp23_$LT$impl$u20$usize$GT$4_fmt17h2e84ec0d4154b84cE
ffffff80400201b0 t _ZN4core3fmt3num3imp7exp_u6417h910822b0e2103bceE
ffffff804002061c T _ZN4core3fmt3num3imp52_$LT$impl$u20$core..fmt..LowerExp$u20$for$u20$i8$GT$3fmt17h3c72cce31380cde1E
ffffff804002063c T _ZN4core3fmt3num3imp52_$LT$impl$u20$core..fmt..LowerExp$u20$for$u20$u8$GT$3fmt17hf661a0bb90116a68E
ffffff8040020650 T _ZN4core3fmt3num3imp53_$LT$impl$u20$core..fmt..LowerExp$u20$for$u20$i16$GT$3fmt17h3c29492c7152def8E
ffffff8040020670 T _ZN4core3fmt3num3imp53_$LT$impl$u20$core..fmt..LowerExp$u20$for$u20$u16$GT$3fmt17h5dfeb65ff470f0ebE
ffffff8040020684 T _ZN4core3fmt3num3imp53_$LT$impl$u20$core..fmt..LowerExp$u20$for$u20$i32$GT$3fmt17ha39f80d884e6847aE
ffffff80400206a8 T _ZN4core3fmt3num3imp53_$LT$impl$u20$core..fmt..LowerExp$u20$for$u20$u32$GT$3fmt17h8596738bcc770d24E
ffffff80400206bc T _ZN4core3fmt3num3imp53_$LT$impl$u20$core..fmt..LowerExp$u20$for$u20$i64$GT$3fmt17hb858ceb29cc3023dE
ffffff80400206bc T _ZN4core3fmt3num3imp55_$LT$impl$u20$core..fmt..LowerExp$u20$for$u20$isize$GT$3fmt17h9f7c4791b90ad02dE
ffffff80400206dc T _ZN4core3fmt3num3imp53_$LT$impl$u20$core..fmt..LowerExp$u20$for$u20$u64$GT$3fmt17hee86385b86b6f665E
ffffff80400206dc T _ZN4core3fmt3num3imp55_$LT$impl$u20$core..fmt..LowerExp$u20$for$u20$usize$GT$3fmt17hcd9a5ed9b6c03d33E
ffffff80400206f0 T _ZN4core3fmt3num3imp52_$LT$impl$u20$core..fmt..UpperExp$u20$for$u20$i8$GT$3fmt17h5329df3cf7e6afd6E
ffffff8040020710 T _ZN4core3fmt3num3imp52_$LT$impl$u20$core..fmt..UpperExp$u20$for$u20$u8$GT$3fmt17h343d028d7680e281E
ffffff8040020724 T _ZN4core3fmt3num3imp53_$LT$impl$u20$core..fmt..UpperExp$u20$for$u20$i16$GT$3fmt17h9fe127e3442e6809E
ffffff8040020744 T _ZN4core3fmt3num3imp53_$LT$impl$u20$core..fmt..UpperExp$u20$for$u20$u16$GT$3fmt17h027fb2419ec6c1c6E
ffffff8040020758 T _ZN4core3fmt3num3imp53_$LT$impl$u20$core..fmt..UpperExp$u20$for$u20$i32$GT$3fmt17h58a074a200d9e68cE
ffffff804002077c T _ZN4core3fmt3num3imp53_$LT$impl$u20$core..fmt..UpperExp$u20$for$u20$u32$GT$3fmt17hd693aee90e1962e6E
ffffff8040020790 T _ZN4core3fmt3num3imp53_$LT$impl$u20$core..fmt..UpperExp$u20$for$u20$i64$GT$3fmt17hd684017fac2a2c7eE
ffffff8040020790 T _ZN4core3fmt3num3imp55_$LT$impl$u20$core..fmt..UpperExp$u20$for$u20$isize$GT$3fmt17hff7fe5216005118aE
ffffff80400207b0 T _ZN4core3fmt3num3imp53_$LT$impl$u20$core..fmt..UpperExp$u20$for$u20$u64$GT$3fmt17h741402cabe5c941eE
ffffff80400207b0 T _ZN4core3fmt3num3imp55_$LT$impl$u20$core..fmt..UpperExp$u20$for$u20$usize$GT$3fmt17hcaa57bd1b89d9f7eE
ffffff80400207c4 t _ZN4core3fmt3num8exp_u12817h23fb38d1315290b0E
ffffff8040020fec T _ZN4core3fmt3num54_$LT$impl$u20$core..fmt..LowerExp$u20$for$u20$i128$GT$3fmt17hb124794a0e5dbe60E
ffffff8040021018 T _ZN4core3fmt3num54_$LT$impl$u20$core..fmt..LowerExp$u20$for$u20$u128$GT$3fmt17h69c650129bd1f5c4E
ffffff8040021030 T _ZN4core3fmt3num54_$LT$impl$u20$core..fmt..UpperExp$u20$for$u20$i128$GT$3fmt17hdca1aa84f2631431E
ffffff804002105c T _ZN4core3fmt3num54_$LT$impl$u20$core..fmt..UpperExp$u20$for$u20$u128$GT$3fmt17h81ab3049c664157dE
ffffff8040021074 t _ZN53_$LT$core..fmt..Error$u20$as$u20$core..fmt..Debug$GT$3fmt17h938fb24e0f065f1eE
ffffff8040021090 t _ZN42_$LT$$RF$T$u20$as$u20$core..fmt..Debug$GT$3fmt17h0c6276ecdd1694efE
ffffff804002109c t _ZN42_$LT$$RF$T$u20$as$u20$core..fmt..Debug$GT$3fmt17h0d35b2380eccc952E
ffffff8040021178 t _ZN42_$LT$$RF$T$u20$as$u20$core..fmt..Debug$GT$3fmt17h5ef28d2cd58c2891E
ffffff8040021180 t _ZN42_$LT$$RF$T$u20$as$u20$core..fmt..Debug$GT$3fmt17h933dd56b6335b329E
ffffff8040021194 t _ZN44_$LT$$RF$T$u20$as$u20$core..fmt..Display$GT$3fmt17h0dc963ccb8631883E
ffffff804002119c t _ZN44_$LT$$RF$T$u20$as$u20$core..fmt..Display$GT$3fmt17h680b8732834e72afE
ffffff80400211a4 t _ZN44_$LT$$RF$T$u20$as$u20$core..fmt..Display$GT$3fmt17hc34c15ae7069b930E
ffffff80400211ac t _ZN44_$LT$$RF$T$u20$as$u20$core..fmt..Display$GT$3fmt17hd25730e7f3c9307bE
ffffff80400211bc t _ZN45_$LT$$RF$T$u20$as$u20$core..fmt..LowerHex$GT$3fmt17h88d48609a25b0932E
ffffff804002123c T _ZN4core5slice5index26slice_start_index_len_fail8do_panic7runtime17h1bb319e237453e05E
ffffff8040021280 T _ZN4core5slice5index24slice_end_index_len_fail8do_panic7runtime17h8d0ee63809bd0eb2E
ffffff80400212c4 T _ZN4core5slice5index22slice_index_order_fail8do_panic7runtime17h404537baf047aa86E
ffffff8040021308 T _ZN4core5slice29_$LT$impl$u20$$u5b$T$u5d$$GT$15copy_from_slice17len_mismatch_fail8do_panic7runtime17h01409fb09166c253E
ffffff8040021350 T _ZN67_$LT$core..str..iter..EscapeDebug$u20$as$u20$core..fmt..Display$GT$3fmt17h7cd96fc95e2be319E
ffffff8040021af8 T _ZN69_$LT$core..str..iter..EscapeDefault$u20$as$u20$core..fmt..Display$GT$3fmt17hf86f51e2086ce5a5E
ffffff8040021f78 T _ZN69_$LT$core..str..iter..EscapeUnicode$u20$as$u20$core..fmt..Display$GT$3fmt17h2f22552ee36167c3E
ffffff80400222bc T _ZN4core7unicode12unicode_data10alphabetic6lookup17h7b076984384f31d9E
ffffff80400223c0 T _ZN4core7unicode12unicode_data14case_ignorable6lookup17had22039b81980e49E
ffffff80400224cc T _ZN4core7unicode12unicode_data5cased6lookup17h8788769e8c278aa4E
ffffff80400225c0 T _ZN4core7unicode12unicode_data2cc6lookup17h17cc58395852df99E
ffffff80400225d8 T _ZN4core7unicode12unicode_data15grapheme_extend11lookup_slow17ha903489f87154630E
ffffff80400226e0 T _ZN4core7unicode12unicode_data9lowercase6lookup17h520635af87302f97E
ffffff80400227ec T _ZN4core7unicode12unicode_data1n6lookup17hfddb777eea740271E
ffffff80400228f8 T _ZN4core7unicode12unicode_data9uppercase6lookup17hbcdafdfa4a288245E
ffffff8040022a04 T _ZN4core7unicode12unicode_data11conversions8to_lower17h8a1076b1c39537a6E
ffffff8040022b80 T _ZN4core7unicode12unicode_data11conversions8to_upper17h330595e540673284E
ffffff8040022d18 t OUTLINED_FUNCTION_0
ffffff8040022d30 t OUTLINED_FUNCTION_1
ffffff8040022d40 t _ZN17compiler_builtins5float3add3add17h469a2704009f1524E
ffffff8040023130 t _ZN17compiler_builtins5float4conv12int_to_float16u32_to_f128_bits17h21cf5a2f6fbaf77aE
ffffff8040023170 t _ZN17compiler_builtins5float4conv12int_to_float16u64_to_f128_bits17h5eca0e4a6e32f09bE
ffffff80400231b8 t _ZN17compiler_builtins5float4conv12int_to_float17u128_to_f128_bits17hf9170eead273f936E
ffffff804002323c t _ZN84_$LT$compiler_builtins..int..big..u256$u20$as$u20$core..ops..bit..Shr$LT$u32$GT$$GT$3shr17h408e2b525dc0364fE
ffffff8040023350 t _ZN17compiler_builtins3int3big71_$LT$impl$u20$compiler_builtins..int..traits..HInt$u20$for$u20$i128$GT$14zero_widen_mul17h7d316a67f7bd7fa8E
ffffff8040023350 t _ZN17compiler_builtins3int3big71_$LT$impl$u20$compiler_builtins..int..traits..HInt$u20$for$u20$u128$GT$14zero_widen_mul17h8d300e3fd7bc891aE
ffffff8040023350 t _ZN17compiler_builtins3int3big71_$LT$impl$u20$compiler_builtins..int..traits..HInt$u20$for$u20$u128$GT$9widen_mul17h03cba53cac7c9eefE
ffffff8040023448 t _ZN17compiler_builtins3int3big71_$LT$impl$u20$compiler_builtins..int..traits..HInt$u20$for$u20$i128$GT$9widen_mul17h1b18830936f47e1eE
ffffff804002344c t _ZN17compiler_builtins3int3big71_$LT$impl$u20$compiler_builtins..int..traits..HInt$u20$for$u20$i128$GT$8widen_hi17h6e05dcbb1edbf081E
ffffff804002344c t _ZN17compiler_builtins3int3big71_$LT$impl$u20$compiler_builtins..int..traits..HInt$u20$for$u20$u128$GT$8widen_hi17h71698d645c6423a5E
ffffff8040023450 t _ZN90_$LT$compiler_builtins..int..big..i256$u20$as$u20$compiler_builtins..int..traits..DInt$GT$2lo17h62677826fe2c0fbdE
ffffff8040023450 t _ZN90_$LT$compiler_builtins..int..big..u256$u20$as$u20$compiler_builtins..int..traits..DInt$GT$2lo17h41634fd3a54fbb7aE
ffffff804002345c t _ZN90_$LT$compiler_builtins..int..big..i256$u20$as$u20$compiler_builtins..int..traits..DInt$GT$2hi17h643473c6adfe51daE
ffffff804002345c t _ZN90_$LT$compiler_builtins..int..big..u256$u20$as$u20$compiler_builtins..int..traits..DInt$GT$2hi17h2bf56fc555076342E
ffffff8040023468 t _ZN17compiler_builtins5float3add8__addsf317h1294a57d73a189dbE
ffffff804002369c t __addsf3
ffffff80400236a0 t _ZN17compiler_builtins5float3add8__adddf317h9ebf69980bf71c46E
ffffff80400238dc t __adddf3
ffffff80400238e0 t __addtf3
ffffff80400238e4 t _ZN17compiler_builtins5float3cmp7__gesf217hce8c57305341e4c4E
ffffff80400238e4 t _ZN17compiler_builtins5float3cmp7__gtsf217habf3ea793029f38eE
ffffff8040023940 t __gesf2
ffffff8040023940 t __gtsf2
ffffff804002399c t _ZN17compiler_builtins5float3cmp10__unordsf217hfe9018177363c20bE
ffffff80400239c0 t __unordsf2
ffffff80400239e4 t _ZN17compiler_builtins5float3cmp7__eqsf217hd32b02d6cdd0b010E
ffffff80400239e4 t _ZN17compiler_builtins5float3cmp7__lesf217hd1c18512a65145eaE
ffffff80400239e4 t _ZN17compiler_builtins5float3cmp7__ltsf217h240e9e595abdc926E
ffffff80400239e4 t _ZN17compiler_builtins5float3cmp7__nesf217hf6a0779bc29bce99E
ffffff8040023a4c t __eqsf2
ffffff8040023a4c t __lesf2
ffffff8040023a4c t __ltsf2
ffffff8040023a4c t __nesf2
ffffff8040023ab4 t _ZN17compiler_builtins5float3cmp7__gedf217h0dbf4788fe7e3411E
ffffff8040023ab4 t _ZN17compiler_builtins5float3cmp7__gtdf217he5ebd1e685033e78E
ffffff8040023b10 t __gedf2
ffffff8040023b10 t __gtdf2
ffffff8040023b6c t _ZN17compiler_builtins5float3cmp10__unorddf217h0b9e38b096485c3dE
ffffff8040023b90 t __unorddf2
ffffff8040023bb4 t _ZN17compiler_builtins5float3cmp7__eqdf217h613195dbd0217475E
ffffff8040023bb4 t _ZN17compiler_builtins5float3cmp7__ledf217hce023f017ccdb104E
ffffff8040023bb4 t _ZN17compiler_builtins5float3cmp7__ltdf217h417f54dd1d93b5ddE
ffffff8040023bb4 t _ZN17compiler_builtins5float3cmp7__nedf217h468e2c58ffa39105E
ffffff8040023c1c t __eqdf2
ffffff8040023c1c t __ledf2
ffffff8040023c1c t __ltdf2
ffffff8040023c1c t __nedf2
ffffff8040023c84 t __getf2
ffffff8040023c84 t __gttf2
ffffff8040023d0c t __unordtf2
ffffff8040023d54 t __eqtf2
ffffff8040023d54 t __letf2
ffffff8040023d54 t __lttf2
ffffff8040023d54 t __netf2
ffffff8040023df0 t _ZN17compiler_builtins5float4conv13__floatunsisf17hb93b14e5cfbdc9e7E
ffffff8040023e30 t __floatunsisf
ffffff8040023e70 t _ZN17compiler_builtins5float4conv13__floatunsidf17h3d4b8f2c0de6c824E
ffffff8040023ea8 t __floatunsidf
ffffff8040023ee0 t _ZN17compiler_builtins5float4conv13__floatundisf17h33c649c645966965E
ffffff8040023f24 t __floatundisf
ffffff8040023f68 t _ZN17compiler_builtins5float4conv13__floatundidf17h2fb95ce1723abe5bE
ffffff8040023fa8 t __floatundidf
ffffff8040023fe8 t _ZN17compiler_builtins5float4conv13__floatuntisf17hcf3e055c9c23ed0fE
ffffff8040024070 t __floatuntisf
ffffff80400240f8 t _ZN17compiler_builtins5float4conv13__floatuntidf17hcd098459c284aa96E
ffffff8040024174 t __floatuntidf
ffffff80400241f0 t __floatunsitf
ffffff8040024230 t __floatunditf
ffffff8040024284 t __floatuntitf
ffffff8040024310 t _ZN17compiler_builtins5float4conv11__floatsisf17hfe02f5c53f74f8eaE
ffffff8040024368 t __floatsisf
ffffff80400243c0 t _ZN17compiler_builtins5float4conv11__floatsidf17ha35237c52a25f594E
ffffff804002440c t __floatsidf
ffffff8040024458 t _ZN17compiler_builtins5float4conv11__floatdisf17h450c5438ceb35198E
ffffff80400244b0 t __floatdisf
ffffff8040024508 t _ZN17compiler_builtins5float4conv11__floatdidf17h39d92375f5e05f51E
ffffff8040024560 t __floatdidf
ffffff80400245b8 t _ZN17compiler_builtins5float4conv11__floattisf17h111e53731f09e302E
ffffff804002465c t __floattisf
ffffff8040024700 t _ZN17compiler_builtins5float4conv11__floattidf17h32ba53ff99a7fd22E
ffffff8040024794 t __floattidf
ffffff8040024828 t __floatsitf
ffffff8040024880 t __floatditf
ffffff80400248ec t __floattitf
ffffff8040024998 t _ZN17compiler_builtins5float4conv12__fixunssfsi17h89b78ca6a456c4b0E
ffffff80400249e4 t __fixunssfsi
ffffff8040024a30 t _ZN17compiler_builtins5float4conv12__fixunssfdi17h58bc555e597d8dfcE
ffffff8040024a7c t __fixunssfdi
ffffff8040024ac8 t _ZN17compiler_builtins5float4conv12__fixunssfti17hb00d88fa325fb93fE
ffffff8040024b30 t __fixunssfti
ffffff8040024b98 t _ZN17compiler_builtins5float4conv12__fixunsdfsi17h9886bc0e259364edE
ffffff8040024be4 t __fixunsdfsi
ffffff8040024c30 t _ZN17compiler_builtins5float4conv12__fixunsdfdi17h2560ce15488cbf58E
ffffff8040024c7c t __fixunsdfdi
ffffff8040024cc8 t _ZN17compiler_builtins5float4conv12__fixunsdfti17hbf378d5fe83e6514E
ffffff8040024d34 t __fixunsdfti
ffffff8040024da0 t __fixunstfsi
ffffff8040024e04 t __fixunstfdi
ffffff8040024e68 t __fixunstfti
ffffff8040024efc t _ZN17compiler_builtins5float4conv9__fixsfsi17h99ee2d4207439a3dE
ffffff8040024f60 t __fixsfsi
ffffff8040024fc4 t _ZN17compiler_builtins5float4conv9__fixsfdi17h6c0ebf0c92b9dfc9E
ffffff8040025028 t __fixsfdi
ffffff804002508c t _ZN17compiler_builtins5float4conv9__fixsfti17h15ccf0cd4f2c897bE
ffffff804002511c t __fixsfti
ffffff80400251ac t _ZN17compiler_builtins5float4conv9__fixdfsi17hd085280c310a2453E
ffffff8040025214 t __fixdfsi
ffffff804002527c t _ZN17compiler_builtins5float4conv9__fixdfdi17hf8bd6e6f619504caE
ffffff80400252e0 t __fixdfdi
ffffff8040025344 t _ZN17compiler_builtins5float4conv9__fixdfti17h0a0d05a29e421d62E
ffffff80400253d8 t __fixdfti
ffffff804002546c t __fixtfsi
ffffff80400254e8 t __fixtfdi
ffffff8040025560 t __fixtfti
ffffff8040025614 t _ZN17compiler_builtins5float3div8__divsf317h211837cbb0794860E
ffffff804002581c t __divsf3
ffffff8040025820 t _ZN17compiler_builtins5float3div8__divdf317hbbeb5648becc6640E
ffffff8040025a58 t __divdf3
ffffff8040025a5c t __divtf3
ffffff8040026080 t _ZN17compiler_builtins5float6extend13__extendsfdf217h46d3fab98066e0faE
ffffff8040026114 t __extendsfdf2
ffffff80400261a8 t __extendhfsf2
ffffff80400261a8 t __gnu_h2f_ieee
ffffff804002623c t __extendhfdf2
ffffff80400262f8 t __extendhftf2
ffffff80400263c8 t __extendsftf2
ffffff8040026494 t __extenddftf2
ffffff804002656c t _ZN17compiler_builtins5float3mul8__mulsf317h85a1651b71650651E
ffffff804002671c t __mulsf3
ffffff8040026720 t _ZN17compiler_builtins5float3mul8__muldf317h2e98d6886d2379c6E
ffffff80400268cc t __muldf3
ffffff80400268d0 t __multf3
ffffff8040026d9c t _ZN17compiler_builtins5float3pow9__powisf217h7024b696e67b9c5dE
ffffff8040026de8 t __powisf2
ffffff8040026e34 t _ZN17compiler_builtins5float3pow9__powidf217hb082b6d3e2fad7a8E
ffffff8040026e80 t __powidf2
ffffff8040026ecc t __powitf2
ffffff8040026f80 t _ZN17compiler_builtins5float3sub8__subsf317ha454d9c6c598a66dE
ffffff8040026f88 t __subsf3
ffffff8040026f90 t _ZN17compiler_builtins5float3sub8__subdf317h8a79f61557217c81E
ffffff8040026f98 t __subdf3
ffffff8040026fa0 t __subtf3
ffffff8040026fb8 t _ZN63_$LT$f16$u20$as$u20$compiler_builtins..float..traits..Float$GT$9normalize17ha8a77ec964487f22E
ffffff8040026fb8 t _ZN88_$LT$f16$u20$as$u20$compiler_builtins..math..libm_math..support..float_traits..Float$GT$9normalize17hf4c7527cbf37b4b2E
ffffff8040026fe0 t _ZN63_$LT$f32$u20$as$u20$compiler_builtins..float..traits..Float$GT$9normalize17hb053576a4e00b884E
ffffff8040026fe0 t _ZN88_$LT$f32$u20$as$u20$compiler_builtins..math..libm_math..support..float_traits..Float$GT$9normalize17hb4245a711e21876cE
ffffff8040026ff8 t _ZN63_$LT$f64$u20$as$u20$compiler_builtins..float..traits..Float$GT$9normalize17hfc0955fc0d2063f7E
ffffff8040026ff8 t _ZN88_$LT$f64$u20$as$u20$compiler_builtins..math..libm_math..support..float_traits..Float$GT$9normalize17hf3c36cf1e106d06bE
ffffff8040027010 t _ZN64_$LT$f128$u20$as$u20$compiler_builtins..float..traits..Float$GT$9normalize17he77237e79bbd5812E
ffffff8040027010 t _ZN89_$LT$f128$u20$as$u20$compiler_builtins..math..libm_math..support..float_traits..Float$GT$9normalize17h31486285e450bbd6E
ffffff8040027064 t _ZN17compiler_builtins5float5trunc12__truncdfsf217h1470164e4e42f322E
ffffff80400271b8 t __truncdfsf2
ffffff804002730c t __gnu_f2h_ieee
ffffff804002730c t __truncsfhf2
ffffff8040027414 t __truncdfhf2
ffffff8040027554 t __trunctfhf2
ffffff8040027724 t __trunctfsf2
ffffff80400278fc t __trunctfdf2
ffffff8040027aac t _ZN17compiler_builtins3int19specialized_div_rem12u128_div_rem17hdcb2294373189359E
ffffff8040027dd0 t _ZN17compiler_builtins3int6addsub15__rust_i128_add17h14a4f79be9c8e65dE
ffffff8040027dd0 t _ZN17compiler_builtins3int6addsub15__rust_u128_add17h82d70aa5a15d82c4E
ffffff8040027ddc t __rust_i128_add
ffffff8040027ddc t __rust_u128_add
ffffff8040027de8 t _ZN17compiler_builtins3int6addsub16__rust_i128_addo17hb3376f185db9e862E
ffffff8040027e18 t __rust_i128_addo
ffffff8040027e48 t _ZN17compiler_builtins3int6addsub16__rust_u128_addo17he6373f29c20675ddE
ffffff8040027e6c t __rust_u128_addo
ffffff8040027e90 t _ZN17compiler_builtins3int6addsub15__rust_i128_sub17h89a6f2e1488547a0E
ffffff8040027e90 t _ZN17compiler_builtins3int6addsub15__rust_u128_sub17h0154e79edb60e242E
ffffff8040027e9c t __rust_i128_sub
ffffff8040027e9c t __rust_u128_sub
ffffff8040027ea8 t _ZN17compiler_builtins3int6addsub16__rust_i128_subo17h0009e09f0a3d8c5eE
ffffff8040027ed8 t __rust_i128_subo
ffffff8040027f08 t _ZN17compiler_builtins3int6addsub16__rust_u128_subo17hdefd95b57926b133E
ffffff8040027f2c t __rust_u128_subo
ffffff8040027f50 t _ZN84_$LT$compiler_builtins..int..big..i256$u20$as$u20$core..ops..bit..Shl$LT$u32$GT$$GT$3shl17h355d331e81023992E
ffffff8040027f50 t _ZN84_$LT$compiler_builtins..int..big..u256$u20$as$u20$core..ops..bit..Shl$LT$u32$GT$$GT$3shl17hd0604b8fda12c469E
ffffff8040027f54 t _ZN17compiler_builtins3int5bswap10__bswapsi217h276a90450976ca44E
ffffff8040027f5c t __bswapsi2
ffffff8040027f64 t _ZN17compiler_builtins3int5bswap10__bswapdi217h3e02f3e55bf61f63E
ffffff8040027f6c t __bswapdi2
ffffff8040027f74 t _ZN17compiler_builtins3int5bswap10__bswapti217hc4d19cb3667fd3e9E
ffffff8040027f84 t __bswapti2
ffffff8040027f94 t _ZN17compiler_builtins3int13leading_zeros8__clzsi217hd1f3275e46bdd176E
ffffff8040027ffc t __clzsi2
ffffff8040028064 t _ZN17compiler_builtins3int13leading_zeros8__clzdi217h44f0be386c2f73adE
ffffff80400280e0 t __clzdi2
ffffff804002815c t _ZN17compiler_builtins3int13leading_zeros8__clzti217h495658c875a40676E
ffffff804002825c t __clzti2
ffffff8040028260 t _ZN17compiler_builtins3int3mul8__muldi317he5335fbb69671613E
ffffff80400282a4 t __muldi3
ffffff80400282e8 t _ZN17compiler_builtins3int3mul8__multi317ha0f4ea9e6f6fca84E
ffffff804002832c t __multi3
ffffff8040028370 t _ZN17compiler_builtins3int3mul9__mulosi417h9ea038e122929f70E
ffffff8040028428 t __mulosi4
ffffff80400284e0 t _ZN17compiler_builtins3int3mul9__mulodi417he6041a7d22b1cf00E
ffffff80400285a0 t __mulodi4
ffffff8040028660 t __muloti4
ffffff8040028660 t __rust_i128_mulo
ffffff804002876c t _ZN17compiler_builtins3int3mul16__rust_i128_mulo17h87745b3515553cdaE
ffffff804002876c t _ZN17compiler_builtins3int3mul9__muloti417hd04d2c2f2f8bbb82E
ffffff8040028878 t _ZN17compiler_builtins3int3mul16__rust_u128_mulo17h567afe6ee170849aE
ffffff80400288f0 t __rust_u128_mulo
ffffff8040028968 t _ZN17compiler_builtins3int4sdiv11__divmodsi417h7e6c499cde8ff39fE
ffffff8040028b3c t __divmodsi4
ffffff8040028b40 t _ZN17compiler_builtins3int4sdiv8__divsi317hfce4534240517070E
ffffff8040028c2c t __divsi3
ffffff8040028d18 t _ZN17compiler_builtins3int4sdiv8__modsi317h9c2f1a808eeb571fE
ffffff8040028e4c t __modsi3
ffffff8040028e50 t _ZN17compiler_builtins3int4sdiv11__divmoddi417h6d8d5c12c20237daE
ffffff804002902c t __divmoddi4
ffffff8040029030 t _ZN17compiler_builtins3int4sdiv8__divdi317h8d6101146adf724cE
ffffff8040029120 t __divdi3
ffffff8040029210 t _ZN17compiler_builtins3int4sdiv8__moddi317h882335fc96f2ac6bE
ffffff804002934c t __moddi3
ffffff8040029350 t _ZN17compiler_builtins3int4sdiv11__divmodti417h1eb2c00af1951237E
ffffff8040029414 t __divmodti4
ffffff80400294d8 t _ZN17compiler_builtins3int4sdiv8__divti317heef5d6229ce105c5E
ffffff804002954c t __divti3
ffffff80400295c0 t _ZN17compiler_builtins3int4sdiv8__modti317ha60cd8c6756fd762E
ffffff804002963c t __modti3
ffffff80400296b8 t _ZN17compiler_builtins3int5shift9__ashlsi317h00693921d3e31373E
ffffff8040029704 t __ashlsi3
ffffff8040029750 t _ZN17compiler_builtins3int5shift9__ashldi317h2b53b58fc630e288E
ffffff8040029788 t __ashldi3
ffffff80400297c0 t _ZN17compiler_builtins3int5shift9__ashlti317hefd9a86fb717244dE
ffffff80400297f4 t __ashlti3
ffffff8040029828 t _ZN17compiler_builtins3int5shift9__ashrsi317h37bfb1dda44bff6dE
ffffff804002987c t __ashrsi3
ffffff80400298d0 t _ZN17compiler_builtins3int5shift9__ashrdi317h1bd82b38e931cfccE
ffffff804002990c t __ashrdi3
ffffff8040029948 t _ZN17compiler_builtins3int5shift9__ashrti317hf7eb9c8cad93028aE
ffffff8040029980 t __ashrti3
ffffff80400299b8 t _ZN17compiler_builtins3int5shift9__lshrsi317h31c0a6cf845f5f68E
ffffff8040029a00 t __lshrsi3
ffffff8040029a48 t _ZN17compiler_builtins3int5shift9__lshrdi317h9d5d0359737e9955E
ffffff8040029a7c t __lshrdi3
ffffff8040029ab0 t _ZN17compiler_builtins3int5shift9__lshrti317hcff4f8ff7085ae24E
ffffff8040029ae4 t __lshrti3
ffffff8040029b18 t _ZN17compiler_builtins3int14trailing_zeros8__ctzsi217h872c588c50115cbdE
ffffff8040029b90 t __ctzsi2
ffffff8040029c08 t _ZN17compiler_builtins3int14trailing_zeros8__ctzdi217h4bd21293eeddbea1E
ffffff8040029c94 t __ctzdi2
ffffff8040029d20 t _ZN17compiler_builtins3int14trailing_zeros8__ctzti217h8e01ec73a9254048E
ffffff8040029e40 t __ctzti2
ffffff8040029e44 t _ZN17compiler_builtins3int4udiv9__udivsi317hf2b24c3eb701d3f9E
ffffff8040029efc t __udivsi3
ffffff8040029fb4 t _ZN17compiler_builtins3int4udiv9__umodsi317h2a371be36429f879E
ffffff804002a03c t __umodsi3
ffffff804002a0c4 t _ZN17compiler_builtins3int4udiv12__udivmodsi417ha185387cc81f5dddE
ffffff804002a19c t __udivmodsi4
ffffff804002a274 t _ZN17compiler_builtins3int4udiv9__udivdi317h5692fc80adc2b9aeE
ffffff804002a334 t __udivdi3
ffffff804002a3f4 t _ZN17compiler_builtins3int4udiv9__umoddi317h5f9807b0ae2890f9E
ffffff804002a480 t __umoddi3
ffffff804002a50c t _ZN17compiler_builtins3int4udiv12__udivmoddi417h619adbd8e158c38eE
ffffff804002a5e8 t __udivmoddi4
ffffff804002a6c4 t _ZN17compiler_builtins3int4udiv9__udivti317h28890bbe1b874ec8E
ffffff804002a6f4 t __udivti3
ffffff804002a724 t _ZN17compiler_builtins3int4udiv9__umodti317hcee8d71499d7ff5aE
ffffff804002a754 t __umodti3
ffffff804002a784 t _ZN17compiler_builtins3int4udiv12__udivmodti417h70db8ae92372b464E
ffffff804002a7c4 t __udivmodti4
ffffff804002a804 t _ZN17compiler_builtins4math9libm_math7support3big96_$LT$impl$u20$compiler_builtins..math..libm_math..support..int_traits..HInt$u20$for$u20$i128$GT$14zero_widen_mul17hd08162a69a0827cbE
ffffff804002a804 t _ZN17compiler_builtins4math9libm_math7support3big96_$LT$impl$u20$compiler_builtins..math..libm_math..support..int_traits..HInt$u20$for$u20$u128$GT$9widen_mul17h3c3d97caa3c4ff2bE
ffffff804002a850 t _ZN17compiler_builtins4math9libm_math7support3big96_$LT$impl$u20$compiler_builtins..math..libm_math..support..int_traits..HInt$u20$for$u20$i128$GT$9widen_mul17hfcaa9ec7bb70f27eE
ffffff804002a854 t _ZN17compiler_builtins4math9libm_math7support3big96_$LT$impl$u20$compiler_builtins..math..libm_math..support..int_traits..HInt$u20$for$u20$i128$GT$8widen_hi17hf13ab6114d3f64cdE
ffffff804002a854 t _ZN17compiler_builtins4math9libm_math7support3big96_$LT$impl$u20$compiler_builtins..math..libm_math..support..int_traits..HInt$u20$for$u20$u128$GT$8widen_hi17h075ca2c0b232d41aE
ffffff804002a858 t _ZN17compiler_builtins4math9libm_math7support9cold_path17ha1bbbb38da15e67dE
ffffff804002a85c t _ZN17compiler_builtins4math9libm_math8rem_pio28rem_pio217h1458b0e5a9cba4b6E
ffffff804002ac7c t _ZN17compiler_builtins4math9libm_math14rem_pio2_large14rem_pio2_large17h30af227c04d0bdf8E
ffffff804002b464 t _ZN17compiler_builtins4math9libm_math4atan4atan17hd677d503ca7c3f6bE
ffffff804002b668 t _ZN17compiler_builtins4math9libm_math5atanf5atanf17h72094c5eafd3ceceE
ffffff804002b820 t _ZN17compiler_builtins4math9libm_math3erf5erfc217hc8056f5514651ddfE
ffffff804002bb30 t _ZN17compiler_builtins4math9libm_math4erff5erfc217h7b197cf67d5bd70eE
ffffff804002be8c t _ZN17compiler_builtins4math9libm_math3exp3exp17hf4a4e1c4f466d9a7E
ffffff804002c0f0 t _ZN17compiler_builtins4math9libm_math4expf4expf17hb78d7040da5834ddE
ffffff804002c320 t _ZN17compiler_builtins4math9libm_math5expm15expm117h92742c8732e4573bE
ffffff804002c5f0 t _ZN17compiler_builtins4math9libm_math6expm1f6expm1f17h62d7d98ad5f6eb6aE
ffffff804002c8b0 t _ZN17compiler_builtins4math9libm_math5floor5floor17h7d2ec3c0efec527aE
ffffff804002c928 t _ZN17compiler_builtins4math9libm_math3log3log17he3a634d6767a950fE
ffffff804002ca8c t _ZN17compiler_builtins4math9libm_math4logf4logf17h3eb8ebd9956aa558E
ffffff804002cba8 t _ZN17compiler_builtins4math9libm_math3pow3pow17ha780f6948739b97aE
ffffff804002d3e4 t _ZN17compiler_builtins4math9libm_math6scalbn7scalbnf17hf11825a68318f6b7E
ffffff804002d4ac t _ZN17compiler_builtins4math9libm_math6scalbn6scalbn17haebf4f8cc6321015E
ffffff804002d56c t _ZN17compiler_builtins4math9libm_math6tgamma6tgamma17he33bcef2844e5d97E
ffffff804002dc08 t _ZN105_$LT$compiler_builtins..math..libm_math..support..big..i256$u20$as$u20$core..ops..bit..Shl$LT$u32$GT$$GT$3shl17h41e2941e2903c2ceE
ffffff804002dc08 t _ZN105_$LT$compiler_builtins..math..libm_math..support..big..u256$u20$as$u20$core..ops..bit..Shl$LT$u32$GT$$GT$3shl17h3b87d7a7b228bc3fE
ffffff804002dc0c t _ZN88_$LT$f32$u20$as$u20$compiler_builtins..math..libm_math..support..float_traits..Float$GT$3abs17h3cf42fdac851276eE
ffffff804002dc14 t _ZN88_$LT$f32$u20$as$u20$compiler_builtins..math..libm_math..support..float_traits..Float$GT$8copysign17hd20e742a319e373dE
ffffff804002dc20 t _ZN88_$LT$f32$u20$as$u20$compiler_builtins..math..libm_math..support..float_traits..Float$GT$3fma17h0717bfda32827540E
ffffff804002dc28 t _ZN88_$LT$f64$u20$as$u20$compiler_builtins..math..libm_math..support..float_traits..Float$GT$3abs17h1b6cb2636034e7b6E
ffffff804002dc30 t _ZN88_$LT$f64$u20$as$u20$compiler_builtins..math..libm_math..support..float_traits..Float$GT$8copysign17hfd196c36f8f8bd5aE
ffffff804002dc40 t _ZN88_$LT$f64$u20$as$u20$compiler_builtins..math..libm_math..support..float_traits..Float$GT$3fma17h10fab3a5e23f0ed0E
ffffff804002dc48 t _ZN83_$LT$u8$u20$as$u20$compiler_builtins..math..libm_math..support..int_traits..Int$GT$12unsigned_abs17h8d94ea149d0fa21fE
ffffff804002dc48 t _ZN83_$LT$u8$u20$as$u20$compiler_builtins..math..libm_math..support..int_traits..Int$GT$3abs17he6b33b1331d254b7E
ffffff804002dc4c t _ZN83_$LT$i8$u20$as$u20$compiler_builtins..math..libm_math..support..int_traits..Int$GT$3abs17h827846684bd030b9E
ffffff804002dc5c t _ZN83_$LT$u8$u20$as$u20$compiler_builtins..math..libm_math..support..int_traits..Int$GT$11checked_add17h5cb125a792d4ebd9E
ffffff804002dc78 t _ZN83_$LT$u8$u20$as$u20$compiler_builtins..math..libm_math..support..int_traits..Int$GT$5ilog217h02d666526026fb1fE
ffffff804002dc94 t _ZN83_$LT$i8$u20$as$u20$compiler_builtins..math..libm_math..support..int_traits..Int$GT$11checked_add17h0a25886037690402E
ffffff804002dca8 t _ZN83_$LT$i8$u20$as$u20$compiler_builtins..math..libm_math..support..int_traits..Int$GT$11checked_sub17haa507606909d92c4E
ffffff804002dcbc t _ZN83_$LT$i8$u20$as$u20$compiler_builtins..math..libm_math..support..int_traits..Int$GT$11rotate_left17h84f9afc6f71f9d63E
ffffff804002dcbc t _ZN83_$LT$u8$u20$as$u20$compiler_builtins..math..libm_math..support..int_traits..Int$GT$11rotate_left17h4fd470b70a8554d2E
ffffff804002dcdc t _ZN83_$LT$i8$u20$as$u20$compiler_builtins..math..libm_math..support..int_traits..Int$GT$13leading_zeros17h80f27984d4ca9bd6E
ffffff804002dcdc t _ZN83_$LT$u8$u20$as$u20$compiler_builtins..math..libm_math..support..int_traits..Int$GT$13leading_zeros17hab1fea258350698fE
ffffff804002dcf0 t _ZN83_$LT$i8$u20$as$u20$compiler_builtins..math..libm_math..support..int_traits..Int$GT$5ilog217h6654c73080daeed8E
ffffff804002dd10 t _ZN84_$LT$u16$u20$as$u20$compiler_builtins..math..libm_math..support..int_traits..Int$GT$12unsigned_abs17h5c6319cbe1ef3266E
ffffff804002dd10 t _ZN84_$LT$u16$u20$as$u20$compiler_builtins..math..libm_math..support..int_traits..Int$GT$3abs17h9184ac35b29e4d5aE
ffffff804002dd14 t _ZN84_$LT$i16$u20$as$u20$compiler_builtins..math..libm_math..support..int_traits..Int$GT$3abs17h4003abe5d2adc420E
ffffff804002dd24 t _ZN84_$LT$u16$u20$as$u20$compiler_builtins..math..libm_math..support..int_traits..Int$GT$11checked_add17hadd6611a5e112c69E
ffffff804002dd40 t _ZN84_$LT$u16$u20$as$u20$compiler_builtins..math..libm_math..support..int_traits..Int$GT$5ilog217h6f6f42f061475244E
ffffff804002dd5c t _ZN84_$LT$i16$u20$as$u20$compiler_builtins..math..libm_math..support..int_traits..Int$GT$11checked_add17heb1e9e40909c77beE
ffffff804002dd70 t _ZN84_$LT$i16$u20$as$u20$compiler_builtins..math..libm_math..support..int_traits..Int$GT$11checked_sub17he0616ea73733ec23E
ffffff804002dd84 t _ZN84_$LT$i16$u20$as$u20$compiler_builtins..math..libm_math..support..int_traits..Int$GT$11rotate_left17hb14588a7360b06c2E
ffffff804002dd84 t _ZN84_$LT$u16$u20$as$u20$compiler_builtins..math..libm_math..support..int_traits..Int$GT$11rotate_left17h4f845fc53c753573E
ffffff804002dda4 t _ZN84_$LT$i16$u20$as$u20$compiler_builtins..math..libm_math..support..int_traits..Int$GT$13leading_zeros17hcbda0a57587e053dE
ffffff804002dda4 t _ZN84_$LT$u16$u20$as$u20$compiler_builtins..math..libm_math..support..int_traits..Int$GT$13leading_zeros17h6bd6d91ad607a312E
ffffff804002ddb8 t _ZN84_$LT$i16$u20$as$u20$compiler_builtins..math..libm_math..support..int_traits..Int$GT$5ilog217ha0309925b882a391E
ffffff804002ddd8 t _ZN84_$LT$u32$u20$as$u20$compiler_builtins..math..libm_math..support..int_traits..Int$GT$12unsigned_abs17h181fdcf75fcf2788E
ffffff804002ddd8 t _ZN84_$LT$u32$u20$as$u20$compiler_builtins..math..libm_math..support..int_traits..Int$GT$3abs17h34d5019c3669b403E
ffffff804002dddc t _ZN84_$LT$i32$u20$as$u20$compiler_builtins..math..libm_math..support..int_traits..Int$GT$3abs17h4ec2e6f378fa1064E
ffffff804002dde8 t _ZN84_$LT$u32$u20$as$u20$compiler_builtins..math..libm_math..support..int_traits..Int$GT$11checked_add17ha59fef3ed318169aE
ffffff804002ddfc t _ZN84_$LT$u32$u20$as$u20$compiler_builtins..math..libm_math..support..int_traits..Int$GT$5ilog217h1f2457eea38a42fbE
ffffff804002de10 t _ZN84_$LT$i32$u20$as$u20$compiler_builtins..math..libm_math..support..int_traits..Int$GT$11checked_add17h7f4c7792f0dd0857E
ffffff804002de1c t _ZN84_$LT$i32$u20$as$u20$compiler_builtins..math..libm_math..support..int_traits..Int$GT$11checked_sub17h2bd8a452523a8fceE
ffffff804002de28 t _ZN84_$LT$i32$u20$as$u20$compiler_builtins..math..libm_math..support..int_traits..Int$GT$11rotate_left17h9d5ec96debd267d7E
ffffff804002de28 t _ZN84_$LT$u32$u20$as$u20$compiler_builtins..math..libm_math..support..int_traits..Int$GT$11rotate_left17he36276b9f79300f7E
ffffff804002de34 t _ZN84_$LT$i32$u20$as$u20$compiler_builtins..math..libm_math..support..int_traits..Int$GT$13leading_zeros17hcffceb10a508f2cdE
ffffff804002de34 t _ZN84_$LT$u32$u20$as$u20$compiler_builtins..math..libm_math..support..int_traits..Int$GT$13leading_zeros17h7cd7cec60cae3cb3E
ffffff804002de3c t _ZN84_$LT$i32$u20$as$u20$compiler_builtins..math..libm_math..support..int_traits..Int$GT$5ilog217h53ce5ff697c1b698E
ffffff804002de54 t _ZN84_$LT$u64$u20$as$u20$compiler_builtins..math..libm_math..support..int_traits..Int$GT$12unsigned_abs17hae212837a22be437E
ffffff804002de54 t _ZN84_$LT$u64$u20$as$u20$compiler_builtins..math..libm_math..support..int_traits..Int$GT$3abs17ha82e9c5171dd7815E
ffffff804002de54 t _ZN86_$LT$usize$u20$as$u20$compiler_builtins..math..libm_math..support..int_traits..Int$GT$12unsigned_abs17h4a5f436bee54dcb7E
ffffff804002de54 t _ZN86_$LT$usize$u20$as$u20$compiler_builtins..math..libm_math..support..int_traits..Int$GT$3abs17h2f139e2c0f274898E
ffffff804002de58 t _ZN84_$LT$i64$u20$as$u20$compiler_builtins..math..libm_math..support..int_traits..Int$GT$3abs17h2d037d57799142fcE
ffffff804002de58 t _ZN86_$LT$isize$u20$as$u20$compiler_builtins..math..libm_math..support..int_traits..Int$GT$3abs17he1e5196f3a4dbc51E
ffffff804002de64 t _ZN84_$LT$u64$u20$as$u20$compiler_builtins..math..libm_math..support..int_traits..Int$GT$11checked_add17h2b1235688e0d76e1E
ffffff804002de64 t _ZN86_$LT$usize$u20$as$u20$compiler_builtins..math..libm_math..support..int_traits..Int$GT$11checked_add17h015f7fa878f03e02E
ffffff804002de78 t _ZN84_$LT$u64$u20$as$u20$compiler_builtins..math..libm_math..support..int_traits..Int$GT$5ilog217hb2e914aea973eaedE
ffffff804002de78 t _ZN86_$LT$usize$u20$as$u20$compiler_builtins..math..libm_math..support..int_traits..Int$GT$5ilog217hf036a2c6557c78a4E
ffffff804002de8c t _ZN84_$LT$i64$u20$as$u20$compiler_builtins..math..libm_math..support..int_traits..Int$GT$11checked_add17h866ef83e9a43b9eaE
ffffff804002de8c t _ZN86_$LT$isize$u20$as$u20$compiler_builtins..math..libm_math..support..int_traits..Int$GT$11checked_add17he02b4ecc827b6d51E
ffffff804002de98 t _ZN84_$LT$i64$u20$as$u20$compiler_builtins..math..libm_math..support..int_traits..Int$GT$11checked_sub17hf693e4763a85e2f4E
ffffff804002de98 t _ZN86_$LT$isize$u20$as$u20$compiler_builtins..math..libm_math..support..int_traits..Int$GT$11checked_sub17h27a44e276e277fdfE
ffffff804002dea4 t _ZN84_$LT$i64$u20$as$u20$compiler_builtins..math..libm_math..support..int_traits..Int$GT$11rotate_left17h5aa61f96d1af7529E
ffffff804002dea4 t _ZN84_$LT$u64$u20$as$u20$compiler_builtins..math..libm_math..support..int_traits..Int$GT$11rotate_left17h99645df10f0c5b40E
ffffff804002dea4 t _ZN86_$LT$isize$u20$as$u20$compiler_builtins..math..libm_math..support..int_traits..Int$GT$11rotate_left17h0038933585119ae6E
ffffff804002dea4 t _ZN86_$LT$usize$u20$as$u20$compiler_builtins..math..libm_math..support..int_traits..Int$GT$11rotate_left17hc6a437c24824c197E
ffffff804002deb0 t _ZN84_$LT$i64$u20$as$u20$compiler_builtins..math..libm_math..support..int_traits..Int$GT$13leading_zeros17hd11d6e23e272a1d9E
ffffff804002deb0 t _ZN84_$LT$u64$u20$as$u20$compiler_builtins..math..libm_math..support..int_traits..Int$GT$13leading_zeros17h250373b9819f934aE
ffffff804002deb0 t _ZN86_$LT$isize$u20$as$u20$compiler_builtins..math..libm_math..support..int_traits..Int$GT$13leading_zeros17hd13667105fb96d7cE
ffffff804002deb0 t _ZN86_$LT$usize$u20$as$u20$compiler_builtins..math..libm_math..support..int_traits..Int$GT$13leading_zeros17h3c4f12dd763bda8cE
ffffff804002deb8 t _ZN84_$LT$i64$u20$as$u20$compiler_builtins..math..libm_math..support..int_traits..Int$GT$5ilog217h2cae97e249435b55E
ffffff804002deb8 t _ZN86_$LT$isize$u20$as$u20$compiler_builtins..math..libm_math..support..int_traits..Int$GT$5ilog217h1695edd23a2449e9E
ffffff804002ded0 t _ZN85_$LT$u128$u20$as$u20$compiler_builtins..math..libm_math..support..int_traits..Int$GT$12unsigned_abs17h69fc2cae9026898eE
ffffff804002ded0 t _ZN85_$LT$u128$u20$as$u20$compiler_builtins..math..libm_math..support..int_traits..Int$GT$3abs17hd39d7e9ba50ca38aE
ffffff804002ded4 t _ZN85_$LT$i128$u20$as$u20$compiler_builtins..math..libm_math..support..int_traits..Int$GT$3abs17hefa8d9e95544adecE
ffffff804002deec t _ZN85_$LT$u128$u20$as$u20$compiler_builtins..math..libm_math..support..int_traits..Int$GT$11checked_add17h3214f0d4c9f35fe2E
ffffff804002df1c t _ZN85_$LT$u128$u20$as$u20$compiler_builtins..math..libm_math..support..int_traits..Int$GT$5ilog217hd1ae0bbb861c670eE
ffffff804002df44 t _ZN85_$LT$i128$u20$as$u20$compiler_builtins..math..libm_math..support..int_traits..Int$GT$11checked_add17h07c2193205ec6559E
ffffff804002df6c t _ZN85_$LT$i128$u20$as$u20$compiler_builtins..math..libm_math..support..int_traits..Int$GT$11checked_sub17h90a28f308b44f053E
ffffff804002df94 t _ZN85_$LT$i128$u20$as$u20$compiler_builtins..math..libm_math..support..int_traits..Int$GT$11rotate_left17h3112db03ca6e5070E
ffffff804002df94 t _ZN85_$LT$u128$u20$as$u20$compiler_builtins..math..libm_math..support..int_traits..Int$GT$11rotate_left17h289a57e8684e0cfaE
ffffff804002dfc8 t _ZN85_$LT$i128$u20$as$u20$compiler_builtins..math..libm_math..support..int_traits..Int$GT$13leading_zeros17ha2f2550caa19bc2cE
ffffff804002dfc8 t _ZN85_$LT$u128$u20$as$u20$compiler_builtins..math..libm_math..support..int_traits..Int$GT$13leading_zeros17hefc2440047f8c936E
ffffff804002dfe0 t _ZN85_$LT$i128$u20$as$u20$compiler_builtins..math..libm_math..support..int_traits..Int$GT$5ilog217h8c6558fcb4d6bfccE
ffffff804002e00c t ceilf16
ffffff804002e080 t copysignf16
ffffff804002e098 t fabsf16
ffffff804002e0a8 t fdimf16
ffffff804002e0c8 t floorf16
ffffff804002e14c t fmaxf16
ffffff804002e164 t fmaximumf16
ffffff804002e1d0 t fminf16
ffffff804002e1e8 t fminimumf16
ffffff804002e254 t fmodf16
ffffff804002e354 t rintf16
ffffff804002e354 t roundevenf16
ffffff804002e3d0 t roundf16
ffffff804002e428 t sqrtf16
ffffff804002e4f4 t truncf16
ffffff804002e52c t _ZN17compiler_builtins4math17full_availability5cbrtf17hd56e4e31af84c963E
ffffff804002e5ec t cbrtf
ffffff804002e6ac t _ZN17compiler_builtins4math17full_availability5ceilf17ha566b67ee7bfb2b3E
ffffff804002e714 t ceilf
ffffff804002e77c t _ZN17compiler_builtins4math17full_availability9copysignf17h4e3a52c45c134200E
ffffff804002e788 t copysignf
ffffff804002e794 t fabsf
ffffff804002e79c t fdimf
ffffff804002e7b0 t _ZN17compiler_builtins4math17full_availability6floorf17h598d58b52cf6245aE
ffffff804002e824 t floorf
ffffff804002e898 t fmaf
ffffff804002e8a0 t _ZN17compiler_builtins4math17full_availability5fmaxf17h2246b39a99b62f1bE
ffffff804002e8b0 t fmaxf
ffffff804002e8c0 t _ZN17compiler_builtins4math17full_availability5fminf17hafd1b18c76dca10bE
ffffff804002e8d0 t fminf
ffffff804002e8e0 t _ZN17compiler_builtins4math17full_availability5fmodf17hb11b430bd44a636dE
ffffff804002e9b0 t fmodf
ffffff804002ea80 t rintf
ffffff804002ea88 t _ZN17compiler_builtins4math17full_availability6roundf17h8ea4c952487bc98dE
ffffff804002ead4 t roundf
ffffff804002eb20 t sqrtf
ffffff804002eb28 t _ZN17compiler_builtins4math17full_availability6truncf17h10e884c05e8242d2E
ffffff804002eb60 t truncf
ffffff804002eb98 t _ZN17compiler_builtins4math17full_availability4cbrt17hb9c399dcb879f197E
ffffff804002eea0 t cbrt
ffffff804002eea4 t _ZN17compiler_builtins4math17full_availability4ceil17h84b055fe95bcc1cbE
ffffff804002ef10 t ceil
ffffff804002ef7c t _ZN17compiler_builtins4math17full_availability8copysign17h1b9f4e3d94b43b43E
ffffff804002ef8c t copysign
ffffff804002ef9c t fabs
ffffff804002efa4 t fdim
ffffff804002efb8 t _ZN17compiler_builtins4math17full_availability5floor17hf82674567d10a3c3E
ffffff804002f030 t floor
ffffff804002f0a8 t fma
ffffff804002f0b0 t _ZN17compiler_builtins4math17full_availability4fmax17h5026c9ed1abcb3b3E
ffffff804002f0c0 t fmax
ffffff804002f0d0 t _ZN17compiler_builtins4math17full_availability4fmin17heb0b69f60e6d6961E
ffffff804002f0e0 t fmin
ffffff804002f0f0 t _ZN17compiler_builtins4math17full_availability4fmod17hf7e8f6ba1029bf4fE
ffffff804002f1c4 t fmod
ffffff804002f298 t rint
ffffff804002f2a0 t _ZN17compiler_builtins4math17full_availability5round17h7e6b628946d7ce48E
ffffff804002f2f0 t round
ffffff804002f340 t sqrt
ffffff804002f348 t _ZN17compiler_builtins4math17full_availability5trunc17he7d9e29ef40c8264E
ffffff804002f380 t trunc
ffffff804002f3b8 t _ZN17compiler_builtins4math17full_availability8fmaximum17h5523449284084f0cE
ffffff804002f3f8 t fmaximum
ffffff804002f438 t _ZN17compiler_builtins4math17full_availability9fmaximumf17h7bef7aa28565eaf6E
ffffff804002f478 t fmaximumf
ffffff804002f4b8 t _ZN17compiler_builtins4math17full_availability8fminimum17hb8028aee66bfb979E
ffffff804002f4f8 t fminimum
ffffff804002f538 t _ZN17compiler_builtins4math17full_availability9fminimumf17he40ed29ae08cffa9E
ffffff804002f578 t fminimumf
ffffff804002f5b8 t _ZN17compiler_builtins4math17full_availability9roundeven17hc4635d8b470c8a4bE
ffffff804002f614 t roundeven
ffffff804002f670 t _ZN17compiler_builtins4math17full_availability10roundevenf17h5a6921a17dede5b0E
ffffff804002f6c0 t roundevenf
ffffff804002f710 t ceilf128
ffffff804002f7fc t copysignf128
ffffff804002f818 t fabsf128
ffffff804002f830 t fdimf128
ffffff804002f878 t floorf128
ffffff804002f988 t fmaf128
ffffff8040030128 t fmaxf128
ffffff8040030170 t fmaximumf128
ffffff80400301f8 t fminf128
ffffff8040030240 t fminimumf128
ffffff80400302c4 t fmodf128
ffffff8040030450 t rintf128
ffffff8040030450 t roundevenf128
ffffff80400304f8 t roundf128
ffffff80400305a8 t sqrtf128
ffffff80400307d4 t truncf128
ffffff8040030858 t _ZN17compiler_builtins4math20partial_availability4acos17h9c1a2bbf3ddea058E
ffffff8040030ad4 t acos
ffffff8040030ad8 t _ZN17compiler_builtins4math20partial_availability5acosf17hb4ee4b7a3a5403efE
ffffff8040030d00 t acosf
ffffff8040030d04 t _ZN17compiler_builtins4math20partial_availability4asin17hd663c23cec000110E
ffffff8040030f60 t asin
ffffff8040030f64 t _ZN17compiler_builtins4math20partial_availability5asinf17h906e510815ac8ca7E
ffffff80400310d4 t asinf
ffffff8040031244 t _ZN17compiler_builtins4math20partial_availability4atan17h78ecdb9eda9a5d4dE
ffffff8040031248 t atan
ffffff804003124c t _ZN17compiler_builtins4math20partial_availability5atan217ha2eff0a719ee8794E
ffffff80400313cc t atan2
ffffff80400313d0 t _ZN17compiler_builtins4math20partial_availability6atan2f17hdc9ebce9336c9ebeE
ffffff8040031558 t atan2f
ffffff804003155c t _ZN17compiler_builtins4math20partial_availability5atanf17h47d84cd0c75e413bE
ffffff8040031560 t atanf
ffffff8040031564 t _ZN17compiler_builtins4math20partial_availability3cos17h176441be8ada20d8E
ffffff80400318f8 t cos
ffffff80400318fc t _ZN17compiler_builtins4math20partial_availability4cosf17hefd8ffdddf39ae9cE
ffffff8040031cb0 t cosf
ffffff8040031cb4 t _ZN17compiler_builtins4math20partial_availability4cosh17h5c5ed7a9ac4ca509E
ffffff8040031d78 t cosh
ffffff8040031e3c t _ZN17compiler_builtins4math20partial_availability5coshf17h2083dc5ae5d9fce8E
ffffff8040031f00 t coshf
ffffff8040031fc4 t _ZN17compiler_builtins4math20partial_availability3erf17hd658dbda1932f45fE
ffffff8040032114 t erf
ffffff8040032264 t _ZN17compiler_builtins4math20partial_availability4erfc17hdca15cb6fbcde292E
ffffff80400323ec t erfc
ffffff80400323f0 t _ZN17compiler_builtins4math20partial_availability5erfcf17h8abe2f3c19ea1287E
ffffff804003259c t erfcf
ffffff80400325a0 t _ZN17compiler_builtins4math20partial_availability4erff17h696882d8c56c768aE
ffffff80400326f8 t erff
ffffff8040032850 t _ZN17compiler_builtins4math20partial_availability3exp17h05d3210de28d5fd8E
ffffff8040032854 t exp
ffffff8040032858 t _ZN17compiler_builtins4math20partial_availability4exp217hb4060bd993d644ddE
ffffff8040032ab0 t exp2
ffffff8040032ab4 t _ZN17compiler_builtins4math20partial_availability5exp2f17h0678c0b82730353dE
ffffff8040032c10 t exp2f
ffffff8040032d6c t _ZN17compiler_builtins4math20partial_availability4expf17h2d2794cbee4e4e7dE
ffffff8040032d70 t expf
ffffff8040032d74 t _ZN17compiler_builtins4math20partial_availability5expm117h6ace33c4937e8a2cE
ffffff8040032d78 t expm1
ffffff8040032d7c t _ZN17compiler_builtins4math20partial_availability6expm1f17h4797292498869f00E
ffffff8040032d80 t expm1f
ffffff8040032d84 t _ZN17compiler_builtins4math20partial_availability5hypot17h83a20cd5daa9e943E
ffffff8040032ea0 t hypot
ffffff8040032fbc t _ZN17compiler_builtins4math20partial_availability6hypotf17h0a6d443cd6db0732E
ffffff8040033088 t hypotf
ffffff8040033154 t _ZN17compiler_builtins4math20partial_availability5ldexp17h48cfc9da37c070f4E
ffffff8040033214 t ldexp
ffffff80400332d4 t _ZN17compiler_builtins4math20partial_availability6ldexpf17h8542748145039e77E
ffffff804003339c t ldexpf
ffffff8040033464 t _ZN17compiler_builtins4math20partial_availability3log17h4cb6495c6ad2d02dE
ffffff8040033468 t log
ffffff804003346c t _ZN17compiler_builtins4math20partial_availability5log1017h24146ad76571cf2eE
ffffff8040033620 t log10
ffffff8040033624 t _ZN17compiler_builtins4math20partial_availability6log10f17he29678aafe949159E
ffffff8040033784 t log10f
ffffff80400338e4 t _ZN17compiler_builtins4math20partial_availability5log1p17h18498e2df6c2f413E
ffffff8040033aa4 t log1p
ffffff8040033aa8 t _ZN17compiler_builtins4math20partial_availability6log1pf17hd2a38e73956a5f0eE
ffffff8040033c38 t log1pf
ffffff8040033c3c t _ZN17compiler_builtins4math20partial_availability4log217ha74e31ab6345d61cE
ffffff8040033dd4 t log2
ffffff8040033dd8 t _ZN17compiler_builtins4math20partial_availability5log2f17h6341afa3802cc6e1E
ffffff8040033f14 t log2f
ffffff8040034050 t _ZN17compiler_builtins4math20partial_availability4logf17hcc1fdc160f2512b0E
ffffff804003416c t logf
ffffff8040034288 t _ZN17compiler_builtins4math20partial_availability3pow17hce05ee1ce19c020cE
ffffff804003428c t pow
ffffff8040034290 t _ZN17compiler_builtins4math20partial_availability4powf17hdc0bee6f57d8c92bE
ffffff80400349c8 t powf
ffffff80400349cc t _ZN17compiler_builtins4math20partial_availability3sin17h45a33e9c6c40cd97E
ffffff8040034d34 t sin
ffffff8040034d38 t _ZN17compiler_builtins4math20partial_availability4sinf17h688bc981bc857a84E
ffffff8040035108 t sinf
ffffff804003510c t _ZN17compiler_builtins4math20partial_availability4sinh17h45c5f043735f399bE
ffffff80400351e8 t sinh
ffffff80400352c4 t _ZN17compiler_builtins4math20partial_availability5sinhf17hcf0f61cf1567dd18E
ffffff804003539c t sinhf
ffffff8040035474 t _ZN17compiler_builtins4math20partial_availability3tan17h58f36d964e8057edE
ffffff80400357f8 t tan
ffffff80400357fc t _ZN17compiler_builtins4math20partial_availability4tanf17h7545c17935fdda98E
ffffff8040035bc4 t tanf
ffffff8040035bc8 t _ZN17compiler_builtins4math20partial_availability4tanh17h4924aad9887610a5E
ffffff8040035cb4 t tanh
ffffff8040035da0 t _ZN17compiler_builtins4math20partial_availability5tanhf17hfe89b64bf80a844fE
ffffff8040035e84 t tanhf
ffffff8040035f68 t _ZN17compiler_builtins4math20partial_availability6tgamma17h5e6566005c74cf6fE
ffffff8040035f6c t tgamma
ffffff8040035f70 t _ZN17compiler_builtins4math20partial_availability7tgammaf17h6fedf7c9b8c05440E
ffffff8040035f88 t tgammaf
ffffff8040035fa0 t _ZN17compiler_builtins4math20partial_availability8lgamma_r17h93f14122f13aa276E
ffffff804003683c t lgamma_r
ffffff8040036840 t _ZN17compiler_builtins4math20partial_availability9lgammaf_r17h5c0fbaa081b534efE
ffffff8040037284 t lgammaf_r
ffffff8040037288 t _ZN17compiler_builtins3mem6memcpy17h0be09415684ef4c8E
ffffff80400373f4 t memcpy
ffffff8040037554 t _ZN17compiler_builtins3mem7memmove17h7c669fb40ba2ce63E
ffffff8040037838 t memmove
ffffff804003783c t _ZN17compiler_builtins3mem6memset17heeb35d268d07064eE
ffffff8040037948 t memset
ffffff8040037a54 t _ZN17compiler_builtins3mem4bcmp17h97d6bfbca07b666fE
ffffff8040037a54 t _ZN17compiler_builtins3mem6memcmp17h54029e54c1ebe97dE
ffffff8040037a7c t bcmp
ffffff8040037a7c t memcmp
ffffff8040037aa4 t _ZN17compiler_builtins3mem6strlen17he556bc41d898c3abE
ffffff8040037ad0 t strlen
ffffff8040038000 r rodata_check_str
ffffff804003a96c r _ZN4core7unicode12unicode_data10alphabetic7OFFSETS17h29f19e7cbcf33c38E
ffffff804003af57 r _ZN4core7unicode12unicode_data14case_ignorable7OFFSETS17h9e8a357ade6948eaE
ffffff804003b2e0 r _ZN4core7unicode12unicode_data5cased7OFFSETS17hcd35478f02be6648E
ffffff804003b41f r _ZN4core7unicode12unicode_data15grapheme_extend7OFFSETS17h467ead4c6ee88fbfE
ffffff804003b70e R _ZN4core7unicode12unicode_data9lowercase17BITSET_CHUNKS_MAP17h57280cd2ebd245f4E
ffffff804003b789 r _ZN4core7unicode12unicode_data1n7OFFSETS17h84f8b9ab96d779b9E
ffffff804003b8aa R _ZN4core7unicode12unicode_data9uppercase17BITSET_CHUNKS_MAP17ha608946945685f98E
ffffff804003b927 R _ZN4core7unicode12unicode_data11white_space14WHITESPACE_MAP17h71e9f54b65921661E
ffffff804003c318 r _ZN4core3num7flt2dec8strategy6dragon8POW5TO1617h9b9e1944d3c03033E
ffffff804003c320 r _ZN4core3num7flt2dec8strategy6dragon8POW5TO3217h62805412932c2787E
ffffff804003c32c r _ZN4core3num7flt2dec8strategy6dragon8POW5TO6417h5f1b26b8864232adE
ffffff804003c340 r _ZN4core3num7flt2dec8strategy6dragon9POW5TO12817hdbd5e2c55489b3a2E
ffffff804003c368 r _ZN4core3num7flt2dec8strategy6dragon9POW5TO25617h678a2e0f890da836E
ffffff804003c680 R _ZN4core3num7flt2dec8strategy5grisu12CACHED_POW1017hc3227cb8a9c8e3f5E
ffffff804003f4c8 r _ZN4core3num7dec2flt5table17POWER_OF_FIVE_12817h9a2a2f442f0796cdE
ffffff8040042518 r _ZN4core7unicode12unicode_data10alphabetic17SHORT_OFFSET_RUNS17h0e8f158a5a2cff78E
ffffff80400425ec r _ZN4core7unicode12unicode_data14case_ignorable17SHORT_OFFSET_RUNS17hb97a4fd71a0e53bfE
ffffff8040042680 r _ZN4core7unicode12unicode_data5cased17SHORT_OFFSET_RUNS17h6c8f9e61a23b8652E
ffffff80400426d8 r _ZN4core7unicode12unicode_data15grapheme_extend17SHORT_OFFSET_RUNS17hb76bec0cce18121bE
ffffff8040042760 R _ZN4core7unicode12unicode_data9lowercase19BITSET_INDEX_CHUNKS17hadbef5498d014517E
ffffff80400428a0 R _ZN4core7unicode12unicode_data9lowercase16BITSET_CANONICAL17ha930d68ad1ad9e9dE
ffffff8040042a60 R _ZN4core7unicode12unicode_data9lowercase14BITSET_MAPPING17h38af32c2f82915dcE
ffffff8040042a8c r _ZN4core7unicode12unicode_data1n17SHORT_OFFSET_RUNS17h46b735df13794a3dE
ffffff8040042b34 R _ZN4core7unicode12unicode_data9uppercase19BITSET_INDEX_CHUNKS17h0350f0a3f4e14379E
ffffff8040042c48 R _ZN4core7unicode12unicode_data9uppercase16BITSET_CANONICAL17h9d026173db9ab2ebE
ffffff8040042da8 R _ZN4core7unicode12unicode_data9uppercase14BITSET_MAPPING17hc3a71b7d4f35af20E
ffffff8040049b68 r _ZN17compiler_builtins4math9libm_math5exp2f6EXP2FT17hc6565d3837e721e4E
ffffff8040049d70 R _ZN17compiler_builtins4math9libm_math7generic4sqrt9RSQRT_TAB17h0ceeffe48e5bb57aE
ffffff8040049e70 r _ZN17compiler_builtins4math9libm_math4exp23TBL17hb29c52c03d76985bE
ffffff804004b000 D _ZN5alloc4sync18STATIC_INNER_SLICE17hf8a1913d88b7b99dE
ffffff804004c000 B VALIDATOR_HANDLE
ffffff804004c000 B __bss_start
ffffff804004c008 B SRV_HANDLE
ffffff804004c010 B CUDA_HANDLE
ffffff804004c018 b _ZN12cohesix_root9allocator6OFFSET17hc9ba0ed2119710d2E.0
ffffff804004c020 b _ZN12cohesix_root11WATCHED_IDX17h6d1732c8c12cde07E.0
ffffff804004c028 B __bss_end
ffffff804004d000 D __heap_start
ffffff80400cd000 D __heap_end
ffffff80400cd000 D __stack_start
ffffff80400dd000 D __stack_end
