ffffff8040000000 T _sel4_start
ffffff8040000040 t _RNvCs9km79j5joxb_7___rustc17rust_begin_unwind
ffffff8040000048 t rust_eh_personality
ffffff804000004c T boot_log_hex
ffffff8040000050 T seL4_DebugPutChar
ffffff8040000054 T open
ffffff804000005c T read
ffffff804000005c T write
ffffff8040000094 T close
ffffff804000009c T execv
ffffff80400000a4 T getenv
ffffff80400000ac T setenv
ffffff80400000b4 T main
ffffff8040000368 t _RNvCs9km79j5joxb_7___rustc12___rust_alloc
ffffff804000042c t _RNvCs9km79j5joxb_7___rustc14___rust_dealloc
ffffff8040000430 t _RNvCs9km79j5joxb_7___rustc14___rust_realloc
ffffff8040000514 t _RNvCs9km79j5joxb_7___rustc19___rust_alloc_zeroed
ffffff80400005f4 t _RNvCs9km79j5joxb_7___rustc8___rg_oom
ffffff80400005fc T _RNvCs9km79j5joxb_7___rustc26___rust_alloc_error_handler
ffffff8040000600 T _RNvCs9km79j5joxb_7___rustc42___rust_alloc_error_handler_should_panic_v2
ffffff8040000608 T _RNvCs9km79j5joxb_7___rustc35___rust_no_alloc_shim_is_unstable_v2
ffffff804000060c t _ZN102_$LT$core..iter..adapters..map..Map$LT$I$C$F$GT$$u20$as$u20$core..iter..traits..iterator..Iterator$GT$4fold17h03eab7bdc8417572E
ffffff8040000828 t _ZN102_$LT$core..iter..adapters..map..Map$LT$I$C$F$GT$$u20$as$u20$core..iter..traits..iterator..Iterator$GT$4fold17h55323a238cc777e2E
ffffff8040000a6c t _ZN102_$LT$core..iter..adapters..map..Map$LT$I$C$F$GT$$u20$as$u20$core..iter..traits..iterator..Iterator$GT$4fold17h72fc9c37e6b01862E
ffffff8040000cbc t _ZN104_$LT$core..iter..adapters..cloned..Cloned$LT$I$GT$$u20$as$u20$core..iter..traits..iterator..Iterator$GT$4next17hcac6d2e8ed3a4a9bE
ffffff8040000ce0 t _ZN104_$LT$core..iter..adapters..cloned..Cloned$LT$I$GT$$u20$as$u20$core..iter..traits..iterator..Iterator$GT$9size_hint17h57b2dc2a8e729deaE
ffffff8040000cfc t _ZN104_$LT$core..iter..adapters..copied..Copied$LT$I$GT$$u20$as$u20$core..iter..traits..iterator..Iterator$GT$4next17h329f694f51d10d89E
ffffff8040000d2c t _ZN104_$LT$core..iter..adapters..copied..Copied$LT$I$GT$$u20$as$u20$core..iter..traits..iterator..Iterator$GT$4next17h742c56c034c3ca3dE
ffffff8040000d54 t _ZN104_$LT$core..iter..adapters..copied..Copied$LT$I$GT$$u20$as$u20$core..iter..traits..iterator..Iterator$GT$9size_hint17h11173bbca7f3a653E
ffffff8040000d74 t _ZN104_$LT$core..iter..adapters..copied..Copied$LT$I$GT$$u20$as$u20$core..iter..traits..iterator..Iterator$GT$9size_hint17hcf8cd044ef840ac2E
ffffff8040000d90 t _ZN42_$LT$$RF$T$u20$as$u20$core..fmt..Debug$GT$3fmt17h93e39b4156894cdaE
ffffff8040000dac t _ZN42_$LT$$RF$T$u20$as$u20$core..fmt..Debug$GT$3fmt17hf34bd7585f7d16b2E
ffffff8040000dc0 t _ZN4core5error5Error5cause17h37887bd6ae71a3a2E
ffffff8040000dc8 t _ZN4core5slice5index5range17h235c3e782ef54498E
ffffff8040000df4 T _ZN4core9panicking13assert_failed17h4d5d0d7f75135fd8E
ffffff8040000e18 t _ZN69_$LT$core..alloc..layout..LayoutError$u20$as$u20$core..fmt..Debug$GT$3fmt17hb9aa7242ed2fac86E
ffffff8040000e2c T _ZN5alloc5alloc18handle_alloc_error17h53fc970d080897ddE
ffffff8040000e3c T _ZN5alloc5alloc18handle_alloc_error8ct_error17hdb826f290b10032dE
ffffff8040000e68 T _RNvCs9km79j5joxb_7___rustc9___rdl_oom
ffffff8040000ef4 T _ZN256_$LT$alloc..boxed..convert..$LT$impl$u20$core..convert..From$LT$alloc..string..String$GT$$u20$for$u20$alloc..boxed..Box$LT$dyn$u20$core..error..Error$u2b$core..marker..Sync$u2b$core..marker..Send$GT$$GT$..from..StringError$u20$as$u20$core..error..Error$GT$11description17h9fb95bbd0c08b03dE
ffffff8040000f00 T _ZN256_$LT$alloc..boxed..convert..$LT$impl$u20$core..convert..From$LT$alloc..string..String$GT$$u20$for$u20$alloc..boxed..Box$LT$dyn$u20$core..error..Error$u2b$core..marker..Sync$u2b$core..marker..Send$GT$$GT$..from..StringError$u20$as$u20$core..fmt..Display$GT$3fmt17hba07e7e3970523c3E
ffffff8040000f14 T _ZN254_$LT$alloc..boxed..convert..$LT$impl$u20$core..convert..From$LT$alloc..string..String$GT$$u20$for$u20$alloc..boxed..Box$LT$dyn$u20$core..error..Error$u2b$core..marker..Sync$u2b$core..marker..Send$GT$$GT$..from..StringError$u20$as$u20$core..fmt..Debug$GT$3fmt17h0a814715c4c704d6E
ffffff8040000f28 T _ZN93_$LT$alloc..collections..btree..mem..replace..PanicGuard$u20$as$u20$core..ops..drop..Drop$GT$4drop17h834861082c534baaE
ffffff8040000f2c T _ZN74_$LT$alloc..collections..TryReserveError$u20$as$u20$core..fmt..Display$GT$3fmt17hb534482cb953c0b0E
ffffff8040000f9c T _ZN5alloc3ffi5c_str75_$LT$impl$u20$alloc..borrow..ToOwned$u20$for$u20$core..ffi..c_str..CStr$GT$8to_owned17h76a6112a86a9e7b1E
ffffff8040001010 T _ZN5alloc3ffi5c_str75_$LT$impl$u20$alloc..borrow..ToOwned$u20$for$u20$core..ffi..c_str..CStr$GT$10clone_into17h7b6e3869a5b88de9E
ffffff80400010d4 T _ZN5alloc3ffi5c_str40_$LT$impl$u20$core..ffi..c_str..CStr$GT$15to_string_lossy17h5416f8234b36824cE
ffffff80400010dc T _ZN5alloc3ffi5c_str40_$LT$impl$u20$core..ffi..c_str..CStr$GT$13into_c_string17h91fd5d4950fa477bE
ffffff80400010e0 T _ZN5alloc4sync32arcinner_layout_for_value_layout17h824bfde94521ad7dE
ffffff8040001148 t _ZN79_$LT$alloc..vec..drain..Drain$LT$T$C$A$GT$$u20$as$u20$core..ops..drop..Drop$GT$4drop17h11ffcc414fc02ed5E
ffffff80400011ac t _ZN4core3fmt5Write9write_fmt17hae89aa09819e294fE
ffffff80400011bc t _ZN4core3ptr42drop_in_place$LT$alloc..string..String$GT$17h9185f910b9c15adeE
ffffff80400011d4 T _ZN5alloc6string6String15from_utf8_lossy17hb11049d680b82c64E
ffffff804000142c T _ZN5alloc6string6String21from_utf8_lossy_owned17he66dcefe3d82a704E
ffffff80400014b4 T _ZN5alloc6string6String10from_utf1617heca9626caf78e038E
ffffff8040001748 T _ZN5alloc6string6String12from_utf16le17h955b46d423a2a981E
ffffff804000184c T _ZN5alloc6string6String18from_utf16le_lossy17h716506c1953c2f7fE
ffffff8040001adc T _ZN5alloc6string6String12from_utf16be17h32419142e971f90fE
ffffff8040001b84 T _ZN5alloc6string6String18from_utf16be_lossy17ha45af3776ca41d0bE
ffffff8040001c98 T _ZN5alloc6string6String11try_reserve17hf9e9c1db03cc850eE
ffffff8040001d70 T _ZN5alloc6string6String17try_reserve_exact17hda2684eca0773079E
ffffff8040001e30 T _ZN5alloc6string13FromUtf8Error8as_bytes17hb8b3122a69651efcE
ffffff8040001e3c T _ZN5alloc6string13FromUtf8Error15into_utf8_lossy17haf93d78503177b76E
ffffff8040002010 T _ZN67_$LT$alloc..string..FromUtf8Error$u20$as$u20$core..fmt..Display$GT$3fmt17h637d81904c3c6fb6E
ffffff8040002018 T _ZN68_$LT$alloc..string..FromUtf16Error$u20$as$u20$core..fmt..Display$GT$3fmt17h28967d18eba09653E
ffffff804000202c T _ZN60_$LT$alloc..string..String$u20$as$u20$core..clone..Clone$GT$5clone17h4cecacc595490e4cE
ffffff80400020b0 T _ZN60_$LT$alloc..string..String$u20$as$u20$core..clone..Clone$GT$10clone_from17hf1eb4622681f255eE
ffffff8040002120 t _ZN95_$LT$alloc..string..String$u20$as$u20$core..iter..traits..collect..FromIterator$LT$char$GT$$GT$9from_iter17h223dc213b7b2ec14E
ffffff8040002190 t _ZN95_$LT$alloc..string..String$u20$as$u20$core..iter..traits..collect..FromIterator$LT$char$GT$$GT$9from_iter17hcca069f6229620e4E
ffffff8040002200 T _ZN73_$LT$$RF$alloc..string..String$u20$as$u20$core..str..pattern..Pattern$GT$13into_searcher17h6b869ffc1eeac6d6E
ffffff8040002214 T _ZN97_$LT$alloc..string..String$u20$as$u20$core..convert..From$LT$alloc..boxed..Box$LT$str$GT$$GT$$GT$4from17h719f7922fd531492E
ffffff8040002220 T _ZN98_$LT$alloc..string..String$u20$as$u20$core..convert..From$LT$alloc..borrow..Cow$LT$str$GT$$GT$$GT$4from17h29eb4fdcd32b9c4aE
ffffff80400022d4 T _ZN97_$LT$alloc..string..String$u20$as$u20$core..convert..TryFrom$LT$alloc..vec..Vec$LT$u8$GT$$GT$$GT$8try_from17he3f1a358316a71b4E
ffffff8040002360 t _ZN58_$LT$alloc..string..String$u20$as$u20$core..fmt..Write$GT$9write_str17h392fc2a958ad9c0cE
ffffff80400023dc t _ZN58_$LT$alloc..string..String$u20$as$u20$core..fmt..Write$GT$10write_char17h834027bee627e80dE
ffffff8040002514 T _ZN61_$LT$alloc..string..IntoChars$u20$as$u20$core..fmt..Debug$GT$3fmt17h99a61e738da0f345E
ffffff8040002570 T _ZN57_$LT$alloc..string..Drain$u20$as$u20$core..fmt..Debug$GT$3fmt17he1218133a2c842b7E
ffffff80400025c8 T _ZN62_$LT$alloc..string..Drain$u20$as$u20$core..ops..drop..Drop$GT$4drop17h18d20be2959aab74E
ffffff804000263c T _ZN5alloc6string5Drain6as_str17h31026e7ce476c494E
ffffff804000264c T _ZN72_$LT$alloc..string..Drain$u20$as$u20$core..convert..AsRef$LT$str$GT$$GT$6as_ref17h98eaa894c6b7b83fE
ffffff804000264c T _ZN81_$LT$alloc..string..Drain$u20$as$u20$core..convert..AsRef$LT$$u5b$u8$u5d$$GT$$GT$6as_ref17h2013d5a906ca6187E
ffffff804000265c T _ZN79_$LT$alloc..string..Drain$u20$as$u20$core..iter..traits..iterator..Iterator$GT$9size_hint17h58b926715fc80730E
ffffff804000267c t _ZN4core3ptr238drop_in_place$LT$alloc..boxed..convert..$LT$impl$u20$core..convert..From$LT$alloc..string..String$GT$$u20$for$u20$alloc..boxed..Box$LT$dyn$u20$core..error..Error$u2b$core..marker..Sync$u2b$core..marker..Send$GT$$GT$..from..StringError$GT$17hacf441d57eba8f84E
ffffff8040002694 t _ZN4core5error5Error6source17h7d98f41339ee6716E
ffffff804000269c t _ZN4core5error5Error7provide17hd555c992cfd7a6a9E
ffffff80400026a0 t _ZN4core5error5Error7type_id17h2e7359a5db11de9cE
ffffff80400026c4 t _ZN53_$LT$core..fmt..Error$u20$as$u20$core..fmt..Debug$GT$3fmt17hfdb9f427b77fc401E
ffffff80400026d8 T _ZN92_$LT$alloc..borrow..Cow$LT$str$GT$$u20$as$u20$core..ops..arith..AddAssign$LT$$RF$str$GT$$GT$10add_assign17h0f3ebad18b2548ebE
ffffff80400028c4 T _ZN77_$LT$alloc..borrow..Cow$LT$str$GT$$u20$as$u20$core..ops..arith..AddAssign$GT$10add_assign17haaad201cc4dd25a5E
ffffff8040002ae4 T _ZN5alloc5boxed7convert130_$LT$impl$u20$core..convert..From$LT$alloc..string..String$GT$$u20$for$u20$alloc..boxed..Box$LT$dyn$u20$core..error..Error$GT$$GT$4from17h6f65b130b10707c9E
ffffff8040002b2c T _ZN5alloc5boxed7convert116_$LT$impl$u20$core..convert..From$LT$$RF$str$GT$$u20$for$u20$alloc..boxed..Box$LT$dyn$u20$core..error..Error$GT$$GT$4from17he49346552223d394E
ffffff8040002bd4 T _ZN5alloc5boxed7convert138_$LT$impl$u20$core..convert..From$LT$alloc..borrow..Cow$LT$str$GT$$GT$$u20$for$u20$alloc..boxed..Box$LT$dyn$u20$core..error..Error$GT$$GT$4from17h0c5d0b3399cf3173E
ffffff8040002bd4 T _ZN5alloc5boxed7convert184_$LT$impl$u20$core..convert..From$LT$alloc..borrow..Cow$LT$str$GT$$GT$$u20$for$u20$alloc..boxed..Box$LT$dyn$u20$core..error..Error$u2b$core..marker..Sync$u2b$core..marker..Send$GT$$GT$4from17h076781e0a02ce8b4E
ffffff8040002c90 T _ZN67_$LT$alloc..boxed..Box$LT$str$GT$$u20$as$u20$core..clone..Clone$GT$5clone17hab22398cabcd1d04E
ffffff8040002d04 T _ZN5alloc3ffi5c_str131_$LT$impl$u20$core..convert..From$LT$$RF$core..ffi..c_str..CStr$GT$$u20$for$u20$alloc..boxed..Box$LT$core..ffi..c_str..CStr$GT$$GT$4from17h5df9243d1f04365cE
ffffff8040002d04 T _ZN5alloc3ffi5c_str139_$LT$impl$u20$core..convert..From$LT$$RF$mut$u20$core..ffi..c_str..CStr$GT$$u20$for$u20$alloc..boxed..Box$LT$core..ffi..c_str..CStr$GT$$GT$4from17h62abe19dc70a632bE
ffffff8040002d78 T _ZN5alloc3ffi5c_str100_$LT$impl$u20$core..default..Default$u20$for$u20$alloc..boxed..Box$LT$core..ffi..c_str..CStr$GT$$GT$7default17h5cfbec7e8df19b75E
ffffff8040002dac T _ZN5alloc3fmt6format12format_inner17h18ed62b59a18128fE
ffffff8040002f14 T _ZN5alloc6string107_$LT$impl$u20$core..convert..From$LT$alloc..string..String$GT$$u20$for$u20$alloc..boxed..Box$LT$str$GT$$GT$4from17hc405449cc0bd5d68E
ffffff8040002f70 t _ZN58_$LT$alloc..string..String$u20$as$u20$core..fmt..Write$GT$9write_str17h392fc2a958ad9c0cE
ffffff8040002fec t _ZN58_$LT$alloc..string..String$u20$as$u20$core..fmt..Write$GT$10write_char17h834027bee627e80dE
ffffff8040003124 t _ZN5alloc3vec16Vec$LT$T$C$A$GT$7reserve17h632bf654ec926f09E
ffffff804000314c t _ZN5alloc3vec16Vec$LT$T$C$A$GT$16into_boxed_slice17h550029054e9c5938E
ffffff80400031d0 T _ZN5alloc3vec16Vec$LT$T$C$A$GT$11swap_remove13assert_failed17h7416392d014274ccE
ffffff80400031e8 T _ZN5alloc3vec16Vec$LT$T$C$A$GT$6insert13assert_failed17h5103e372085db40eE
ffffff8040003200 T _ZN5alloc3vec16Vec$LT$T$C$A$GT$6remove13assert_failed17h2e08693ebc14e3edE
ffffff8040003218 t _ZN5alloc3vec16Vec$LT$T$C$A$GT$5drain17hb8afab926d6e48b9E
ffffff804000327c T _ZN5alloc3vec16Vec$LT$T$C$A$GT$9split_off13assert_failed17h50c6c24c975bb949E
ffffff8040003294 t _ZN67_$LT$alloc..vec..Vec$LT$T$C$A$GT$$u20$as$u20$core..clone..Clone$GT$5clone17he9d6567a41406b8aE
ffffff8040003318 t _ZN67_$LT$alloc..vec..Vec$LT$T$C$A$GT$$u20$as$u20$core..clone..Clone$GT$10clone_from17ha203d0d72cf0e844E
ffffff8040003388 t _ZN70_$LT$alloc..vec..Vec$LT$T$C$A$GT$$u20$as$u20$core..ops..drop..Drop$GT$4drop17h2b86b5af166f93bdE
ffffff804000338c T _ZN80_$LT$alloc..vec..Vec$LT$u8$GT$$u20$as$u20$core..convert..From$LT$$RF$str$GT$$GT$4from17h55acb01321ee095dE
ffffff8040003410 t OUTLINED_FUNCTION_0
ffffff8040003430 t OUTLINED_FUNCTION_1
ffffff8040003454 t _ZN42_$LT$$RF$T$u20$as$u20$core..fmt..Debug$GT$3fmt17h9f260942e3714839E
ffffff80400034a4 t _ZN4core5slice29_$LT$impl$u20$$u5b$T$u5d$$GT$8align_to17hf12484ae97bae29fE
ffffff80400034f4 t _ZN69_$LT$core..alloc..layout..LayoutError$u20$as$u20$core..fmt..Debug$GT$3fmt17hb9aa7242ed2fac86E
ffffff8040003508 t _ZN99_$LT$core..char..decode..DecodeUtf16$LT$I$GT$$u20$as$u20$core..iter..traits..iterator..Iterator$GT$4next17h2ae8ae1156e3d0aeE
ffffff80400035dc t _ZN99_$LT$core..char..decode..DecodeUtf16$LT$I$GT$$u20$as$u20$core..iter..traits..iterator..Iterator$GT$4next17h2c19b2ec3f008ec9E
ffffff80400036bc t _ZN99_$LT$core..char..decode..DecodeUtf16$LT$I$GT$$u20$as$u20$core..iter..traits..iterator..Iterator$GT$4next17h818fcbb0c2098ae1E
ffffff8040003790 t _ZN99_$LT$core..char..decode..DecodeUtf16$LT$I$GT$$u20$as$u20$core..iter..traits..iterator..Iterator$GT$4next17hda2fc93eabc4a0a6E
ffffff8040003880 t _ZN99_$LT$core..char..decode..DecodeUtf16$LT$I$GT$$u20$as$u20$core..iter..traits..iterator..Iterator$GT$4next17hdd5b390f1439e6fdE
ffffff8040003964 T _ZN88_$LT$alloc..collections..btree..map..UnorderedKeyError$u20$as$u20$core..fmt..Display$GT$3fmt17ha2bbfe0b2e5a4231E
ffffff8040003980 T _ZN5alloc2rc32rc_inner_layout_for_value_layout17h3aee8240cdbff612E
ffffff80400039e8 t _ZN75_$LT$$u5b$T$u5d$$u20$as$u20$alloc..slice..SpecCloneIntoVec$LT$T$C$A$GT$$GT$10clone_into17h7877b7f58a0914c9E
ffffff8040003a60 t _ZN5alloc3vec9into_iter21IntoIter$LT$T$C$A$GT$8as_slice17h70d44194f83269abE
ffffff8040003a74 t _ZN5alloc7raw_vec17capacity_overflow17h8f2ab42c5e4237bfE.llvm.2527295892182414476
ffffff8040003a9c T _ZN5alloc7raw_vec19RawVec$LT$T$C$A$GT$8grow_one17hd2ccc570af24843cE
ffffff8040003b30 t _ZN77_$LT$alloc..raw_vec..RawVec$LT$T$C$A$GT$$u20$as$u20$core..ops..drop..Drop$GT$4drop17hc9e3933159031685E
ffffff8040003b48 t _ZN5alloc7raw_vec20RawVecInner$LT$A$GT$15try_allocate_in17h650baeaa8100878bE
ffffff8040003c24 t _ZN5alloc7raw_vec20RawVecInner$LT$A$GT$7reserve21do_reserve_and_handle17h4919603ed65ceaabE
ffffff8040003d1c t _ZN5alloc7raw_vec20RawVecInner$LT$A$GT$11try_reserve17h0836344c5a7c6703E
ffffff8040003e60 t _ZN5alloc7raw_vec20RawVecInner$LT$A$GT$13reserve_exact17h49dc841d437eb783E
ffffff8040003f78 t _ZN5alloc7raw_vec20RawVecInner$LT$A$GT$17try_reserve_exact17h60c6ec259c7bf418E
ffffff8040004090 t _ZN5alloc7raw_vec20RawVecInner$LT$A$GT$16shrink_unchecked17h9751f0516a81aec8E
ffffff8040004130 t _ZN5alloc7raw_vec11finish_grow17hf0eb8e0633a8079dE.llvm.2527295892182414476
ffffff80400041a4 T _ZN5alloc7raw_vec12handle_error17haec3c215a2ccfd98E
ffffff80400041b4 t _ZN106_$LT$core..iter..adapters..GenericShunt$LT$I$C$R$GT$$u20$as$u20$core..iter..traits..iterator..Iterator$GT$8try_fold17h5c6612886786c002E
ffffff80400045a8 t _ZN106_$LT$core..iter..adapters..GenericShunt$LT$I$C$R$GT$$u20$as$u20$core..iter..traits..iterator..Iterator$GT$8try_fold17he0ca0e889cc9f8adE
ffffff8040004988 t _ZN106_$LT$core..iter..adapters..GenericShunt$LT$I$C$R$GT$$u20$as$u20$core..iter..traits..iterator..Iterator$GT$9size_hint17h94a2dcbf18cf1fceE
ffffff8040004988 t _ZN106_$LT$core..iter..adapters..GenericShunt$LT$I$C$R$GT$$u20$as$u20$core..iter..traits..iterator..Iterator$GT$9size_hint17hea5e4b703f3f1c01E
ffffff80400049cc t _ZN4core4iter8adapters11try_process17hd49f9705ce677b91E
ffffff8040004a6c t _ZN4core4iter8adapters11try_process17hf0b6d83f94056ce4E
ffffff8040004b0c T _ZN5alloc3ffi5c_str19FromVecWithNulError8as_bytes17h6659845839eb9c3fE
ffffff8040004b18 T _ZN72_$LT$$RF$str$u20$as$u20$alloc..ffi..c_str..CString..new..SpecNewImpl$GT$13spec_new_impl17hf8427ed31e8c4555E
ffffff8040004b18 T _ZN81_$LT$$RF$$u5b$u8$u5d$$u20$as$u20$alloc..ffi..c_str..CString..new..SpecNewImpl$GT$13spec_new_impl17h99ba9842ad079751E
ffffff8040004c08 T _ZN89_$LT$$RF$mut$u20$$u5b$u8$u5d$$u20$as$u20$alloc..ffi..c_str..CString..new..SpecNewImpl$GT$13spec_new_impl17hbe3e276e161af44fE
ffffff8040004cf8 T _ZN5alloc3ffi5c_str7CString18from_vec_unchecked17hdc44dd0d041b2c45E
ffffff8040004e14 T _ZN5alloc3ffi5c_str7CString19_from_vec_unchecked17hc5725553aa82125aE
ffffff8040004f30 T _ZN5alloc3ffi5c_str7CString8from_raw17h00473f4c4ab5f1c4E
ffffff8040004f50 T _ZN5alloc3ffi5c_str7CString11into_string17hc4a6381d404964e2E
ffffff804000508c T _ZN5alloc3ffi5c_str7CString10into_bytes17h0929554e608d8cc6E
ffffff80400050a0 T _ZN5alloc3ffi5c_str7CString19into_bytes_with_nul17h5a462d9d3a2ca8c9E
ffffff80400050ac T _ZN5alloc3ffi5c_str7CString16into_boxed_c_str17h590313509388af52E
ffffff80400050b0 T _ZN5alloc3ffi5c_str7CString27from_vec_with_nul_unchecked17h8ca7dffe405cc349E
ffffff8040005120 T _ZN5alloc3ffi5c_str7CString17from_vec_with_nul17h0c620b632ca08c2dE
ffffff8040005228 T _ZN63_$LT$alloc..ffi..c_str..CString$u20$as$u20$core..fmt..Debug$GT$3fmt17h2f78610ff1a866ebE
ffffff804000523c T _ZN69_$LT$alloc..ffi..c_str..CString$u20$as$u20$core..default..Default$GT$7default17h51dcac1c0b6a3538E
ffffff8040005270 T _ZN66_$LT$alloc..ffi..c_str..NulError$u20$as$u20$core..fmt..Display$GT$3fmt17h807b169afa0c8d46E
ffffff80400052bc T _ZN77_$LT$alloc..ffi..c_str..FromVecWithNulError$u20$as$u20$core..fmt..Display$GT$3fmt17he4854d1920ed988fE
ffffff8040005334 T _ZN73_$LT$alloc..ffi..c_str..IntoStringError$u20$as$u20$core..fmt..Display$GT$3fmt17h6cd327076a8790e5E
ffffff8040005348 T _ZN100_$LT$alloc..ffi..c_str..CString$u20$as$u20$core..convert..From$LT$$RF$core..ffi..c_str..CStr$GT$$GT$4from17h5a3a98df031f1329E
ffffff80400053bc T _ZN4core3fmt3num53_$LT$impl$u20$core..fmt..Display$u20$for$u20$u128$GT$3fmt17h2730d38f016ba877E
ffffff8040005404 T _ZN4core3fmt3num53_$LT$impl$u20$core..fmt..Display$u20$for$u20$i128$GT$3fmt17h7414f737d08a78e9E
ffffff8040005468 T _ZN4core3fmt3num22_$LT$impl$u20$u128$GT$4_fmt17hb9161f0703d69941E
ffffff8040005910 T _ZN71_$LT$core..fmt..num..Binary$u20$as$u20$core..fmt..num..GenericRadix$GT$5digit17h6b98f2b384e0333bE
ffffff8040005978 T _ZN70_$LT$core..fmt..num..Octal$u20$as$u20$core..fmt..num..GenericRadix$GT$5digit17h16b742ddee411eaeE
ffffff80400059e0 T _ZN73_$LT$core..fmt..num..LowerHex$u20$as$u20$core..fmt..num..GenericRadix$GT$5digit17h0a991ac83aa80befE
ffffff8040005a5c T _ZN73_$LT$core..fmt..num..UpperHex$u20$as$u20$core..fmt..num..GenericRadix$GT$5digit17hd6d9edc23525c92fE
ffffff8040005ad8 T _ZN4core3fmt3num50_$LT$impl$u20$core..fmt..Binary$u20$for$u20$i8$GT$3fmt17h30e3d930612ae959E
ffffff8040005ad8 T _ZN4core3fmt3num50_$LT$impl$u20$core..fmt..Binary$u20$for$u20$u8$GT$3fmt17h2cbba7d4798b7ac9E
ffffff8040005b44 T _ZN4core3fmt3num49_$LT$impl$u20$core..fmt..Octal$u20$for$u20$i8$GT$3fmt17hc155394f742de236E
ffffff8040005b44 T _ZN4core3fmt3num49_$LT$impl$u20$core..fmt..Octal$u20$for$u20$u8$GT$3fmt17h9521c2ead388649bE
ffffff8040005bb0 T _ZN4core3fmt3num52_$LT$impl$u20$core..fmt..LowerHex$u20$for$u20$i8$GT$3fmt17habe2dd9053035f58E
ffffff8040005bb0 T _ZN4core3fmt3num52_$LT$impl$u20$core..fmt..LowerHex$u20$for$u20$u8$GT$3fmt17hdf4c4b38209d7e72E
ffffff8040005c2c T _ZN4core3fmt3num52_$LT$impl$u20$core..fmt..UpperHex$u20$for$u20$i8$GT$3fmt17h25122c28b5eec36eE
ffffff8040005c2c T _ZN4core3fmt3num52_$LT$impl$u20$core..fmt..UpperHex$u20$for$u20$u8$GT$3fmt17ha146c3d4238eaff2E
ffffff8040005ca8 T _ZN4core3fmt3num51_$LT$impl$u20$core..fmt..Binary$u20$for$u20$i16$GT$3fmt17h7a6cfab748692d2fE
ffffff8040005ca8 T _ZN4core3fmt3num51_$LT$impl$u20$core..fmt..Binary$u20$for$u20$u16$GT$3fmt17h23a9cc9628b9f8a9E
ffffff8040005d14 T _ZN4core3fmt3num50_$LT$impl$u20$core..fmt..Octal$u20$for$u20$i16$GT$3fmt17hc832f2dc8b81680fE
ffffff8040005d14 T _ZN4core3fmt3num50_$LT$impl$u20$core..fmt..Octal$u20$for$u20$u16$GT$3fmt17h2e7c66c9a0707357E
ffffff8040005d80 T _ZN4core3fmt3num53_$LT$impl$u20$core..fmt..LowerHex$u20$for$u20$i16$GT$3fmt17hfeadb1adb3c64894E
ffffff8040005d80 T _ZN4core3fmt3num53_$LT$impl$u20$core..fmt..LowerHex$u20$for$u20$u16$GT$3fmt17h3d9b7ace67192155E
ffffff8040005dfc T _ZN4core3fmt3num53_$LT$impl$u20$core..fmt..UpperHex$u20$for$u20$i16$GT$3fmt17h5b794aa0de012a62E
ffffff8040005dfc T _ZN4core3fmt3num53_$LT$impl$u20$core..fmt..UpperHex$u20$for$u20$u16$GT$3fmt17h2742fe34ee582501E
ffffff8040005e78 T _ZN4core3fmt3num51_$LT$impl$u20$core..fmt..Binary$u20$for$u20$i32$GT$3fmt17h3402c800d63030abE
ffffff8040005e78 T _ZN4core3fmt3num51_$LT$impl$u20$core..fmt..Binary$u20$for$u20$u32$GT$3fmt17h3d9fa5290a9ffe53E
ffffff8040005ee4 T _ZN4core3fmt3num50_$LT$impl$u20$core..fmt..Octal$u20$for$u20$i32$GT$3fmt17hc03dd513662fc622E
ffffff8040005ee4 T _ZN4core3fmt3num50_$LT$impl$u20$core..fmt..Octal$u20$for$u20$u32$GT$3fmt17h5701ba5bdb44629aE
ffffff8040005f50 T _ZN4core3fmt3num53_$LT$impl$u20$core..fmt..LowerHex$u20$for$u20$i32$GT$3fmt17h7c5f9562b3d2481dE
ffffff8040005f50 T _ZN4core3fmt3num53_$LT$impl$u20$core..fmt..LowerHex$u20$for$u20$u32$GT$3fmt17h06131e4d96fed201E
ffffff8040005fcc T _ZN4core3fmt3num53_$LT$impl$u20$core..fmt..UpperHex$u20$for$u20$i32$GT$3fmt17hc38ac16039c4bc3aE
ffffff8040005fcc T _ZN4core3fmt3num53_$LT$impl$u20$core..fmt..UpperHex$u20$for$u20$u32$GT$3fmt17hde7c273d2863bbeaE
ffffff8040006048 T _ZN4core3fmt3num51_$LT$impl$u20$core..fmt..Binary$u20$for$u20$i64$GT$3fmt17h83f6b391db1ce6abE
ffffff8040006048 T _ZN4core3fmt3num51_$LT$impl$u20$core..fmt..Binary$u20$for$u20$u64$GT$3fmt17hb0f8ae1ac0ac74acE
ffffff8040006048 T _ZN4core3fmt3num53_$LT$impl$u20$core..fmt..Binary$u20$for$u20$isize$GT$3fmt17ha4e5c5fd7fa9aee0E
ffffff8040006048 T _ZN4core3fmt3num53_$LT$impl$u20$core..fmt..Binary$u20$for$u20$usize$GT$3fmt17h5d3ac9acf9e27164E
ffffff80400060b4 T _ZN4core3fmt3num50_$LT$impl$u20$core..fmt..Octal$u20$for$u20$i64$GT$3fmt17hcffcd3de204d0d65E
ffffff80400060b4 T _ZN4core3fmt3num50_$LT$impl$u20$core..fmt..Octal$u20$for$u20$u64$GT$3fmt17h48e99ff12d6ea740E
ffffff80400060b4 T _ZN4core3fmt3num52_$LT$impl$u20$core..fmt..Octal$u20$for$u20$isize$GT$3fmt17hc2054c958e261498E
ffffff80400060b4 T _ZN4core3fmt3num52_$LT$impl$u20$core..fmt..Octal$u20$for$u20$usize$GT$3fmt17hd3ae15a22bffe441E
ffffff8040006120 T _ZN4core3fmt3num53_$LT$impl$u20$core..fmt..LowerHex$u20$for$u20$i64$GT$3fmt17hca5f8537e894e789E
ffffff8040006120 T _ZN4core3fmt3num53_$LT$impl$u20$core..fmt..LowerHex$u20$for$u20$u64$GT$3fmt17h03c82fca33c37ae3E
ffffff8040006120 T _ZN4core3fmt3num55_$LT$impl$u20$core..fmt..LowerHex$u20$for$u20$isize$GT$3fmt17h5f8c4a29aa37b12fE
ffffff8040006120 T _ZN4core3fmt3num55_$LT$impl$u20$core..fmt..LowerHex$u20$for$u20$usize$GT$3fmt17he89af3061fac1f54E
ffffff804000619c T _ZN4core3fmt3num53_$LT$impl$u20$core..fmt..UpperHex$u20$for$u20$i64$GT$3fmt17h3bd7ddb67d182586E
ffffff804000619c T _ZN4core3fmt3num53_$LT$impl$u20$core..fmt..UpperHex$u20$for$u20$u64$GT$3fmt17hee28d78eec0572e7E
ffffff804000619c T _ZN4core3fmt3num55_$LT$impl$u20$core..fmt..UpperHex$u20$for$u20$isize$GT$3fmt17h7ed785fb12bcb9fdE
ffffff804000619c T _ZN4core3fmt3num55_$LT$impl$u20$core..fmt..UpperHex$u20$for$u20$usize$GT$3fmt17hbfed6eeacf625a99E
ffffff8040006218 T _ZN4core3fmt3num52_$LT$impl$u20$core..fmt..Binary$u20$for$u20$i128$GT$3fmt17hdb33614485b0d37eE
ffffff8040006218 T _ZN4core3fmt3num52_$LT$impl$u20$core..fmt..Binary$u20$for$u20$u128$GT$3fmt17h23d7862207440d0bE
ffffff80400062a8 T _ZN4core3fmt3num51_$LT$impl$u20$core..fmt..Octal$u20$for$u20$i128$GT$3fmt17h52c365015546060dE
ffffff80400062a8 T _ZN4core3fmt3num51_$LT$impl$u20$core..fmt..Octal$u20$for$u20$u128$GT$3fmt17hd1cbf4d422d6a6b7E
ffffff8040006338 T _ZN4core3fmt3num54_$LT$impl$u20$core..fmt..LowerHex$u20$for$u20$i128$GT$3fmt17h01f2d8850b051a4dE
ffffff8040006338 T _ZN4core3fmt3num54_$LT$impl$u20$core..fmt..LowerHex$u20$for$u20$u128$GT$3fmt17h2a1f12b9d41b34d0E
ffffff80400063d8 T _ZN4core3fmt3num54_$LT$impl$u20$core..fmt..UpperHex$u20$for$u20$i128$GT$3fmt17h877c98716610d69bE
ffffff80400063d8 T _ZN4core3fmt3num54_$LT$impl$u20$core..fmt..UpperHex$u20$for$u20$u128$GT$3fmt17h4ec79eb590d4c2f4E
ffffff8040006478 t _ZN4core3fmt3num8exp_u12817h3ca44c8eed35ba2aE
ffffff8040006ca0 T _ZN4core3fmt3num54_$LT$impl$u20$core..fmt..LowerExp$u20$for$u20$i128$GT$3fmt17h1a9e94ad48caea30E
ffffff8040006ccc T _ZN4core3fmt3num54_$LT$impl$u20$core..fmt..LowerExp$u20$for$u20$u128$GT$3fmt17h2832bf2e7ede46f0E
ffffff8040006ce4 T _ZN4core3fmt3num54_$LT$impl$u20$core..fmt..UpperExp$u20$for$u20$i128$GT$3fmt17h4679b3f58fddb3a0E
ffffff8040006d10 T _ZN4core3fmt3num54_$LT$impl$u20$core..fmt..UpperExp$u20$for$u20$u128$GT$3fmt17h31e551091fe00bd5E
ffffff8040006d28 T _ZN4core3num7flt2dec8strategy5grisu12cached_power17hbb2f8fe9ad66471aE
ffffff8040006d94 T _ZN4core3num7flt2dec8strategy5grisu19format_shortest_opt17h4f20f8fcf4fcfc2aE
ffffff8040007364 T _ZN4core3num7flt2dec8strategy5grisu15format_shortest17h2c1d1de10e9c6636E
ffffff80400073d8 T _ZN4core3num7flt2dec8strategy5grisu16format_exact_opt17hf9ae745d8331916aE
ffffff8040007758 t _ZN4core3num7flt2dec8strategy5grisu16format_exact_opt14possibly_round17hdfa2f9271951ef8eE
ffffff8040007944 T _ZN4core3num7flt2dec8strategy5grisu12format_exact17h52f00db0be47787aE
ffffff80400079c4 T _ZN4core3num9int_log1030panic_for_nonpositive_argument17hde1998e37072fd17E
ffffff80400079ec T _ZN4core3num8int_sqrt27panic_for_negative_argument17h6d7b18dd95529e03E
ffffff8040007a14 T _ZN64_$LT$core..char..EscapeUnicode$u20$as$u20$core..fmt..Display$GT$3fmt17h0e633c7997c8dbf9E
ffffff8040007a34 T _ZN86_$LT$core..char..CaseMappingIter$u20$as$u20$core..iter..traits..iterator..Iterator$GT$4next17ha3ff6d188d474adfE
ffffff8040007a60 T _ZN86_$LT$core..char..CaseMappingIter$u20$as$u20$core..iter..traits..iterator..Iterator$GT$5count17h071630771b78bde4E
ffffff8040007a6c T _ZN86_$LT$core..char..CaseMappingIter$u20$as$u20$core..iter..traits..iterator..Iterator$GT$4last17h7e8c6a40bb80b17eE
ffffff8040007aac T _ZN86_$LT$core..char..CaseMappingIter$u20$as$u20$core..iter..traits..iterator..Iterator$GT$10advance_by17haad8e90453ad8851E
ffffff8040007ad0 T _ZN86_$LT$core..char..CaseMappingIter$u20$as$u20$core..iter..traits..iterator..Iterator$GT$24__iterator_get_unchecked17h98a34a79f8e3f147E
ffffff8040007ae4 T _ZN101_$LT$core..char..CaseMappingIter$u20$as$u20$core..iter..traits..double_ended..DoubleEndedIterator$GT$9next_back17h93fdf1a479f8439dE
ffffff8040007b0c T _ZN101_$LT$core..char..CaseMappingIter$u20$as$u20$core..iter..traits..double_ended..DoubleEndedIterator$GT$15advance_back_by17h379df86b1f68bf37E
ffffff8040007b34 T _ZN67_$LT$core..char..TryFromCharError$u20$as$u20$core..fmt..Display$GT$3fmt17h09fb0163f4346441E
ffffff8040007b48 T _ZN4core3net6parser54_$LT$impl$u20$core..net..socket_addr..SocketAddrV4$GT$11parse_ascii17h35b65a348735e333E
ffffff8040007b48 T _ZN4core3net6parser93_$LT$impl$u20$core..str..traits..FromStr$u20$for$u20$core..net..socket_addr..SocketAddrV4$GT$8from_str17h661e096193912114E
ffffff8040007b6c T _ZN4core3net6parser54_$LT$impl$u20$core..net..socket_addr..SocketAddrV6$GT$11parse_ascii17h317becf482be2d1dE
ffffff8040007b6c T _ZN4core3net6parser93_$LT$impl$u20$core..str..traits..FromStr$u20$for$u20$core..net..socket_addr..SocketAddrV6$GT$8from_str17h48af1085890a6de0E
ffffff8040007bd0 T _ZN4core3net6parser52_$LT$impl$u20$core..net..socket_addr..SocketAddr$GT$11parse_ascii17h405107a7b0d440ddE
ffffff8040007bd0 T _ZN4core3net6parser91_$LT$impl$u20$core..str..traits..FromStr$u20$for$u20$core..net..socket_addr..SocketAddr$GT$8from_str17h2284d9a4f2d4eb11E
ffffff8040007bf4 T _ZN73_$LT$core..net..socket_addr..SocketAddr$u20$as$u20$core..fmt..Display$GT$3fmt17hbb112795cd7dbd9aE
ffffff8040007c10 T _ZN71_$LT$core..net..socket_addr..SocketAddr$u20$as$u20$core..fmt..Debug$GT$3fmt17he40d0165b34d5f77E
ffffff8040007c2c T _ZN75_$LT$core..net..socket_addr..SocketAddrV4$u20$as$u20$core..fmt..Display$GT$3fmt17he19c7a8bec83f2a2E
ffffff8040007d78 T _ZN73_$LT$core..net..socket_addr..SocketAddrV4$u20$as$u20$core..fmt..Debug$GT$3fmt17hc064f7f6527b5184E
ffffff8040007d7c T _ZN75_$LT$core..net..socket_addr..SocketAddrV6$u20$as$u20$core..fmt..Display$GT$3fmt17h45a8ea1c72f4ce39E
ffffff8040007fb0 T _ZN73_$LT$core..net..socket_addr..SocketAddrV6$u20$as$u20$core..fmt..Debug$GT$3fmt17h20ff14d4b1b113e0E
ffffff8040007fb4 T _ZN48_$LT$char$u20$as$u20$core..pat..RangePattern$GT$7sub_one17he2c18fae21486d43E
ffffff8040007ffc T _ZN59_$LT$core..str..iter..Chars$u20$as$u20$core..fmt..Debug$GT$3fmt17h9178ffc75c0d1645E
ffffff80400080fc T _ZN65_$LT$core..str..iter..EncodeUtf16$u20$as$u20$core..fmt..Debug$GT$3fmt17h7f91337ea5949869E
ffffff8040008158 T _ZN4core3f6421_$LT$impl$u20$f64$GT$5clamp8do_panic7runtime17hbacc6a64af375fafE
ffffff804000819c T _ZN82_$LT$core..char..ToLowercase$u20$as$u20$core..iter..traits..iterator..Iterator$GT$4next17h9b97df6a9fc60569E
ffffff804000819c T _ZN82_$LT$core..char..ToUppercase$u20$as$u20$core..iter..traits..iterator..Iterator$GT$4next17h0e43b84b019ff003E
ffffff80400081c8 T _ZN82_$LT$core..char..ToLowercase$u20$as$u20$core..iter..traits..iterator..Iterator$GT$5count17h48cbcbb98d3bfe43E
ffffff80400081c8 T _ZN82_$LT$core..char..ToUppercase$u20$as$u20$core..iter..traits..iterator..Iterator$GT$5count17h6c45ff2d82413c6aE
ffffff80400081d4 T _ZN82_$LT$core..char..ToLowercase$u20$as$u20$core..iter..traits..iterator..Iterator$GT$4last17h53af63ce0612324eE
ffffff80400081d4 T _ZN82_$LT$core..char..ToUppercase$u20$as$u20$core..iter..traits..iterator..Iterator$GT$4last17hfad7d8b4a634fdb4E
ffffff8040008214 T _ZN82_$LT$core..char..ToLowercase$u20$as$u20$core..iter..traits..iterator..Iterator$GT$10advance_by17he30658f7eaf0f43dE
ffffff8040008214 T _ZN82_$LT$core..char..ToUppercase$u20$as$u20$core..iter..traits..iterator..Iterator$GT$10advance_by17hd9166f4b307ae5b7E
ffffff8040008238 T _ZN82_$LT$core..char..ToLowercase$u20$as$u20$core..iter..traits..iterator..Iterator$GT$24__iterator_get_unchecked17h56e950919054bc2cE
ffffff8040008238 T _ZN82_$LT$core..char..ToUppercase$u20$as$u20$core..iter..traits..iterator..Iterator$GT$24__iterator_get_unchecked17h48868ff159aa819dE
ffffff804000824c T _ZN97_$LT$core..char..ToLowercase$u20$as$u20$core..iter..traits..double_ended..DoubleEndedIterator$GT$9next_back17h99e8623c264a7f21E
ffffff804000824c T _ZN97_$LT$core..char..ToUppercase$u20$as$u20$core..iter..traits..double_ended..DoubleEndedIterator$GT$9next_back17h9a7c6155203995e7E
ffffff8040008274 T _ZN97_$LT$core..char..ToLowercase$u20$as$u20$core..iter..traits..double_ended..DoubleEndedIterator$GT$15advance_back_by17hf8568e0860a96c73E
ffffff8040008274 T _ZN97_$LT$core..char..ToUppercase$u20$as$u20$core..iter..traits..double_ended..DoubleEndedIterator$GT$15advance_back_by17h98695737231be598E
ffffff804000829c T _ZN4core9panicking11panic_const24panic_const_add_overflow17h212fc95564bda41bE
ffffff80400082c4 T _ZN4core9panicking11panic_const24panic_const_sub_overflow17h30095d494c23057dE
ffffff80400082ec T _ZN4core9panicking11panic_const24panic_const_mul_overflow17hb183dd9f714e68c2E
ffffff8040008314 T _ZN4core9panicking11panic_const24panic_const_div_overflow17h667bf342e87296bfE
ffffff804000833c T _ZN4core9panicking11panic_const24panic_const_rem_overflow17h480c179bee90deebE
ffffff8040008364 T _ZN4core9panicking11panic_const24panic_const_neg_overflow17ha91701efb14d6a24E
ffffff804000838c T _ZN4core9panicking11panic_const24panic_const_shr_overflow17h647e463518daf4e1E
ffffff80400083b4 T _ZN4core9panicking11panic_const24panic_const_shl_overflow17h172cff26b81383a0E
ffffff80400083dc T _ZN4core9panicking11panic_const23panic_const_div_by_zero17h9498273992d2a753E
ffffff8040008404 T _ZN4core9panicking11panic_const23panic_const_rem_by_zero17h2cd0fac9b21dd3adE
ffffff804000842c T _ZN4core9panicking11panic_const29panic_const_coroutine_resumed17hc9156e172190582cE
ffffff8040008454 T _ZN4core9panicking11panic_const28panic_const_async_fn_resumed17hc93e659b41130635E
ffffff804000847c T _ZN4core9panicking11panic_const32panic_const_async_gen_fn_resumed17h4525b13ddad291d3E
ffffff80400084a4 T _ZN4core9panicking11panic_const23panic_const_gen_fn_none17h62b64a99d94c1acfE
ffffff80400084cc T _ZN4core9panicking11panic_const35panic_const_coroutine_resumed_panic17h1dd9c551324628beE
ffffff80400084f4 T _ZN4core9panicking11panic_const34panic_const_async_fn_resumed_panic17h34b3a63adadcf623E
ffffff804000851c T _ZN4core9panicking11panic_const38panic_const_async_gen_fn_resumed_panic17h2464a76f4a226fbfE
ffffff8040008544 T _ZN4core9panicking11panic_const29panic_const_gen_fn_none_panic17hfeff6791924cb9c7E
ffffff804000856c T _ZN4core9panicking11panic_const34panic_const_coroutine_resumed_drop17hb8d64705a88a963eE
ffffff8040008594 T _ZN4core9panicking11panic_const33panic_const_async_fn_resumed_drop17hc947e0953d27f15eE
ffffff80400085bc T _ZN4core9panicking11panic_const37panic_const_async_gen_fn_resumed_drop17h2d128716ecb63291E
ffffff80400085e4 T _ZN4core9panicking11panic_const28panic_const_gen_fn_none_drop17h14ee87103f5fecacE
ffffff804000860c T _ZN46_$LT$i8$u20$as$u20$core..pat..RangePattern$GT$7sub_one17h3ec600f67150832cE
ffffff8040008648 T _ZN47_$LT$i16$u20$as$u20$core..pat..RangePattern$GT$7sub_one17h4b5e341da21dbc70E
ffffff8040008684 T _ZN47_$LT$i32$u20$as$u20$core..pat..RangePattern$GT$7sub_one17had3d501deb8b8e78E
ffffff80400086b4 T _ZN47_$LT$i64$u20$as$u20$core..pat..RangePattern$GT$7sub_one17h5493abc358fb92dfE
ffffff80400086b4 T _ZN49_$LT$isize$u20$as$u20$core..pat..RangePattern$GT$7sub_one17hf0594d46c29225f8E
ffffff80400086e4 T _ZN48_$LT$i128$u20$as$u20$core..pat..RangePattern$GT$7sub_one17h23e6dee44334e1eeE
ffffff8040008724 T _ZN46_$LT$u8$u20$as$u20$core..pat..RangePattern$GT$7sub_one17hc68c497686eb1583E
ffffff8040008758 T _ZN47_$LT$u16$u20$as$u20$core..pat..RangePattern$GT$7sub_one17hff93015a0143b842E
ffffff804000878c T _ZN47_$LT$u32$u20$as$u20$core..pat..RangePattern$GT$7sub_one17hf5e6299c037350c4E
ffffff80400087bc T _ZN47_$LT$u64$u20$as$u20$core..pat..RangePattern$GT$7sub_one17h2da43f9976447efdE
ffffff80400087bc T _ZN49_$LT$usize$u20$as$u20$core..pat..RangePattern$GT$7sub_one17h7347a07a784663f1E
ffffff80400087ec T _ZN48_$LT$u128$u20$as$u20$core..pat..RangePattern$GT$7sub_one17hed01d3922eb573dbE
ffffff804000882c t _ZN53_$LT$core..fmt..Error$u20$as$u20$core..fmt..Debug$GT$3fmt17hfdb9f427b77fc401E
ffffff8040008848 T _ZN67_$LT$core..str..iter..EscapeDebug$u20$as$u20$core..fmt..Display$GT$3fmt17h5624ea013646c9dbE
ffffff8040008a3c T _ZN69_$LT$core..str..iter..EscapeDefault$u20$as$u20$core..fmt..Display$GT$3fmt17hf2683c9411702766E
ffffff8040008bc4 T _ZN69_$LT$core..str..iter..EscapeUnicode$u20$as$u20$core..fmt..Display$GT$3fmt17hd1991e454891482eE
ffffff8040008d4c T _ZN4core7unicode12unicode_data9lowercase6lookup17hd68d56f61881382dE
ffffff8040008e58 t _ZN4core3num7dec2flt6lemire13compute_float17h1f8bcaaf81560b2dE
ffffff8040008fa8 t _ZN4core3num7dec2flt6lemire13compute_float17h6aa4f8d74f0f4b61E
ffffff80400090d4 t _ZN4core3num7dec2flt6lemire13compute_float17h6fcbf243815bfa89E
ffffff8040009224 T _ZN4core3num7dec2flt6lemire22compute_product_approx17hf84182fdcbd8cf41E
ffffff8040009288 T _ZN76_$LT$core..mem..transmutability..Assume$u20$as$u20$core..ops..arith..Sub$GT$3sub17hca07311f8237c01aE
ffffff8040009294 T _ZN74_$LT$core..char..convert..ParseCharError$u20$as$u20$core..fmt..Display$GT$3fmt17h6e54da4c1c125ecbE
ffffff80400092c8 T _ZN76_$LT$core..char..convert..CharTryFromError$u20$as$u20$core..fmt..Display$GT$3fmt17h4ff09b6a4bb99dd1E
ffffff80400092dc T _ZN75_$LT$core..char..decode..DecodeUtf16Error$u20$as$u20$core..fmt..Display$GT$3fmt17h26cec3b14e443e30E
ffffff8040009324 t _ZN86_$LT$core..net..display_buffer..DisplayBuffer$LT$_$GT$$u20$as$u20$core..fmt..Write$GT$9write_str17h47992086fa9df1b5E
ffffff8040009368 t _ZN86_$LT$core..net..display_buffer..DisplayBuffer$LT$_$GT$$u20$as$u20$core..fmt..Write$GT$9write_str17h8adbfe218b1884d8E
ffffff80400093ac t _ZN86_$LT$core..net..display_buffer..DisplayBuffer$LT$_$GT$$u20$as$u20$core..fmt..Write$GT$9write_str17hacb49a2cbc1aaec5E
ffffff80400093f0 t _ZN86_$LT$core..net..display_buffer..DisplayBuffer$LT$_$GT$$u20$as$u20$core..fmt..Write$GT$9write_str17hf15e02b7c6919aa4E
ffffff8040009434 T _ZN65_$LT$core..net..ip_addr..IpAddr$u20$as$u20$core..fmt..Display$GT$3fmt17h8772119f7dbaeed5E
ffffff8040009448 T _ZN63_$LT$core..net..ip_addr..IpAddr$u20$as$u20$core..fmt..Debug$GT$3fmt17ha5a59c91162d6bedE
ffffff804000945c T _ZN67_$LT$core..net..ip_addr..Ipv4Addr$u20$as$u20$core..fmt..Display$GT$3fmt17hb2f8f34f94b90f24E
ffffff80400095ac T _ZN65_$LT$core..net..ip_addr..Ipv4Addr$u20$as$u20$core..fmt..Debug$GT$3fmt17h2ab0823cb5727376E
ffffff80400095b0 T _ZN67_$LT$core..net..ip_addr..Ipv6Addr$u20$as$u20$core..fmt..Display$GT$3fmt17h4901c3932604a5e0E
ffffff8040009d1c T _ZN65_$LT$core..net..ip_addr..Ipv6Addr$u20$as$u20$core..fmt..Debug$GT$3fmt17h6f3519aa5573a657E
ffffff8040009d20 T _ZN4core3net6parser44_$LT$impl$u20$core..net..ip_addr..IpAddr$GT$11parse_ascii17hc7965bfe9239eeeeE
ffffff8040009d20 T _ZN4core3net6parser83_$LT$impl$u20$core..str..traits..FromStr$u20$for$u20$core..net..ip_addr..IpAddr$GT$8from_str17he111fe9e75e3ed2cE
ffffff8040009dd4 T _ZN4core3net6parser46_$LT$impl$u20$core..net..ip_addr..Ipv4Addr$GT$11parse_ascii17h9a1a096a1e0cb068E
ffffff8040009dd4 T _ZN4core3net6parser85_$LT$impl$u20$core..str..traits..FromStr$u20$for$u20$core..net..ip_addr..Ipv4Addr$GT$8from_str17hd98486b3226f3640E
ffffff8040009e44 T _ZN4core3net6parser46_$LT$impl$u20$core..net..ip_addr..Ipv6Addr$GT$11parse_ascii17h00f4191a65f105b6E
ffffff8040009e44 T _ZN4core3net6parser85_$LT$impl$u20$core..str..traits..FromStr$u20$for$u20$core..net..ip_addr..Ipv6Addr$GT$8from_str17h278745eeb61b86d6E
ffffff8040009ec0 T _ZN73_$LT$core..panic..panic_info..PanicInfo$u20$as$u20$core..fmt..Display$GT$3fmt17h2c6dcef47b5c070fE
ffffff8040009ff8 t _ZN4core3fmt5Write10write_char17h2c2c4688f014fd27E
ffffff804000a138 t _ZN4core3fmt5Write10write_char17h3297cbd6f02d4e0dE
ffffff804000a278 t _ZN4core3fmt5Write10write_char17hc2a6146503192c8eE
ffffff804000a3b8 t _ZN4core3fmt5Write10write_char17he58c90a92a4e566dE
ffffff804000a4f8 t _ZN4core3fmt5Write9write_fmt17h46a8091f80fe6cebE
ffffff804000a508 t _ZN4core3fmt5Write9write_fmt17h7492aa81e42ba12dE
ffffff804000a518 t _ZN4core3fmt5Write9write_fmt17h9cefd2a6ef938b61E
ffffff804000a528 t _ZN4core3fmt5Write9write_fmt17heeb1eb45b0932f5eE
ffffff804000a538 T _ZN66_$LT$core..str..error..Utf8Error$u20$as$u20$core..fmt..Display$GT$3fmt17h37adf2960cafd652E
ffffff804000a5c0 T _ZN71_$LT$core..str..error..ParseBoolError$u20$as$u20$core..fmt..Display$GT$3fmt17h07595a5e48289c54E
ffffff804000a5d4 T _ZN85_$LT$core..marker..variance..PhantomCovariantLifetime$u20$as$u20$core..fmt..Debug$GT$3fmt17h1a74a30451def8bdE
ffffff804000a5f0 T _ZN89_$LT$core..marker..variance..PhantomContravariantLifetime$u20$as$u20$core..fmt..Debug$GT$3fmt17hb013d6c0a61e637dE
ffffff804000a60c T _ZN85_$LT$core..marker..variance..PhantomInvariantLifetime$u20$as$u20$core..fmt..Debug$GT$3fmt17h4ef2e8e66cedf545E
ffffff804000a628 T _ZN77_$LT$core..net..ip_addr..Ipv4Addr$u20$as$u20$core..ops..bit..BitAndAssign$GT$13bitand_assign17ha5397962d177e7d7E
ffffff804000a660 T _ZN117_$LT$core..net..ip_addr..Ipv4Addr$u20$as$u20$core..ops..bit..BitAndAssign$LT$$RF$core..net..ip_addr..Ipv4Addr$GT$$GT$13bitand_assign17h8f3bff375759fa0cE
ffffff804000a69c T _ZN76_$LT$core..net..ip_addr..Ipv4Addr$u20$as$u20$core..ops..bit..BitOrAssign$GT$12bitor_assign17h248f0ee7b8a67501E
ffffff804000a6d4 T _ZN116_$LT$core..net..ip_addr..Ipv4Addr$u20$as$u20$core..ops..bit..BitOrAssign$LT$$RF$core..net..ip_addr..Ipv4Addr$GT$$GT$12bitor_assign17h89797980e23b8816E
ffffff804000a710 T _ZN77_$LT$core..net..ip_addr..Ipv6Addr$u20$as$u20$core..ops..bit..BitAndAssign$GT$13bitand_assign17h08c556e26d8f106aE
ffffff804000a724 T _ZN117_$LT$core..net..ip_addr..Ipv6Addr$u20$as$u20$core..ops..bit..BitAndAssign$LT$$RF$core..net..ip_addr..Ipv6Addr$GT$$GT$13bitand_assign17h8098a7ce1fbaf204E
ffffff804000a738 T _ZN76_$LT$core..net..ip_addr..Ipv6Addr$u20$as$u20$core..ops..bit..BitOrAssign$GT$12bitor_assign17h9c96b92b76d1bcbbE
ffffff804000a74c T _ZN116_$LT$core..net..ip_addr..Ipv6Addr$u20$as$u20$core..ops..bit..BitOrAssign$LT$$RF$core..net..ip_addr..Ipv6Addr$GT$$GT$12bitor_assign17h62158621ce3366afE
ffffff804000a760 t _ZN53_$LT$core..fmt..Error$u20$as$u20$core..fmt..Debug$GT$3fmt17hfdb9f427b77fc401E
ffffff804000a77c t _ZN44_$LT$$RF$T$u20$as$u20$core..fmt..Display$GT$3fmt17h2d9995f2179b4c7bE
ffffff804000a784 t _ZN44_$LT$$RF$T$u20$as$u20$core..fmt..Display$GT$3fmt17hdcf6d13c13b12e0cE
ffffff804000a78c T _ZN4core7unicode12unicode_data10alphabetic6lookup17ha94ccb650e7da5ecE
ffffff804000a890 T _ZN73_$LT$core..ascii..ascii_char..AsciiChar$u20$as$u20$core..fmt..Display$GT$3fmt17h328ccbee1014caf1E
ffffff804000a8a4 T _ZN71_$LT$core..ascii..ascii_char..AsciiChar$u20$as$u20$core..fmt..Debug$GT$3fmt17h1165635fef5f61eeE
ffffff804000a9f0 T _ZN4core5ascii14escape_default17h6eaa8e46ef5fa478E
ffffff804000aa64 T _ZN65_$LT$core..ascii..EscapeDefault$u20$as$u20$core..fmt..Display$GT$3fmt17heaec6b2f4b3750f8E
ffffff804000aa84 T _ZN63_$LT$core..ascii..EscapeDefault$u20$as$u20$core..fmt..Debug$GT$3fmt17hae307543fe821c4dE
ffffff804000aae0 t _ZN104_$LT$core..iter..adapters..cloned..Cloned$LT$I$GT$$u20$as$u20$core..iter..traits..iterator..Iterator$GT$4next17h23ce17af5fbf2ad6E
ffffff804000ab10 t _ZN4core4iter6traits8iterator8Iterator6cmp_by17h190af25f4188192aE
ffffff804000ab50 T _ZN4core3str6traits23str_index_overflow_fail17h1a1397f3decb23eeE
ffffff804000ab78 T _ZN4core3str7pattern11StrSearcher3new17h16df524d96b45935E
ffffff804000b44c T _ZN4core3num6bignum5tests6Big8x38from_u6417hdd4dc8e3089b0b5bE
ffffff804000b4f4 T _ZN4core3num6bignum5tests6Big8x36digits17hdbf4474abf9dd216E
ffffff804000b51c T _ZN4core3num6bignum5tests6Big8x37get_bit17h1563b743d84892f1E
ffffff804000b554 T _ZN4core3num6bignum5tests6Big8x37is_zero17h463c627931541377E
ffffff804000b5c4 T _ZN4core3num6bignum5tests6Big8x310bit_length17ha5953d99bed573c8E
ffffff804000b678 T _ZN4core3num6bignum5tests6Big8x33add17h8f563142d1f17356E
ffffff804000b720 T _ZN4core3num6bignum5tests6Big8x39add_small17hadddc2c59a32574eE
ffffff804000b7a4 T _ZN4core3num6bignum5tests6Big8x33sub17h4d09c5174a36943bE
ffffff804000b83c T _ZN4core3num6bignum5tests6Big8x39mul_small17hccf6997ea4c467a9E
ffffff804000b8d8 T _ZN4core3num6bignum5tests6Big8x38mul_pow217h45fdd2ce41e8bbb7E
ffffff804000bb48 T _ZN4core3num6bignum5tests6Big8x38mul_pow517h8f41a3e33dd589e5E
ffffff804000bcb4 T _ZN4core3num6bignum5tests6Big8x310mul_digits17h8939ac527bce02a5E
ffffff804000c020 T _ZN4core3num6bignum5tests6Big8x313div_rem_small17hb53895e1c5e0536fE
ffffff804000c0d0 T _ZN4core3num6bignum5tests6Big8x37div_rem17hed77b8e86af7b4aeE
ffffff804000c38c T _ZN73_$LT$core..num..bignum..tests..Big8x3$u20$as$u20$core..cmp..PartialEq$GT$2eq17hd3046aa7d6452484E
ffffff804000c3ac T _ZN74_$LT$core..num..bignum..tests..Big8x3$u20$as$u20$core..cmp..PartialOrd$GT$11partial_cmp17hdcd97b82f8f73577E
ffffff804000c454 T _ZN67_$LT$core..num..bignum..tests..Big8x3$u20$as$u20$core..cmp..Ord$GT$3cmp17h02512351cb53a603E
ffffff804000c4fc T _ZN69_$LT$core..num..bignum..tests..Big8x3$u20$as$u20$core..fmt..Debug$GT$3fmt17h90a5c07ba3d4de0fE
ffffff804000c634 T _ZN4core7unicode12unicode_data15grapheme_extend11lookup_slow17h2046c4cd8109dd41E
ffffff804000c73c t _ZN4core3ops8function5impls79_$LT$impl$u20$core..ops..function..FnMut$LT$A$GT$$u20$for$u20$$RF$mut$u20$F$GT$8call_mut17h12462b59b8469aa9E
ffffff804000c73c t _ZN4core3ops8function5impls79_$LT$impl$u20$core..ops..function..FnMut$LT$A$GT$$u20$for$u20$$RF$mut$u20$F$GT$8call_mut17h514ae778b789f2beE
ffffff804000c73c t _ZN4core3ops8function5impls79_$LT$impl$u20$core..ops..function..FnMut$LT$A$GT$$u20$for$u20$$RF$mut$u20$F$GT$8call_mut17hd89ca7ed88c06509E
ffffff804000c750 t _ZN4core3ops8function5impls79_$LT$impl$u20$core..ops..function..FnMut$LT$A$GT$$u20$for$u20$$RF$mut$u20$F$GT$8call_mut17h5e310a6e488c7dacE
ffffff804000c768 T _ZN4core4cell4lazy14panic_poisoned17hdf0a61cd552ff237E
ffffff804000c794 T _ZN4core9panicking9panic_fmt17h7e26be68ac5af733E
ffffff804000c7ac T _ZN4core9panicking18panic_nounwind_fmt17h2fd06bcd2dfe663cE
ffffff804000c7c4 T _ZN4core9panicking5panic17h1b70cfcaa2e8f7e2E
ffffff804000c7f0 T _ZN4core9panicking14panic_nounwind17h4e86974bb1f55c40E
ffffff804000c824 T _ZN4core9panicking26panic_nounwind_nobacktrace17h26e237c9d18d0e2bE
ffffff804000c858 T _ZN4core9panicking14panic_explicit17h424cd1e683d3d816E
ffffff804000c898 T _ZN4core9panicking18panic_bounds_check17hf4811f229d006283E
ffffff804000c8dc T _ZN4core9panicking36panic_misaligned_pointer_dereference17hb476bfc1f73c3a08E
ffffff804000c91c T _ZN4core9panicking30panic_null_pointer_dereference17h01e0c07cd4cf14e3E
ffffff804000c948 T _ZN4core9panicking31panic_invalid_enum_construction17hd75846be7382bfb8E
ffffff804000c980 T _ZN4core9panicking19panic_cannot_unwind17hdf5a73c84e29deceE
ffffff804000c990 T _ZN4core9panicking16panic_in_cleanup17h698cae515936e3c7E
ffffff804000c9a0 T _ZN4core9panicking15const_panic_fmt17h657cf33789d03f81E
ffffff804000c9f8 T _ZN4core9panicking13assert_failed17h46f1cea83f930c18E
ffffff804000ca10 T _ZN4core9panicking13assert_failed17h768ce4d7e0953562E
ffffff804000ca28 T _ZN84_$LT$core..panicking..assert_matches_failed..Pattern$u20$as$u20$core..fmt..Debug$GT$3fmt17h74bf7bf6e2e0605eE
ffffff804000ca3c T _ZN4core9panicking19assert_failed_inner17hdb9c8f84f9ea8531E
ffffff804000cb14 T _ZN4core3fmt8builders10PadAdapter4wrap17h50885db82c9f88f7E
ffffff804000cb38 T _ZN68_$LT$core..fmt..builders..PadAdapter$u20$as$u20$core..fmt..Write$GT$9write_str17h22ca319d2343f4acE
ffffff804000cd78 T _ZN68_$LT$core..fmt..builders..PadAdapter$u20$as$u20$core..fmt..Write$GT$10write_char17hcb04688851cb98c5E
ffffff804000cdf4 t _ZN4core3fmt8builders16debug_struct_new17h666e7ba837851247E
ffffff804000ce28 T _ZN4core3fmt8builders11DebugStruct5field17h8a14a4dd926482dfE
ffffff804000cfc8 T _ZN4core3fmt8builders11DebugStruct21finish_non_exhaustive17hdbff2074ea2292f6E
ffffff804000d090 T _ZN4core3fmt8builders11DebugStruct6finish17hcc86ada6628e1cafE
ffffff804000d100 t _ZN4core3fmt8builders15debug_tuple_new17hc9f18362f165ff39E
ffffff804000d140 T _ZN4core3fmt8builders10DebugTuple5field17h199f93469c87dd5fE
ffffff804000d274 T _ZN4core3fmt8builders10DebugTuple21finish_non_exhaustive17h1b848e97f73d8e07E
ffffff804000d338 T _ZN4core3fmt8builders10DebugTuple6finish17h2702cd4bba7b55aaE
ffffff804000d3e4 t _ZN4core3fmt8builders13debug_set_new17h0461636c3d2f9f03E
ffffff804000d424 T _ZN4core3fmt8builders8DebugSet5entry17ha891ebb7da89e20fE
ffffff804000d424 T _ZN4core3fmt8builders9DebugList5entry17h3cd7fff78148db51E
ffffff804000d554 T _ZN4core3fmt8builders8DebugSet21finish_non_exhaustive17hd603c2bacac1a465E
ffffff804000d61c T _ZN4core3fmt8builders8DebugSet6finish17h5464d3cb5ba9238bE
ffffff804000d664 t _ZN4core3fmt8builders14debug_list_new17he87d2e63d2d6ccbfE
ffffff804000d6a4 t _ZN4core3fmt8builders9DebugList7entries17h3ed761a99ecd8891E
ffffff804000d9e8 T _ZN4core3fmt8builders9DebugList21finish_non_exhaustive17hff5228b533ba2887E
ffffff804000dac0 T _ZN4core3fmt8builders9DebugList6finish17ha6baf03a4b7c7b68E
ffffff804000db08 t _ZN4core3fmt8builders13debug_map_new17h12757691df567124E
ffffff804000db50 T _ZN4core3fmt8builders8DebugMap5entry17h7d1362b4807967a6E
ffffff804000dc5c T _ZN4core3fmt8builders8DebugMap3key17hca68a1af55f3c1d6E
ffffff804000dde4 T _ZN4core3fmt8builders8DebugMap5value17hc4545b2a0e9b505cE
ffffff804000dee0 T _ZN4core3fmt8builders8DebugMap21finish_non_exhaustive17hc240b01cfd9d9f57E
ffffff804000dfdc T _ZN4core3fmt8builders8DebugMap6finish17h43a1e3a95a92d7adE
ffffff804000e064 t _ZN4core3fmt5Write9write_fmt17h1f582aba9651b543E.llvm.9535741174144106586
ffffff804000e074 T _ZN4core7unicode12unicode_data14case_ignorable6lookup17h21b3f7f4986737dcE
ffffff804000e180 T _ZN4core7unicode12unicode_data9uppercase6lookup17h79ebc9697a3d18a1E
ffffff804000e28c t OUTLINED_FUNCTION_0
ffffff804000e29c t OUTLINED_FUNCTION_1
ffffff804000e2ac t _ZN4core3num7dec2flt5float8RawFloat14integer_decode17h3e20c8f8c6447f5eE
ffffff804000e2e8 t _ZN4core3num7dec2flt5float8RawFloat14integer_decode17h48bea39342c0f7d1E
ffffff804000e320 t _ZN4core3num7dec2flt5float8RawFloat14integer_decode17h949c00ac4661e74aE
ffffff804000e358 T _ZN59_$LT$f32$u20$as$u20$core..num..dec2flt..float..RawFloat$GT$15pow10_fast_path17h53a94b8c22acf431E
ffffff804000e36c T _ZN59_$LT$f64$u20$as$u20$core..num..dec2flt..float..RawFloat$GT$15pow10_fast_path17hd3ae68b7a9526cbdE
ffffff804000e380 t _ZN4core3net6parser6Parser10parse_with17h17032b98767c4585E
ffffff804000e508 t _ZN4core3net6parser6Parser10parse_with17h22b2da6fbae262a6E
ffffff804000e5cc t _ZN4core3net6parser6Parser10parse_with17h805d95fc9601f9e4E
ffffff804000e640 t _ZN4core3net6parser6Parser10parse_with17ha2525e0fecca0487E
ffffff804000e6a0 t _ZN4core3net6parser6Parser10parse_with17hccc2f511ee6a66daE
ffffff804000e728 t _ZN4core3net6parser6Parser10parse_with17hdb7af2b7194e1494E
ffffff804000e83c t _ZN4core3net6parser6Parser11read_number28_$u7b$$u7b$closure$u7d$$u7d$17hac98ce3dbcde4e83E.llvm.12082781206272058333
ffffff804000eae0 t _ZN4core3net6parser6Parser14read_ipv4_addr17hdc99dd2a89d4f766E.llvm.12082781206272058333
ffffff804000ee6c t _ZN4core3net6parser6Parser14read_ipv6_addr17h9b9c93a942962652E.llvm.12082781206272058333
ffffff804000efb8 t _ZN4core3net6parser6Parser14read_ipv6_addr11read_groups17h4045fffb3c9bbcf9E
ffffff804000f1a4 t _ZN4core3net6parser6Parser19read_socket_addr_v617h04ea949c847fb5deE.llvm.12082781206272058333
ffffff804000f348 T _ZN72_$LT$core..net..parser..AddrParseError$u20$as$u20$core..fmt..Display$GT$3fmt17h46ffe759e6dbe5c5E
ffffff804000f370 T _ZN4core5slice5index26slice_start_index_len_fail17h86db15f94a8e7e41E
ffffff804000f374 T _ZN4core5slice5index24slice_end_index_len_fail17h9d00026779f8716bE
ffffff804000f378 T _ZN4core5slice5index22slice_index_order_fail17ha168841c5fc36d3fE
ffffff804000f37c T _ZN4core5slice5index31slice_start_index_overflow_fail17h0ca347f4d7337818E
ffffff804000f3a4 T _ZN4core5slice5index29slice_end_index_overflow_fail17h62401f1eddd47d9bE
ffffff804000f3cc T _ZN4core5slice5index10into_range17h9e38d3c980bcd73bE
ffffff804000f438 T _ZN4core5slice5index16into_slice_range17h6fd0ba88522e4434E
ffffff804000f4a4 T _ZN4core5alloc6layout6Layout19is_size_align_valid17h4ff086ba1ec73883E
ffffff804000f4c4 T _ZN71_$LT$core..alloc..layout..LayoutError$u20$as$u20$core..fmt..Display$GT$3fmt17h1a8ce3166f5d54d8E
ffffff804000f4e0 T _ZN4core5slice5index26slice_start_index_len_fail8do_panic7runtime17hdea4ae5d6a4641b3E
ffffff804000f524 T _ZN4core5slice5index24slice_end_index_len_fail8do_panic7runtime17hd2872feea209fffcE
ffffff804000f568 T _ZN4core5slice5index22slice_index_order_fail8do_panic7runtime17h8c473f04fe1ecc97E
ffffff804000f5ac T _ZN4core7unicode12unicode_data2cc6lookup17h4348b98a2aea57e4E
ffffff804000f5c4 T _ZN56_$LT$core..bstr..ByteStr$u20$as$u20$core..fmt..Debug$GT$3fmt17h5a0255b64d742f77E
ffffff804000f858 T _ZN58_$LT$core..bstr..ByteStr$u20$as$u20$core..fmt..Display$GT$3fmt17h848aec68bdcae04dE
ffffff804000fc78 t _ZN4core4char7methods22_$LT$impl$u20$char$GT$16escape_debug_ext17hbef043a268e6433aE
ffffff804000ff1c t _ZN62_$LT$core..char..EscapeDebug$u20$as$u20$core..fmt..Display$GT$3fmt17h6f0b9aa6e114bec4E
ffffff804000ff58 t _ZN106_$LT$core..iter..adapters..chain..Chain$LT$A$C$B$GT$$u20$as$u20$core..iter..traits..iterator..Iterator$GT$8try_fold17hcd7331fcbcf7029aE
ffffff804001030c T _ZN4core6result13unwrap_failed17ha5edf4a45cc98780E
ffffff8040010360 t _ZN4core5slice29_$LT$impl$u20$$u5b$T$u5d$$GT$9ends_with17h4a7d22a14790fed2E
ffffff8040010394 T _ZN4core5slice29_$LT$impl$u20$$u5b$T$u5d$$GT$15copy_from_slice17len_mismatch_fail17h85c106a98b0a78d7E
ffffff80400103a4 T _ZN4core5slice29_$LT$impl$u20$$u5b$T$u5d$$GT$16align_to_offsets3gcd17h1cdf76e869cc522eE
ffffff80400103c8 t _ZN4core5slice29_$LT$impl$u20$$u5b$T$u5d$$GT$8align_to17hb17d93fe371a7a14E
ffffff8040010418 t _ZN4core5slice29_$LT$impl$u20$$u5b$T$u5d$$GT$8align_to17hf794860e97ae2149E
ffffff8040010468 t _ZN4core5slice29_$LT$impl$u20$$u5b$T$u5d$$GT$14subslice_range17h5a7a9f5ce7805d67E
ffffff8040010494 T _ZN71_$LT$core..slice..GetDisjointMutError$u20$as$u20$core..fmt..Display$GT$3fmt17hebf79495d5501356E
ffffff80400104c8 T _ZN60_$LT$core..str..lossy..Debug$u20$as$u20$core..fmt..Debug$GT$3fmt17h4646d731bdd411f2E
ffffff804001082c T _ZN87_$LT$core..str..lossy..Utf8Chunks$u20$as$u20$core..iter..traits..iterator..Iterator$GT$4next17h5ec81f90650245deE
ffffff80400109ec T _ZN65_$LT$core..str..lossy..Utf8Chunks$u20$as$u20$core..fmt..Debug$GT$3fmt17hc8aa98511863f90cE
ffffff8040010ab4 t _ZN4core6escape12escape_ascii17h15ff11d365dca452E
ffffff8040010b40 t _ZN4core6escape12escape_ascii17h723af64bfb512990E
ffffff8040010bbc t _ZN4core6escape14escape_unicode17h143b4c7fb3fa5a81E
ffffff8040010c78 t _ZN4core6escape35EscapeIterInner$LT$_$C$ESCAPING$GT$9backslash17h4e5050821af83998E
ffffff8040010c78 t _ZN4core6escape35EscapeIterInner$LT$_$C$ESCAPING$GT$9backslash17h6437ad969ef93a1cE
ffffff8040010c94 t _ZN4core6escape54EscapeIterInner$LT$_$C$core..escape..AlwaysEscaped$GT$4next17h0f367a9631d9ec86E
ffffff8040010cbc t _ZN4core6escape54EscapeIterInner$LT$_$C$core..escape..AlwaysEscaped$GT$4next17h65e1f72f20a9c818E
ffffff8040010ce4 t _ZN4core6escape54EscapeIterInner$LT$_$C$core..escape..AlwaysEscaped$GT$9next_back17hf6faa93e65aa3012E
ffffff8040010d10 t _ZN4core6escape53EscapeIterInner$LT$_$C$core..escape..MaybeEscaped$GT$4next17hde2b2767ed5d3bf7E
ffffff8040010d48 t _ZN107_$LT$core..escape..EscapeIterInner$LT$_$C$core..escape..AlwaysEscaped$GT$$u20$as$u20$core..fmt..Display$GT$3fmt17h4b556df9ea2e17faE
ffffff8040010d68 t _ZN107_$LT$core..escape..EscapeIterInner$LT$_$C$core..escape..AlwaysEscaped$GT$$u20$as$u20$core..fmt..Display$GT$3fmt17hbb395cd0ab059eb0E
ffffff8040010d88 t _ZN106_$LT$core..escape..EscapeIterInner$LT$_$C$core..escape..MaybeEscaped$GT$$u20$as$u20$core..fmt..Display$GT$3fmt17h8d96383ffc600edcE
ffffff8040010dc4 T _ZN4core5slice29_$LT$impl$u20$$u5b$T$u5d$$GT$15copy_from_slice17len_mismatch_fail8do_panic7runtime17h9ad9d7aa817d46e5E
ffffff8040010e0c T _ZN4core3num7dec2flt11decimal_seq10DecimalSeq4trim17h7f9da5f4c5864e59E
ffffff8040010e54 T _ZN4core3num7dec2flt11decimal_seq10DecimalSeq5round17he08a71ae7c95a1f4E
ffffff8040010f08 T _ZN4core3num7dec2flt11decimal_seq10DecimalSeq10left_shift17h68a7ca9bf09b460cE
ffffff80400110f0 T _ZN4core3num7dec2flt11decimal_seq10DecimalSeq11right_shift17h228a77cae18a0421E
ffffff80400112a4 T _ZN4core3num7dec2flt11decimal_seq17parse_decimal_seq17h543e25aa22c0d163E
ffffff804001167c t _ZN4core3num7flt2dec7decoder6decode17h1854ac834a8762ecE
ffffff8040011734 t _ZN4core3num7flt2dec7decoder6decode17h9186d83d83f3ce15E
ffffff80400117f0 t _ZN4core3num7flt2dec7decoder6decode17hd084cbca188f7d15E
ffffff80400118a8 T _ZN4core3num7flt2dec9estimator23estimate_scaling_factor17h4901460f6100b131E
ffffff80400118d8 T _ZN4core3num3fmt4Part5write17h38a662ce9ac3e2abE
ffffff8040011a60 T _ZN4core3num3fmt9Formatted3len17hacaa76698ec42fc6E
ffffff8040011af4 T _ZN4core3num3fmt9Formatted5write17h00f9d02bc3ee6229E
ffffff8040011bac T _ZN4core3num14overflow_panic3add17h4cad421fb67e1ac8E
ffffff8040011bd4 T _ZN4core3num14overflow_panic3sub17he4a677b66d95553cE
ffffff8040011bfc T _ZN4core3num14overflow_panic3mul17hc9008357163c9198E
ffffff8040011c24 T _ZN4core3num14overflow_panic3div17hfc71eee2886067dfE
ffffff8040011c4c T _ZN4core3num14overflow_panic3rem17h939db18355a6fe5dE
ffffff8040011c74 T _ZN4core3num14overflow_panic3neg17hc5078a7725dc1ce1E
ffffff8040011c9c T _ZN4core3num14overflow_panic3shr17h6a4bc7ac109560daE
ffffff8040011cc4 T _ZN4core3num14overflow_panic3shl17hfdbc335fce9a3e01E
ffffff8040011cec T _ZN4core5slice6memchr14memchr_aligned17he15f97ebf0f824e7E
ffffff8040011dc8 T _ZN4core5slice6memchr7memrchr17h5e3168944bfe646fE
ffffff8040011ee8 T _ZN4core3str8converts9from_utf817h5ac9b2df5dec0c7aE
ffffff8040012158 T _ZN4core3str8converts13from_utf8_mut17ha33caf9c4fdbaa25E
ffffff80400123c8 t _ZN4core7unicode9printable5check17h508e0475ef335644E.llvm.2700645320598124178
ffffff80400124c0 T _ZN4core7unicode9printable12is_printable17h4f5fff11e5c4085cE
ffffff8040012764 t _ZN129_$LT$$u5b$core..mem..maybe_uninit..MaybeUninit$LT$T$GT$$u3b$$u20$N$u5d$$u20$as$u20$core..array..iter..iter_inner..PartialDrop$GT$12partial_drop17h02cdf0f7f0041f7cE
ffffff8040012768 t _ZN129_$LT$$u5b$core..mem..maybe_uninit..MaybeUninit$LT$T$GT$$u3b$$u20$N$u5d$$u20$as$u20$core..array..iter..iter_inner..PartialDrop$GT$12partial_drop17h5fe9e627d56e85fcE
ffffff804001276c t _ZN129_$LT$$u5b$core..mem..maybe_uninit..MaybeUninit$LT$T$GT$$u3b$$u20$N$u5d$$u20$as$u20$core..array..iter..iter_inner..PartialDrop$GT$12partial_drop17ha2a4933ddf422d7eE
ffffff8040012770 t _ZN4core4char7methods22_$LT$impl$u20$char$GT$16escape_debug_ext17hbef043a268e6433aE.llvm.12587994281302301180
ffffff8040012a18 t _ZN102_$LT$core..iter..adapters..map..Map$LT$I$C$F$GT$$u20$as$u20$core..iter..traits..iterator..Iterator$GT$8try_fold17h2778ea045146de11E
ffffff8040012d2c t _ZN102_$LT$core..iter..adapters..map..Map$LT$I$C$F$GT$$u20$as$u20$core..iter..traits..iterator..Iterator$GT$8try_fold17h56e4e0d21ac8470cE
ffffff8040012f20 t _ZN102_$LT$core..iter..adapters..map..Map$LT$I$C$F$GT$$u20$as$u20$core..iter..traits..iterator..Iterator$GT$8try_fold17hfe7339310af44225E
ffffff8040013218 t _ZN4core3fmt5float29float_to_decimal_common_exact17h5196a1e4ca1dea37E
ffffff8040013268 t _ZN4core3fmt5float29float_to_decimal_common_exact17he54209a85a888ddeE
ffffff80400132b8 t _ZN4core3fmt5float29float_to_decimal_common_exact17hfc4504063923dab2E
ffffff8040013308 t _ZN4core3fmt5float32float_to_decimal_common_shortest17h830c496342497a81E
ffffff8040013350 t _ZN4core3fmt5float32float_to_decimal_common_shortest17h8e6d2dcb140c1662E
ffffff8040013398 t _ZN4core3fmt5float32float_to_decimal_common_shortest17hbe055c8df1edd0c8E
ffffff80400133e0 t _ZN4core3fmt5float33float_to_exponential_common_exact17hecbb28dc3c11c467E
ffffff8040013438 t _ZN4core3fmt5float33float_to_exponential_common_exact17hf3957614cc791ab4E
ffffff8040013490 t _ZN4core3fmt5float33float_to_exponential_common_exact17hfe3b7bf1906d397dE
ffffff80400134e8 t _ZN4core3fmt5float36float_to_exponential_common_shortest17h144cf000de145978E
ffffff8040013534 t _ZN4core3fmt5float36float_to_exponential_common_shortest17h1f36c4f1ff743fe3E
ffffff8040013580 t _ZN4core3fmt5float36float_to_exponential_common_shortest17h7f9b4e7cd805e0deE
ffffff80400135cc T _ZN4core5slice4sort6stable5drift11sqrt_approx17h558f0ba28e80b3bcE
ffffff80400135f8 T _ZN4core5slice4sort6shared9smallsort22panic_on_ord_violation17hdc4679feae965c7dE
ffffff8040013624 T _ZN105_$LT$core..slice..ascii..EscapeAscii$u20$as$u20$core..iter..traits..double_ended..DoubleEndedIterator$GT$9next_back17hf1264f5f4b1df374E
ffffff8040013740 T _ZN70_$LT$core..slice..ascii..EscapeAscii$u20$as$u20$core..fmt..Display$GT$3fmt17he8511b7dc72635b1E
ffffff8040013978 T _ZN68_$LT$core..slice..ascii..EscapeAscii$u20$as$u20$core..fmt..Debug$GT$3fmt17hfb530a2fa9852b93E
ffffff80400139d4 T _ZN4core3str16slice_error_fail17h7154c41db02158b5E
ffffff80400139d8 T _ZN4core3str19slice_error_fail_ct17h71aee61b4615c815E
ffffff8040013a00 T _ZN4core3str19slice_error_fail_rt17h60c49733e803806eE
ffffff8040013d24 T _ZN4core3str21_$LT$impl$u20$str$GT$9from_utf817h3c6ff05745ecd81eE
ffffff8040013d28 T _ZN4core3str21_$LT$impl$u20$str$GT$13from_utf8_mut17h141b0fad350b896aE
ffffff8040013d2c T _ZN4core3str21_$LT$impl$u20$str$GT$18split_at_unchecked17hfc60d42027bda232E
ffffff8040013d40 T _ZN4core3str21_$LT$impl$u20$str$GT$22split_at_mut_unchecked17h7122f06cfcfd426eE
ffffff8040013d54 T _ZN4core3str21_$LT$impl$u20$str$GT$12escape_debug17h2395773b977b391cE
ffffff8040013e34 T _ZN4core3str21_$LT$impl$u20$str$GT$12substr_range17hfac884781e8c7b37E
ffffff8040013e60 T _ZN55_$LT$f32$u20$as$u20$core..fmt..float..GeneralFormat$GT$44already_rounded_value_should_use_exponential17hf316250211e896c2E
ffffff8040013ea0 T _ZN55_$LT$f64$u20$as$u20$core..fmt..float..GeneralFormat$GT$44already_rounded_value_should_use_exponential17hd8b94471a18f0898E
ffffff8040013ed4 T _ZN4core3fmt5float50_$LT$impl$u20$core..fmt..Debug$u20$for$u20$f32$GT$3fmt17hadf4d92c4bea5310E
ffffff8040013f4c T _ZN4core3fmt5float52_$LT$impl$u20$core..fmt..Display$u20$for$u20$f32$GT$3fmt17ha03d08d3d26b33c7E
ffffff8040013f78 T _ZN4core3fmt5float53_$LT$impl$u20$core..fmt..LowerExp$u20$for$u20$f32$GT$3fmt17hf2eda2f7adbeb497E
ffffff8040013fb0 T _ZN4core3fmt5float53_$LT$impl$u20$core..fmt..UpperExp$u20$for$u20$f32$GT$3fmt17h24568fb18b50098aE
ffffff8040013fe8 T _ZN4core3fmt5float50_$LT$impl$u20$core..fmt..Debug$u20$for$u20$f64$GT$3fmt17he2322868716b19cbE
ffffff8040014058 T _ZN4core3fmt5float52_$LT$impl$u20$core..fmt..Display$u20$for$u20$f64$GT$3fmt17h8edbc5828724134dE
ffffff8040014084 T _ZN4core3fmt5float53_$LT$impl$u20$core..fmt..LowerExp$u20$for$u20$f64$GT$3fmt17h047503b54519532aE
ffffff80400140bc T _ZN4core3fmt5float53_$LT$impl$u20$core..fmt..UpperExp$u20$for$u20$f64$GT$3fmt17ha0eebdd4018b8d8bE
ffffff80400140f4 T _ZN4core3fmt5float50_$LT$impl$u20$core..fmt..Debug$u20$for$u20$f16$GT$3fmt17hda5591ae50ec1670E
ffffff8040014178 T _ZN4core3fmt5float52_$LT$impl$u20$core..fmt..Display$u20$for$u20$f16$GT$3fmt17hdb2d0abfd32205baE
ffffff80400141a4 T _ZN4core3fmt5float53_$LT$impl$u20$core..fmt..LowerExp$u20$for$u20$f16$GT$3fmt17h37a1678a0d44adfdE
ffffff80400141dc T _ZN4core3fmt5float53_$LT$impl$u20$core..fmt..UpperExp$u20$for$u20$f16$GT$3fmt17h308d7ac393cbf229E
ffffff8040014214 T _ZN4core3num7flt2dec8round_up17hc8bbca3ee5ed0251E
ffffff80400142ec T _ZN4core3num7flt2dec17digits_to_dec_str17h01d8b23b61cede88E
ffffff8040014454 T _ZN4core3num7flt2dec17digits_to_exp_str17h486cbb420967978cE
ffffff80400145b0 t _ZN4core3num7flt2dec15to_shortest_str17h555c07a5f30f841bE
ffffff804001482c t _ZN4core3num7flt2dec15to_shortest_str17h58fdb8b6eb02018fE
ffffff8040014aa4 t _ZN4core3num7flt2dec15to_shortest_str17hec2bdada7773cbcaE
ffffff8040014d1c t _ZN4core3num7flt2dec19to_shortest_exp_str17hc0a8c4ea8a43dc46E
ffffff8040015020 t _ZN4core3num7flt2dec19to_shortest_exp_str17hcad3a7493b6d3e85E
ffffff8040015320 t _ZN4core3num7flt2dec19to_shortest_exp_str17hfc2a6e3997884ed6E
ffffff8040015628 t _ZN4core3num7flt2dec16to_exact_exp_str17h57514ef7820c7af6E
ffffff8040015950 t _ZN4core3num7flt2dec16to_exact_exp_str17h9e0da289289fc9ebE
ffffff8040015c80 t _ZN4core3num7flt2dec16to_exact_exp_str17hc466aa541e4f305cE
ffffff8040015fac t _ZN4core3num7flt2dec18to_exact_fixed_str17h6f1bd60e6b415be1E
ffffff80400162b0 t _ZN4core3num7flt2dec18to_exact_fixed_str17h80d0b73fde548f86E
ffffff80400165b0 t _ZN4core3num7flt2dec18to_exact_fixed_str17h96aefff28a9707aeE
ffffff80400168b0 t _ZN4core3ptr12align_offset17h960b72ca9778a584E
ffffff80400168c8 T _ZN57_$LT$core..error..Request$u20$as$u20$core..fmt..Debug$GT$3fmt17hcac7f3a4983e6d16E
ffffff8040016924 T _ZN78_$LT$core..error..Source$u20$as$u20$core..iter..traits..iterator..Iterator$GT$4next17hd4d99adc968a6d25E
ffffff8040016974 T _ZN54_$LT$core..ffi..c_void$u20$as$u20$core..fmt..Debug$GT$3fmt17h6c67eb1c2500be18E
ffffff8040016990 t _ZN4core3num7dec2flt4slow19parse_long_mantissa17h2273bb6c7a149cd3E
ffffff8040016cf8 t _ZN4core3num7dec2flt4slow19parse_long_mantissa17h48174b5936b8a6e0E
ffffff8040017060 t _ZN4core3num7dec2flt4slow19parse_long_mantissa17hfbe0f32c20a22765E
ffffff80400173cc T _ZN69_$LT$core..ffi..c_str..CStr$u20$as$u20$core..clone..CloneToUninit$GT$15clone_to_uninit17h6a592c59e705a45fE
ffffff80400173e0 T _ZN79_$LT$core..ffi..c_str..FromBytesUntilNulError$u20$as$u20$core..fmt..Display$GT$3fmt17hc659ea8a54487520E
ffffff80400173fc T _ZN59_$LT$core..ffi..c_str..CStr$u20$as$u20$core..fmt..Debug$GT$3fmt17h20705f0be599be7cE
ffffff8040017404 T _ZN78_$LT$core..ffi..c_str..FromBytesWithNulError$u20$as$u20$core..fmt..Display$GT$3fmt17h9dc78e60f04a0fe5E
ffffff80400174b0 T _ZN4core3ffi5c_str4CStr20from_bytes_until_nul17h73e6292bd3941929E
ffffff804001759c T _ZN4core3ffi5c_str4CStr19from_bytes_with_nul17h5438d949ac992a3fE
ffffff804001768c T _ZN4core3ffi5c_str4CStr6to_str17he88d6cc12f4cc3d6E
ffffff8040017694 t _ZN4core4iter8adapters3zip3zip17h135a18feb78a80ebE
ffffff80400176b8 t _ZN4core4iter8adapters3zip3zip17h16ad9713c7613b56E
ffffff80400176dc t _ZN4core4iter8adapters3zip3zip17h314d7c2d822d46b7E
ffffff8040017700 t _ZN4core4iter8adapters3zip3zip17hd2925620c9537c27E
ffffff8040017724 T _ZN4core3f3221_$LT$impl$u20$f32$GT$5clamp8do_panic7runtime17h848bada0845c6751E
ffffff804001776c T _ZN49_$LT$u8$u20$as$u20$core..num..bignum..FullOps$GT$12full_div_rem17h897132f688d83908E
ffffff804001779c T _ZN50_$LT$u16$u20$as$u20$core..num..bignum..FullOps$GT$12full_div_rem17he00172c7d7cd550bE
ffffff80400177c8 T _ZN50_$LT$u32$u20$as$u20$core..num..bignum..FullOps$GT$12full_div_rem17hbc1a469f0a730b28E
ffffff80400177f4 T _ZN4core3num6bignum8Big32x408from_u6417h99d3c137a4d4b23fE
ffffff804001784c T _ZN4core3num6bignum8Big32x406digits17h98eb9046cebdb4eaE
ffffff8040017870 T _ZN4core3num6bignum8Big32x407get_bit17hf9981f664163a5bcE
ffffff80400178a0 T _ZN4core3num6bignum8Big32x407is_zero17h9591aa5b839a92a3E
ffffff80400178e4 T _ZN4core3num6bignum8Big32x4010bit_length17hca6675591291d1daE
ffffff8040017958 T _ZN4core3num6bignum8Big32x403add17hab8563a08538636cE
ffffff80400179ec T _ZN4core3num6bignum8Big32x409add_small17h2342fb60658db485E
ffffff8040017dd0 T _ZN4core3num6bignum8Big32x403sub17h0a6408a4151ea77cE
ffffff8040017e58 T _ZN4core3num6bignum8Big32x409mul_small17he7f6f40128bf4f53E
ffffff8040017ed4 T _ZN4core3num6bignum8Big32x408mul_pow217h39833c6363b441a2E
ffffff80400180bc T _ZN4core3num6bignum8Big32x408mul_pow517hc0831bb302ea70e0E
ffffff804001823c T _ZN4core3num6bignum8Big32x4010mul_digits17ha72d9bb1083c480cE
ffffff80400182fc t _ZN4core3num6bignum8Big32x4010mul_digits9mul_inner17hfc2b8774fae1ec33E.llvm.16961051346025405127
ffffff804001847c T _ZN4core3num6bignum8Big32x4013div_rem_small17hfac5f7af6322691eE
ffffff80400184f8 T _ZN4core3num6bignum8Big32x407div_rem17h46dc765ef38b361fE
ffffff8040018728 T _ZN68_$LT$core..num..bignum..Big32x40$u20$as$u20$core..cmp..PartialEq$GT$2eq17ha5322e0c7795a85fE
ffffff8040018744 T _ZN69_$LT$core..num..bignum..Big32x40$u20$as$u20$core..cmp..PartialOrd$GT$11partial_cmp17h4c55c6a60e516b15E
ffffff80400187ac T _ZN62_$LT$core..num..bignum..Big32x40$u20$as$u20$core..cmp..Ord$GT$3cmp17h02f5e0a037e8ef39E
ffffff8040018814 T _ZN64_$LT$core..num..bignum..Big32x40$u20$as$u20$core..fmt..Debug$GT$3fmt17hd63c896e5e45c2f2E
ffffff804001895c T _ZN4core3num9diy_float2Fp3mul17hd42a9ea33f824538E
ffffff8040018974 T _ZN4core3num9diy_float2Fp9normalize17h9c076a49468d3eceE
ffffff8040018984 T _ZN4core3num9diy_float2Fp12normalize_to17h3e147f86eafe252cE
ffffff80400189f8 t _ZN4core4char7methods22_$LT$impl$u20$char$GT$16escape_debug_ext17hbef043a268e6433aE.llvm.2211076484550660129
ffffff8040018cb8 T _ZN4core6option13unwrap_failed17hc5d52cd5d1ca6f4dE
ffffff8040018ccc T _ZN4core6option13expect_failed17h064353ff3ad94a83E
ffffff8040018d08 T _ZN4core3fmt17FormattingOptions8get_fill17h3963c76bbdc79957E
ffffff8040018d14 T _ZN57_$LT$core..fmt..Arguments$u20$as$u20$core..fmt..Debug$GT$3fmt17h00dea12174f1a5f5E
ffffff8040018d24 T _ZN59_$LT$core..fmt..Arguments$u20$as$u20$core..fmt..Display$GT$3fmt17h3d22722b8bea339fE
ffffff8040018d34 T _ZN4core3fmt5write17h114ab8ef5543937bE
ffffff8040018f58 t _ZN4core3fmt11PostPadding5write17hc2ff9a9a821a9becE
ffffff8040018fb8 T _ZN4core3fmt9Formatter12pad_integral17h616895399b75156dE
ffffff8040019368 t _ZN4core3fmt9Formatter12pad_integral12write_prefix17heff8cfde5d20167dE
ffffff80400193ec T _ZN4core3fmt9Formatter3pad17h253474446564393aE
ffffff80400196fc t _ZN4core3fmt9Formatter7padding17h09259564a00d27a2E
ffffff80400197c8 t _ZN4core3fmt9Formatter19pad_formatted_parts17h45c7ad9234d3d449E
ffffff80400199f4 t _ZN4core3fmt9Formatter21write_formatted_parts17h4dffa495feaf2d47E.llvm.2211076484550660129
ffffff8040019c0c T _ZN4core3fmt9Formatter9write_str17h2bf72b0172d49762E
ffffff8040019c0c T _ZN57_$LT$core..fmt..Formatter$u20$as$u20$core..fmt..Write$GT$9write_str17h8346c8b2f8726654E
ffffff8040019c18 T _ZN4core3fmt9Formatter4fill17h522651c3fc94e261E
ffffff8040019c24 T _ZN4core3fmt9Formatter12debug_struct17hefffb098c4fe755fE
ffffff8040019c58 T _ZN4core3fmt9Formatter26debug_struct_field1_finish17h3ed13fe0a7c78dfaE
ffffff8040019d14 T _ZN4core3fmt9Formatter26debug_struct_field2_finish17ha8ac04792b091c6fE
ffffff8040019e04 T _ZN4core3fmt9Formatter26debug_struct_field3_finish17h99a8c72a2019a32cE
ffffff8040019f20 T _ZN4core3fmt9Formatter26debug_struct_field4_finish17h88e904f6ba792921E
ffffff804001a05c T _ZN4core3fmt9Formatter26debug_struct_field5_finish17hcd60a78d089d21adE
ffffff804001a1b4 T _ZN4core3fmt9Formatter26debug_struct_fields_finish17hee1594943d2f6596E
ffffff804001a2b0 T _ZN4core3fmt9Formatter11debug_tuple17h8f08ac0e4a2cc73eE
ffffff804001a2f0 T _ZN4core3fmt9Formatter25debug_tuple_field1_finish17h839b69cf1b6e88b4E
ffffff804001a44c T _ZN4core3fmt9Formatter25debug_tuple_field2_finish17hbfa7df3095e6d0beE
ffffff804001a618 T _ZN4core3fmt9Formatter25debug_tuple_field3_finish17hb963a7317a4a0525E
ffffff804001a890 T _ZN4core3fmt9Formatter25debug_tuple_field4_finish17hb55a933e129c4804E
ffffff804001aba8 T _ZN4core3fmt9Formatter25debug_tuple_field5_finish17h5744393e6cf2c91cE
ffffff804001af60 T _ZN4core3fmt9Formatter25debug_tuple_fields_finish17ha696ee2fc6b55ee1E
ffffff804001b1ec T _ZN4core3fmt9Formatter10debug_list17h4c9fec6d9d2c065cE
ffffff804001b22c T _ZN4core3fmt9Formatter9debug_set17hdcee679cf559f082E
ffffff804001b26c T _ZN4core3fmt9Formatter9debug_map17h7f5cc4eb527becfeE
ffffff804001b2b4 T _ZN57_$LT$core..fmt..Formatter$u20$as$u20$core..fmt..Write$GT$10write_char17hdd17279bf9996062E
ffffff804001b2c0 T _ZN55_$LT$core..fmt..Error$u20$as$u20$core..fmt..Display$GT$3fmt17h2ec712e70192ad67E
ffffff804001b2d4 T _ZN43_$LT$bool$u20$as$u20$core..fmt..Display$GT$3fmt17h3cb8e68e5de4d220E
ffffff804001b300 T _ZN40_$LT$str$u20$as$u20$core..fmt..Debug$GT$3fmt17h32338714c67a8015E
ffffff804001b658 T _ZN42_$LT$str$u20$as$u20$core..fmt..Display$GT$3fmt17ha1c715faa03492e4E
ffffff804001b66c T _ZN41_$LT$char$u20$as$u20$core..fmt..Debug$GT$3fmt17he9eb895a708eb207E
ffffff804001b74c T _ZN43_$LT$char$u20$as$u20$core..fmt..Display$GT$3fmt17h45a5a1fe7687cf74E
ffffff804001b85c T _ZN4core3fmt17pointer_fmt_inner17h524e90f7b05db1cbE
ffffff804001b918 t _ZN52_$LT$$BP$const$u20$T$u20$as$u20$core..fmt..Debug$GT$3fmt17h60a4a9172de315deE
ffffff804001b9d8 T _ZN62_$LT$core..task..wake..Context$u20$as$u20$core..fmt..Debug$GT$3fmt17h24b76d0fe6992a59E
ffffff804001ba98 T _ZN60_$LT$core..task..wake..Waker$u20$as$u20$core..fmt..Debug$GT$3fmt17hba09939b9a2f5610E
ffffff804001bb78 T _ZN65_$LT$core..task..wake..LocalWaker$u20$as$u20$core..fmt..Debug$GT$3fmt17hbaac8528bfca1ac4E
ffffff804001bc58 T _ZN62_$LT$core..alloc..AllocError$u20$as$u20$core..fmt..Display$GT$3fmt17hba5b83279069db1bE
ffffff804001bc74 t _ZN42_$LT$$RF$T$u20$as$u20$core..fmt..Debug$GT$3fmt17h34700e1b2845b42cE
ffffff804001bd50 t _ZN42_$LT$$RF$T$u20$as$u20$core..fmt..Debug$GT$3fmt17h353fa89abb75271bE
ffffff804001be30 t _ZN42_$LT$$RF$T$u20$as$u20$core..fmt..Debug$GT$3fmt17h60331f708c254c59E
ffffff804001bf0c t _ZN42_$LT$$RF$T$u20$as$u20$core..fmt..Debug$GT$3fmt17h6dfb2076df849d2dE
ffffff804001bf18 t _ZN42_$LT$$RF$T$u20$as$u20$core..fmt..Debug$GT$3fmt17h8bdf946303ee0cb9E
ffffff804001bf2c t _ZN44_$LT$$RF$T$u20$as$u20$core..fmt..Display$GT$3fmt17h5cf501da3e6660c0E
ffffff804001bf34 t _ZN44_$LT$$RF$T$u20$as$u20$core..fmt..Display$GT$3fmt17hfb38ba1f26980c15E
ffffff804001bf44 t _ZN45_$LT$$RF$T$u20$as$u20$core..fmt..LowerHex$GT$3fmt17hcac518eef27eb6d9E
ffffff804001bfc4 T _ZN72_$LT$core..num..error..TryFromIntError$u20$as$u20$core..fmt..Display$GT$3fmt17h12bd1444c41a27deE
ffffff804001bfd8 T _ZN70_$LT$core..num..error..ParseIntError$u20$as$u20$core..fmt..Display$GT$3fmt17h70bc609cab06e2e6E
ffffff804001c000 t _ZN4core4iter8adapters3zip27TrustedRandomAccessNoCoerce4size17h041595303f1b38ccE
ffffff804001c000 t _ZN4core4iter8adapters3zip27TrustedRandomAccessNoCoerce4size17h663be43e2f6a8013E
ffffff804001c010 t _ZN4core4iter8adapters3zip27TrustedRandomAccessNoCoerce4size17h7994c1833bc34c95E
ffffff804001c010 t _ZN4core4iter8adapters3zip27TrustedRandomAccessNoCoerce4size17h9de83eb319962ceaE
ffffff804001c020 t _ZN4core4iter8adapters3zip27TrustedRandomAccessNoCoerce4size17hb41def21281305e1E
ffffff804001c020 t _ZN4core4iter8adapters3zip27TrustedRandomAccessNoCoerce4size17hbdc3227361df58a7E
ffffff804001c02c t _ZN73_$LT$$u5b$A$u5d$$u20$as$u20$core..slice..cmp..SlicePartialEq$LT$B$GT$$GT$5equal17h116c0f0f96937487E
ffffff804001c060 t _ZN73_$LT$$u5b$A$u5d$$u20$as$u20$core..slice..cmp..SlicePartialEq$LT$B$GT$$GT$5equal17ha7202924f4f6abd2E
ffffff804001c094 T _ZN4core3fmt3num3imp51_$LT$impl$u20$core..fmt..Display$u20$for$u20$u8$GT$3fmt17h4d01e668ba03144cE
ffffff804001c12c T _ZN4core3fmt3num3imp51_$LT$impl$u20$core..fmt..Display$u20$for$u20$i8$GT$3fmt17h0b1bd34c35a773b6E
ffffff804001c1e0 T _ZN4core3fmt3num3imp20_$LT$impl$u20$u8$GT$4_fmt17h50de2d47643699e4E
ffffff804001c264 T _ZN4core3fmt3num3imp52_$LT$impl$u20$core..fmt..Display$u20$for$u20$u16$GT$3fmt17h9d9d1ca40354513dE
ffffff804001c358 T _ZN4core3fmt3num3imp52_$LT$impl$u20$core..fmt..Display$u20$for$u20$i16$GT$3fmt17h9a36e56bb37e5445E
ffffff804001c464 T _ZN4core3fmt3num3imp21_$LT$impl$u20$u16$GT$4_fmt17h6e9e8cf5a1dabf1aE
ffffff804001c560 T _ZN4core3fmt3num3imp52_$LT$impl$u20$core..fmt..Display$u20$for$u20$u32$GT$3fmt17h6788fbbafdf8e926E
ffffff804001c688 T _ZN4core3fmt3num3imp52_$LT$impl$u20$core..fmt..Display$u20$for$u20$i32$GT$3fmt17h3a0d149787c224ddE
ffffff804001c7b8 T _ZN4core3fmt3num3imp21_$LT$impl$u20$u32$GT$4_fmt17hd0d0b9ea30b0422dE
ffffff804001c8b0 T _ZN4core3fmt3num3imp52_$LT$impl$u20$core..fmt..Display$u20$for$u20$u64$GT$3fmt17h553c5e435505b64bE
ffffff804001c8b0 T _ZN4core3fmt3num3imp54_$LT$impl$u20$core..fmt..Display$u20$for$u20$usize$GT$3fmt17h158dd252b67cce1fE
ffffff804001c9e4 T _ZN4core3fmt3num3imp52_$LT$impl$u20$core..fmt..Display$u20$for$u20$i64$GT$3fmt17ha6fe2765a372bb21E
ffffff804001c9e4 T _ZN4core3fmt3num3imp54_$LT$impl$u20$core..fmt..Display$u20$for$u20$isize$GT$3fmt17hcfd794e802060bcdE
ffffff804001cb20 T _ZN4core3fmt3num3imp21_$LT$impl$u20$u64$GT$4_fmt17h72e36a4ee7b6c008E
ffffff804001cb20 T _ZN4core3fmt3num3imp23_$LT$impl$u20$usize$GT$4_fmt17h8aea4e61d7fb27bdE
ffffff804001cc20 t _ZN4core3fmt3num3imp7exp_u6417h092b81351d293711E
ffffff804001d08c T _ZN4core3fmt3num3imp52_$LT$impl$u20$core..fmt..LowerExp$u20$for$u20$i8$GT$3fmt17h7a4fa72d2bf5e5fcE
ffffff804001d0ac T _ZN4core3fmt3num3imp52_$LT$impl$u20$core..fmt..LowerExp$u20$for$u20$u8$GT$3fmt17h3738a46b8bb14742E
ffffff804001d0c0 T _ZN4core3fmt3num3imp53_$LT$impl$u20$core..fmt..LowerExp$u20$for$u20$i16$GT$3fmt17h400175320d07e36aE
ffffff804001d0e0 T _ZN4core3fmt3num3imp53_$LT$impl$u20$core..fmt..LowerExp$u20$for$u20$u16$GT$3fmt17h155c1b7bb209411bE
ffffff804001d0f4 T _ZN4core3fmt3num3imp53_$LT$impl$u20$core..fmt..LowerExp$u20$for$u20$i32$GT$3fmt17h48d91ec1a979091bE
ffffff804001d118 T _ZN4core3fmt3num3imp53_$LT$impl$u20$core..fmt..LowerExp$u20$for$u20$u32$GT$3fmt17hdd30970ff3a17e1eE
ffffff804001d12c T _ZN4core3fmt3num3imp53_$LT$impl$u20$core..fmt..LowerExp$u20$for$u20$i64$GT$3fmt17h220e8ceb215554d8E
ffffff804001d12c T _ZN4core3fmt3num3imp55_$LT$impl$u20$core..fmt..LowerExp$u20$for$u20$isize$GT$3fmt17hcdf1b07d20bb9e82E
ffffff804001d14c T _ZN4core3fmt3num3imp53_$LT$impl$u20$core..fmt..LowerExp$u20$for$u20$u64$GT$3fmt17h898fd0b94d7ed440E
ffffff804001d14c T _ZN4core3fmt3num3imp55_$LT$impl$u20$core..fmt..LowerExp$u20$for$u20$usize$GT$3fmt17h5aa18e3240bc4775E
ffffff804001d160 T _ZN4core3fmt3num3imp52_$LT$impl$u20$core..fmt..UpperExp$u20$for$u20$i8$GT$3fmt17h883fc271e36ed9ebE
ffffff804001d180 T _ZN4core3fmt3num3imp52_$LT$impl$u20$core..fmt..UpperExp$u20$for$u20$u8$GT$3fmt17hb795158c8d34452dE
ffffff804001d194 T _ZN4core3fmt3num3imp53_$LT$impl$u20$core..fmt..UpperExp$u20$for$u20$i16$GT$3fmt17h665561611a066fdcE
ffffff804001d1b4 T _ZN4core3fmt3num3imp53_$LT$impl$u20$core..fmt..UpperExp$u20$for$u20$u16$GT$3fmt17h935d9d7ac0fdad67E
ffffff804001d1c8 T _ZN4core3fmt3num3imp53_$LT$impl$u20$core..fmt..UpperExp$u20$for$u20$i32$GT$3fmt17hfaca68a372530a2cE
ffffff804001d1ec T _ZN4core3fmt3num3imp53_$LT$impl$u20$core..fmt..UpperExp$u20$for$u20$u32$GT$3fmt17h0faff6fca8331b35E
ffffff804001d200 T _ZN4core3fmt3num3imp53_$LT$impl$u20$core..fmt..UpperExp$u20$for$u20$i64$GT$3fmt17ha5ce517578a96d2bE
ffffff804001d200 T _ZN4core3fmt3num3imp55_$LT$impl$u20$core..fmt..UpperExp$u20$for$u20$isize$GT$3fmt17h29955b90bb3b1cb7E
ffffff804001d220 T _ZN4core3fmt3num3imp53_$LT$impl$u20$core..fmt..UpperExp$u20$for$u20$u64$GT$3fmt17h1ad35cc7a481e135E
ffffff804001d220 T _ZN4core3fmt3num3imp55_$LT$impl$u20$core..fmt..UpperExp$u20$for$u20$usize$GT$3fmt17h6823606ab5d36cfdE
ffffff804001d234 T _ZN4core7unicode12unicode_data11conversions8to_lower17he92838be676f3905E
ffffff804001d3b0 T _ZN4core7unicode12unicode_data11conversions8to_upper17h677fe5d9b6e80c9aE
ffffff804001d548 T _ZN4core3num7dec2flt5parse12parse_number17hacd65eb0af3fe058E
ffffff804001d97c t _ZN4core3num7dec2flt5parse13parse_inf_nan17h796837516e052093E
ffffff804001da24 t _ZN4core3num7dec2flt5parse13parse_inf_nan17ha3bdfe49e35ac5d5E
ffffff804001dacc t _ZN4core3num7dec2flt5parse13parse_inf_nan17hf27c0731f4a9e2a0E
ffffff804001db6c T _ZN68_$LT$core..ptr..alignment..Alignment$u20$as$u20$core..fmt..Debug$GT$3fmt17hbad9bfe074d4ccc7E
ffffff804001dbe0 T _ZN64_$LT$core..ops..range..RangeFull$u20$as$u20$core..fmt..Debug$GT$3fmt17h037db011f0b71187E
ffffff804001dbfc t _ZN71_$LT$core..ops..range..Range$LT$Idx$GT$$u20$as$u20$core..fmt..Debug$GT$3fmt17ha1dec9b2043551dcE
ffffff804001de0c T _ZN105_$LT$dyn$u20$core..any..Any$u2b$core..marker..Sync$u2b$core..marker..Send$u20$as$u20$core..fmt..Debug$GT$3fmt17hae2d4f5ccb1b5b96E
ffffff804001de0c T _ZN59_$LT$dyn$u20$core..any..Any$u20$as$u20$core..fmt..Debug$GT$3fmt17hfbf651bd1ddd40bdE
ffffff804001de0c T _ZN82_$LT$dyn$u20$core..any..Any$u2b$core..marker..Send$u20$as$u20$core..fmt..Debug$GT$3fmt17h9e77b0b3429d650eE
ffffff804001de68 T _ZN54_$LT$core..any..TypeId$u20$as$u20$core..fmt..Debug$GT$3fmt17h2dd098761572a257E
ffffff804001dec8 T _ZN72_$LT$core..io..borrowed_buf..BorrowedBuf$u20$as$u20$core..fmt..Debug$GT$3fmt17hc78c00a9b3dca239E
ffffff804001dfcc T _ZN68_$LT$core..panic..location..Location$u20$as$u20$core..fmt..Debug$GT$3fmt17h33c2cc4edcf8aeaaE
ffffff804001e0d4 T _ZN67_$LT$core..sync..atomic..AtomicBool$u20$as$u20$core..fmt..Debug$GT$3fmt17haa88d2c8df4dd6bdE
ffffff804001e100 T _ZN57_$LT$core..time..Duration$u20$as$u20$core..fmt..Debug$GT$3fmt17h222f14714698d2b6E
ffffff804001e1e4 t _ZN57_$LT$core..time..Duration$u20$as$u20$core..fmt..Debug$GT$3fmt11fmt_decimal17h06c2f77380fcbe6eE
ffffff804001e758 t _ZN57_$LT$core..time..Duration$u20$as$u20$core..fmt..Debug$GT$3fmt11fmt_decimal28_$u7b$$u7b$closure$u7d$$u7d$17ha1aa1834c9df0abcE
ffffff804001e970 T _ZN72_$LT$core..time..TryFromFloatSecsError$u20$as$u20$core..fmt..Display$GT$3fmt17h577b4e0b5002f2e7E
ffffff804001e9a4 t _ZN73_$LT$core..num..nonzero..NonZero$LT$T$GT$$u20$as$u20$core..fmt..Debug$GT$3fmt17h0155437aea59a464E
ffffff804001ea80 T _ZN72_$LT$core..num..niche_types..Nanoseconds$u20$as$u20$core..fmt..Debug$GT$3fmt17hc3a04e00f8868704E
ffffff804001eb60 T _ZN75_$LT$core..num..niche_types..NonZeroU8Inner$u20$as$u20$core..fmt..Debug$GT$3fmt17h2af5e298833bdc03E
ffffff804001ecb8 T _ZN76_$LT$core..num..niche_types..NonZeroU16Inner$u20$as$u20$core..fmt..Debug$GT$3fmt17h42c4f4f40fd920e3E
ffffff804001ed98 T _ZN76_$LT$core..num..niche_types..NonZeroU32Inner$u20$as$u20$core..fmt..Debug$GT$3fmt17h796d29ca0774b10aE
ffffff804001ee78 T _ZN76_$LT$core..num..niche_types..NonZeroU64Inner$u20$as$u20$core..fmt..Debug$GT$3fmt17h733d19f8487adb5fE
ffffff804001ef54 T _ZN77_$LT$core..num..niche_types..NonZeroU128Inner$u20$as$u20$core..fmt..Debug$GT$3fmt17h758d4a305a425cd0E
ffffff804001f094 T _ZN75_$LT$core..num..niche_types..NonZeroI8Inner$u20$as$u20$core..fmt..Debug$GT$3fmt17h226d62d209f9226aE
ffffff804001f1f8 T _ZN76_$LT$core..num..niche_types..NonZeroI16Inner$u20$as$u20$core..fmt..Debug$GT$3fmt17h1b1e9fede684d825E
ffffff804001f2d8 T _ZN76_$LT$core..num..niche_types..NonZeroI32Inner$u20$as$u20$core..fmt..Debug$GT$3fmt17h720c6970903f1112E
ffffff804001f3b8 T _ZN76_$LT$core..num..niche_types..NonZeroI64Inner$u20$as$u20$core..fmt..Debug$GT$3fmt17h5e6b4c0c20ba5f27E
ffffff804001f494 T _ZN77_$LT$core..num..niche_types..NonZeroI128Inner$u20$as$u20$core..fmt..Debug$GT$3fmt17hc43a76610b06c75cE
ffffff804001f5f4 T _ZN77_$LT$core..num..niche_types..NonZeroCharInner$u20$as$u20$core..fmt..Debug$GT$3fmt17h609a430036bea71dE
ffffff804001f610 T _ZN75_$LT$core..num..niche_types..UsizeNoHighBit$u20$as$u20$core..fmt..Debug$GT$3fmt17hee4cabd6425aebbfE
ffffff804001f6ec T _ZN78_$LT$core..num..niche_types..NonZeroUsizeInner$u20$as$u20$core..fmt..Debug$GT$3fmt17hd94317767bfbb506E
ffffff804001f7c8 T _ZN78_$LT$core..num..niche_types..NonZeroIsizeInner$u20$as$u20$core..fmt..Debug$GT$3fmt17h969e11e6be4903efE
ffffff804001f8a4 T _ZN74_$LT$core..num..niche_types..U32NotAllOnes$u20$as$u20$core..fmt..Debug$GT$3fmt17hf20c817c52a26647E
ffffff804001f984 T _ZN74_$LT$core..num..niche_types..I32NotAllOnes$u20$as$u20$core..fmt..Debug$GT$3fmt17h2bc0cce6f1e8ecfbE
ffffff804001fa64 T _ZN74_$LT$core..num..niche_types..U64NotAllOnes$u20$as$u20$core..fmt..Debug$GT$3fmt17h8b85f6821db95d21E
ffffff804001fb40 T _ZN74_$LT$core..num..niche_types..I64NotAllOnes$u20$as$u20$core..fmt..Debug$GT$3fmt17hf5138351ba452922E
ffffff804001fc1c T _ZN4core10intrinsics3mir11PtrMetadata19panic_cold_explicit17h26a08cdf06f19223E
ffffff804001fc1c T _ZN4core10intrinsics3mir11StorageDead19panic_cold_explicit17h363401a8a6a827ddE
ffffff804001fc1c T _ZN4core10intrinsics3mir11StorageLive19panic_cold_explicit17haf6907ddc4097be9E
ffffff804001fc1c T _ZN4core10intrinsics3mir11Unreachable19panic_cold_explicit17h160ad0a2f8114bdaE
ffffff804001fc1c T _ZN4core10intrinsics3mir11__debuginfo19panic_cold_explicit17hd4e575ebf635d506E
ffffff804001fc1c T _ZN4core10intrinsics3mir12CastPtrToPtr19panic_cold_explicit17h857c77b3389696f6E
ffffff804001fc1c T _ZN4core10intrinsics3mir12CopyForDeref19panic_cold_explicit17he1107df1528157a6E
ffffff804001fc1c T _ZN4core10intrinsics3mir12Discriminant19panic_cold_explicit17h192e910572b0f7c5E
ffffff804001fc1c T _ZN4core10intrinsics3mir12UnwindResume19panic_cold_explicit17h9e184d263830474eE
ffffff804001fc1c T _ZN4core10intrinsics3mir13CastTransmute19panic_cold_explicit17hb2740946246b130dE
ffffff804001fc1c T _ZN4core10intrinsics3mir13UnwindCleanup19panic_cold_explicit17hc6404869818636a4E
ffffff804001fc1c T _ZN4core10intrinsics3mir14UnwindContinue19panic_cold_explicit17h0b86e3d12b4734deE
ffffff804001fc1c T _ZN4core10intrinsics3mir15SetDiscriminant19panic_cold_explicit17h5fc1aa75fd31e776E
ffffff804001fc1c T _ZN4core10intrinsics3mir15UnwindTerminate19panic_cold_explicit17h6b281ac7cea0a8ebE
ffffff804001fc1c T _ZN4core10intrinsics3mir17UnwindUnreachable19panic_cold_explicit17h84118c894731a49fE
ffffff804001fc1c T _ZN4core10intrinsics3mir21__internal_make_place19panic_cold_explicit17hd40225f6d0f37d06E
ffffff804001fc1c T _ZN4core10intrinsics3mir3Len19panic_cold_explicit17h1073267e4abe8283E
ffffff804001fc1c T _ZN4core10intrinsics3mir4Call19panic_cold_explicit17h877ca23f11d53216E
ffffff804001fc1c T _ZN4core10intrinsics3mir4Drop19panic_cold_explicit17hb154997d5bd5624fE
ffffff804001fc1c T _ZN4core10intrinsics3mir4Goto19panic_cold_explicit17h0d5eaff12eb54a97E
ffffff804001fc1c T _ZN4core10intrinsics3mir4Move19panic_cold_explicit17h3ae8cf99ddb288ceE
ffffff804001fc1c T _ZN4core10intrinsics3mir5Field19panic_cold_explicit17ha85b89edbc61d8eeE
ffffff804001fc1c T _ZN4core10intrinsics3mir5Retag19panic_cold_explicit17he7abb5d84326e833E
ffffff804001fc1c T _ZN4core10intrinsics3mir6Assume19panic_cold_explicit17h16e8718ef6c20e0fE
ffffff804001fc1c T _ZN4core10intrinsics3mir6Deinit19panic_cold_explicit17h15ba6bd3824016b8E
ffffff804001fc1c T _ZN4core10intrinsics3mir6Offset19panic_cold_explicit17haeb02572d27dd4c5E
ffffff804001fc1c T _ZN4core10intrinsics3mir6Return19panic_cold_explicit17hb79129dca307bd9cE
ffffff804001fc1c T _ZN4core10intrinsics3mir6Static19panic_cold_explicit17h6903d48258f7b046E
ffffff804001fc1c T _ZN4core10intrinsics3mir7Checked19panic_cold_explicit17hc7d8aa67d69fca9cE
ffffff804001fc1c T _ZN4core10intrinsics3mir7Variant19panic_cold_explicit17hdbee0ee6931ee2f2E
ffffff804001fc1c T _ZN4core10intrinsics3mir8ReturnTo19panic_cold_explicit17h368961fa34f61588E
ffffff804001fc1c T _ZN4core10intrinsics3mir8TailCall19panic_cold_explicit17h5905fb6605e45cf3E
ffffff804001fc1c T _ZN4core10intrinsics3mir9StaticMut19panic_cold_explicit17h95229f7966d7e5a5E
ffffff804001fc20 T _ZN4core4char7methods15encode_utf8_raw8do_panic7runtime17ha91aa32f3d57805eE
ffffff804001fc84 T _ZN4core4char7methods16encode_utf16_raw8do_panic7runtime17h7ff2a84ff3899befE
ffffff804001fce8 T _ZN65_$LT$core..sync..atomic..AtomicI8$u20$as$u20$core..fmt..Debug$GT$3fmt17h5163423219dd00feE
ffffff804001fe64 T _ZN65_$LT$core..sync..atomic..AtomicU8$u20$as$u20$core..fmt..Debug$GT$3fmt17hf68d6ca5e5be8f1dE
ffffff804001ffc4 T _ZN66_$LT$core..sync..atomic..AtomicI16$u20$as$u20$core..fmt..Debug$GT$3fmt17h246f306fa93e37d7E
ffffff80400200a4 T _ZN66_$LT$core..sync..atomic..AtomicU16$u20$as$u20$core..fmt..Debug$GT$3fmt17hccc5444dec37b04cE
ffffff8040020184 T _ZN66_$LT$core..sync..atomic..AtomicI32$u20$as$u20$core..fmt..Debug$GT$3fmt17had325aec066069baE
ffffff8040020264 T _ZN66_$LT$core..sync..atomic..AtomicU32$u20$as$u20$core..fmt..Debug$GT$3fmt17hbb9d2cdd1bb694c3E
ffffff8040020344 T _ZN66_$LT$core..sync..atomic..AtomicI64$u20$as$u20$core..fmt..Debug$GT$3fmt17h075087a31a796590E
ffffff8040020420 T _ZN66_$LT$core..sync..atomic..AtomicU64$u20$as$u20$core..fmt..Debug$GT$3fmt17he2396edb892cb051E
ffffff80400204fc T _ZN68_$LT$core..sync..atomic..AtomicIsize$u20$as$u20$core..fmt..Debug$GT$3fmt17h8a036fb54ab02081E
ffffff80400205d8 T _ZN68_$LT$core..sync..atomic..AtomicUsize$u20$as$u20$core..fmt..Debug$GT$3fmt17ha0e84df31cecd15fE
ffffff80400206b4 t _ZN4core3fmt3num50_$LT$impl$u20$core..fmt..Debug$u20$for$u20$u32$GT$3fmt17haba0b8469ae0e33cE
ffffff804002078c t _ZN4core3fmt3num52_$LT$impl$u20$core..fmt..Debug$u20$for$u20$usize$GT$3fmt17hbd513074a51755d6E
ffffff8040020864 T _ZN4core7unicode12unicode_data1n6lookup17h7a9be4cb7a64f132E
ffffff8040020970 T _ZN74_$LT$core..num..dec2flt..ParseFloatError$u20$as$u20$core..fmt..Display$GT$3fmt17h0063cef957d9acdcE
ffffff80400209a4 T _ZN4core3num7flt2dec8strategy6dragon9mul_pow1017h691100edb6250c4bE
ffffff8040020e08 T _ZN4core3num7flt2dec8strategy6dragon15format_shortest17h84ff7c0f71c53b07E
ffffff8040021a14 T _ZN4core3num7flt2dec8strategy6dragon12format_exact17h92d297ce1f7c78a1E
ffffff80400224a8 T _ZN4core3num22from_ascii_radix_panic17ha2d3db79f5d81e54E
ffffff80400224ac T _ZN62_$LT$core..cell..BorrowError$u20$as$u20$core..fmt..Display$GT$3fmt17h7eeb59f8190d430fE
ffffff80400224c0 T _ZN65_$LT$core..cell..BorrowMutError$u20$as$u20$core..fmt..Display$GT$3fmt17ha59e5a43693dc3e6E
ffffff80400224d4 T _ZN4core4cell22panic_already_borrowed17h7eb2e3e1ab53ff77E
ffffff80400224d8 T _ZN4core4cell30panic_already_mutably_borrowed17h4f79c9db726ec9a0E
ffffff80400224dc T _ZN4core3str5count14do_count_chars17h4fe5d876a3eedcc2E
ffffff8040022ae0 T _ZN4core3str5count23char_count_general_case17h91873add76c5faf2E
ffffff8040022d94 T _ZN4core3num7dec2flt60_$LT$impl$u20$core..str..traits..FromStr$u20$for$u20$f16$GT$8from_str17h2d73e85774cfdcfaE
ffffff8040023010 T _ZN4core3num7dec2flt60_$LT$impl$u20$core..str..traits..FromStr$u20$for$u20$f32$GT$8from_str17h4364e38db9a97d1fE
ffffff804002325c T _ZN4core3num7dec2flt60_$LT$impl$u20$core..str..traits..FromStr$u20$for$u20$f64$GT$8from_str17h7625b40d210c322dE
ffffff8040023478 T _ZN4core3num22from_ascii_radix_panic8do_panic7runtime17h09d67a7ce0aa4df4E
ffffff80400234b4 T _ZN4core4cell22panic_already_borrowed8do_panic7runtime17h7b7aa447c2aa5171E
ffffff80400234f0 T _ZN4core4cell30panic_already_mutably_borrowed8do_panic7runtime17h76aabf48bb94fbcbE
ffffff804002352c T _ZN4core7unicode12unicode_data5cased6lookup17hd382de2ee42ab98cE
ffffff8040023620 t __floattitf
ffffff80400236cc t __divsf3
ffffff80400236d0 t __muldf3
ffffff80400236d4 t _ZN17compiler_builtins3int5bswap10__bswapsi217h84f2aef7a4d881d7E
ffffff80400236dc t _ZN17compiler_builtins3int5bswap10__bswapdi217h99ef8c42c15a87e5E
ffffff80400236e4 t _ZN17compiler_builtins3int5bswap10__bswapti217h9188708c05a34fccE
ffffff80400236f4 t __rust_i128_mulo
ffffff8040023800 t __rust_u128_mulo
ffffff8040023878 t __modsi3
ffffff80400238b0 t __ashlti3
ffffff80400238e4 t __umoddi3
ffffff8040023970 t _ZN17compiler_builtins4math9libm_math9rem_pio2f9rem_pio2f17hc18a424dcd1d71e2E
ffffff8040023a64 t _ZN17compiler_builtins4math9libm_math3exp3exp17hebda2856efb4d82cE
ffffff8040023cc8 t _ZN17compiler_builtins4math9libm_math5expm15expm117h65df63178f905412E
ffffff8040023f98 t _ZN17compiler_builtins4math9libm_math6expm1f6expm1f17h76bdaf8b27ba5d9bE
ffffff8040024258 t _ZN17compiler_builtins4math9libm_math6scalbn7scalbnf17hb6660f0aebc34ca9E
ffffff8040024320 t _ZN17compiler_builtins4math9libm_math6scalbn6scalbn17h872f287a0e9aa2a5E
ffffff80400243e0 t fmaf
ffffff80400243e8 t ceil
ffffff8040024454 t trunc
ffffff804002448c t fminimumf
ffffff80400244cc t fmaf128
ffffff8040024c68 t fminimumf128
ffffff8040024ce8 t fmodf128
ffffff8040024e74 t truncf128
ffffff8040024ef8 t atanf
ffffff8040024efc t erfc
ffffff8040024f00 t memmove
ffffff8040024f04 t _ZN17compiler_builtins5float3div3div17h53736b8a3123cce6E
ffffff8040025528 t _ZN17compiler_builtins5float3div8__divsf317h732e3963d3d4f5f7E
ffffff8040025730 t _ZN17compiler_builtins5float3div8__divdf317h6347564e31e7f5fbE
ffffff8040025968 t _ZN17compiler_builtins5float3add3add17he20c9e5f66b72b62E
ffffff8040025d58 t _ZN17compiler_builtins5float3add8__addsf317h8755a3bae4f40785E
ffffff8040025f8c t _ZN17compiler_builtins5float3add8__adddf317h3702a846dbed042cE
ffffff80400261c8 t __lttf2
ffffff8040026264 t __floatunsitf
ffffff80400262a4 t __fixdfsi
ffffff804002630c t __extendhfdf2
ffffff80400263c8 t __extenddftf2
ffffff80400264a0 t __trunctfsf2
ffffff8040026678 t __muloti4
ffffff8040026784 t __divsi3
ffffff8040026870 t __ashlsi3
ffffff80400268bc t _ZN17compiler_builtins3int14trailing_zeros8__ctzsi217hdf5c4135c88f1ba6E
ffffff8040026934 t _ZN17compiler_builtins3int14trailing_zeros8__ctzdi217hc5384ddd32d625d3E
ffffff80400269c0 t _ZN17compiler_builtins3int14trailing_zeros8__ctzti217h7cdd0abf6cadd09eE
ffffff8040026ae0 t _ZN17compiler_builtins3int4udiv9__udivsi317hb058fa9b4783ec07E
ffffff8040026b98 t _ZN17compiler_builtins3int4udiv9__umodsi317hc6508cad2d049823E
ffffff8040026c20 t _ZN17compiler_builtins3int4udiv12__udivmodsi417hf75544dfb7740d68E
ffffff8040026cf8 t _ZN17compiler_builtins3int4udiv9__udivdi317h71b0ad1ca19058f1E
ffffff8040026db8 t _ZN17compiler_builtins3int4udiv9__umoddi317h49859229bb4c55f0E
ffffff8040026e44 t _ZN17compiler_builtins3int4udiv12__udivmoddi417h6cfea43c7ebd5c85E
ffffff8040026f20 t _ZN17compiler_builtins3int4udiv9__udivti317h1c9b3c849a4eb06aE
ffffff8040026f40 t _ZN17compiler_builtins3int4udiv9__umodti317hd6f14e3ebdbe067bE
ffffff8040026f60 t _ZN17compiler_builtins3int4udiv12__udivmodti417h9247ae909d7bf7d9E
ffffff8040026f90 t _ZN17compiler_builtins4math9libm_math5exp2f5exp2f17hc84bee0825cb2a26E
ffffff80400270ec t _ZN17compiler_builtins4math9libm_math9fmin_fmax5fminf17h00791e939f860978E
ffffff80400270fc t _ZN17compiler_builtins4math9libm_math9fmin_fmax4fmin17h70300ce0d67b1bfcE
ffffff804002710c t _ZN17compiler_builtins4math9libm_math9fmin_fmax5fmaxf17h24657d6c91db5a57E
ffffff804002711c t _ZN17compiler_builtins4math9libm_math9fmin_fmax4fmax17h28599122ea88c8d0E
ffffff804002712c t _ZN17compiler_builtins4math9libm_math17fminimum_fmaximum8fminimum17hc2d0a6a9d82d173eE
ffffff804002716c t _ZN17compiler_builtins4math9libm_math17fminimum_fmaximum9fminimumf17h01ea9d4fc63a44c5E
ffffff80400271ac t _ZN17compiler_builtins4math9libm_math17fminimum_fmaximum9fmaximumf17hd39ab67cfd9c0306E
ffffff80400271ec t _ZN17compiler_builtins4math9libm_math17fminimum_fmaximum8fmaximum17h2a83bae2c25a8aadE
ffffff804002722c t rintf
ffffff8040027234 t fmod
ffffff8040027308 t erf
ffffff8040027458 t exp
ffffff804002745c t exp2
ffffff8040027460 t log1p
ffffff8040027464 t bcmp
ffffff8040027464 t memcmp
ffffff804002748c t _ZN17compiler_builtins5float6extend6extend17h2979e7667e56b125E
ffffff8040027520 t _ZN17compiler_builtins5float6extend6extend17h58a3351f3226dbe3E
ffffff80400275f0 t _ZN17compiler_builtins5float6extend6extend17hbb76665553f5d96cE
ffffff80400276bc t _ZN17compiler_builtins5float6extend6extend17hc61bac0f797d3a51E
ffffff8040027794 t _ZN17compiler_builtins5float6extend6extend17hffb484a253948087E
ffffff8040027850 t __gesf2
ffffff80400278ac t __ledf2
ffffff8040027914 t __floatdisf
ffffff804002796c t __fixunstfdi
ffffff80400279d4 t _ZN17compiler_builtins5float6extend13__extendsfdf217h96060697263c4e76E
ffffff8040027a68 t __rust_u128_addo
ffffff8040027a8c t __rust_u128_sub
ffffff8040027a98 t __multi3
ffffff8040027adc t __divmodsi4
ffffff8040027b34 t __divti3
ffffff8040027ba4 t __umodti3
ffffff8040027bc4 t _ZN17compiler_builtins4math9libm_math5expo25expo217h87ac1ba46c84e099E
ffffff8040027bf0 t _ZN17compiler_builtins4math9libm_math5k_tan5k_tan17h6666f95287e8b44aE.llvm.14252317341709278760
ffffff8040027db0 t _ZN17compiler_builtins4math9libm_math4asin4asin17had45448c0ea5256aE
ffffff8040027ffc t _ZN17compiler_builtins4math9libm_math5asinf5asinf17haf79f766c610c615E
ffffff804002816c t _ZN17compiler_builtins4math9libm_math5floor5floor17h2a690f9939bdbb1aE
ffffff80400281e4 t _ZN17compiler_builtins4math9libm_math5floor6floorf17h7a098e5171b2af04E
ffffff8040028258 t _ZN17compiler_builtins4math9libm_math4fmod5fmodf17ha22240a213e110bdE
ffffff8040028328 t _ZN17compiler_builtins4math9libm_math4fmod4fmod17hacdac50ede9f65cfE
ffffff80400283fc t _ZN17compiler_builtins4math9libm_math3tan3tan17hb43154999df44b0aE
ffffff80400285d8 t _ZN17compiler_builtins4math9libm_math5tanhf5tanhf17h74ea53345dfd3e8aE
ffffff80400286bc t _ZN17compiler_builtins4math9libm_math5trunc6truncf17h985b2d1d588fc327E
ffffff80400286f4 t _ZN17compiler_builtins4math9libm_math5trunc5trunc17hacaf3766a28886a1E
ffffff804002872c t fmodf16
ffffff804002882c t copysign
ffffff804002883c t round
ffffff804002888c t sqrt
ffffff8040028894 t atan2f
ffffff8040028898 t ldexpf
ffffff8040028960 t sinh
ffffff8040028a3c t _ZN84_$LT$compiler_builtins..int..big..u256$u20$as$u20$core..ops..bit..Shr$LT$u32$GT$$GT$3shr17h0a47860b14e122c9E
ffffff8040028b50 t _ZN17compiler_builtins3int3big71_$LT$impl$u20$compiler_builtins..int..traits..HInt$u20$for$u20$i128$GT$14zero_widen_mul17h46428579aebc9456E
ffffff8040028b50 t _ZN17compiler_builtins3int3big71_$LT$impl$u20$compiler_builtins..int..traits..HInt$u20$for$u20$u128$GT$14zero_widen_mul17h5843072d21128ec2E
ffffff8040028b50 t _ZN17compiler_builtins3int3big71_$LT$impl$u20$compiler_builtins..int..traits..HInt$u20$for$u20$u128$GT$9widen_mul17h1d822c5ad6458ee1E
ffffff8040028c48 t _ZN17compiler_builtins3int3big71_$LT$impl$u20$compiler_builtins..int..traits..HInt$u20$for$u20$i128$GT$9widen_mul17h2de9e96f79eb78aeE
ffffff8040028c4c t _ZN17compiler_builtins3int3big71_$LT$impl$u20$compiler_builtins..int..traits..HInt$u20$for$u20$i128$GT$8widen_hi17h968e99e095b4964dE
ffffff8040028c4c t _ZN17compiler_builtins3int3big71_$LT$impl$u20$compiler_builtins..int..traits..HInt$u20$for$u20$u128$GT$8widen_hi17hd29660f71270c88aE
ffffff8040028c50 t _ZN90_$LT$compiler_builtins..int..big..i256$u20$as$u20$compiler_builtins..int..traits..DInt$GT$2lo17h6d1477ccf2152a88E
ffffff8040028c50 t _ZN90_$LT$compiler_builtins..int..big..u256$u20$as$u20$compiler_builtins..int..traits..DInt$GT$2lo17h37245a3a3dc65135E
ffffff8040028c5c t _ZN90_$LT$compiler_builtins..int..big..i256$u20$as$u20$compiler_builtins..int..traits..DInt$GT$2hi17h32d936b3cdc29a74E
ffffff8040028c5c t _ZN90_$LT$compiler_builtins..int..big..u256$u20$as$u20$compiler_builtins..int..traits..DInt$GT$2hi17h25c6da58615392efE
ffffff8040028c68 t _ZN17compiler_builtins3int6traits4DInt5lo_hi17hf12a86d0040d4326E
ffffff8040028c7c t __floatuntitf
ffffff8040028d08 t __fixunssfdi
ffffff8040028d54 t __fixdfdi
ffffff8040028dbc t __fixtfti
ffffff8040028e74 t __powisf2
ffffff8040028ec0 t _ZN63_$LT$f16$u20$as$u20$compiler_builtins..float..traits..Float$GT$9normalize17h7c8523eb15492e02E
ffffff8040028ee8 t _ZN63_$LT$f32$u20$as$u20$compiler_builtins..float..traits..Float$GT$9normalize17h4fcf787bb5962737E
ffffff8040028f00 t _ZN63_$LT$f64$u20$as$u20$compiler_builtins..float..traits..Float$GT$9normalize17h1a4d61bfe599919fE
ffffff8040028f18 t _ZN64_$LT$f128$u20$as$u20$compiler_builtins..float..traits..Float$GT$9normalize17h48067090e1b85df5E
ffffff8040028f6c t __rust_i128_add
ffffff8040028f78 t _ZN84_$LT$compiler_builtins..int..big..i256$u20$as$u20$core..ops..bit..Shl$LT$u32$GT$$GT$3shl17h8665cbd12123d5e4E
ffffff8040028f78 t _ZN84_$LT$compiler_builtins..int..big..u256$u20$as$u20$core..ops..bit..Shl$LT$u32$GT$$GT$3shl17h8314479428f88185E
ffffff8040028f7c t __divdi3
ffffff8040028fb8 t __ashrdi3
ffffff8040028ff4 t __lshrdi3
ffffff8040029028 t _ZN17compiler_builtins4math9libm_math5coshf5coshf17hf4c3004a5f9429caE
ffffff80400290ec t _ZN17compiler_builtins4math9libm_math4erff5erfc217hf690299ef6ac7db1E.llvm.1263763283367994251
ffffff8040029448 t _ZN17compiler_builtins4math9libm_math4erff4erff17h871095e623ba94edE
ffffff80400295a0 t _ZN17compiler_builtins4math9libm_math4erff5erfcf17h8be75c60dd5c7551E
ffffff804002974c t _ZN17compiler_builtins4math9libm_math3log3log17h110cac99e7b39a9aE
ffffff80400298b0 t _ZN17compiler_builtins4math9libm_math3pow3pow17he94d02e3b7e92b70E
ffffff804002a0ec t _ZN17compiler_builtins4math9libm_math7tgammaf7tgammaf17h6e597ca5845eb755E
ffffff804002a104 t copysignf
ffffff804002a110 t floorf
ffffff804002a184 t cosf
ffffff804002a188 t exp2f
ffffff804002a2e4 t powf
ffffff804002a2e8 t memcpy
ffffff804002a448 t _ZN17compiler_builtins5float3mul3mul17h129245b6c350d782E
ffffff804002a914 t _ZN17compiler_builtins3int13leading_zeros14implementation21leading_zeros_default17h69db45231409ba0fE
ffffff804002a990 t _ZN17compiler_builtins3int13leading_zeros14implementation21leading_zeros_default17hc5ba4d25a970a1bbE
ffffff804002a9f8 t _ZN17compiler_builtins3int14trailing_zeros14implementation14trailing_zeros17h9d73fc44cdaa896cE
ffffff804002aa70 t _ZN17compiler_builtins3int14trailing_zeros14implementation14trailing_zeros17hba244f591bd8c2b6E
ffffff804002aafc t __gtsf2
ffffff804002ab58 t __nedf2
ffffff804002abc0 t __unordtf2
ffffff804002ac08 t __floatundidf
ffffff804002ac48 t __extendhftf2
ffffff804002ad18 t _ZN17compiler_builtins5float3mul8__mulsf317h814c18a93a441b19E
ffffff804002aec8 t _ZN17compiler_builtins5float3mul8__muldf317hdaef2b3d53d4e04fE
ffffff804002b074 t __subtf3
ffffff804002b08c t __trunctfhf2
ffffff804002b25c t __rust_i128_addo
ffffff804002b28c t __bswapti2
ffffff804002b29c t __divmodti4
ffffff804002b358 t __lshrsi3
ffffff804002b3a0 t _ZN17compiler_builtins4math9libm_math6atan2f6atan2f17h0cd011207d6d5e12E
ffffff804002b528 t _ZN17compiler_builtins4math9libm_math5atanf5atanf17h42072a447c4506e5E
ffffff804002b6e0 t fabsf16
ffffff804002b6f0 t fmaxf
ffffff804002b700 t fmaximumf
ffffff804002b740 t fminf128
ffffff804002b784 t cos
ffffff804002b788 t erff
ffffff804002b8e0 t hypot
ffffff804002b9fc t __floatunditf
ffffff804002ba50 t __floatdidf
ffffff804002baa8 t __fixunsdfdi
ffffff804002baf4 t __bswapsi2
ffffff804002bafc t __clzti2
ffffff804002bb00 t __ctzdi2
ffffff804002bb8c t _ZN17compiler_builtins4math9libm_math7support3big96_$LT$impl$u20$compiler_builtins..math..libm_math..support..int_traits..HInt$u20$for$u20$i128$GT$14zero_widen_mul17h3069a42f407e2856E
ffffff804002bb8c t _ZN17compiler_builtins4math9libm_math7support3big96_$LT$impl$u20$compiler_builtins..math..libm_math..support..int_traits..HInt$u20$for$u20$u128$GT$9widen_mul17hac8a7b51e381ca16E
ffffff804002bbd8 t _ZN17compiler_builtins4math9libm_math7support3big96_$LT$impl$u20$compiler_builtins..math..libm_math..support..int_traits..HInt$u20$for$u20$i128$GT$9widen_mul17h6e287f32f6df8f55E
ffffff804002bbdc t _ZN17compiler_builtins4math9libm_math7support3big96_$LT$impl$u20$compiler_builtins..math..libm_math..support..int_traits..HInt$u20$for$u20$i128$GT$8widen_hi17h7a19a3ffdcbce2a6E
ffffff804002bbdc t _ZN17compiler_builtins4math9libm_math7support3big96_$LT$impl$u20$compiler_builtins..math..libm_math..support..int_traits..HInt$u20$for$u20$u128$GT$8widen_hi17hde4713f7de8e47b7E
ffffff804002bbe0 t _ZN17compiler_builtins4math9libm_math7support10int_traits4DInt5lo_hi17h720977c459baa574E
ffffff804002bbec t _ZN17compiler_builtins4math9libm_math7k_expo27k_expo217h35bb331b15653948E
ffffff804002bc18 t _ZN17compiler_builtins4math9libm_math4atan4atan17he6b4fea661269811E
ffffff804002be1c t _ZN17compiler_builtins4math9libm_math8copysign9copysignf17hc4d65942276d3d56E
ffffff804002be28 t _ZN17compiler_builtins4math9libm_math8copysign8copysign17h8b46e3dbeec3cd81E
ffffff804002be38 t _ZN17compiler_builtins4math9libm_math4exp24exp217h7753461ab5f4f217E
ffffff804002c090 t _ZN105_$LT$compiler_builtins..math..libm_math..support..big..i256$u20$as$u20$core..ops..bit..Shl$LT$u32$GT$$GT$3shl17h604a916d9115c119E
ffffff804002c090 t _ZN105_$LT$compiler_builtins..math..libm_math..support..big..u256$u20$as$u20$core..ops..bit..Shl$LT$u32$GT$$GT$3shl17h31420f3828033361E
ffffff804002c094 t _ZN17compiler_builtins4math9libm_math7generic3fma13Norm$LT$F$GT$10from_float17hd39798fea0c166dcE
ffffff804002c124 t _ZN17compiler_builtins4math9libm_math7generic4fmod12into_sig_exp17h1a79c56131dce835E
ffffff804002c144 t _ZN17compiler_builtins4math9libm_math7generic4fmod12into_sig_exp17h211c8f334fff63ffE
ffffff804002c16c t _ZN17compiler_builtins4math9libm_math7generic4fmod12into_sig_exp17h95b2adb3325b0f10E
ffffff804002c188 t _ZN17compiler_builtins4math9libm_math7generic4fmod12into_sig_exp17hee272e38ea05f1fdE
ffffff804002c1a4 t _ZN17compiler_builtins4math9libm_math7generic4fmod9reduction17h26608d3170e26050E
ffffff804002c1d4 t _ZN17compiler_builtins4math9libm_math7generic4fmod9reduction17h69a2f0f33839a763E
ffffff804002c214 t _ZN17compiler_builtins4math9libm_math7generic4fmod9reduction17hb95edd11b82aeb78E
ffffff804002c244 t _ZN17compiler_builtins4math9libm_math7generic4fmod9reduction17hf0a44a1eeeec76eaE
ffffff804002c2a8 t copysignf16
ffffff804002c2c0 t floorf16
ffffff804002c344 t rintf16
ffffff804002c3c0 t roundf16
ffffff804002c418 t fdimf
ffffff804002c42c t fmax
ffffff804002c43c t ceilf128
ffffff804002c528 t copysignf128
ffffff804002c544 t floorf128
ffffff804002c654 t fmaxf128
ffffff804002c698 t rintf128
ffffff804002c698 t roundevenf128
ffffff804002c740 t roundf128
ffffff804002c7f0 t sqrtf128
ffffff804002ca1c t acosf
ffffff804002ca20 t asin
ffffff804002ca24 t expf
ffffff804002ca28 t logf
ffffff804002cb44 t sin
ffffff804002cb48 t tgammaf
ffffff804002cb60 t lgamma_r
ffffff804002cb78 t memset
ffffff804002cc84 t __adddf3
ffffff804002cc88 t __floatunsidf
ffffff804002ccc0 t __fixunsdfsi
ffffff804002cd0c t __fixunstfsi
ffffff804002cd70 t __fixtfdi
ffffff804002cdec t __mulsf3
ffffff804002cdf0 t __powitf2
ffffff804002cea4 t __gnu_f2h_ieee
ffffff804002cfac t __rust_u128_add
ffffff804002cfb8 t __clzsi2
ffffff804002d020 t __divmoddi4
ffffff804002d078 t __lshrti3
ffffff804002d0ac t __umodsi3
ffffff804002d134 t _ZN17compiler_builtins4math9libm_math3cos3cos17h84b80165545973b0E
ffffff804002d4c8 t _ZN17compiler_builtins4math9libm_math4cosh4cosh17hafb7b4e75885527aE
ffffff804002d58c t _ZN17compiler_builtins4math9libm_math8lgamma_r8lgamma_r17hd937b3cdd81c9bb1E
ffffff804002de44 t _ZN17compiler_builtins4math9libm_math5log2f5log2f17hd6ebe6e264070007E
ffffff804002df80 t _ZN17compiler_builtins4math9libm_math3sin3sin17h6b0aac1c610ba9ccE
ffffff804002e2e8 t _ZN17compiler_builtins4math9libm_math4sinf4sinf17hed5c34cae6640365E
ffffff804002e6bc t _ZN17compiler_builtins4math9libm_math6tgamma6tgamma17h4d6f95fda897aafdE
ffffff804002ed58 t fmaximumf16
ffffff804002edc4 t fmodf
ffffff804002ee94 t strlen
ffffff804002eec0 t __addtf3
ffffff804002eec4 t __lesf2
ffffff804002ef2c t __unorddf2
ffffff804002ef50 t __letf2
ffffff804002efec t __floatundisf
ffffff804002f030 t __floattisf
ffffff804002f0d4 t __fixdfti
ffffff804002f16c t _ZN17compiler_builtins3int19specialized_div_rem12u128_div_rem17h5c5716bc9d7876d1E
ffffff804002f46c t _ZN17compiler_builtins3int19specialized_div_rem11u64_div_rem17h71259008512001d6E
ffffff804002f544 t _ZN17compiler_builtins3int19specialized_div_rem11u32_div_rem17h87ebe292484306e0E
ffffff804002f618 t _ZN17compiler_builtins3int13leading_zeros8__clzsi217h08e66dd962dc5c3eE
ffffff804002f680 t _ZN17compiler_builtins3int13leading_zeros8__clzdi217hb4c74d9b283b4e09E
ffffff804002f6fc t _ZN17compiler_builtins3int13leading_zeros8__clzti217h58bc072bd8317df0E
ffffff804002f7fc t __ashrti3
ffffff804002f834 t __ctzsi2
ffffff804002f8ac t __udivmodsi4
ffffff804002f984 t _ZN96_$LT$T$u20$as$u20$compiler_builtins..math..libm_math..support..int_traits..CastFrom$LT$U$GT$$GT$9cast_from17h0810253e46e1b86bE
ffffff804002f984 t _ZN96_$LT$T$u20$as$u20$compiler_builtins..math..libm_math..support..int_traits..CastFrom$LT$U$GT$$GT$9cast_from17hbb7772d2af28c7f5E
ffffff804002f98c t _ZN96_$LT$T$u20$as$u20$compiler_builtins..math..libm_math..support..int_traits..CastFrom$LT$U$GT$$GT$9cast_from17h6d0158cec4aa197dE
ffffff804002f990 t _ZN96_$LT$T$u20$as$u20$compiler_builtins..math..libm_math..support..int_traits..CastFrom$LT$U$GT$$GT$9cast_from17h756202a3f10eced8E
ffffff804002f99c t _ZN96_$LT$T$u20$as$u20$compiler_builtins..math..libm_math..support..int_traits..CastFrom$LT$U$GT$$GT$9cast_from17h7975d3197aee2018E
ffffff804002f9b0 t _ZN96_$LT$T$u20$as$u20$compiler_builtins..math..libm_math..support..int_traits..CastFrom$LT$U$GT$$GT$9cast_from17ha6fbde77196a4628E
ffffff804002f9b4 t _ZN96_$LT$T$u20$as$u20$compiler_builtins..math..libm_math..support..int_traits..CastFrom$LT$U$GT$$GT$9cast_from17hd1e212ba3e2cfb83E
ffffff804002f9b8 t _ZN96_$LT$T$u20$as$u20$compiler_builtins..math..libm_math..support..int_traits..CastFrom$LT$U$GT$$GT$9cast_from17hdc616e7f70ba566cE
ffffff804002f9bc t _ZN96_$LT$T$u20$as$u20$compiler_builtins..math..libm_math..support..int_traits..CastFrom$LT$U$GT$$GT$9cast_from17hf399418e5a57a11eE
ffffff804002f9c4 t _ZN96_$LT$T$u20$as$u20$compiler_builtins..math..libm_math..support..int_traits..CastFrom$LT$U$GT$$GT$9cast_from17hf4b1aa60decd75c1E
ffffff804002f9c8 t _ZN96_$LT$T$u20$as$u20$compiler_builtins..math..libm_math..support..int_traits..CastFrom$LT$U$GT$$GT$15cast_from_lossy17h0b52e8940c0cd3daE
ffffff804002f9c8 t _ZN96_$LT$T$u20$as$u20$compiler_builtins..math..libm_math..support..int_traits..CastFrom$LT$U$GT$$GT$15cast_from_lossy17hbaee8cc4fbcee70bE
ffffff804002f9cc t _ZN96_$LT$T$u20$as$u20$compiler_builtins..math..libm_math..support..int_traits..CastFrom$LT$U$GT$$GT$15cast_from_lossy17h0f8800b88f253765E
ffffff804002f9d0 t _ZN96_$LT$T$u20$as$u20$compiler_builtins..math..libm_math..support..int_traits..CastFrom$LT$U$GT$$GT$15cast_from_lossy17h174e2b37d8b3e643E
ffffff804002f9e0 t _ZN96_$LT$T$u20$as$u20$compiler_builtins..math..libm_math..support..int_traits..CastFrom$LT$U$GT$$GT$15cast_from_lossy17h46c69efb540337b5E
ffffff804002f9e4 t _ZN96_$LT$T$u20$as$u20$compiler_builtins..math..libm_math..support..int_traits..CastFrom$LT$U$GT$$GT$15cast_from_lossy17h49e91b0a6d76df5aE
ffffff804002f9f0 t _ZN96_$LT$T$u20$as$u20$compiler_builtins..math..libm_math..support..int_traits..CastFrom$LT$U$GT$$GT$15cast_from_lossy17h8bab7d7df699727aE
ffffff804002f9f4 t _ZN96_$LT$T$u20$as$u20$compiler_builtins..math..libm_math..support..int_traits..CastFrom$LT$U$GT$$GT$15cast_from_lossy17h8d2bcace37d72dcaE
ffffff804002f9f8 t _ZN96_$LT$T$u20$as$u20$compiler_builtins..math..libm_math..support..int_traits..CastFrom$LT$U$GT$$GT$15cast_from_lossy17hab9e3f3acd083448E
ffffff804002f9fc t _ZN96_$LT$T$u20$as$u20$compiler_builtins..math..libm_math..support..int_traits..CastFrom$LT$U$GT$$GT$15cast_from_lossy17hb946e6815b6fbc6eE
ffffff804002fa00 t _ZN96_$LT$T$u20$as$u20$compiler_builtins..math..libm_math..support..int_traits..CastFrom$LT$U$GT$$GT$15cast_from_lossy17hd2825c36f1dfbb87E
ffffff804002fa08 t _ZN96_$LT$T$u20$as$u20$compiler_builtins..math..libm_math..support..int_traits..CastFrom$LT$U$GT$$GT$15cast_from_lossy17hd4dc2f2b6cb6f1a4E
ffffff804002fa10 t _ZN96_$LT$T$u20$as$u20$compiler_builtins..math..libm_math..support..int_traits..CastFrom$LT$U$GT$$GT$15cast_from_lossy17he66c66f2b85fa52cE
ffffff804002fa14 t _ZN96_$LT$T$u20$as$u20$compiler_builtins..math..libm_math..support..int_traits..CastFrom$LT$U$GT$$GT$15cast_from_lossy17hf00b6048ce3fec73E
ffffff804002fa18 t _ZN96_$LT$T$u20$as$u20$compiler_builtins..math..libm_math..support..int_traits..CastFrom$LT$U$GT$$GT$15cast_from_lossy17hfd06596eb9b8cc13E
ffffff804002fa1c t _ZN17compiler_builtins4math9libm_math5acosf5acosf17h0741245be20b45feE
ffffff804002fc44 t _ZN17compiler_builtins4math9libm_math5ldexp6ldexpf17h28ebb2c922e21728E
ffffff804002fd0c t _ZN17compiler_builtins4math9libm_math5ldexp5ldexp17hff5533596954be64E
ffffff804002fdcc t _ZN17compiler_builtins4math9libm_math5log105log1017hbc4167ce1a1ff2a0E
ffffff804002ff80 t _ZN17compiler_builtins4math9libm_math4sinh4sinh17h3fa6ac432bb94518E
ffffff804003005c t _ZN83_$LT$u8$u20$as$u20$compiler_builtins..math..libm_math..support..int_traits..Int$GT$12unsigned_abs17h67720ef7e08f4fb0E
ffffff804003005c t _ZN83_$LT$u8$u20$as$u20$compiler_builtins..math..libm_math..support..int_traits..Int$GT$3abs17h2ce1dc7afe3c23e3E
ffffff8040030060 t _ZN83_$LT$i8$u20$as$u20$compiler_builtins..math..libm_math..support..int_traits..Int$GT$3abs17h39c4d07c614f0593E
ffffff8040030070 t _ZN83_$LT$u8$u20$as$u20$compiler_builtins..math..libm_math..support..int_traits..Int$GT$11checked_add17h2e15bab5e9d763bcE
ffffff804003008c t _ZN83_$LT$u8$u20$as$u20$compiler_builtins..math..libm_math..support..int_traits..Int$GT$5ilog217h6276820081aab1a1E
ffffff80400300a8 t _ZN83_$LT$i8$u20$as$u20$compiler_builtins..math..libm_math..support..int_traits..Int$GT$11checked_add17h27f9c45414dda633E
ffffff80400300bc t _ZN83_$LT$i8$u20$as$u20$compiler_builtins..math..libm_math..support..int_traits..Int$GT$11checked_sub17hbef5cbe3f6fde19dE
ffffff80400300d0 t _ZN83_$LT$i8$u20$as$u20$compiler_builtins..math..libm_math..support..int_traits..Int$GT$11rotate_left17h8109e04e454804ccE
ffffff80400300d0 t _ZN83_$LT$u8$u20$as$u20$compiler_builtins..math..libm_math..support..int_traits..Int$GT$11rotate_left17hf46d0f800e68bbbeE
ffffff80400300f0 t _ZN83_$LT$i8$u20$as$u20$compiler_builtins..math..libm_math..support..int_traits..Int$GT$13leading_zeros17h950ca9e4ddadf9a8E
ffffff80400300f0 t _ZN83_$LT$u8$u20$as$u20$compiler_builtins..math..libm_math..support..int_traits..Int$GT$13leading_zeros17he9ca5b3307849af2E
ffffff8040030104 t _ZN83_$LT$i8$u20$as$u20$compiler_builtins..math..libm_math..support..int_traits..Int$GT$5ilog217hf5c6b6f73491c766E
ffffff8040030124 t _ZN84_$LT$u16$u20$as$u20$compiler_builtins..math..libm_math..support..int_traits..Int$GT$12unsigned_abs17hf821a1eedc732353E
ffffff8040030124 t _ZN84_$LT$u16$u20$as$u20$compiler_builtins..math..libm_math..support..int_traits..Int$GT$3abs17h44e55a1a199bce5bE
ffffff8040030128 t _ZN84_$LT$i16$u20$as$u20$compiler_builtins..math..libm_math..support..int_traits..Int$GT$3abs17hb8fd48d4000ecb94E
ffffff8040030138 t _ZN84_$LT$u16$u20$as$u20$compiler_builtins..math..libm_math..support..int_traits..Int$GT$11checked_add17hc2e9fb73919ef8b9E
ffffff8040030154 t _ZN84_$LT$u16$u20$as$u20$compiler_builtins..math..libm_math..support..int_traits..Int$GT$5ilog217haffd9d290751122eE
ffffff8040030170 t _ZN84_$LT$i16$u20$as$u20$compiler_builtins..math..libm_math..support..int_traits..Int$GT$11checked_add17hdee123eab9daddc5E
ffffff8040030184 t _ZN84_$LT$i16$u20$as$u20$compiler_builtins..math..libm_math..support..int_traits..Int$GT$11checked_sub17h640e9a2b18f1e506E
ffffff8040030198 t _ZN84_$LT$i16$u20$as$u20$compiler_builtins..math..libm_math..support..int_traits..Int$GT$11rotate_left17h82b8c15c224c9107E
ffffff8040030198 t _ZN84_$LT$u16$u20$as$u20$compiler_builtins..math..libm_math..support..int_traits..Int$GT$11rotate_left17h396c7efda15a78c2E
ffffff80400301b8 t _ZN84_$LT$i16$u20$as$u20$compiler_builtins..math..libm_math..support..int_traits..Int$GT$13leading_zeros17hd8e89a62b966d0baE
ffffff80400301b8 t _ZN84_$LT$u16$u20$as$u20$compiler_builtins..math..libm_math..support..int_traits..Int$GT$13leading_zeros17hd67e29f6dbaf0b62E
ffffff80400301cc t _ZN84_$LT$i16$u20$as$u20$compiler_builtins..math..libm_math..support..int_traits..Int$GT$5ilog217h9b3ff64896049841E
ffffff80400301ec t _ZN84_$LT$u32$u20$as$u20$compiler_builtins..math..libm_math..support..int_traits..Int$GT$12unsigned_abs17hc3708b815a5566d9E
ffffff80400301ec t _ZN84_$LT$u32$u20$as$u20$compiler_builtins..math..libm_math..support..int_traits..Int$GT$3abs17h6eff2fd9e62d3a10E
ffffff80400301f0 t _ZN84_$LT$i32$u20$as$u20$compiler_builtins..math..libm_math..support..int_traits..Int$GT$3abs17hccf742f6cbef6f73E
ffffff80400301fc t _ZN84_$LT$u32$u20$as$u20$compiler_builtins..math..libm_math..support..int_traits..Int$GT$11checked_add17h61d7ec14ed44043bE
ffffff8040030210 t _ZN84_$LT$u32$u20$as$u20$compiler_builtins..math..libm_math..support..int_traits..Int$GT$5ilog217h1203ac26b508ea95E
ffffff8040030224 t _ZN84_$LT$i32$u20$as$u20$compiler_builtins..math..libm_math..support..int_traits..Int$GT$11checked_add17h0df585e7ec6a589aE
ffffff8040030230 t _ZN84_$LT$i32$u20$as$u20$compiler_builtins..math..libm_math..support..int_traits..Int$GT$11checked_sub17h18ba7db7da85b2a6E
ffffff804003023c t _ZN84_$LT$i32$u20$as$u20$compiler_builtins..math..libm_math..support..int_traits..Int$GT$11rotate_left17h025b4acfc8fdbd6dE
ffffff804003023c t _ZN84_$LT$u32$u20$as$u20$compiler_builtins..math..libm_math..support..int_traits..Int$GT$11rotate_left17h35316f4973326ab2E
ffffff8040030248 t _ZN84_$LT$i32$u20$as$u20$compiler_builtins..math..libm_math..support..int_traits..Int$GT$13leading_zeros17h7f5adcb659be11baE
ffffff8040030248 t _ZN84_$LT$u32$u20$as$u20$compiler_builtins..math..libm_math..support..int_traits..Int$GT$13leading_zeros17hee08c9c820012449E
ffffff8040030250 t _ZN84_$LT$i32$u20$as$u20$compiler_builtins..math..libm_math..support..int_traits..Int$GT$5ilog217hb23db17e25a08e8cE
ffffff8040030268 t _ZN84_$LT$u64$u20$as$u20$compiler_builtins..math..libm_math..support..int_traits..Int$GT$12unsigned_abs17h1ec7a8b715a70e42E
ffffff8040030268 t _ZN84_$LT$u64$u20$as$u20$compiler_builtins..math..libm_math..support..int_traits..Int$GT$3abs17hf67cd11aa27cd240E
ffffff8040030268 t _ZN86_$LT$usize$u20$as$u20$compiler_builtins..math..libm_math..support..int_traits..Int$GT$12unsigned_abs17h811d6fc2fc0bad0fE
ffffff8040030268 t _ZN86_$LT$usize$u20$as$u20$compiler_builtins..math..libm_math..support..int_traits..Int$GT$3abs17h33262b5c641c5d16E
ffffff804003026c t _ZN84_$LT$i64$u20$as$u20$compiler_builtins..math..libm_math..support..int_traits..Int$GT$3abs17h1cf6b132fd070a0cE
ffffff804003026c t _ZN86_$LT$isize$u20$as$u20$compiler_builtins..math..libm_math..support..int_traits..Int$GT$3abs17hd229761a377c0ff1E
ffffff8040030278 t _ZN84_$LT$u64$u20$as$u20$compiler_builtins..math..libm_math..support..int_traits..Int$GT$11checked_add17h13187c6275daa365E
ffffff8040030278 t _ZN86_$LT$usize$u20$as$u20$compiler_builtins..math..libm_math..support..int_traits..Int$GT$11checked_add17h5dd0f750fd72aa8eE
ffffff804003028c t _ZN84_$LT$u64$u20$as$u20$compiler_builtins..math..libm_math..support..int_traits..Int$GT$5ilog217hb613b4d832578d8aE
ffffff804003028c t _ZN86_$LT$usize$u20$as$u20$compiler_builtins..math..libm_math..support..int_traits..Int$GT$5ilog217h8062d82738dacc8eE
ffffff80400302a0 t _ZN84_$LT$i64$u20$as$u20$compiler_builtins..math..libm_math..support..int_traits..Int$GT$11checked_add17h3a4a7740fb8dcb0dE
ffffff80400302a0 t _ZN86_$LT$isize$u20$as$u20$compiler_builtins..math..libm_math..support..int_traits..Int$GT$11checked_add17h72c27665a2b039f2E
ffffff80400302ac t _ZN84_$LT$i64$u20$as$u20$compiler_builtins..math..libm_math..support..int_traits..Int$GT$11checked_sub17h31b8b62aad8eb16bE
ffffff80400302ac t _ZN86_$LT$isize$u20$as$u20$compiler_builtins..math..libm_math..support..int_traits..Int$GT$11checked_sub17h35844afe9cff6e5aE
ffffff80400302b8 t _ZN84_$LT$i64$u20$as$u20$compiler_builtins..math..libm_math..support..int_traits..Int$GT$11rotate_left17h067eb8fe8ab94bafE
ffffff80400302b8 t _ZN84_$LT$u64$u20$as$u20$compiler_builtins..math..libm_math..support..int_traits..Int$GT$11rotate_left17ha8d51e4a26c621aeE
ffffff80400302b8 t _ZN86_$LT$isize$u20$as$u20$compiler_builtins..math..libm_math..support..int_traits..Int$GT$11rotate_left17h63fd0de28bb83be8E
ffffff80400302b8 t _ZN86_$LT$usize$u20$as$u20$compiler_builtins..math..libm_math..support..int_traits..Int$GT$11rotate_left17h1a8a43c70e3693c8E
ffffff80400302c4 t _ZN84_$LT$i64$u20$as$u20$compiler_builtins..math..libm_math..support..int_traits..Int$GT$13leading_zeros17h30b8b7fb83ea109eE
ffffff80400302c4 t _ZN84_$LT$u64$u20$as$u20$compiler_builtins..math..libm_math..support..int_traits..Int$GT$13leading_zeros17hea392770690b9494E
ffffff80400302c4 t _ZN86_$LT$isize$u20$as$u20$compiler_builtins..math..libm_math..support..int_traits..Int$GT$13leading_zeros17h29676583a73401acE
ffffff80400302c4 t _ZN86_$LT$usize$u20$as$u20$compiler_builtins..math..libm_math..support..int_traits..Int$GT$13leading_zeros17hd7c4b7e3ac0c7472E
ffffff80400302cc t _ZN84_$LT$i64$u20$as$u20$compiler_builtins..math..libm_math..support..int_traits..Int$GT$5ilog217h0183b795a0527e80E
ffffff80400302cc t _ZN86_$LT$isize$u20$as$u20$compiler_builtins..math..libm_math..support..int_traits..Int$GT$5ilog217h9d4bf0fa22a9d53cE
ffffff80400302e4 t _ZN85_$LT$u128$u20$as$u20$compiler_builtins..math..libm_math..support..int_traits..Int$GT$12unsigned_abs17h1d5287ed21af70b9E
ffffff80400302e4 t _ZN85_$LT$u128$u20$as$u20$compiler_builtins..math..libm_math..support..int_traits..Int$GT$3abs17h5e2457a082329f8bE
ffffff80400302e8 t _ZN85_$LT$i128$u20$as$u20$compiler_builtins..math..libm_math..support..int_traits..Int$GT$3abs17h1039f2c6c745e167E
ffffff8040030300 t _ZN85_$LT$u128$u20$as$u20$compiler_builtins..math..libm_math..support..int_traits..Int$GT$11checked_add17h4ad641d1d0a0cda3E
ffffff8040030330 t _ZN85_$LT$u128$u20$as$u20$compiler_builtins..math..libm_math..support..int_traits..Int$GT$5ilog217h3b00ff1639d7384eE
ffffff8040030358 t _ZN85_$LT$i128$u20$as$u20$compiler_builtins..math..libm_math..support..int_traits..Int$GT$11checked_add17h21b959a92a0d68bcE
ffffff8040030380 t _ZN85_$LT$i128$u20$as$u20$compiler_builtins..math..libm_math..support..int_traits..Int$GT$11checked_sub17hdef8e498d7434d68E
ffffff80400303a8 t _ZN85_$LT$i128$u20$as$u20$compiler_builtins..math..libm_math..support..int_traits..Int$GT$11rotate_left17h6de3ae6065742a26E
ffffff80400303a8 t _ZN85_$LT$u128$u20$as$u20$compiler_builtins..math..libm_math..support..int_traits..Int$GT$11rotate_left17h8e0b299dadd2f7fdE
ffffff80400303dc t _ZN85_$LT$i128$u20$as$u20$compiler_builtins..math..libm_math..support..int_traits..Int$GT$13leading_zeros17hb38d0b9a33340b50E
ffffff80400303dc t _ZN85_$LT$u128$u20$as$u20$compiler_builtins..math..libm_math..support..int_traits..Int$GT$13leading_zeros17h9bafccf8742830e6E
ffffff80400303f4 t _ZN85_$LT$i128$u20$as$u20$compiler_builtins..math..libm_math..support..int_traits..Int$GT$5ilog217h74b3ae7491dd6b76E
ffffff8040030420 t roundevenf16
ffffff804003049c t sqrtf16
ffffff8040030568 t ceilf
ffffff80400305d0 t truncf
ffffff8040030608 t fabs
ffffff8040030610 t fdimf128
ffffff8040030658 t acos
ffffff804003065c t expm1f
ffffff8040030660 t tanh
ffffff804003074c t _ZN17compiler_builtins5float3cmp3cmp17h25b473f5fb8ab2d4E
ffffff80400307f4 t _ZN17compiler_builtins5float3cmp5unord17h8eabdfdacf474a9fE
ffffff804003083c t _ZN17compiler_builtins5float3pow3pow17h507cd0e2ea860102E
ffffff80400308f0 t _ZN17compiler_builtins5float3cmp7__gesf217h2a37e75d17521bfcE
ffffff80400308f0 t _ZN17compiler_builtins5float3cmp7__gtsf217h1f157605a3565f50E
ffffff804003094c t _ZN17compiler_builtins5float3cmp10__unordsf217h4b95a226eca2714fE
ffffff8040030970 t _ZN17compiler_builtins5float3cmp7__eqsf217h8ef8dff00add6cefE
ffffff8040030970 t _ZN17compiler_builtins5float3cmp7__lesf217h57a3f82b42ec82a4E
ffffff8040030970 t _ZN17compiler_builtins5float3cmp7__ltsf217h994c4abd565ab2c8E
ffffff8040030970 t _ZN17compiler_builtins5float3cmp7__nesf217h00f88c29cf703552E
ffffff80400309d8 t _ZN17compiler_builtins5float3cmp7__gedf217h2568c3b0dcbd7ea5E
ffffff80400309d8 t _ZN17compiler_builtins5float3cmp7__gtdf217he615c9b23d7abb27E
ffffff8040030a34 t _ZN17compiler_builtins5float3cmp10__unorddf217h41479ad1b36d74d7E
ffffff8040030a58 t _ZN17compiler_builtins5float3cmp7__eqdf217h443dd362c4198de6E
ffffff8040030a58 t _ZN17compiler_builtins5float3cmp7__ledf217hb9febb4098214591E
ffffff8040030a58 t _ZN17compiler_builtins5float3cmp7__ltdf217h30cbc0e26f187e41E
ffffff8040030a58 t _ZN17compiler_builtins5float3cmp7__nedf217h73fd793cb55c4d66E
ffffff8040030ac0 t __floatsidf
ffffff8040030b0c t __fixunssfti
ffffff8040030b78 t __fixsfsi
ffffff8040030bdc t __divdf3
ffffff8040030be0 t __divtf3
ffffff8040030be4 t _ZN17compiler_builtins5float3pow9__powisf217h9c9b9e922d91c4dbE
ffffff8040030c30 t _ZN17compiler_builtins5float3pow9__powidf217hd5993a3d8da9c243E
ffffff8040030c7c t __truncdfsf2
ffffff8040030dd0 t __rust_i128_subo
ffffff8040030e00 t __ctzti2
ffffff8040030e04 t __udivsi3
ffffff8040030ebc t __udivdi3
ffffff8040030f7c t __udivti3
ffffff8040030f9c t _ZN17compiler_builtins4math9libm_math7support12float_traits5Float5biteq17h93d77e9e0e48b3ceE
ffffff8040030fb8 t _ZN17compiler_builtins4math9libm_math7support12float_traits5Float5biteq17hcb790b6eaed1ffe8E
ffffff8040030fd0 t _ZN17compiler_builtins4math9libm_math7support12float_traits5Float5biteq17he30c496ad2ef629aE
ffffff8040030fe4 t _ZN17compiler_builtins4math9libm_math7support12float_traits5Float5biteq17hf15fcc4c1b57b430E
ffffff8040030ff8 t _ZN17compiler_builtins4math9libm_math7support12float_traits5Float16is_sign_positive17h1d66e22a22dd7acbE
ffffff8040031008 t _ZN17compiler_builtins4math9libm_math7support12float_traits5Float16is_sign_positive17h56e41a789d8b214fE
ffffff8040031018 t _ZN17compiler_builtins4math9libm_math7support12float_traits5Float16is_sign_positive17h7ddb10d61c0f8ea5E
ffffff8040031030 t _ZN17compiler_builtins4math9libm_math7support12float_traits5Float16is_sign_positive17hfd7b5b26834e08bbE
ffffff8040031040 t _ZN17compiler_builtins4math9libm_math7support12float_traits5Float2ex17h245aeedb52095132E
ffffff804003104c t _ZN17compiler_builtins4math9libm_math7support12float_traits5Float2ex17h880085e570442ad5E
ffffff8040031060 t _ZN17compiler_builtins4math9libm_math7support12float_traits5Float12exp_unbiased17h24014e9eee49f04fE
ffffff804003107c t _ZN17compiler_builtins4math9libm_math7support12float_traits5Float12exp_unbiased17h37cb9e32d5a20634E
ffffff804003108c t _ZN17compiler_builtins4math9libm_math7support12float_traits5Float12exp_unbiased17h47a37107ac8b60a2E
ffffff804003109c t _ZN17compiler_builtins4math9libm_math7support12float_traits5Float12exp_unbiased17hd65cb01fef4634ceE
ffffff80400310ac t _ZN17compiler_builtins4math9libm_math7support12float_traits5Float10from_parts17h1ecabe9777dbf878E
ffffff80400310d0 t _ZN17compiler_builtins4math9libm_math7support12float_traits5Float10from_parts17h78b91170a462eb34E
ffffff80400310ec t _ZN17compiler_builtins4math9libm_math7support12float_traits5Float10from_parts17h8dffd0f834ae4c40E
ffffff804003110c t _ZN17compiler_builtins4math9libm_math7support12float_traits5Float10from_parts17hceb6cbf9cd94f16eE
ffffff8040031128 t _ZN17compiler_builtins4math9libm_math7support12float_traits5Float12canonicalize17h55f5eff689651a1fE
ffffff804003112c t _ZN17compiler_builtins4math9libm_math7support12float_traits5Float12canonicalize17h7fbf5edbc1cbc203E
ffffff8040031130 t _ZN17compiler_builtins4math9libm_math7support12float_traits5Float12canonicalize17ha3583dfa69899868E
ffffff8040031134 t _ZN17compiler_builtins4math9libm_math7support12float_traits5Float12canonicalize17hcc9556b07933f3e7E
ffffff8040031138 t _ZN17compiler_builtins4math9libm_math5log1p5log1p17h52da549759e6af97E
ffffff80400312f8 t _ZN88_$LT$f16$u20$as$u20$compiler_builtins..math..libm_math..support..float_traits..Float$GT$9normalize17h8d07ca6216b7f578E
ffffff8040031320 t _ZN88_$LT$f32$u20$as$u20$compiler_builtins..math..libm_math..support..float_traits..Float$GT$3abs17hd5fe5651cd70efd4E
ffffff8040031328 t _ZN88_$LT$f32$u20$as$u20$compiler_builtins..math..libm_math..support..float_traits..Float$GT$8copysign17hf026742c7e9b98e8E
ffffff8040031334 t _ZN88_$LT$f32$u20$as$u20$compiler_builtins..math..libm_math..support..float_traits..Float$GT$3fma17he755982f8e9eec5cE
ffffff804003133c t _ZN88_$LT$f32$u20$as$u20$compiler_builtins..math..libm_math..support..float_traits..Float$GT$9normalize17h6cb2c554f38179daE
ffffff8040031354 t _ZN88_$LT$f64$u20$as$u20$compiler_builtins..math..libm_math..support..float_traits..Float$GT$3abs17h2fdd6e7f7034964fE
ffffff804003135c t _ZN88_$LT$f64$u20$as$u20$compiler_builtins..math..libm_math..support..float_traits..Float$GT$8copysign17hed2c857c92daa3dbE
ffffff804003136c t _ZN88_$LT$f64$u20$as$u20$compiler_builtins..math..libm_math..support..float_traits..Float$GT$3fma17h15eb6a7b41ab5435E
ffffff8040031374 t _ZN88_$LT$f64$u20$as$u20$compiler_builtins..math..libm_math..support..float_traits..Float$GT$9normalize17ha4a98f90559fdfadE
ffffff804003138c t _ZN89_$LT$f128$u20$as$u20$compiler_builtins..math..libm_math..support..float_traits..Float$GT$9normalize17ha50be74325764b66E
ffffff80400313e0 t ceilf16
ffffff8040031454 t fdimf16
ffffff8040031474 t fmaxf16
ffffff804003148c t truncf16
ffffff80400314c4 t _ZN17compiler_builtins4math17full_availability5cbrtf17h2daf86e06a9bfc83E
ffffff8040031584 t _ZN17compiler_builtins4math17full_availability5ceilf17h2e50a561a1c2f724E
ffffff80400315ec t _ZN17compiler_builtins4math17full_availability9copysignf17h5add855102cf6d25E
ffffff80400315f8 t fabsf
ffffff8040031600 t _ZN17compiler_builtins4math17full_availability6floorf17h2196702c1084b97eE
ffffff8040031674 t _ZN17compiler_builtins4math17full_availability5fmaxf17h74e062442469c4a3E
ffffff8040031684 t _ZN17compiler_builtins4math17full_availability5fminf17h47a38ca085eb822aE
ffffff8040031694 t fminf
ffffff80400316a4 t _ZN17compiler_builtins4math17full_availability5fmodf17hf1985a61b7a7f522E
ffffff8040031774 t _ZN17compiler_builtins4math17full_availability6roundf17he57b49cc971b6878E
ffffff80400317c0 t roundf
ffffff804003180c t _ZN17compiler_builtins4math17full_availability6truncf17h8ab4793ec733a063E
ffffff8040031844 t _ZN17compiler_builtins4math17full_availability4cbrt17h5f69208840d82eadE
ffffff8040031848 t _ZN17compiler_builtins4math17full_availability4ceil17h441eefad48cb8d80E
ffffff80400318b4 t _ZN17compiler_builtins4math17full_availability8copysign17h1ebc8edbfe17902aE
ffffff80400318c4 t _ZN17compiler_builtins4math17full_availability5floor17h4c895edc042d2ab9E
ffffff804003193c t _ZN17compiler_builtins4math17full_availability4fmax17h1d0aeb3bce7314aeE
ffffff804003194c t _ZN17compiler_builtins4math17full_availability4fmin17hf43bdf60f839f9bdE
ffffff804003195c t _ZN17compiler_builtins4math17full_availability4fmod17h48cce921dfefb168E
ffffff8040031a30 t _ZN17compiler_builtins4math17full_availability5round17h4b01fd7bca1e395fE
ffffff8040031a80 t _ZN17compiler_builtins4math17full_availability5trunc17h155f43d71f6eb619E
ffffff8040031ab8 t _ZN17compiler_builtins4math17full_availability8fmaximum17h45e6d0d4eabb66faE
ffffff8040031af8 t _ZN17compiler_builtins4math17full_availability9fmaximumf17h512f84dff73dbf74E
ffffff8040031b38 t _ZN17compiler_builtins4math17full_availability8fminimum17hd9a4d5f0f800a5b2E
ffffff8040031b78 t _ZN17compiler_builtins4math17full_availability9fminimumf17ha8733c39f93d4674E
ffffff8040031bb8 t _ZN17compiler_builtins4math17full_availability9roundeven17h91e4bbbc78fa7efbE
ffffff8040031c14 t _ZN17compiler_builtins4math17full_availability10roundevenf17ha469f9b0a725124aE
ffffff8040031c64 t roundevenf
ffffff8040031cb4 t atan2
ffffff8040031cb8 t log2
ffffff8040031cbc t _ZN17compiler_builtins5float5trunc5trunc17h056d6712de95d6f4E
ffffff8040031e94 t _ZN17compiler_builtins5float5trunc5trunc17h3566050383532fb6E
ffffff8040032064 t _ZN17compiler_builtins5float5trunc5trunc17h7911415a594f7edbE
ffffff8040032214 t _ZN17compiler_builtins5float5trunc5trunc17heee685c0b018f17aE
ffffff804003231c t __addsf3
ffffff8040032320 t __fixunstfti
ffffff80400323b8 t __fixsfti
ffffff804003244c t __gnu_h2f_ieee
ffffff80400324e0 t __powidf2
ffffff804003252c t __subsf3
ffffff8040032534 t _ZN17compiler_builtins5float5trunc12__truncdfsf217hab2533eb1de01f37E
ffffff8040032688 t __truncdfhf2
ffffff80400327c8 t _ZN17compiler_builtins3int6addsub15__rust_i128_add17h2b0cad2d7b9a5bf0E
ffffff80400327c8 t _ZN17compiler_builtins3int6addsub15__rust_u128_add17h7f4b538e5c166a94E
ffffff80400327d4 t _ZN17compiler_builtins3int6addsub16__rust_i128_addo17hc2be0b855402e06bE
ffffff8040032804 t _ZN17compiler_builtins3int6addsub16__rust_u128_addo17he2b913322a39f4fbE
ffffff8040032828 t _ZN17compiler_builtins3int6addsub15__rust_i128_sub17h29ee6d77a6c25828E
ffffff8040032828 t _ZN17compiler_builtins3int6addsub15__rust_u128_sub17h00047dafe10b2ce6E
ffffff8040032834 t _ZN17compiler_builtins3int6addsub16__rust_i128_subo17h5cd6e982261c36eaE
ffffff8040032864 t _ZN17compiler_builtins3int6addsub16__rust_u128_subo17h9dd1f0371a4fec71E
ffffff8040032888 t __mulodi4
ffffff8040032948 t _ZN17compiler_builtins4math9libm_math8k_expo2f8k_expo2f17hd2418a755173960fE
ffffff8040032974 t _ZN17compiler_builtins4math9libm_math4log24log217h2d1ea0feb74ce470E
ffffff8040032b0c t _ZN17compiler_builtins4math9libm_math4tanf4tanf17hc94eb153d700d3d5E
ffffff8040032ed8 t fminf16
ffffff8040032ef0 t fabsf128
ffffff8040032f08 t atan
ffffff8040032f0c t cosh
ffffff8040032fd0 t expm1
ffffff8040032fd4 t ldexp
ffffff8040033094 t log
ffffff8040033098 t sinhf
ffffff8040033170 t tgamma
ffffff8040033174 t __eqtf2
ffffff8040033210 t __gttf2
ffffff8040033298 t __floatuntisf
ffffff8040033320 t __floatsitf
ffffff8040033378 t __fixunssfsi
ffffff80400333c4 t __fixtfsi
ffffff8040033440 t __extendsfdf2
ffffff80400334d4 t __extendsftf2
ffffff80400335a0 t _ZN17compiler_builtins5float3sub8__subsf317h9f5493de383beb8dE
ffffff80400335a8 t _ZN17compiler_builtins5float3sub8__subdf317hf624fd161aa5cf1fE
ffffff80400335b0 t __trunctfdf2
ffffff8040033760 t _ZN17compiler_builtins3int3mul8__muldi317h658f9af003f6e6e0E
ffffff80400337a4 t _ZN17compiler_builtins3int3mul8__multi317ha4d24ea400be5e65E
ffffff80400337e8 t _ZN17compiler_builtins3int3mul9__mulosi417hef918b786f28069fE
ffffff80400338a0 t __mulosi4
ffffff8040033958 t _ZN17compiler_builtins3int3mul9__mulodi417h2aba1faa86a30f3cE
ffffff8040033a18 t _ZN17compiler_builtins3int3mul16__rust_i128_mulo17h189b0ce7bfb84454E
ffffff8040033a18 t _ZN17compiler_builtins3int3mul9__muloti417h361d98b00785eb84E
ffffff8040033b24 t _ZN17compiler_builtins3int3mul16__rust_u128_mulo17heb0758c5aa50b84eE
ffffff8040033b9c t _ZN17compiler_builtins3int5shift9__ashlsi317hcfcf2c49203a20feE
ffffff8040033be8 t _ZN17compiler_builtins3int5shift9__ashldi317hfb7ebd74845749b4E
ffffff8040033c20 t __ashldi3
ffffff8040033c58 t _ZN17compiler_builtins3int5shift9__ashlti317hee950b2654cebef6E
ffffff8040033c8c t _ZN17compiler_builtins3int5shift9__ashrsi317h84d32c10e259ca74E
ffffff8040033ce0 t _ZN17compiler_builtins3int5shift9__ashrdi317ha465b6528df8d5b4E
ffffff8040033d1c t _ZN17compiler_builtins3int5shift9__ashrti317h35da08c90b8744b2E
ffffff8040033d54 t _ZN17compiler_builtins3int5shift9__lshrsi317h95141f88cf785cc2E
ffffff8040033d9c t _ZN17compiler_builtins3int5shift9__lshrdi317ha4076618d88cb6dcE
ffffff8040033dd0 t _ZN17compiler_builtins3int5shift9__lshrti317h4e622ab0ed56ae27E
ffffff8040033e04 t __udivmodti4
ffffff8040033e34 t _ZN17compiler_builtins4math9libm_math7support9cold_path17hcd21a2abb9f46418E
ffffff8040033e38 t _ZN17compiler_builtins4math9libm_math5atan25atan217hf9131000fa9ff6d3E
ffffff8040033fb8 t _ZN17compiler_builtins4math9libm_math4cosf4cosf17h5f3c6020aa160035E
ffffff8040034370 t cbrtf
ffffff8040034430 t fma
ffffff8040034438 t asinf
ffffff80400345a8 t erfcf
ffffff80400345ac t hypotf
ffffff8040034678 t log10f
ffffff80400347d8 t _ZN17compiler_builtins3mem6memcpy17hc75c23501bc9a025E
ffffff8040034938 t _ZN17compiler_builtins3mem7memmove17hd2a4b86c4afab056E
ffffff8040034c04 t _ZN17compiler_builtins3mem6memset17h1ef59f05bea419abE
ffffff8040034d10 t _ZN17compiler_builtins3mem4bcmp17h49a143b87ae26c6cE
ffffff8040034d10 t _ZN17compiler_builtins3mem6memcmp17ha03f9b48155bf4f5E
ffffff8040034d38 t _ZN17compiler_builtins3mem6strlen17ha162d598a7a0fdc4E
ffffff8040034d64 t _ZN17compiler_builtins5float4conv12int_to_float6signed17h132a2ba4dfca3be1E
ffffff8040034df8 t _ZN17compiler_builtins5float4conv12int_to_float6signed17h1332a9b38350439bE
ffffff8040034e64 t _ZN17compiler_builtins5float4conv12int_to_float6signed17h2dc1e0611dd32638E
ffffff8040034ebc t _ZN17compiler_builtins5float4conv12int_to_float6signed17h477a9f749a81bfa9E
ffffff8040034f14 t _ZN17compiler_builtins5float4conv12int_to_float6signed17h97cffd170649c061E
ffffff8040034f6c t _ZN17compiler_builtins5float4conv12int_to_float6signed17hab27a33e8fc459e8E
ffffff8040034fb8 t _ZN17compiler_builtins5float4conv12int_to_float6signed17hafa4da90d1b0f55dE
ffffff8040035010 t _ZN17compiler_builtins5float4conv12int_to_float6signed17hb588b9b9523420bfE
ffffff80400350bc t _ZN17compiler_builtins5float4conv12int_to_float6signed17hef95ddf466df3ec4E
ffffff8040035160 t _ZN17compiler_builtins5float4conv12int_to_float15u32_to_f32_bits17h7c61d61dd77daaefE
ffffff8040035194 t _ZN17compiler_builtins5float4conv12int_to_float15u32_to_f64_bits17h0a862be6699bbbb1E
ffffff80400351c8 t _ZN17compiler_builtins5float4conv12int_to_float16u32_to_f128_bits17h065685081d85e1a3E
ffffff8040035208 t _ZN17compiler_builtins5float4conv12int_to_float15u64_to_f32_bits17hbb3319f62072f1cbE
ffffff8040035248 t _ZN17compiler_builtins5float4conv12int_to_float15u64_to_f64_bits17hb43460074fa70dcdE
ffffff804003527c t _ZN17compiler_builtins5float4conv12int_to_float16u64_to_f128_bits17hf9c94248a2d5247aE
ffffff80400352c4 t _ZN17compiler_builtins5float4conv12int_to_float16u128_to_f32_bits17h389948cf86ae2ea3E
ffffff8040035348 t _ZN17compiler_builtins5float4conv12int_to_float16u128_to_f64_bits17hac1d4d72cf1130f0E
ffffff80400353c0 t _ZN17compiler_builtins5float4conv12int_to_float17u128_to_f128_bits17h2cfb0c586f2b95ddE
ffffff8040035444 t _ZN17compiler_builtins3int6traits4DInt5lo_hi17h3aa7ab676fdde2c1E
ffffff804003544c t _ZN17compiler_builtins3int6traits4DInt5lo_hi17h67299b40a68a529bE
ffffff8040035450 t _ZN17compiler_builtins3int6traits4DInt10from_lo_hi17h6199f15a5b18d31eE
ffffff8040035454 t _ZN17compiler_builtins3int6traits4DInt10from_lo_hi17ha321aa61ddd9812cE
ffffff8040035460 t _ZN17compiler_builtins3int6traits4DInt10from_lo_hi17ha81e7dc30e6e10caE
ffffff8040035464 t _ZN17compiler_builtins3int6traits4DInt10from_lo_hi17hbae7aabf5ea77bfcE
ffffff8040035470 t _ZN17compiler_builtins3int6traits4DInt10from_lo_hi17he4adf7d718fb5f9fE
ffffff8040035478 t _ZN17compiler_builtins3int6traits4DInt10from_lo_hi17he675e3b7903f86a0E
ffffff8040035480 t __nesf2
ffffff80400354e8 t __floattidf
ffffff804003557c t __fixunsdfti
ffffff80400355ec t __multf3
ffffff80400355f0 t __rust_i128_sub
ffffff80400355fc t __clzdi2
ffffff8040035678 t __muldi3
ffffff80400356bc t __modti3
ffffff804003572c t _ZN17compiler_builtins4math9libm_math8rem_pio28rem_pio217hc7ba39fec3d39b5aE
ffffff8040035b4c t _ZN17compiler_builtins4math9libm_math14rem_pio2_large14rem_pio2_large17he26808e136644955E
ffffff8040036550 t _ZN17compiler_builtins4math9libm_math4expf4expf17h817e316f5c58f22dE
ffffff8040036780 t cbrt
ffffff8040036784 t fmin
ffffff8040036794 t fmaximum
ffffff80400367d4 t fmaximumf128
ffffff8040036858 t coshf
ffffff804003691c t log1pf
ffffff8040036920 t log2f
ffffff8040036a5c t tanhf
ffffff8040036b40 t __unordsf2
ffffff8040036b64 t __eqsf2
ffffff8040036bcc t __gedf2
ffffff8040036bcc t __gtdf2
ffffff8040036c28 t __ltdf2
ffffff8040036c90 t __getf2
ffffff8040036d18 t __netf2
ffffff8040036db4 t __floatunsisf
ffffff8040036df4 t __floatuntidf
ffffff8040036e70 t __floatsisf
ffffff8040036ec8 t __extendhfsf2
ffffff8040036f5c t __truncsfhf2
ffffff8040037064 t __moddi3
ffffff8040037068 t __udivmoddi4
ffffff8040037144 t _ZN17compiler_builtins4math9libm_math4cbrt4cbrt17h44698f07ec54071aE
ffffff804003744c t _ZN17compiler_builtins4math9libm_math3erf5erfc217h3f793d7037ee8040E.llvm.14418442286332507951
ffffff804003775c t _ZN17compiler_builtins4math9libm_math3erf3erf17h62a59af1cdff340dE
ffffff80400378ac t _ZN17compiler_builtins4math9libm_math3erf4erfc17h4d0c56c957478428E
ffffff8040037a34 t _ZN17compiler_builtins4math9libm_math6log10f6log10f17hd06f8e0dc46b6d04E
ffffff8040037b94 t _ZN17compiler_builtins4math9libm_math4powf4powf17h312f1c299ed0ffbfE
ffffff80400382cc t _ZN17compiler_builtins4math9libm_math4tanh4tanh17h77f923376f330684E
ffffff80400383b8 t rint
ffffff80400383c0 t log10
ffffff80400383c4 t tan
ffffff80400383c8 t lgammaf_r
ffffff80400383cc t __ltsf2
ffffff8040038434 t __eqdf2
ffffff804003849c t __floatditf
ffffff8040038508 t __fixsfdi
ffffff804003856c t __subdf3
ffffff8040038574 t __rust_u128_subo
ffffff8040038598 t __bswapdi2
ffffff80400385a0 t _ZN17compiler_builtins3int4sdiv11__divmodsi417hcdc0c5cee77381deE
ffffff8040038774 t _ZN17compiler_builtins3int4sdiv8__divsi317h5f1c7a87456b5e4dE
ffffff8040038860 t _ZN17compiler_builtins3int4sdiv8__modsi317h583b55bec8fb30c8E
ffffff8040038980 t _ZN17compiler_builtins3int4sdiv11__divmoddi417hd79ab6235ca14fe5E
ffffff8040038b5c t _ZN17compiler_builtins3int4sdiv8__divdi317h23a5b3e547eaa554E
ffffff8040038c4c t _ZN17compiler_builtins3int4sdiv8__moddi317hbfae32fb17cb5f48E
ffffff8040038d74 t _ZN17compiler_builtins3int4sdiv11__divmodti417h9992d683c15dcf2eE
ffffff8040038e30 t _ZN17compiler_builtins3int4sdiv8__divti317h9082a18882cfb24cE
ffffff8040038ea0 t _ZN17compiler_builtins3int4sdiv8__modti317h6fed05e7bb478cd3E
ffffff8040038f10 t __ashrsi3
ffffff8040038f64 t _ZN17compiler_builtins4math9libm_math4logf4logf17h6f36ddb608af44e8E
ffffff8040039080 t fminimumf16
ffffff80400390ec t sqrtf
ffffff80400390f4 t fdim
ffffff8040039108 t floor
ffffff8040039180 t fminimum
ffffff80400391c0 t roundeven
ffffff804003921c t _ZN17compiler_builtins4math20partial_availability4acos17h7600042c1ba7a1dfE
ffffff8040039498 t _ZN17compiler_builtins4math20partial_availability5acosf17h1c6a82401ad5874dE
ffffff804003949c t _ZN17compiler_builtins4math20partial_availability4asin17hae4ec0d0a6175a32E
ffffff80400394a0 t _ZN17compiler_builtins4math20partial_availability5asinf17h1158d49c2e56e7edE
ffffff8040039610 t _ZN17compiler_builtins4math20partial_availability4atan17h63ec4f367d5876caE
ffffff8040039614 t _ZN17compiler_builtins4math20partial_availability5atan217hd9f79cfbe098270fE
ffffff8040039618 t _ZN17compiler_builtins4math20partial_availability6atan2f17h01cbc846490e6484E
ffffff804003961c t _ZN17compiler_builtins4math20partial_availability5atanf17h1440fda722c5cce9E
ffffff8040039620 t _ZN17compiler_builtins4math20partial_availability3cos17h2c6bedb0161bbf6eE
ffffff8040039624 t _ZN17compiler_builtins4math20partial_availability4cosf17hd26746be271b87e9E
ffffff8040039628 t _ZN17compiler_builtins4math20partial_availability4cosh17h4cb069a5de4dd3e8E
ffffff80400396ec t _ZN17compiler_builtins4math20partial_availability5coshf17hcba74a40bc5f0e02E
ffffff80400397b0 t _ZN17compiler_builtins4math20partial_availability3erf17h970e6e986c01e4d4E
ffffff8040039900 t _ZN17compiler_builtins4math20partial_availability4erfc17hccaa806c88290bd6E
ffffff8040039904 t _ZN17compiler_builtins4math20partial_availability5erfcf17hb7f2870664c4fb97E
ffffff8040039908 t _ZN17compiler_builtins4math20partial_availability4erff17h9e54772f6d48698bE
ffffff8040039a60 t _ZN17compiler_builtins4math20partial_availability3exp17hebe3a5922fa5a922E
ffffff8040039a64 t _ZN17compiler_builtins4math20partial_availability4exp217h4134688b5282ab23E
ffffff8040039a68 t _ZN17compiler_builtins4math20partial_availability5exp2f17h2e0631e6b51b364cE
ffffff8040039bc4 t _ZN17compiler_builtins4math20partial_availability4expf17h3622313a519a97dcE
ffffff8040039bc8 t _ZN17compiler_builtins4math20partial_availability5expm117hf59a01bc145acf68E
ffffff8040039bcc t _ZN17compiler_builtins4math20partial_availability6expm1f17hff850148a25633f0E
ffffff8040039bd0 t _ZN17compiler_builtins4math20partial_availability5hypot17h4d243a9bef017aa2E
ffffff8040039cec t _ZN17compiler_builtins4math20partial_availability6hypotf17h6ec6bd2a5c54e980E
ffffff8040039db8 t _ZN17compiler_builtins4math20partial_availability5ldexp17h750bef5b514ce301E
ffffff8040039e78 t _ZN17compiler_builtins4math20partial_availability6ldexpf17hd3e09253f1e84338E
ffffff8040039f40 t _ZN17compiler_builtins4math20partial_availability3log17h6e756ad1d62de29aE
ffffff8040039f44 t _ZN17compiler_builtins4math20partial_availability5log1017h5fddf48b8a05a163E
ffffff8040039f48 t _ZN17compiler_builtins4math20partial_availability6log10f17h780b3dde2abe849bE
ffffff804003a0a8 t _ZN17compiler_builtins4math20partial_availability5log1p17h749cdd60725a0237E
ffffff804003a0ac t _ZN17compiler_builtins4math20partial_availability6log1pf17h9df9f163ab107142E
ffffff804003a23c t _ZN17compiler_builtins4math20partial_availability4log217hbca0be2a901d1bbcE
ffffff804003a240 t _ZN17compiler_builtins4math20partial_availability5log2f17h647daaa031539708E
ffffff804003a37c t _ZN17compiler_builtins4math20partial_availability4logf17h8bb41973ab86a95aE
ffffff804003a498 t _ZN17compiler_builtins4math20partial_availability3pow17hb016744361e91948E
ffffff804003a498 t pow
ffffff804003a49c t _ZN17compiler_builtins4math20partial_availability4powf17he28bb468ca8feebaE
ffffff804003a4a0 t _ZN17compiler_builtins4math20partial_availability3sin17h83f6d3dea6dbe783E
ffffff804003a4a4 t _ZN17compiler_builtins4math20partial_availability4sinf17h4dded578e9f6ad71E
ffffff804003a4a4 t sinf
ffffff804003a4a8 t _ZN17compiler_builtins4math20partial_availability4sinh17h4999faf4057aeadfE
ffffff804003a584 t _ZN17compiler_builtins4math20partial_availability5sinhf17hb92ebb2926e1ed86E
ffffff804003a65c t _ZN17compiler_builtins4math20partial_availability3tan17h1460d6ad456f4a9bE
ffffff804003a660 t _ZN17compiler_builtins4math20partial_availability4tanf17h051702f3aa5ceeb2E
ffffff804003a660 t tanf
ffffff804003a664 t _ZN17compiler_builtins4math20partial_availability4tanh17h85322d7ec86c0c73E
ffffff804003a750 t _ZN17compiler_builtins4math20partial_availability5tanhf17h47900f342629588aE
ffffff804003a834 t _ZN17compiler_builtins4math20partial_availability6tgamma17h6c7e789911977aa6E
ffffff804003a838 t _ZN17compiler_builtins4math20partial_availability7tgammaf17h8a22abb9cad4745fE
ffffff804003a850 t _ZN17compiler_builtins4math20partial_availability8lgamma_r17h785654d7b96180ccE
ffffff804003a868 t _ZN17compiler_builtins4math20partial_availability9lgammaf_r17h13ac7a437db55e94E
ffffff804003c000 r rodata_check_str
ffffff804003c100 r anon.76b76ad1428f1db44bd58e8d3a266f9f.0.llvm.3232025646750124041
ffffff804003c27c r anon.4181c964ed20ffe061f83213fbafd129.0.llvm.16065424444953724749
ffffff804003c4dc r anon.77bc3aaa5ae5ac5565f8806626ba6b85.11.llvm.16554116907239178329
ffffff804003c5cd r anon.6486f383aeac2cceba958b709c7138cc.3.llvm.6321134139259491358
ffffff804003c5cd r anon.77bc3aaa5ae5ac5565f8806626ba6b85.18.llvm.16554116907239178329
ffffff804003c5cd r anon.82dc693da1ac721e7fb88cfe13e46bb5.15.llvm.10111746448016222381
ffffff804003c882 r anon.24cf718bccef40f52b4d22f1ddcfc22f.27.llvm.4981094955522366650
ffffff804003c96b r anon.ce6ecb51b2a9dacfb4ca017c691b7131.0.llvm.14252317341709278760
ffffff804003cb7d r anon.bc016b4fd095a4bc1da723e6e55d086b.0.llvm.8575320972211673955
ffffff804003cd2e r anon.4c56c34d586b35391f85b49fa96b39df.9.llvm.16961051346025405127
ffffff804003cea3 r anon.24cf718bccef40f52b4d22f1ddcfc22f.15.llvm.4981094955522366650
ffffff804003cea3 r anon.6486f383aeac2cceba958b709c7138cc.1.llvm.6321134139259491358
ffffff804003cea3 r anon.8c72664033e2ca39b0c1a5fad98cfd8d.9.llvm.16696937474371608414
ffffff804003cf15 r anon.172387e7839276ae97368b029729dc0a.0.llvm.3893159626292103560
ffffff804003d197 r anon.760d74a1f870a3ec5c07f0539b15140b.2.llvm.2527295892182414476
ffffff804003d400 r anon.37d2fc54042fb4a5af179e51b83bb7c4.1.llvm.2211076484550660129
ffffff804003d648 r anon.77bc3aaa5ae5ac5565f8806626ba6b85.12.llvm.16554116907239178329
ffffff804003d6e8 r anon.77bc3aaa5ae5ac5565f8806626ba6b85.19.llvm.16554116907239178329
ffffff804003d798 r anon.6486f383aeac2cceba958b709c7138cc.2.llvm.6321134139259491358
ffffff804003d828 r anon.6486f383aeac2cceba958b709c7138cc.18.llvm.6321134139259491358
ffffff804003d9e8 r anon.24cf718bccef40f52b4d22f1ddcfc22f.16.llvm.4981094955522366650
ffffff804003db20 r anon.24cf718bccef40f52b4d22f1ddcfc22f.28.llvm.4981094955522366650
ffffff804003db88 r anon.37d2fc54042fb4a5af179e51b83bb7c4.13.llvm.2211076484550660129
ffffff804003dc70 r anon.8c72664033e2ca39b0c1a5fad98cfd8d.10.llvm.16696937474371608414
ffffff804003dcb0 r anon.760d74a1f870a3ec5c07f0539b15140b.3.llvm.2527295892182414476
ffffff804003e070 r anon.76b76ad1428f1db44bd58e8d3a266f9f.3.llvm.3232025646750124041
ffffff804003e170 r anon.76b76ad1428f1db44bd58e8d3a266f9f.2.llvm.3232025646750124041
ffffff804003e240 r anon.8dc846a9f96bf21db191b8a1bfb352f8.19.llvm.9432908643497483760
ffffff804003e3f8 r anon.82dc693da1ac721e7fb88cfe13e46bb5.16.llvm.10111746448016222381
ffffff804003e410 r _ZN4core3fmt3num14DEC_DIGITS_LUT17hfa23f0bcc501090cE
ffffff804003e418 r anon.4181c964ed20ffe061f83213fbafd129.1.llvm.16065424444953724749
ffffff804003e430 r anon.4181c964ed20ffe061f83213fbafd129.2.llvm.16065424444953724749
ffffff804003e436 r anon.4181c964ed20ffe061f83213fbafd129.5.llvm.16065424444953724749
ffffff804003e62a R _ZN4core7unicode12unicode_data9lowercase17BITSET_CHUNKS_MAP17hc2b433f8d3a053cdE
ffffff804003e6a8 R _ZN4core3num7flt2dec8strategy5grisu12CACHED_POW1017h4d00f27b38bd1343E
ffffff804003ef40 r anon.585baebedb2cc7c761645be04ab6d24f.31.llvm.10137173442628473092
ffffff804003ef70 r anon.585baebedb2cc7c761645be04ab6d24f.32.llvm.10137173442628473092
ffffff804003f4c0 r anon.a92d0a0c3893a29cb795bb66b4ed7d48.3.llvm.14846042462728833040
ffffff804003ffed R _ZN4core7unicode12unicode_data9lowercase19BITSET_INDEX_CHUNKS17h87767f5642f3f757E
ffffff8040040130 R _ZN4core7unicode12unicode_data9lowercase16BITSET_CANONICAL17h5766d63737dde9f5E
ffffff80400402f0 R _ZN4core7unicode12unicode_data9lowercase14BITSET_MAPPING17h0e3baadf2a38c606E
ffffff804004031c r _ZN4core7unicode12unicode_data10alphabetic7OFFSETS17h49f8bccbffcf4ebbE
ffffff8040040ce4 r _ZN4core7unicode12unicode_data10alphabetic17SHORT_OFFSET_RUNS17h32368349d30374f5E
ffffff8040040db8 r _ZN4core7unicode12unicode_data15grapheme_extend7OFFSETS17hf15d47262927c3dcE
ffffff8040041268 r _ZN4core7unicode12unicode_data15grapheme_extend17SHORT_OFFSET_RUNS17h649d51f02afee80aE
ffffff80400412f0 r _ZN4core7unicode12unicode_data14case_ignorable7OFFSETS17hae8479b0e05721e1E
ffffff8040041679 R _ZN4core7unicode12unicode_data9uppercase17BITSET_CHUNKS_MAP17hfa887a107c6a08dbE
ffffff8040041820 r anon.f01569e671140f4512facbc5f2f10833.0.llvm.2900942273578064359
ffffff80400418a0 r anon.f01569e671140f4512facbc5f2f10833.1.llvm.2900942273578064359
ffffff8040041be0 r anon.1198f2c06d4f19366a1165c63ef78156.37.llvm.9535741174144106586
ffffff8040041c10 r anon.1198f2c06d4f19366a1165c63ef78156.39.llvm.9535741174144106586
ffffff8040041c13 r anon.1198f2c06d4f19366a1165c63ef78156.40.llvm.9535741174144106586
ffffff8040041c15 r anon.1198f2c06d4f19366a1165c63ef78156.41.llvm.9535741174144106586
ffffff8040041c17 r anon.1198f2c06d4f19366a1165c63ef78156.42.llvm.9535741174144106586
ffffff8040041c1a r anon.1198f2c06d4f19366a1165c63ef78156.43.llvm.9535741174144106586
ffffff8040041c1c r anon.1198f2c06d4f19366a1165c63ef78156.44.llvm.9535741174144106586
ffffff8040041c23 r anon.1198f2c06d4f19366a1165c63ef78156.45.llvm.9535741174144106586
ffffff8040041c29 r anon.1198f2c06d4f19366a1165c63ef78156.46.llvm.9535741174144106586
ffffff8040041c2c r anon.1198f2c06d4f19366a1165c63ef78156.47.llvm.9535741174144106586
ffffff8040041c2d r anon.1198f2c06d4f19366a1165c63ef78156.48.llvm.9535741174144106586
ffffff8040041c2f r anon.1198f2c06d4f19366a1165c63ef78156.49.llvm.9535741174144106586
ffffff8040041c30 r anon.1198f2c06d4f19366a1165c63ef78156.50.llvm.9535741174144106586
ffffff8040041c37 r anon.1198f2c06d4f19366a1165c63ef78156.53.llvm.9535741174144106586
ffffff8040041c38 r anon.1198f2c06d4f19366a1165c63ef78156.54.llvm.9535741174144106586
ffffff8040041c39 r anon.1198f2c06d4f19366a1165c63ef78156.55.llvm.9535741174144106586
ffffff8040041c3a r anon.1198f2c06d4f19366a1165c63ef78156.56.llvm.9535741174144106586
ffffff8040041c43 r anon.1198f2c06d4f19366a1165c63ef78156.59.llvm.9535741174144106586
ffffff8040041c48 r anon.1198f2c06d4f19366a1165c63ef78156.60.llvm.9535741174144106586
ffffff8040041c70 r anon.1198f2c06d4f19366a1165c63ef78156.63.llvm.9535741174144106586
ffffff8040041df0 r _ZN4core7unicode12unicode_data14case_ignorable17SHORT_OFFSET_RUNS17h571984fab65c1f11E
ffffff8040041e84 R _ZN4core7unicode12unicode_data9uppercase19BITSET_INDEX_CHUNKS17h924707a15719c5eeE
ffffff8040041f98 R _ZN4core7unicode12unicode_data9uppercase16BITSET_CANONICAL17hdad8599cdad08062E
ffffff80400420f8 R _ZN4core7unicode12unicode_data9uppercase14BITSET_MAPPING17hc7103a270f620d3eE
ffffff8040042160 r anon.485ca6242689456d19ba496875cf12b6.0.llvm.12082781206272058333
ffffff80400421a0 r anon.485ca6242689456d19ba496875cf12b6.1.llvm.12082781206272058333
ffffff8040042836 r anon.8dc846a9f96bf21db191b8a1bfb352f8.20.llvm.9432908643497483760
ffffff8040043370 r anon.46d89209711f9f83955ecd1dd26890b4.38.llvm.2700645320598124178
ffffff80400433c8 r anon.46d89209711f9f83955ecd1dd26890b4.39.llvm.2700645320598124178
ffffff8040043498 r anon.46d89209711f9f83955ecd1dd26890b4.40.llvm.2700645320598124178
ffffff804004367e r anon.46d89209711f9f83955ecd1dd26890b4.41.llvm.2700645320598124178
ffffff80400436ce r anon.46d89209711f9f83955ecd1dd26890b4.42.llvm.2700645320598124178
ffffff80400437f0 r anon.46d89209711f9f83955ecd1dd26890b4.43.llvm.2700645320598124178
ffffff8040043b80 r anon.172387e7839276ae97368b029729dc0a.5.llvm.3893159626292103560
ffffff8040043bc1 r anon.172387e7839276ae97368b029729dc0a.8.llvm.3893159626292103560
ffffff8040043bf8 r anon.172387e7839276ae97368b029729dc0a.11.llvm.3893159626292103560
ffffff8040043c40 r anon.172387e7839276ae97368b029729dc0a.17.llvm.3893159626292103560
ffffff8040043c58 r anon.172387e7839276ae97368b029729dc0a.18.llvm.3893159626292103560
ffffff8040043c88 r anon.172387e7839276ae97368b029729dc0a.19.llvm.3893159626292103560
ffffff8040043ca0 r anon.172387e7839276ae97368b029729dc0a.20.llvm.3893159626292103560
ffffff8040043ca1 r anon.172387e7839276ae97368b029729dc0a.21.llvm.3893159626292103560
ffffff8040043ca2 r anon.172387e7839276ae97368b029729dc0a.22.llvm.3893159626292103560
ffffff8040043ca5 r anon.172387e7839276ae97368b029729dc0a.23.llvm.3893159626292103560
ffffff8040043ca8 r anon.172387e7839276ae97368b029729dc0a.24.llvm.3893159626292103560
ffffff8040043cb0 r anon.172387e7839276ae97368b029729dc0a.25.llvm.3893159626292103560
ffffff8040043cc8 r anon.172387e7839276ae97368b029729dc0a.26.llvm.3893159626292103560
ffffff8040043ce0 r anon.172387e7839276ae97368b029729dc0a.27.llvm.3893159626292103560
ffffff8040043d10 r anon.172387e7839276ae97368b029729dc0a.28.llvm.3893159626292103560
ffffff8040043d28 r anon.172387e7839276ae97368b029729dc0a.29.llvm.3893159626292103560
ffffff8040043d2b r anon.172387e7839276ae97368b029729dc0a.30.llvm.3893159626292103560
ffffff8040043f48 r anon.4c56c34d586b35391f85b49fa96b39df.10.llvm.16961051346025405127
ffffff8040043f60 r anon.4c56c34d586b35391f85b49fa96b39df.11.llvm.16961051346025405127
ffffff8040043f78 r anon.4c56c34d586b35391f85b49fa96b39df.12.llvm.16961051346025405127
ffffff8040043f92 r anon.4c56c34d586b35391f85b49fa96b39df.13.llvm.16961051346025405127
ffffff8040043faf r anon.4c56c34d586b35391f85b49fa96b39df.14.llvm.16961051346025405127
ffffff8040044060 r anon.37d2fc54042fb4a5af179e51b83bb7c4.0.llvm.2211076484550660129
ffffff8040044080 r anon.37d2fc54042fb4a5af179e51b83bb7c4.2.llvm.2211076484550660129
ffffff8040044098 r anon.37d2fc54042fb4a5af179e51b83bb7c4.3.llvm.2211076484550660129
ffffff804004419d r anon.37d2fc54042fb4a5af179e51b83bb7c4.12.llvm.2211076484550660129
ffffff8040044278 R _ZN4core7unicode12unicode_data11white_space14WHITESPACE_MAP17hf08ee94ea3772379E
ffffff804004a64c r _ZN4core7unicode12unicode_data1n7OFFSETS17h999a1a5bd38a9699E
ffffff804004aa08 r _ZN4core3num7dec2flt5table17POWER_OF_FIVE_12817hf84ae843a47570e6E
ffffff804004d400 r _ZN4core7unicode12unicode_data1n17SHORT_OFFSET_RUNS17hdd5185bc20234de7E
ffffff804004d4ac r _ZN4core7unicode12unicode_data5cased7OFFSETS17h6961e3465b0a236cE
ffffff804004d6ac r _ZN4core3num7flt2dec8strategy6dragon5POW1017h2d8604462f5cd234E
ffffff804004d6d4 r _ZN4core3num7flt2dec8strategy6dragon8POW5TO1617h89855e8442755896E
ffffff804004d6dc r _ZN4core3num7flt2dec8strategy6dragon8POW5TO3217h27b1751d8b63b491E
ffffff804004d6e8 r _ZN4core3num7flt2dec8strategy6dragon8POW5TO6417h0165b197902b5f4bE
ffffff804004d6fc r _ZN4core3num7flt2dec8strategy6dragon9POW5TO12817h8b779f432a68501cE
ffffff804004d724 r _ZN4core3num7flt2dec8strategy6dragon9POW5TO25617ha7c1de7186dba8dfE
ffffff804004daa0 r _ZN4core7unicode12unicode_data5cased17SHORT_OFFSET_RUNS17h589f3f7659082933E
ffffff804004daf8 r _ZN17compiler_builtins4math9libm_math5exp2f6EXP2FT17h6075f2d26e3d5734E.llvm.1722759012005718587
ffffff804004db78 r anon.ce6ecb51b2a9dacfb4ca017c691b7131.1.llvm.14252317341709278760
ffffff804004db90 r anon.76b76ad1428f1db44bd58e8d3a266f9f.1.llvm.3232025646750124041
ffffff804004dbb0 r _ZN17compiler_builtins4math9libm_math4exp23TBL17h3192790a7ba3bc16E.llvm.2900942273578064359
ffffff804004ed40 r anon.bc016b4fd095a4bc1da723e6e55d086b.1.llvm.8575320972211673955
ffffff804004f878 R _ZN17compiler_builtins4math9libm_math7generic4sqrt9RSQRT_TAB17hd1a62d67c5e253edE
ffffff8040050000 D _ZN5alloc4sync18STATIC_INNER_SLICE17h1726419a5cb165bcE
ffffff8040051000 b _ZN12cohesix_root9allocator6OFFSET17h46fbf73522a458abE.0
ffffff8040051000 B __bss_start
ffffff8040051008 B VALIDATOR_HANDLE
ffffff8040051010 B SRV_HANDLE
ffffff8040051018 B CUDA_HANDLE
ffffff8040051020 B __bss_end
ffffff8040052000 D __heap_start
ffffff8040152000 D __heap_end
ffffff8040152000 D __stack_start
ffffff8040162000 D __stack_end
